
Gateway_v01_without_PLC_source_ver3_2.elf:     file format elf32-littlearm

Sections:
Idx Name          Size      VMA       LMA       File off  Algn
  0 .text         0000b1a4  00000000  00000000  00010000  2**2
                  CONTENTS, ALLOC, LOAD, READONLY, CODE
  1 .relocate     00000094  20000000  0000b1a4  00020000  2**2
                  CONTENTS, ALLOC, LOAD, DATA
  2 .bss          00000cc8  20000094  0000b238  00020094  2**2
                  ALLOC
  3 .stack        00002004  20000d5c  0000bf00  00020094  2**0
                  ALLOC
  4 .ARM.attributes 00000028  00000000  00000000  00020094  2**0
                  CONTENTS, READONLY
  5 .comment      0000008c  00000000  00000000  000200bc  2**0
                  CONTENTS, READONLY
  6 .debug_info   0007305a  00000000  00000000  00020148  2**0
                  CONTENTS, READONLY, DEBUGGING
  7 .debug_abbrev 0000b788  00000000  00000000  000931a2  2**0
                  CONTENTS, READONLY, DEBUGGING
  8 .debug_loc    00018847  00000000  00000000  0009e92a  2**0
                  CONTENTS, READONLY, DEBUGGING
  9 .debug_aranges 00001240  00000000  00000000  000b7171  2**0
                  CONTENTS, READONLY, DEBUGGING
 10 .debug_ranges 00001c20  00000000  00000000  000b83b1  2**0
                  CONTENTS, READONLY, DEBUGGING
 11 .debug_macro  0002abce  00000000  00000000  000b9fd1  2**0
                  CONTENTS, READONLY, DEBUGGING
 12 .debug_line   0002e4a4  00000000  00000000  000e4b9f  2**0
                  CONTENTS, READONLY, DEBUGGING
 13 .debug_str    00095667  00000000  00000000  00113043  2**0
                  CONTENTS, READONLY, DEBUGGING
 14 .debug_frame  000038e8  00000000  00000000  001a86ac  2**2
                  CONTENTS, READONLY, DEBUGGING

Disassembly of section .text:

00000000 <exception_table>:
       0:	60 2d 00 20 31 57 00 00 2d 57 00 00 2d 57 00 00     `-. 1W..-W..-W..
	...
      2c:	2d 57 00 00 00 00 00 00 00 00 00 00 2d 57 00 00     -W..........-W..
      3c:	2d 57 00 00 2d 57 00 00 2d 57 00 00 2d 57 00 00     -W..-W..-W..-W..
      4c:	2d 57 00 00 8d 41 00 00 2d 57 00 00 2d 57 00 00     -W...A..-W..-W..
      5c:	2d 57 00 00 2d 57 00 00 f9 46 00 00 09 47 00 00     -W..-W...F...G..
      6c:	19 47 00 00 29 47 00 00 39 47 00 00 49 47 00 00     .G..)G..9G..IG..
      7c:	99 38 00 00 a9 38 00 00 b9 38 00 00 0d 54 00 00     .8...8...8...T..
      8c:	1d 54 00 00 2d 54 00 00 00 00 00 00 00 00 00 00     .T..-T..........
      9c:	2d 57 00 00 2d 57 00 00 00 00 00 00 2d 57 00 00     -W..-W......-W..
	...

000000b4 <__do_global_dtors_aux>:
      b4:	b510      	push	{r4, lr}
      b6:	4c06      	ldr	r4, [pc, #24]	; (d0 <__do_global_dtors_aux+0x1c>)
      b8:	7823      	ldrb	r3, [r4, #0]
      ba:	2b00      	cmp	r3, #0
      bc:	d107      	bne.n	ce <__do_global_dtors_aux+0x1a>
      be:	4b05      	ldr	r3, [pc, #20]	; (d4 <__do_global_dtors_aux+0x20>)
      c0:	2b00      	cmp	r3, #0
      c2:	d002      	beq.n	ca <__do_global_dtors_aux+0x16>
      c4:	4804      	ldr	r0, [pc, #16]	; (d8 <__do_global_dtors_aux+0x24>)
      c6:	e000      	b.n	ca <__do_global_dtors_aux+0x16>
      c8:	bf00      	nop
      ca:	2301      	movs	r3, #1
      cc:	7023      	strb	r3, [r4, #0]
      ce:	bd10      	pop	{r4, pc}
      d0:	20000094 	.word	0x20000094
      d4:	00000000 	.word	0x00000000
      d8:	0000b1a4 	.word	0x0000b1a4

000000dc <frame_dummy>:
      dc:	4b08      	ldr	r3, [pc, #32]	; (100 <frame_dummy+0x24>)
      de:	b510      	push	{r4, lr}
      e0:	2b00      	cmp	r3, #0
      e2:	d003      	beq.n	ec <frame_dummy+0x10>
      e4:	4907      	ldr	r1, [pc, #28]	; (104 <frame_dummy+0x28>)
      e6:	4808      	ldr	r0, [pc, #32]	; (108 <frame_dummy+0x2c>)
      e8:	e000      	b.n	ec <frame_dummy+0x10>
      ea:	bf00      	nop
      ec:	4807      	ldr	r0, [pc, #28]	; (10c <frame_dummy+0x30>)
      ee:	6803      	ldr	r3, [r0, #0]
      f0:	2b00      	cmp	r3, #0
      f2:	d100      	bne.n	f6 <frame_dummy+0x1a>
      f4:	bd10      	pop	{r4, pc}
      f6:	4b06      	ldr	r3, [pc, #24]	; (110 <frame_dummy+0x34>)
      f8:	2b00      	cmp	r3, #0
      fa:	d0fb      	beq.n	f4 <frame_dummy+0x18>
      fc:	4798      	blx	r3
      fe:	e7f9      	b.n	f4 <frame_dummy+0x18>
     100:	00000000 	.word	0x00000000
     104:	20000098 	.word	0x20000098
     108:	0000b1a4 	.word	0x0000b1a4
     10c:	0000b1a4 	.word	0x0000b1a4
     110:	00000000 	.word	0x00000000

00000114 <chip_isr>:
     114:	b510      	push	{r4, lr}
     116:	4b03      	ldr	r3, [pc, #12]	; (124 <chip_isr+0x10>)
     118:	681b      	ldr	r3, [r3, #0]
     11a:	2b00      	cmp	r3, #0
     11c:	d000      	beq.n	120 <chip_isr+0xc>
     11e:	4798      	blx	r3
     120:	bd10      	pop	{r4, pc}
     122:	46c0      	nop			; (mov r8, r8)
     124:	200000b0 	.word	0x200000b0

00000128 <nm_bsp_sleep>:
     128:	b570      	push	{r4, r5, r6, lr}
     12a:	1e44      	subs	r4, r0, #1
     12c:	2800      	cmp	r0, #0
     12e:	d004      	beq.n	13a <nm_bsp_sleep+0x12>
     130:	4d02      	ldr	r5, [pc, #8]	; (13c <nm_bsp_sleep+0x14>)
     132:	2001      	movs	r0, #1
     134:	47a8      	blx	r5
     136:	3c01      	subs	r4, #1
     138:	d2fb      	bcs.n	132 <nm_bsp_sleep+0xa>
     13a:	bd70      	pop	{r4, r5, r6, pc}
     13c:	00004085 	.word	0x00004085

00000140 <nm_bsp_reset>:
     140:	b5f8      	push	{r3, r4, r5, r6, r7, lr}
     142:	4c07      	ldr	r4, [pc, #28]	; (160 <nm_bsp_reset+0x20>)
     144:	2780      	movs	r7, #128	; 0x80
     146:	043f      	lsls	r7, r7, #16
     148:	6167      	str	r7, [r4, #20]
     14a:	2580      	movs	r5, #128	; 0x80
     14c:	01ad      	lsls	r5, r5, #6
     14e:	6165      	str	r5, [r4, #20]
     150:	2001      	movs	r0, #1
     152:	4e04      	ldr	r6, [pc, #16]	; (164 <nm_bsp_reset+0x24>)
     154:	47b0      	blx	r6
     156:	61a7      	str	r7, [r4, #24]
     158:	200a      	movs	r0, #10
     15a:	47b0      	blx	r6
     15c:	61a5      	str	r5, [r4, #24]
     15e:	bdf8      	pop	{r3, r4, r5, r6, r7, pc}
     160:	41004400 	.word	0x41004400
     164:	00000129 	.word	0x00000129

00000168 <nm_bsp_init>:
     168:	b570      	push	{r4, r5, r6, lr}
     16a:	b082      	sub	sp, #8
     16c:	2300      	movs	r3, #0
     16e:	4a16      	ldr	r2, [pc, #88]	; (1c8 <nm_bsp_init+0x60>)
     170:	6013      	str	r3, [r2, #0]
     172:	ac01      	add	r4, sp, #4
     174:	2501      	movs	r5, #1
     176:	7065      	strb	r5, [r4, #1]
     178:	70a3      	strb	r3, [r4, #2]
     17a:	7025      	strb	r5, [r4, #0]
     17c:	0021      	movs	r1, r4
     17e:	200d      	movs	r0, #13
     180:	4e12      	ldr	r6, [pc, #72]	; (1cc <nm_bsp_init+0x64>)
     182:	47b0      	blx	r6
     184:	0021      	movs	r1, r4
     186:	2017      	movs	r0, #23
     188:	47b0      	blx	r6
     18a:	0021      	movs	r1, r4
     18c:	201c      	movs	r0, #28
     18e:	47b0      	blx	r6
     190:	4b0f      	ldr	r3, [pc, #60]	; (1d0 <nm_bsp_init+0x68>)
     192:	2280      	movs	r2, #128	; 0x80
     194:	0412      	lsls	r2, r2, #16
     196:	615a      	str	r2, [r3, #20]
     198:	2280      	movs	r2, #128	; 0x80
     19a:	0192      	lsls	r2, r2, #6
     19c:	615a      	str	r2, [r3, #20]
     19e:	4b0d      	ldr	r3, [pc, #52]	; (1d4 <nm_bsp_init+0x6c>)
     1a0:	681b      	ldr	r3, [r3, #0]
     1a2:	421d      	tst	r5, r3
     1a4:	d003      	beq.n	1ae <nm_bsp_init+0x46>
     1a6:	4b0b      	ldr	r3, [pc, #44]	; (1d4 <nm_bsp_init+0x6c>)
     1a8:	681b      	ldr	r3, [r3, #0]
     1aa:	079b      	lsls	r3, r3, #30
     1ac:	d401      	bmi.n	1b2 <nm_bsp_init+0x4a>
     1ae:	4b0a      	ldr	r3, [pc, #40]	; (1d8 <nm_bsp_init+0x70>)
     1b0:	4798      	blx	r3
     1b2:	4b0a      	ldr	r3, [pc, #40]	; (1dc <nm_bsp_init+0x74>)
     1b4:	4798      	blx	r3
     1b6:	2201      	movs	r2, #1
     1b8:	4b09      	ldr	r3, [pc, #36]	; (1e0 <nm_bsp_init+0x78>)
     1ba:	701a      	strb	r2, [r3, #0]
     1bc:	f3bf 8f5f 	dmb	sy
     1c0:	b662      	cpsie	i
     1c2:	2000      	movs	r0, #0
     1c4:	b002      	add	sp, #8
     1c6:	bd70      	pop	{r4, r5, r6, pc}
     1c8:	200000b0 	.word	0x200000b0
     1cc:	000042f1 	.word	0x000042f1
     1d0:	41004400 	.word	0x41004400
     1d4:	e000e010 	.word	0xe000e010
     1d8:	00004019 	.word	0x00004019
     1dc:	00000141 	.word	0x00000141
     1e0:	2000000c 	.word	0x2000000c

000001e4 <nm_bsp_register_isr>:
     1e4:	b510      	push	{r4, lr}
     1e6:	b084      	sub	sp, #16
     1e8:	4b0e      	ldr	r3, [pc, #56]	; (224 <nm_bsp_register_isr+0x40>)
     1ea:	6018      	str	r0, [r3, #0]
     1ec:	ac01      	add	r4, sp, #4
     1ee:	0020      	movs	r0, r4
     1f0:	4b0d      	ldr	r3, [pc, #52]	; (228 <nm_bsp_register_isr+0x44>)
     1f2:	4798      	blx	r3
     1f4:	230e      	movs	r3, #14
     1f6:	9301      	str	r3, [sp, #4]
     1f8:	2300      	movs	r3, #0
     1fa:	6063      	str	r3, [r4, #4]
     1fc:	3301      	adds	r3, #1
     1fe:	7223      	strb	r3, [r4, #8]
     200:	3301      	adds	r3, #1
     202:	72e3      	strb	r3, [r4, #11]
     204:	0021      	movs	r1, r4
     206:	200e      	movs	r0, #14
     208:	4b08      	ldr	r3, [pc, #32]	; (22c <nm_bsp_register_isr+0x48>)
     20a:	4798      	blx	r3
     20c:	2200      	movs	r2, #0
     20e:	210e      	movs	r1, #14
     210:	4807      	ldr	r0, [pc, #28]	; (230 <nm_bsp_register_isr+0x4c>)
     212:	4b08      	ldr	r3, [pc, #32]	; (234 <nm_bsp_register_isr+0x50>)
     214:	4798      	blx	r3
     216:	2100      	movs	r1, #0
     218:	200e      	movs	r0, #14
     21a:	4b07      	ldr	r3, [pc, #28]	; (238 <nm_bsp_register_isr+0x54>)
     21c:	4798      	blx	r3
     21e:	b004      	add	sp, #16
     220:	bd10      	pop	{r4, pc}
     222:	46c0      	nop			; (mov r8, r8)
     224:	200000b0 	.word	0x200000b0
     228:	00004265 	.word	0x00004265
     22c:	00004279 	.word	0x00004279
     230:	00000115 	.word	0x00000115
     234:	00004121 	.word	0x00004121
     238:	0000414d 	.word	0x0000414d

0000023c <nm_bsp_interrupt_ctrl>:
     23c:	b510      	push	{r4, lr}
     23e:	2800      	cmp	r0, #0
     240:	d104      	bne.n	24c <nm_bsp_interrupt_ctrl+0x10>
     242:	2100      	movs	r1, #0
     244:	200e      	movs	r0, #14
     246:	4b04      	ldr	r3, [pc, #16]	; (258 <nm_bsp_interrupt_ctrl+0x1c>)
     248:	4798      	blx	r3
     24a:	bd10      	pop	{r4, pc}
     24c:	2100      	movs	r1, #0
     24e:	200e      	movs	r0, #14
     250:	4b02      	ldr	r3, [pc, #8]	; (25c <nm_bsp_interrupt_ctrl+0x20>)
     252:	4798      	blx	r3
     254:	e7f9      	b.n	24a <nm_bsp_interrupt_ctrl+0xe>
     256:	46c0      	nop			; (mov r8, r8)
     258:	0000416d 	.word	0x0000416d
     25c:	0000414d 	.word	0x0000414d

00000260 <nm_bus_init>:
     260:	b530      	push	{r4, r5, lr}
     262:	b091      	sub	sp, #68	; 0x44
     264:	4c30      	ldr	r4, [pc, #192]	; (328 <nm_bus_init+0xc8>)
     266:	2311      	movs	r3, #17
     268:	7023      	strb	r3, [r4, #0]
     26a:	2300      	movs	r3, #0
     26c:	7063      	strb	r3, [r4, #1]
     26e:	70a3      	strb	r3, [r4, #2]
     270:	a901      	add	r1, sp, #4
     272:	2201      	movs	r2, #1
     274:	704a      	strb	r2, [r1, #1]
     276:	708b      	strb	r3, [r1, #2]
     278:	700a      	strb	r2, [r1, #0]
     27a:	2011      	movs	r0, #17
     27c:	4b2b      	ldr	r3, [pc, #172]	; (32c <nm_bus_init+0xcc>)
     27e:	4798      	blx	r3
     280:	7822      	ldrb	r2, [r4, #0]
     282:	09d1      	lsrs	r1, r2, #7
     284:	2300      	movs	r3, #0
     286:	2900      	cmp	r1, #0
     288:	d104      	bne.n	294 <nm_bus_init+0x34>
     28a:	0953      	lsrs	r3, r2, #5
     28c:	01db      	lsls	r3, r3, #7
     28e:	4928      	ldr	r1, [pc, #160]	; (330 <nm_bus_init+0xd0>)
     290:	468c      	mov	ip, r1
     292:	4463      	add	r3, ip
     294:	211f      	movs	r1, #31
     296:	4011      	ands	r1, r2
     298:	2201      	movs	r2, #1
     29a:	0010      	movs	r0, r2
     29c:	4088      	lsls	r0, r1
     29e:	6198      	str	r0, [r3, #24]
     2a0:	ac02      	add	r4, sp, #8
     2a2:	7022      	strb	r2, [r4, #0]
     2a4:	2300      	movs	r3, #0
     2a6:	9303      	str	r3, [sp, #12]
     2a8:	9304      	str	r3, [sp, #16]
     2aa:	7423      	strb	r3, [r4, #16]
     2ac:	7463      	strb	r3, [r4, #17]
     2ae:	74a2      	strb	r2, [r4, #18]
     2b0:	74e2      	strb	r2, [r4, #19]
     2b2:	7523      	strb	r3, [r4, #20]
     2b4:	3223      	adds	r2, #35	; 0x23
     2b6:	54a3      	strb	r3, [r4, r2]
     2b8:	3a18      	subs	r2, #24
     2ba:	2100      	movs	r1, #0
     2bc:	a808      	add	r0, sp, #32
     2be:	4b1d      	ldr	r3, [pc, #116]	; (334 <nm_bus_init+0xd4>)
     2c0:	4798      	blx	r3
     2c2:	2380      	movs	r3, #128	; 0x80
     2c4:	025b      	lsls	r3, r3, #9
     2c6:	60e3      	str	r3, [r4, #12]
     2c8:	4b1b      	ldr	r3, [pc, #108]	; (338 <nm_bus_init+0xd8>)
     2ca:	62a3      	str	r3, [r4, #40]	; 0x28
     2cc:	2301      	movs	r3, #1
     2ce:	425b      	negs	r3, r3
     2d0:	62e3      	str	r3, [r4, #44]	; 0x2c
     2d2:	4b1a      	ldr	r3, [pc, #104]	; (33c <nm_bus_init+0xdc>)
     2d4:	6323      	str	r3, [r4, #48]	; 0x30
     2d6:	4b1a      	ldr	r3, [pc, #104]	; (340 <nm_bus_init+0xe0>)
     2d8:	6363      	str	r3, [r4, #52]	; 0x34
     2da:	4b1a      	ldr	r3, [pc, #104]	; (344 <nm_bus_init+0xe4>)
     2dc:	61a3      	str	r3, [r4, #24]
     2de:	0022      	movs	r2, r4
     2e0:	4919      	ldr	r1, [pc, #100]	; (348 <nm_bus_init+0xe8>)
     2e2:	481a      	ldr	r0, [pc, #104]	; (34c <nm_bus_init+0xec>)
     2e4:	4b1a      	ldr	r3, [pc, #104]	; (350 <nm_bus_init+0xf0>)
     2e6:	4798      	blx	r3
     2e8:	2800      	cmp	r0, #0
     2ea:	d11a      	bne.n	322 <nm_bus_init+0xc2>
     2ec:	4d17      	ldr	r5, [pc, #92]	; (34c <nm_bus_init+0xec>)
     2ee:	682c      	ldr	r4, [r5, #0]
     2f0:	0020      	movs	r0, r4
     2f2:	4b18      	ldr	r3, [pc, #96]	; (354 <nm_bus_init+0xf4>)
     2f4:	4798      	blx	r3
     2f6:	231f      	movs	r3, #31
     2f8:	4018      	ands	r0, r3
     2fa:	3b1e      	subs	r3, #30
     2fc:	4083      	lsls	r3, r0
     2fe:	4a16      	ldr	r2, [pc, #88]	; (358 <nm_bus_init+0xf8>)
     300:	6013      	str	r3, [r2, #0]
     302:	682a      	ldr	r2, [r5, #0]
     304:	69d3      	ldr	r3, [r2, #28]
     306:	2b00      	cmp	r3, #0
     308:	d1fc      	bne.n	304 <nm_bus_init+0xa4>
     30a:	6823      	ldr	r3, [r4, #0]
     30c:	2202      	movs	r2, #2
     30e:	4313      	orrs	r3, r2
     310:	6023      	str	r3, [r4, #0]
     312:	4b12      	ldr	r3, [pc, #72]	; (35c <nm_bus_init+0xfc>)
     314:	4798      	blx	r3
     316:	2001      	movs	r0, #1
     318:	4b11      	ldr	r3, [pc, #68]	; (360 <nm_bus_init+0x100>)
     31a:	4798      	blx	r3
     31c:	2000      	movs	r0, #0
     31e:	b011      	add	sp, #68	; 0x44
     320:	bd30      	pop	{r4, r5, pc}
     322:	2006      	movs	r0, #6
     324:	4240      	negs	r0, r0
     326:	e7fa      	b.n	31e <nm_bus_init+0xbe>
     328:	200009dc 	.word	0x200009dc
     32c:	000042f1 	.word	0x000042f1
     330:	41004400 	.word	0x41004400
     334:	00008bc3 	.word	0x00008bc3
     338:	00100003 	.word	0x00100003
     33c:	00120003 	.word	0x00120003
     340:	00130003 	.word	0x00130003
     344:	00b71b00 	.word	0x00b71b00
     348:	42001400 	.word	0x42001400
     34c:	200009e0 	.word	0x200009e0
     350:	00004759 	.word	0x00004759
     354:	000046c9 	.word	0x000046c9
     358:	e000e100 	.word	0xe000e100
     35c:	00000141 	.word	0x00000141
     360:	00000129 	.word	0x00000129

00000364 <nm_bus_ioctl>:
     364:	b5f0      	push	{r4, r5, r6, r7, lr}
     366:	46de      	mov	lr, fp
     368:	4657      	mov	r7, sl
     36a:	464e      	mov	r6, r9
     36c:	4645      	mov	r5, r8
     36e:	b5e0      	push	{r5, r6, r7, lr}
     370:	b083      	sub	sp, #12
     372:	2803      	cmp	r0, #3
     374:	d000      	beq.n	378 <nm_bus_ioctl+0x14>
     376:	e075      	b.n	464 <nm_bus_ioctl+0x100>
     378:	680e      	ldr	r6, [r1, #0]
     37a:	684d      	ldr	r5, [r1, #4]
     37c:	890c      	ldrh	r4, [r1, #8]
     37e:	2200      	movs	r2, #0
     380:	466b      	mov	r3, sp
     382:	71da      	strb	r2, [r3, #7]
     384:	2d00      	cmp	r5, #0
     386:	d027      	beq.n	3d8 <nm_bus_ioctl+0x74>
     388:	2c00      	cmp	r4, #0
     38a:	d065      	beq.n	458 <nm_bus_ioctl+0xf4>
     38c:	2e00      	cmp	r6, #0
     38e:	d100      	bne.n	392 <nm_bus_ioctl+0x2e>
     390:	e076      	b.n	480 <nm_bus_ioctl+0x11c>
     392:	2300      	movs	r3, #0
     394:	4698      	mov	r8, r3
     396:	2300      	movs	r3, #0
     398:	469b      	mov	fp, r3
     39a:	2201      	movs	r2, #1
     39c:	493b      	ldr	r1, [pc, #236]	; (48c <nm_bus_ioctl+0x128>)
     39e:	483c      	ldr	r0, [pc, #240]	; (490 <nm_bus_ioctl+0x12c>)
     3a0:	4b3c      	ldr	r3, [pc, #240]	; (494 <nm_bus_ioctl+0x130>)
     3a2:	4798      	blx	r3
     3a4:	4b3a      	ldr	r3, [pc, #232]	; (490 <nm_bus_ioctl+0x12c>)
     3a6:	469a      	mov	sl, r3
     3a8:	2701      	movs	r7, #1
     3aa:	2204      	movs	r2, #4
     3ac:	4699      	mov	r9, r3
     3ae:	4659      	mov	r1, fp
     3b0:	424b      	negs	r3, r1
     3b2:	4159      	adcs	r1, r3
     3b4:	468b      	mov	fp, r1
     3b6:	7830      	ldrb	r0, [r6, #0]
     3b8:	4653      	mov	r3, sl
     3ba:	681b      	ldr	r3, [r3, #0]
     3bc:	7e19      	ldrb	r1, [r3, #24]
     3be:	4239      	tst	r1, r7
     3c0:	d0fc      	beq.n	3bc <nm_bus_ioctl+0x58>
     3c2:	7e19      	ldrb	r1, [r3, #24]
     3c4:	4239      	tst	r1, r7
     3c6:	d0fc      	beq.n	3c2 <nm_bus_ioctl+0x5e>
     3c8:	6298      	str	r0, [r3, #40]	; 0x28
     3ca:	7e19      	ldrb	r1, [r3, #24]
     3cc:	4211      	tst	r1, r2
     3ce:	d0fc      	beq.n	3ca <nm_bus_ioctl+0x66>
     3d0:	4649      	mov	r1, r9
     3d2:	7989      	ldrb	r1, [r1, #6]
     3d4:	468c      	mov	ip, r1
     3d6:	e011      	b.n	3fc <nm_bus_ioctl+0x98>
     3d8:	2e00      	cmp	r6, #0
     3da:	d03a      	beq.n	452 <nm_bus_ioctl+0xee>
     3dc:	2c00      	cmp	r4, #0
     3de:	d03e      	beq.n	45e <nm_bus_ioctl+0xfa>
     3e0:	2300      	movs	r3, #0
     3e2:	4698      	mov	r8, r3
     3e4:	3301      	adds	r3, #1
     3e6:	469b      	mov	fp, r3
     3e8:	466b      	mov	r3, sp
     3ea:	1ddd      	adds	r5, r3, #7
     3ec:	e7d5      	b.n	39a <nm_bus_ioctl+0x36>
     3ee:	4660      	mov	r0, ip
     3f0:	2801      	cmp	r0, #1
     3f2:	d00d      	beq.n	410 <nm_bus_ioctl+0xac>
     3f4:	6a98      	ldr	r0, [r3, #40]	; 0x28
     3f6:	b2c0      	uxtb	r0, r0
     3f8:	2900      	cmp	r1, #0
     3fa:	d00d      	beq.n	418 <nm_bus_ioctl+0xb4>
     3fc:	7e19      	ldrb	r1, [r3, #24]
     3fe:	4211      	tst	r1, r2
     400:	d0fc      	beq.n	3fc <nm_bus_ioctl+0x98>
     402:	8b58      	ldrh	r0, [r3, #26]
     404:	2100      	movs	r1, #0
     406:	4210      	tst	r0, r2
     408:	d0f1      	beq.n	3ee <nm_bus_ioctl+0x8a>
     40a:	835a      	strh	r2, [r3, #26]
     40c:	311e      	adds	r1, #30
     40e:	e7ee      	b.n	3ee <nm_bus_ioctl+0x8a>
     410:	6a98      	ldr	r0, [r3, #40]	; 0x28
     412:	05c0      	lsls	r0, r0, #23
     414:	0dc0      	lsrs	r0, r0, #23
     416:	e7ef      	b.n	3f8 <nm_bus_ioctl+0x94>
     418:	7028      	strb	r0, [r5, #0]
     41a:	3c01      	subs	r4, #1
     41c:	b2a4      	uxth	r4, r4
     41e:	445d      	add	r5, fp
     420:	4643      	mov	r3, r8
     422:	4259      	negs	r1, r3
     424:	414b      	adcs	r3, r1
     426:	18f6      	adds	r6, r6, r3
     428:	2c00      	cmp	r4, #0
     42a:	d1c4      	bne.n	3b6 <nm_bus_ioctl+0x52>
     42c:	4b18      	ldr	r3, [pc, #96]	; (490 <nm_bus_ioctl+0x12c>)
     42e:	6819      	ldr	r1, [r3, #0]
     430:	2202      	movs	r2, #2
     432:	7e0b      	ldrb	r3, [r1, #24]
     434:	4213      	tst	r3, r2
     436:	d0fc      	beq.n	432 <nm_bus_ioctl+0xce>
     438:	2200      	movs	r2, #0
     43a:	4914      	ldr	r1, [pc, #80]	; (48c <nm_bus_ioctl+0x128>)
     43c:	4814      	ldr	r0, [pc, #80]	; (490 <nm_bus_ioctl+0x12c>)
     43e:	4b15      	ldr	r3, [pc, #84]	; (494 <nm_bus_ioctl+0x130>)
     440:	4798      	blx	r3
     442:	2000      	movs	r0, #0
     444:	b003      	add	sp, #12
     446:	bc3c      	pop	{r2, r3, r4, r5}
     448:	4690      	mov	r8, r2
     44a:	4699      	mov	r9, r3
     44c:	46a2      	mov	sl, r4
     44e:	46ab      	mov	fp, r5
     450:	bdf0      	pop	{r4, r5, r6, r7, pc}
     452:	200f      	movs	r0, #15
     454:	4240      	negs	r0, r0
     456:	e7f5      	b.n	444 <nm_bus_ioctl+0xe0>
     458:	200f      	movs	r0, #15
     45a:	4240      	negs	r0, r0
     45c:	e7f2      	b.n	444 <nm_bus_ioctl+0xe0>
     45e:	200f      	movs	r0, #15
     460:	4240      	negs	r0, r0
     462:	e7ef      	b.n	444 <nm_bus_ioctl+0xe0>
     464:	22fd      	movs	r2, #253	; 0xfd
     466:	490c      	ldr	r1, [pc, #48]	; (498 <nm_bus_ioctl+0x134>)
     468:	480c      	ldr	r0, [pc, #48]	; (49c <nm_bus_ioctl+0x138>)
     46a:	4b0d      	ldr	r3, [pc, #52]	; (4a0 <nm_bus_ioctl+0x13c>)
     46c:	4798      	blx	r3
     46e:	480d      	ldr	r0, [pc, #52]	; (4a4 <nm_bus_ioctl+0x140>)
     470:	4b0d      	ldr	r3, [pc, #52]	; (4a8 <nm_bus_ioctl+0x144>)
     472:	4798      	blx	r3
     474:	200d      	movs	r0, #13
     476:	4b0d      	ldr	r3, [pc, #52]	; (4ac <nm_bus_ioctl+0x148>)
     478:	4798      	blx	r3
     47a:	2001      	movs	r0, #1
     47c:	4240      	negs	r0, r0
     47e:	e7e1      	b.n	444 <nm_bus_ioctl+0xe0>
     480:	2301      	movs	r3, #1
     482:	4698      	mov	r8, r3
     484:	466b      	mov	r3, sp
     486:	1dde      	adds	r6, r3, #7
     488:	e785      	b.n	396 <nm_bus_ioctl+0x32>
     48a:	46c0      	nop			; (mov r8, r8)
     48c:	200009dc 	.word	0x200009dc
     490:	200009e0 	.word	0x200009e0
     494:	00004931 	.word	0x00004931
     498:	00009e18 	.word	0x00009e18
     49c:	00009e28 	.word	0x00009e28
     4a0:	00008bd5 	.word	0x00008bd5
     4a4:	00009e3c 	.word	0x00009e3c
     4a8:	00008cf1 	.word	0x00008cf1
     4ac:	00008c09 	.word	0x00008c09

000004b0 <nm_bus_deinit>:
     4b0:	b530      	push	{r4, r5, lr}
     4b2:	b083      	sub	sp, #12
     4b4:	ab01      	add	r3, sp, #4
     4b6:	2200      	movs	r2, #0
     4b8:	701a      	strb	r2, [r3, #0]
     4ba:	709a      	strb	r2, [r3, #2]
     4bc:	705a      	strb	r2, [r3, #1]
     4be:	4d13      	ldr	r5, [pc, #76]	; (50c <nm_bus_deinit+0x5c>)
     4c0:	682c      	ldr	r4, [r5, #0]
     4c2:	0020      	movs	r0, r4
     4c4:	4b12      	ldr	r3, [pc, #72]	; (510 <nm_bus_deinit+0x60>)
     4c6:	4798      	blx	r3
     4c8:	231f      	movs	r3, #31
     4ca:	4018      	ands	r0, r3
     4cc:	3b1e      	subs	r3, #30
     4ce:	4083      	lsls	r3, r0
     4d0:	2280      	movs	r2, #128	; 0x80
     4d2:	4910      	ldr	r1, [pc, #64]	; (514 <nm_bus_deinit+0x64>)
     4d4:	508b      	str	r3, [r1, r2]
     4d6:	682a      	ldr	r2, [r5, #0]
     4d8:	69d3      	ldr	r3, [r2, #28]
     4da:	2b00      	cmp	r3, #0
     4dc:	d1fc      	bne.n	4d8 <nm_bus_deinit+0x28>
     4de:	338f      	adds	r3, #143	; 0x8f
     4e0:	7523      	strb	r3, [r4, #20]
     4e2:	7623      	strb	r3, [r4, #24]
     4e4:	6823      	ldr	r3, [r4, #0]
     4e6:	2202      	movs	r2, #2
     4e8:	4393      	bics	r3, r2
     4ea:	6023      	str	r3, [r4, #0]
     4ec:	a901      	add	r1, sp, #4
     4ee:	2012      	movs	r0, #18
     4f0:	4c09      	ldr	r4, [pc, #36]	; (518 <nm_bus_deinit+0x68>)
     4f2:	47a0      	blx	r4
     4f4:	a901      	add	r1, sp, #4
     4f6:	2010      	movs	r0, #16
     4f8:	47a0      	blx	r4
     4fa:	a901      	add	r1, sp, #4
     4fc:	2013      	movs	r0, #19
     4fe:	47a0      	blx	r4
     500:	a901      	add	r1, sp, #4
     502:	2011      	movs	r0, #17
     504:	47a0      	blx	r4
     506:	2000      	movs	r0, #0
     508:	b003      	add	sp, #12
     50a:	bd30      	pop	{r4, r5, pc}
     50c:	200009e0 	.word	0x200009e0
     510:	000046c9 	.word	0x000046c9
     514:	e000e100 	.word	0xe000e100
     518:	000042f1 	.word	0x000042f1

0000051c <m2m_memcpy>:
     51c:	2a00      	cmp	r2, #0
     51e:	d006      	beq.n	52e <m2m_memcpy+0x12>
     520:	1882      	adds	r2, r0, r2
     522:	780b      	ldrb	r3, [r1, #0]
     524:	7003      	strb	r3, [r0, #0]
     526:	3001      	adds	r0, #1
     528:	3101      	adds	r1, #1
     52a:	4290      	cmp	r0, r2
     52c:	d1f9      	bne.n	522 <m2m_memcpy+0x6>
     52e:	4770      	bx	lr

00000530 <m2m_memset>:
     530:	2a00      	cmp	r2, #0
     532:	d004      	beq.n	53e <m2m_memset+0xe>
     534:	1882      	adds	r2, r0, r2
     536:	7001      	strb	r1, [r0, #0]
     538:	3001      	adds	r0, #1
     53a:	4290      	cmp	r0, r2
     53c:	d1fb      	bne.n	536 <m2m_memset+0x6>
     53e:	4770      	bx	lr

00000540 <m2m_strlen>:
     540:	0003      	movs	r3, r0
     542:	7802      	ldrb	r2, [r0, #0]
     544:	2a00      	cmp	r2, #0
     546:	d007      	beq.n	558 <m2m_strlen+0x18>
     548:	2000      	movs	r0, #0
     54a:	3001      	adds	r0, #1
     54c:	b280      	uxth	r0, r0
     54e:	3301      	adds	r3, #1
     550:	781a      	ldrb	r2, [r3, #0]
     552:	2a00      	cmp	r2, #0
     554:	d1f9      	bne.n	54a <m2m_strlen+0xa>
     556:	4770      	bx	lr
     558:	2000      	movs	r0, #0
     55a:	e7fc      	b.n	556 <m2m_strlen+0x16>

0000055c <isr>:
     55c:	4a02      	ldr	r2, [pc, #8]	; (568 <isr+0xc>)
     55e:	78d3      	ldrb	r3, [r2, #3]
     560:	3301      	adds	r3, #1
     562:	b2db      	uxtb	r3, r3
     564:	70d3      	strb	r3, [r2, #3]
     566:	4770      	bx	lr
     568:	20000a1c 	.word	0x20000a1c

0000056c <m2m_hif_cb>:
     56c:	4770      	bx	lr
	...

00000570 <hif_set_rx_done>:
     570:	b500      	push	{lr}
     572:	b083      	sub	sp, #12
     574:	2200      	movs	r2, #0
     576:	4b0a      	ldr	r3, [pc, #40]	; (5a0 <hif_set_rx_done+0x30>)
     578:	709a      	strb	r2, [r3, #2]
     57a:	2001      	movs	r0, #1
     57c:	4b09      	ldr	r3, [pc, #36]	; (5a4 <hif_set_rx_done+0x34>)
     57e:	4798      	blx	r3
     580:	a901      	add	r1, sp, #4
     582:	4809      	ldr	r0, [pc, #36]	; (5a8 <hif_set_rx_done+0x38>)
     584:	4b09      	ldr	r3, [pc, #36]	; (5ac <hif_set_rx_done+0x3c>)
     586:	4798      	blx	r3
     588:	2800      	cmp	r0, #0
     58a:	d001      	beq.n	590 <hif_set_rx_done+0x20>
     58c:	b003      	add	sp, #12
     58e:	bd00      	pop	{pc}
     590:	2102      	movs	r1, #2
     592:	9b01      	ldr	r3, [sp, #4]
     594:	4319      	orrs	r1, r3
     596:	9101      	str	r1, [sp, #4]
     598:	4803      	ldr	r0, [pc, #12]	; (5a8 <hif_set_rx_done+0x38>)
     59a:	4b05      	ldr	r3, [pc, #20]	; (5b0 <hif_set_rx_done+0x40>)
     59c:	4798      	blx	r3
     59e:	e7f5      	b.n	58c <hif_set_rx_done+0x1c>
     5a0:	20000a1c 	.word	0x20000a1c
     5a4:	0000023d 	.word	0x0000023d
     5a8:	00001070 	.word	0x00001070
     5ac:	0000197d 	.word	0x0000197d
     5b0:	00001989 	.word	0x00001989

000005b4 <hif_chip_wake>:
     5b4:	b510      	push	{r4, lr}
     5b6:	4b0c      	ldr	r3, [pc, #48]	; (5e8 <hif_chip_wake+0x34>)
     5b8:	789b      	ldrb	r3, [r3, #2]
     5ba:	2000      	movs	r0, #0
     5bc:	2b00      	cmp	r3, #0
     5be:	d10d      	bne.n	5dc <hif_chip_wake+0x28>
     5c0:	4b09      	ldr	r3, [pc, #36]	; (5e8 <hif_chip_wake+0x34>)
     5c2:	785b      	ldrb	r3, [r3, #1]
     5c4:	2b00      	cmp	r3, #0
     5c6:	d103      	bne.n	5d0 <hif_chip_wake+0x1c>
     5c8:	4b07      	ldr	r3, [pc, #28]	; (5e8 <hif_chip_wake+0x34>)
     5ca:	781b      	ldrb	r3, [r3, #0]
     5cc:	2b00      	cmp	r3, #0
     5ce:	d106      	bne.n	5de <hif_chip_wake+0x2a>
     5d0:	4a05      	ldr	r2, [pc, #20]	; (5e8 <hif_chip_wake+0x34>)
     5d2:	7853      	ldrb	r3, [r2, #1]
     5d4:	3301      	adds	r3, #1
     5d6:	b2db      	uxtb	r3, r3
     5d8:	7053      	strb	r3, [r2, #1]
     5da:	2000      	movs	r0, #0
     5dc:	bd10      	pop	{r4, pc}
     5de:	4b03      	ldr	r3, [pc, #12]	; (5ec <hif_chip_wake+0x38>)
     5e0:	4798      	blx	r3
     5e2:	2800      	cmp	r0, #0
     5e4:	d0f4      	beq.n	5d0 <hif_chip_wake+0x1c>
     5e6:	e7f9      	b.n	5dc <hif_chip_wake+0x28>
     5e8:	20000a1c 	.word	0x20000a1c
     5ec:	00001665 	.word	0x00001665

000005f0 <hif_chip_sleep_sc>:
     5f0:	4b05      	ldr	r3, [pc, #20]	; (608 <hif_chip_sleep_sc+0x18>)
     5f2:	785b      	ldrb	r3, [r3, #1]
     5f4:	2b00      	cmp	r3, #0
     5f6:	d004      	beq.n	602 <hif_chip_sleep_sc+0x12>
     5f8:	4a03      	ldr	r2, [pc, #12]	; (608 <hif_chip_sleep_sc+0x18>)
     5fa:	7853      	ldrb	r3, [r2, #1]
     5fc:	3b01      	subs	r3, #1
     5fe:	b2db      	uxtb	r3, r3
     600:	7053      	strb	r3, [r2, #1]
     602:	2000      	movs	r0, #0
     604:	4770      	bx	lr
     606:	46c0      	nop			; (mov r8, r8)
     608:	20000a1c 	.word	0x20000a1c

0000060c <hif_chip_sleep>:
     60c:	b510      	push	{r4, lr}
     60e:	4b0b      	ldr	r3, [pc, #44]	; (63c <hif_chip_sleep+0x30>)
     610:	785b      	ldrb	r3, [r3, #1]
     612:	2b00      	cmp	r3, #0
     614:	d004      	beq.n	620 <hif_chip_sleep+0x14>
     616:	4a09      	ldr	r2, [pc, #36]	; (63c <hif_chip_sleep+0x30>)
     618:	7853      	ldrb	r3, [r2, #1]
     61a:	3b01      	subs	r3, #1
     61c:	b2db      	uxtb	r3, r3
     61e:	7053      	strb	r3, [r2, #1]
     620:	4b06      	ldr	r3, [pc, #24]	; (63c <hif_chip_sleep+0x30>)
     622:	785b      	ldrb	r3, [r3, #1]
     624:	2000      	movs	r0, #0
     626:	2b00      	cmp	r3, #0
     628:	d103      	bne.n	632 <hif_chip_sleep+0x26>
     62a:	4b04      	ldr	r3, [pc, #16]	; (63c <hif_chip_sleep+0x30>)
     62c:	781b      	ldrb	r3, [r3, #0]
     62e:	2b00      	cmp	r3, #0
     630:	d100      	bne.n	634 <hif_chip_sleep+0x28>
     632:	bd10      	pop	{r4, pc}
     634:	4b02      	ldr	r3, [pc, #8]	; (640 <hif_chip_sleep+0x34>)
     636:	4798      	blx	r3
     638:	e7fb      	b.n	632 <hif_chip_sleep+0x26>
     63a:	46c0      	nop			; (mov r8, r8)
     63c:	20000a1c 	.word	0x20000a1c
     640:	000015fd 	.word	0x000015fd

00000644 <hif_send>:
     644:	b5f0      	push	{r4, r5, r6, r7, lr}
     646:	46de      	mov	lr, fp
     648:	4657      	mov	r7, sl
     64a:	b580      	push	{r7, lr}
     64c:	b089      	sub	sp, #36	; 0x24
     64e:	4683      	mov	fp, r0
     650:	468a      	mov	sl, r1
     652:	9201      	str	r2, [sp, #4]
     654:	9300      	str	r3, [sp, #0]
     656:	ab10      	add	r3, sp, #64	; 0x40
     658:	cb80      	ldmia	r3!, {r7}
     65a:	881e      	ldrh	r6, [r3, #0]
     65c:	ab12      	add	r3, sp, #72	; 0x48
     65e:	881d      	ldrh	r5, [r3, #0]
     660:	227f      	movs	r2, #127	; 0x7f
     662:	400a      	ands	r2, r1
     664:	ab07      	add	r3, sp, #28
     666:	705a      	strb	r2, [r3, #1]
     668:	7018      	strb	r0, [r3, #0]
     66a:	2208      	movs	r2, #8
     66c:	805a      	strh	r2, [r3, #2]
     66e:	2f00      	cmp	r7, #0
     670:	d03d      	beq.n	6ee <hif_send+0xaa>
     672:	885a      	ldrh	r2, [r3, #2]
     674:	1992      	adds	r2, r2, r6
     676:	18aa      	adds	r2, r5, r2
     678:	b292      	uxth	r2, r2
     67a:	805a      	strh	r2, [r3, #2]
     67c:	4b69      	ldr	r3, [pc, #420]	; (824 <hif_send+0x1e0>)
     67e:	4798      	blx	r3
     680:	1e04      	subs	r4, r0, #0
     682:	d000      	beq.n	686 <hif_send+0x42>
     684:	e0c1      	b.n	80a <hif_send+0x1c6>
     686:	2300      	movs	r3, #0
     688:	9305      	str	r3, [sp, #20]
     68a:	aa02      	add	r2, sp, #8
     68c:	80d3      	strh	r3, [r2, #6]
     68e:	9304      	str	r3, [sp, #16]
     690:	9b04      	ldr	r3, [sp, #16]
     692:	465a      	mov	r2, fp
     694:	431a      	orrs	r2, r3
     696:	9204      	str	r2, [sp, #16]
     698:	9a04      	ldr	r2, [sp, #16]
     69a:	4653      	mov	r3, sl
     69c:	021b      	lsls	r3, r3, #8
     69e:	4313      	orrs	r3, r2
     6a0:	9304      	str	r3, [sp, #16]
     6a2:	ab07      	add	r3, sp, #28
     6a4:	885b      	ldrh	r3, [r3, #2]
     6a6:	9a04      	ldr	r2, [sp, #16]
     6a8:	041b      	lsls	r3, r3, #16
     6aa:	4313      	orrs	r3, r2
     6ac:	9304      	str	r3, [sp, #16]
     6ae:	9904      	ldr	r1, [sp, #16]
     6b0:	485d      	ldr	r0, [pc, #372]	; (828 <hif_send+0x1e4>)
     6b2:	4b5e      	ldr	r3, [pc, #376]	; (82c <hif_send+0x1e8>)
     6b4:	4798      	blx	r3
     6b6:	1e04      	subs	r4, r0, #0
     6b8:	d157      	bne.n	76a <hif_send+0x126>
     6ba:	2300      	movs	r3, #0
     6bc:	9304      	str	r3, [sp, #16]
     6be:	9b04      	ldr	r3, [sp, #16]
     6c0:	2202      	movs	r2, #2
     6c2:	4313      	orrs	r3, r2
     6c4:	9304      	str	r3, [sp, #16]
     6c6:	9904      	ldr	r1, [sp, #16]
     6c8:	4859      	ldr	r0, [pc, #356]	; (830 <hif_send+0x1ec>)
     6ca:	4b58      	ldr	r3, [pc, #352]	; (82c <hif_send+0x1e8>)
     6cc:	4798      	blx	r3
     6ce:	1e04      	subs	r4, r0, #0
     6d0:	d14b      	bne.n	76a <hif_send+0x126>
     6d2:	2200      	movs	r2, #0
     6d4:	9205      	str	r2, [sp, #20]
     6d6:	ab02      	add	r3, sp, #8
     6d8:	80da      	strh	r2, [r3, #6]
     6da:	3306      	adds	r3, #6
     6dc:	881b      	ldrh	r3, [r3, #0]
     6de:	b29b      	uxth	r3, r3
     6e0:	4a54      	ldr	r2, [pc, #336]	; (834 <hif_send+0x1f0>)
     6e2:	4293      	cmp	r3, r2
     6e4:	d849      	bhi.n	77a <hif_send+0x136>
     6e6:	4c54      	ldr	r4, [pc, #336]	; (838 <hif_send+0x1f4>)
     6e8:	4b54      	ldr	r3, [pc, #336]	; (83c <hif_send+0x1f8>)
     6ea:	469a      	mov	sl, r3
     6ec:	e017      	b.n	71e <hif_send+0xda>
     6ee:	ab07      	add	r3, sp, #28
     6f0:	885a      	ldrh	r2, [r3, #2]
     6f2:	9900      	ldr	r1, [sp, #0]
     6f4:	468c      	mov	ip, r1
     6f6:	4462      	add	r2, ip
     6f8:	b292      	uxth	r2, r2
     6fa:	805a      	strh	r2, [r3, #2]
     6fc:	e7be      	b.n	67c <hif_send+0x38>
     6fe:	2001      	movs	r0, #1
     700:	47d0      	blx	sl
     702:	9b04      	ldr	r3, [sp, #16]
     704:	079b      	lsls	r3, r3, #30
     706:	d528      	bpl.n	75a <hif_send+0x116>
     708:	ab02      	add	r3, sp, #8
     70a:	88da      	ldrh	r2, [r3, #6]
     70c:	3201      	adds	r2, #1
     70e:	b292      	uxth	r2, r2
     710:	80da      	strh	r2, [r3, #6]
     712:	3306      	adds	r3, #6
     714:	881b      	ldrh	r3, [r3, #0]
     716:	b29b      	uxth	r3, r3
     718:	4a46      	ldr	r2, [pc, #280]	; (834 <hif_send+0x1f0>)
     71a:	4293      	cmp	r3, r2
     71c:	d82d      	bhi.n	77a <hif_send+0x136>
     71e:	a904      	add	r1, sp, #16
     720:	4843      	ldr	r0, [pc, #268]	; (830 <hif_send+0x1ec>)
     722:	47a0      	blx	r4
     724:	2800      	cmp	r0, #0
     726:	d128      	bne.n	77a <hif_send+0x136>
     728:	ab02      	add	r3, sp, #8
     72a:	3306      	adds	r3, #6
     72c:	881b      	ldrh	r3, [r3, #0]
     72e:	b29b      	uxth	r3, r3
     730:	22f4      	movs	r2, #244	; 0xf4
     732:	32ff      	adds	r2, #255	; 0xff
     734:	4293      	cmp	r3, r2
     736:	d9e4      	bls.n	702 <hif_send+0xbe>
     738:	ab02      	add	r3, sp, #8
     73a:	3306      	adds	r3, #6
     73c:	881b      	ldrh	r3, [r3, #0]
     73e:	b29b      	uxth	r3, r3
     740:	3201      	adds	r2, #1
     742:	4293      	cmp	r3, r2
     744:	d8db      	bhi.n	6fe <hif_send+0xba>
     746:	483e      	ldr	r0, [pc, #248]	; (840 <hif_send+0x1fc>)
     748:	4b3e      	ldr	r3, [pc, #248]	; (844 <hif_send+0x200>)
     74a:	4798      	blx	r3
     74c:	483e      	ldr	r0, [pc, #248]	; (848 <hif_send+0x204>)
     74e:	4b3f      	ldr	r3, [pc, #252]	; (84c <hif_send+0x208>)
     750:	4798      	blx	r3
     752:	200d      	movs	r0, #13
     754:	4b3e      	ldr	r3, [pc, #248]	; (850 <hif_send+0x20c>)
     756:	4798      	blx	r3
     758:	e7d1      	b.n	6fe <hif_send+0xba>
     75a:	a905      	add	r1, sp, #20
     75c:	483d      	ldr	r0, [pc, #244]	; (854 <hif_send+0x210>)
     75e:	4b36      	ldr	r3, [pc, #216]	; (838 <hif_send+0x1f4>)
     760:	4798      	blx	r3
     762:	1e04      	subs	r4, r0, #0
     764:	d009      	beq.n	77a <hif_send+0x136>
     766:	2300      	movs	r3, #0
     768:	9305      	str	r3, [sp, #20]
     76a:	4b3b      	ldr	r3, [pc, #236]	; (858 <hif_send+0x214>)
     76c:	4798      	blx	r3
     76e:	0020      	movs	r0, r4
     770:	b009      	add	sp, #36	; 0x24
     772:	bc0c      	pop	{r2, r3}
     774:	4692      	mov	sl, r2
     776:	469b      	mov	fp, r3
     778:	bdf0      	pop	{r4, r5, r6, r7, pc}
     77a:	9b05      	ldr	r3, [sp, #20]
     77c:	2b00      	cmp	r3, #0
     77e:	d03f      	beq.n	800 <hif_send+0x1bc>
     780:	9b05      	ldr	r3, [sp, #20]
     782:	9306      	str	r3, [sp, #24]
     784:	a907      	add	r1, sp, #28
     786:	884b      	ldrh	r3, [r1, #2]
     788:	b29b      	uxth	r3, r3
     78a:	804b      	strh	r3, [r1, #2]
     78c:	9806      	ldr	r0, [sp, #24]
     78e:	2208      	movs	r2, #8
     790:	4b32      	ldr	r3, [pc, #200]	; (85c <hif_send+0x218>)
     792:	4798      	blx	r3
     794:	1e04      	subs	r4, r0, #0
     796:	d1e8      	bne.n	76a <hif_send+0x126>
     798:	9b06      	ldr	r3, [sp, #24]
     79a:	3308      	adds	r3, #8
     79c:	9306      	str	r3, [sp, #24]
     79e:	9b01      	ldr	r3, [sp, #4]
     7a0:	2b00      	cmp	r3, #0
     7a2:	d00b      	beq.n	7bc <hif_send+0x178>
     7a4:	9806      	ldr	r0, [sp, #24]
     7a6:	9a00      	ldr	r2, [sp, #0]
     7a8:	0019      	movs	r1, r3
     7aa:	4b2c      	ldr	r3, [pc, #176]	; (85c <hif_send+0x218>)
     7ac:	4798      	blx	r3
     7ae:	1e04      	subs	r4, r0, #0
     7b0:	d1db      	bne.n	76a <hif_send+0x126>
     7b2:	9b06      	ldr	r3, [sp, #24]
     7b4:	9a00      	ldr	r2, [sp, #0]
     7b6:	4694      	mov	ip, r2
     7b8:	4463      	add	r3, ip
     7ba:	9306      	str	r3, [sp, #24]
     7bc:	2f00      	cmp	r7, #0
     7be:	d00e      	beq.n	7de <hif_send+0x19a>
     7c0:	9b06      	ldr	r3, [sp, #24]
     7c2:	9a00      	ldr	r2, [sp, #0]
     7c4:	1aad      	subs	r5, r5, r2
     7c6:	18ed      	adds	r5, r5, r3
     7c8:	9506      	str	r5, [sp, #24]
     7ca:	9806      	ldr	r0, [sp, #24]
     7cc:	0032      	movs	r2, r6
     7ce:	0039      	movs	r1, r7
     7d0:	4b22      	ldr	r3, [pc, #136]	; (85c <hif_send+0x218>)
     7d2:	4798      	blx	r3
     7d4:	1e04      	subs	r4, r0, #0
     7d6:	d1c8      	bne.n	76a <hif_send+0x126>
     7d8:	9b06      	ldr	r3, [sp, #24]
     7da:	18f3      	adds	r3, r6, r3
     7dc:	9306      	str	r3, [sp, #24]
     7de:	9b05      	ldr	r3, [sp, #20]
     7e0:	009b      	lsls	r3, r3, #2
     7e2:	9304      	str	r3, [sp, #16]
     7e4:	9b04      	ldr	r3, [sp, #16]
     7e6:	2202      	movs	r2, #2
     7e8:	4313      	orrs	r3, r2
     7ea:	9304      	str	r3, [sp, #16]
     7ec:	9904      	ldr	r1, [sp, #16]
     7ee:	481c      	ldr	r0, [pc, #112]	; (860 <hif_send+0x21c>)
     7f0:	4b0e      	ldr	r3, [pc, #56]	; (82c <hif_send+0x1e8>)
     7f2:	4798      	blx	r3
     7f4:	1e04      	subs	r4, r0, #0
     7f6:	d1b8      	bne.n	76a <hif_send+0x126>
     7f8:	4b1a      	ldr	r3, [pc, #104]	; (864 <hif_send+0x220>)
     7fa:	4798      	blx	r3
     7fc:	0004      	movs	r4, r0
     7fe:	e7b6      	b.n	76e <hif_send+0x12a>
     800:	4b18      	ldr	r3, [pc, #96]	; (864 <hif_send+0x220>)
     802:	4798      	blx	r3
     804:	2403      	movs	r4, #3
     806:	4264      	negs	r4, r4
     808:	e7b1      	b.n	76e <hif_send+0x12a>
     80a:	229a      	movs	r2, #154	; 0x9a
     80c:	32ff      	adds	r2, #255	; 0xff
     80e:	4916      	ldr	r1, [pc, #88]	; (868 <hif_send+0x224>)
     810:	4816      	ldr	r0, [pc, #88]	; (86c <hif_send+0x228>)
     812:	4b0c      	ldr	r3, [pc, #48]	; (844 <hif_send+0x200>)
     814:	4798      	blx	r3
     816:	4816      	ldr	r0, [pc, #88]	; (870 <hif_send+0x22c>)
     818:	4b0c      	ldr	r3, [pc, #48]	; (84c <hif_send+0x208>)
     81a:	4798      	blx	r3
     81c:	200d      	movs	r0, #13
     81e:	4b0c      	ldr	r3, [pc, #48]	; (850 <hif_send+0x20c>)
     820:	4798      	blx	r3
     822:	e7a4      	b.n	76e <hif_send+0x12a>
     824:	000005b5 	.word	0x000005b5
     828:	0000108c 	.word	0x0000108c
     82c:	00001989 	.word	0x00001989
     830:	00001078 	.word	0x00001078
     834:	000003e7 	.word	0x000003e7
     838:	0000197d 	.word	0x0000197d
     83c:	00000129 	.word	0x00000129
     840:	0000a158 	.word	0x0000a158
     844:	00008bd5 	.word	0x00008bd5
     848:	0000a164 	.word	0x0000a164
     84c:	00008cf1 	.word	0x00008cf1
     850:	00008c09 	.word	0x00008c09
     854:	00150400 	.word	0x00150400
     858:	000005f1 	.word	0x000005f1
     85c:	000019fd 	.word	0x000019fd
     860:	0000106c 	.word	0x0000106c
     864:	0000060d 	.word	0x0000060d
     868:	00009e70 	.word	0x00009e70
     86c:	00009e28 	.word	0x00009e28
     870:	0000a174 	.word	0x0000a174

00000874 <hif_handle_isr>:
     874:	b5f0      	push	{r4, r5, r6, r7, lr}
     876:	46ce      	mov	lr, r9
     878:	4647      	mov	r7, r8
     87a:	b580      	push	{r7, lr}
     87c:	b087      	sub	sp, #28
     87e:	4bcf      	ldr	r3, [pc, #828]	; (bbc <hif_handle_isr+0x348>)
     880:	4698      	mov	r8, r3
     882:	4699      	mov	r9, r3
     884:	e081      	b.n	98a <hif_handle_isr+0x116>
     886:	4bcd      	ldr	r3, [pc, #820]	; (bbc <hif_handle_isr+0x348>)
     888:	9a05      	ldr	r2, [sp, #20]
     88a:	605a      	str	r2, [r3, #4]
     88c:	609d      	str	r5, [r3, #8]
     88e:	af04      	add	r7, sp, #16
     890:	2204      	movs	r2, #4
     892:	0039      	movs	r1, r7
     894:	9805      	ldr	r0, [sp, #20]
     896:	4bca      	ldr	r3, [pc, #808]	; (bc0 <hif_handle_isr+0x34c>)
     898:	4798      	blx	r3
     89a:	0004      	movs	r4, r0
     89c:	887b      	ldrh	r3, [r7, #2]
     89e:	b29b      	uxth	r3, r3
     8a0:	807b      	strh	r3, [r7, #2]
     8a2:	2800      	cmp	r0, #0
     8a4:	d134      	bne.n	910 <hif_handle_isr+0x9c>
     8a6:	ab04      	add	r3, sp, #16
     8a8:	885b      	ldrh	r3, [r3, #2]
     8aa:	b29b      	uxth	r3, r3
     8ac:	429d      	cmp	r5, r3
     8ae:	d004      	beq.n	8ba <hif_handle_isr+0x46>
     8b0:	ab04      	add	r3, sp, #16
     8b2:	885b      	ldrh	r3, [r3, #2]
     8b4:	1aeb      	subs	r3, r5, r3
     8b6:	2b04      	cmp	r3, #4
     8b8:	dc3a      	bgt.n	930 <hif_handle_isr+0xbc>
     8ba:	ab04      	add	r3, sp, #16
     8bc:	781b      	ldrb	r3, [r3, #0]
     8be:	2b01      	cmp	r3, #1
     8c0:	d04f      	beq.n	962 <hif_handle_isr+0xee>
     8c2:	ab04      	add	r3, sp, #16
     8c4:	781b      	ldrb	r3, [r3, #0]
     8c6:	2b02      	cmp	r3, #2
     8c8:	d079      	beq.n	9be <hif_handle_isr+0x14a>
     8ca:	ab04      	add	r3, sp, #16
     8cc:	781b      	ldrb	r3, [r3, #0]
     8ce:	2b04      	cmp	r3, #4
     8d0:	d100      	bne.n	8d4 <hif_handle_isr+0x60>
     8d2:	e091      	b.n	9f8 <hif_handle_isr+0x184>
     8d4:	ab04      	add	r3, sp, #16
     8d6:	781b      	ldrb	r3, [r3, #0]
     8d8:	2b06      	cmp	r3, #6
     8da:	d100      	bne.n	8de <hif_handle_isr+0x6a>
     8dc:	e0a9      	b.n	a32 <hif_handle_isr+0x1be>
     8de:	ab04      	add	r3, sp, #16
     8e0:	781b      	ldrb	r3, [r3, #0]
     8e2:	2b07      	cmp	r3, #7
     8e4:	d100      	bne.n	8e8 <hif_handle_isr+0x74>
     8e6:	e0c1      	b.n	a6c <hif_handle_isr+0x1f8>
     8e8:	ab04      	add	r3, sp, #16
     8ea:	781b      	ldrb	r3, [r3, #0]
     8ec:	2b05      	cmp	r3, #5
     8ee:	d100      	bne.n	8f2 <hif_handle_isr+0x7e>
     8f0:	e0d8      	b.n	aa4 <hif_handle_isr+0x230>
     8f2:	2285      	movs	r2, #133	; 0x85
     8f4:	0092      	lsls	r2, r2, #2
     8f6:	49b3      	ldr	r1, [pc, #716]	; (bc4 <hif_handle_isr+0x350>)
     8f8:	48b3      	ldr	r0, [pc, #716]	; (bc8 <hif_handle_isr+0x354>)
     8fa:	4bb4      	ldr	r3, [pc, #720]	; (bcc <hif_handle_isr+0x358>)
     8fc:	4798      	blx	r3
     8fe:	48b4      	ldr	r0, [pc, #720]	; (bd0 <hif_handle_isr+0x35c>)
     900:	4bb4      	ldr	r3, [pc, #720]	; (bd4 <hif_handle_isr+0x360>)
     902:	4798      	blx	r3
     904:	200d      	movs	r0, #13
     906:	4bb4      	ldr	r3, [pc, #720]	; (bd8 <hif_handle_isr+0x364>)
     908:	4798      	blx	r3
     90a:	2406      	movs	r4, #6
     90c:	4264      	negs	r4, r4
     90e:	e115      	b.n	b3c <hif_handle_isr+0x2c8>
     910:	22eb      	movs	r2, #235	; 0xeb
     912:	0052      	lsls	r2, r2, #1
     914:	49ab      	ldr	r1, [pc, #684]	; (bc4 <hif_handle_isr+0x350>)
     916:	48ac      	ldr	r0, [pc, #688]	; (bc8 <hif_handle_isr+0x354>)
     918:	4bac      	ldr	r3, [pc, #688]	; (bcc <hif_handle_isr+0x358>)
     91a:	4798      	blx	r3
     91c:	48af      	ldr	r0, [pc, #700]	; (bdc <hif_handle_isr+0x368>)
     91e:	4bad      	ldr	r3, [pc, #692]	; (bd4 <hif_handle_isr+0x360>)
     920:	4798      	blx	r3
     922:	200d      	movs	r0, #13
     924:	4bac      	ldr	r3, [pc, #688]	; (bd8 <hif_handle_isr+0x364>)
     926:	4798      	blx	r3
     928:	2001      	movs	r0, #1
     92a:	4bad      	ldr	r3, [pc, #692]	; (be0 <hif_handle_isr+0x36c>)
     92c:	4798      	blx	r3
     92e:	e105      	b.n	b3c <hif_handle_isr+0x2c8>
     930:	22e0      	movs	r2, #224	; 0xe0
     932:	32ff      	adds	r2, #255	; 0xff
     934:	49a3      	ldr	r1, [pc, #652]	; (bc4 <hif_handle_isr+0x350>)
     936:	48a4      	ldr	r0, [pc, #656]	; (bc8 <hif_handle_isr+0x354>)
     938:	4ca4      	ldr	r4, [pc, #656]	; (bcc <hif_handle_isr+0x358>)
     93a:	47a0      	blx	r4
     93c:	a904      	add	r1, sp, #16
     93e:	884a      	ldrh	r2, [r1, #2]
     940:	b292      	uxth	r2, r2
     942:	780b      	ldrb	r3, [r1, #0]
     944:	b2db      	uxtb	r3, r3
     946:	7849      	ldrb	r1, [r1, #1]
     948:	9100      	str	r1, [sp, #0]
     94a:	0029      	movs	r1, r5
     94c:	48a5      	ldr	r0, [pc, #660]	; (be4 <hif_handle_isr+0x370>)
     94e:	47a0      	blx	r4
     950:	200d      	movs	r0, #13
     952:	4ba1      	ldr	r3, [pc, #644]	; (bd8 <hif_handle_isr+0x364>)
     954:	4798      	blx	r3
     956:	2001      	movs	r0, #1
     958:	4ba1      	ldr	r3, [pc, #644]	; (be0 <hif_handle_isr+0x36c>)
     95a:	4798      	blx	r3
     95c:	2406      	movs	r4, #6
     95e:	4264      	negs	r4, r4
     960:	e0ec      	b.n	b3c <hif_handle_isr+0x2c8>
     962:	4b96      	ldr	r3, [pc, #600]	; (bbc <hif_handle_isr+0x348>)
     964:	68db      	ldr	r3, [r3, #12]
     966:	2b00      	cmp	r3, #0
     968:	d01c      	beq.n	9a4 <hif_handle_isr+0x130>
     96a:	4b94      	ldr	r3, [pc, #592]	; (bbc <hif_handle_isr+0x348>)
     96c:	68db      	ldr	r3, [r3, #12]
     96e:	aa04      	add	r2, sp, #16
     970:	7850      	ldrb	r0, [r2, #1]
     972:	b2c0      	uxtb	r0, r0
     974:	8851      	ldrh	r1, [r2, #2]
     976:	9a05      	ldr	r2, [sp, #20]
     978:	3208      	adds	r2, #8
     97a:	3908      	subs	r1, #8
     97c:	b289      	uxth	r1, r1
     97e:	4798      	blx	r3
     980:	4b8e      	ldr	r3, [pc, #568]	; (bbc <hif_handle_isr+0x348>)
     982:	789b      	ldrb	r3, [r3, #2]
     984:	2b00      	cmp	r3, #0
     986:	d000      	beq.n	98a <hif_handle_isr+0x116>
     988:	e09d      	b.n	ac6 <hif_handle_isr+0x252>
     98a:	4643      	mov	r3, r8
     98c:	78db      	ldrb	r3, [r3, #3]
     98e:	2b00      	cmp	r3, #0
     990:	d100      	bne.n	994 <hif_handle_isr+0x120>
     992:	e157      	b.n	c44 <hif_handle_isr+0x3d0>
     994:	464b      	mov	r3, r9
     996:	78db      	ldrb	r3, [r3, #3]
     998:	3b01      	subs	r3, #1
     99a:	b2db      	uxtb	r3, r3
     99c:	464a      	mov	r2, r9
     99e:	70d3      	strb	r3, [r2, #3]
     9a0:	4e91      	ldr	r6, [pc, #580]	; (be8 <hif_handle_isr+0x374>)
     9a2:	e0d6      	b.n	b52 <hif_handle_isr+0x2de>
     9a4:	22ec      	movs	r2, #236	; 0xec
     9a6:	32ff      	adds	r2, #255	; 0xff
     9a8:	4986      	ldr	r1, [pc, #536]	; (bc4 <hif_handle_isr+0x350>)
     9aa:	4887      	ldr	r0, [pc, #540]	; (bc8 <hif_handle_isr+0x354>)
     9ac:	4b87      	ldr	r3, [pc, #540]	; (bcc <hif_handle_isr+0x358>)
     9ae:	4798      	blx	r3
     9b0:	488e      	ldr	r0, [pc, #568]	; (bec <hif_handle_isr+0x378>)
     9b2:	4b88      	ldr	r3, [pc, #544]	; (bd4 <hif_handle_isr+0x360>)
     9b4:	4798      	blx	r3
     9b6:	200d      	movs	r0, #13
     9b8:	4b87      	ldr	r3, [pc, #540]	; (bd8 <hif_handle_isr+0x364>)
     9ba:	4798      	blx	r3
     9bc:	e7e0      	b.n	980 <hif_handle_isr+0x10c>
     9be:	4b7f      	ldr	r3, [pc, #508]	; (bbc <hif_handle_isr+0x348>)
     9c0:	691b      	ldr	r3, [r3, #16]
     9c2:	2b00      	cmp	r3, #0
     9c4:	d00b      	beq.n	9de <hif_handle_isr+0x16a>
     9c6:	4b7d      	ldr	r3, [pc, #500]	; (bbc <hif_handle_isr+0x348>)
     9c8:	691b      	ldr	r3, [r3, #16]
     9ca:	aa04      	add	r2, sp, #16
     9cc:	7850      	ldrb	r0, [r2, #1]
     9ce:	b2c0      	uxtb	r0, r0
     9d0:	8851      	ldrh	r1, [r2, #2]
     9d2:	9a05      	ldr	r2, [sp, #20]
     9d4:	3208      	adds	r2, #8
     9d6:	3908      	subs	r1, #8
     9d8:	b289      	uxth	r1, r1
     9da:	4798      	blx	r3
     9dc:	e7d0      	b.n	980 <hif_handle_isr+0x10c>
     9de:	22f4      	movs	r2, #244	; 0xf4
     9e0:	32ff      	adds	r2, #255	; 0xff
     9e2:	4978      	ldr	r1, [pc, #480]	; (bc4 <hif_handle_isr+0x350>)
     9e4:	4878      	ldr	r0, [pc, #480]	; (bc8 <hif_handle_isr+0x354>)
     9e6:	4b79      	ldr	r3, [pc, #484]	; (bcc <hif_handle_isr+0x358>)
     9e8:	4798      	blx	r3
     9ea:	4881      	ldr	r0, [pc, #516]	; (bf0 <hif_handle_isr+0x37c>)
     9ec:	4b79      	ldr	r3, [pc, #484]	; (bd4 <hif_handle_isr+0x360>)
     9ee:	4798      	blx	r3
     9f0:	200d      	movs	r0, #13
     9f2:	4b79      	ldr	r3, [pc, #484]	; (bd8 <hif_handle_isr+0x364>)
     9f4:	4798      	blx	r3
     9f6:	e7c3      	b.n	980 <hif_handle_isr+0x10c>
     9f8:	4b70      	ldr	r3, [pc, #448]	; (bbc <hif_handle_isr+0x348>)
     9fa:	695b      	ldr	r3, [r3, #20]
     9fc:	2b00      	cmp	r3, #0
     9fe:	d00b      	beq.n	a18 <hif_handle_isr+0x1a4>
     a00:	4b6e      	ldr	r3, [pc, #440]	; (bbc <hif_handle_isr+0x348>)
     a02:	695b      	ldr	r3, [r3, #20]
     a04:	aa04      	add	r2, sp, #16
     a06:	7850      	ldrb	r0, [r2, #1]
     a08:	b2c0      	uxtb	r0, r0
     a0a:	8851      	ldrh	r1, [r2, #2]
     a0c:	9a05      	ldr	r2, [sp, #20]
     a0e:	3208      	adds	r2, #8
     a10:	3908      	subs	r1, #8
     a12:	b289      	uxth	r1, r1
     a14:	4798      	blx	r3
     a16:	e7b3      	b.n	980 <hif_handle_isr+0x10c>
     a18:	22fc      	movs	r2, #252	; 0xfc
     a1a:	32ff      	adds	r2, #255	; 0xff
     a1c:	4969      	ldr	r1, [pc, #420]	; (bc4 <hif_handle_isr+0x350>)
     a1e:	486a      	ldr	r0, [pc, #424]	; (bc8 <hif_handle_isr+0x354>)
     a20:	4b6a      	ldr	r3, [pc, #424]	; (bcc <hif_handle_isr+0x358>)
     a22:	4798      	blx	r3
     a24:	4873      	ldr	r0, [pc, #460]	; (bf4 <hif_handle_isr+0x380>)
     a26:	4b6b      	ldr	r3, [pc, #428]	; (bd4 <hif_handle_isr+0x360>)
     a28:	4798      	blx	r3
     a2a:	200d      	movs	r0, #13
     a2c:	4b6a      	ldr	r3, [pc, #424]	; (bd8 <hif_handle_isr+0x364>)
     a2e:	4798      	blx	r3
     a30:	e7a6      	b.n	980 <hif_handle_isr+0x10c>
     a32:	4b62      	ldr	r3, [pc, #392]	; (bbc <hif_handle_isr+0x348>)
     a34:	6a1b      	ldr	r3, [r3, #32]
     a36:	2b00      	cmp	r3, #0
     a38:	d00b      	beq.n	a52 <hif_handle_isr+0x1de>
     a3a:	4b60      	ldr	r3, [pc, #384]	; (bbc <hif_handle_isr+0x348>)
     a3c:	6a1b      	ldr	r3, [r3, #32]
     a3e:	aa04      	add	r2, sp, #16
     a40:	7850      	ldrb	r0, [r2, #1]
     a42:	b2c0      	uxtb	r0, r0
     a44:	8851      	ldrh	r1, [r2, #2]
     a46:	9a05      	ldr	r2, [sp, #20]
     a48:	3208      	adds	r2, #8
     a4a:	3908      	subs	r1, #8
     a4c:	b289      	uxth	r1, r1
     a4e:	4798      	blx	r3
     a50:	e796      	b.n	980 <hif_handle_isr+0x10c>
     a52:	2281      	movs	r2, #129	; 0x81
     a54:	0092      	lsls	r2, r2, #2
     a56:	495b      	ldr	r1, [pc, #364]	; (bc4 <hif_handle_isr+0x350>)
     a58:	485b      	ldr	r0, [pc, #364]	; (bc8 <hif_handle_isr+0x354>)
     a5a:	4b5c      	ldr	r3, [pc, #368]	; (bcc <hif_handle_isr+0x358>)
     a5c:	4798      	blx	r3
     a5e:	4866      	ldr	r0, [pc, #408]	; (bf8 <hif_handle_isr+0x384>)
     a60:	4b5c      	ldr	r3, [pc, #368]	; (bd4 <hif_handle_isr+0x360>)
     a62:	4798      	blx	r3
     a64:	200d      	movs	r0, #13
     a66:	4b5c      	ldr	r3, [pc, #368]	; (bd8 <hif_handle_isr+0x364>)
     a68:	4798      	blx	r3
     a6a:	e789      	b.n	980 <hif_handle_isr+0x10c>
     a6c:	4b53      	ldr	r3, [pc, #332]	; (bbc <hif_handle_isr+0x348>)
     a6e:	699b      	ldr	r3, [r3, #24]
     a70:	2b00      	cmp	r3, #0
     a72:	d00b      	beq.n	a8c <hif_handle_isr+0x218>
     a74:	4b51      	ldr	r3, [pc, #324]	; (bbc <hif_handle_isr+0x348>)
     a76:	699b      	ldr	r3, [r3, #24]
     a78:	aa04      	add	r2, sp, #16
     a7a:	7850      	ldrb	r0, [r2, #1]
     a7c:	b2c0      	uxtb	r0, r0
     a7e:	8851      	ldrh	r1, [r2, #2]
     a80:	9a05      	ldr	r2, [sp, #20]
     a82:	3208      	adds	r2, #8
     a84:	3908      	subs	r1, #8
     a86:	b289      	uxth	r1, r1
     a88:	4798      	blx	r3
     a8a:	e779      	b.n	980 <hif_handle_isr+0x10c>
     a8c:	4a5b      	ldr	r2, [pc, #364]	; (bfc <hif_handle_isr+0x388>)
     a8e:	494d      	ldr	r1, [pc, #308]	; (bc4 <hif_handle_isr+0x350>)
     a90:	484d      	ldr	r0, [pc, #308]	; (bc8 <hif_handle_isr+0x354>)
     a92:	4b4e      	ldr	r3, [pc, #312]	; (bcc <hif_handle_isr+0x358>)
     a94:	4798      	blx	r3
     a96:	485a      	ldr	r0, [pc, #360]	; (c00 <hif_handle_isr+0x38c>)
     a98:	4b4e      	ldr	r3, [pc, #312]	; (bd4 <hif_handle_isr+0x360>)
     a9a:	4798      	blx	r3
     a9c:	200d      	movs	r0, #13
     a9e:	4b4e      	ldr	r3, [pc, #312]	; (bd8 <hif_handle_isr+0x364>)
     aa0:	4798      	blx	r3
     aa2:	e76d      	b.n	980 <hif_handle_isr+0x10c>
     aa4:	4b45      	ldr	r3, [pc, #276]	; (bbc <hif_handle_isr+0x348>)
     aa6:	6a5b      	ldr	r3, [r3, #36]	; 0x24
     aa8:	2b00      	cmp	r3, #0
     aaa:	d100      	bne.n	aae <hif_handle_isr+0x23a>
     aac:	e768      	b.n	980 <hif_handle_isr+0x10c>
     aae:	4b43      	ldr	r3, [pc, #268]	; (bbc <hif_handle_isr+0x348>)
     ab0:	6a5b      	ldr	r3, [r3, #36]	; 0x24
     ab2:	aa04      	add	r2, sp, #16
     ab4:	7850      	ldrb	r0, [r2, #1]
     ab6:	b2c0      	uxtb	r0, r0
     ab8:	8851      	ldrh	r1, [r2, #2]
     aba:	9a05      	ldr	r2, [sp, #20]
     abc:	3208      	adds	r2, #8
     abe:	3908      	subs	r1, #8
     ac0:	b289      	uxth	r1, r1
     ac2:	4798      	blx	r3
     ac4:	e75c      	b.n	980 <hif_handle_isr+0x10c>
     ac6:	4a4f      	ldr	r2, [pc, #316]	; (c04 <hif_handle_isr+0x390>)
     ac8:	493e      	ldr	r1, [pc, #248]	; (bc4 <hif_handle_isr+0x350>)
     aca:	483f      	ldr	r0, [pc, #252]	; (bc8 <hif_handle_isr+0x354>)
     acc:	4c3f      	ldr	r4, [pc, #252]	; (bcc <hif_handle_isr+0x358>)
     ace:	47a0      	blx	r4
     ad0:	ab04      	add	r3, sp, #16
     ad2:	7819      	ldrb	r1, [r3, #0]
     ad4:	b2c9      	uxtb	r1, r1
     ad6:	785a      	ldrb	r2, [r3, #1]
     ad8:	b2d2      	uxtb	r2, r2
     ada:	484b      	ldr	r0, [pc, #300]	; (c08 <hif_handle_isr+0x394>)
     adc:	47a0      	blx	r4
     ade:	200d      	movs	r0, #13
     ae0:	4b3d      	ldr	r3, [pc, #244]	; (bd8 <hif_handle_isr+0x364>)
     ae2:	4798      	blx	r3
     ae4:	4b49      	ldr	r3, [pc, #292]	; (c0c <hif_handle_isr+0x398>)
     ae6:	4798      	blx	r3
     ae8:	1e04      	subs	r4, r0, #0
     aea:	d127      	bne.n	b3c <hif_handle_isr+0x2c8>
     aec:	e74d      	b.n	98a <hif_handle_isr+0x116>
     aee:	4a48      	ldr	r2, [pc, #288]	; (c10 <hif_handle_isr+0x39c>)
     af0:	4934      	ldr	r1, [pc, #208]	; (bc4 <hif_handle_isr+0x350>)
     af2:	4835      	ldr	r0, [pc, #212]	; (bc8 <hif_handle_isr+0x354>)
     af4:	4b35      	ldr	r3, [pc, #212]	; (bcc <hif_handle_isr+0x358>)
     af6:	4798      	blx	r3
     af8:	4846      	ldr	r0, [pc, #280]	; (c14 <hif_handle_isr+0x3a0>)
     afa:	4b36      	ldr	r3, [pc, #216]	; (bd4 <hif_handle_isr+0x360>)
     afc:	4798      	blx	r3
     afe:	200d      	movs	r0, #13
     b00:	4b35      	ldr	r3, [pc, #212]	; (bd8 <hif_handle_isr+0x364>)
     b02:	4798      	blx	r3
     b04:	2402      	movs	r4, #2
     b06:	4264      	negs	r4, r4
     b08:	e018      	b.n	b3c <hif_handle_isr+0x2c8>
     b0a:	4a43      	ldr	r2, [pc, #268]	; (c18 <hif_handle_isr+0x3a4>)
     b0c:	492d      	ldr	r1, [pc, #180]	; (bc4 <hif_handle_isr+0x350>)
     b0e:	482e      	ldr	r0, [pc, #184]	; (bc8 <hif_handle_isr+0x354>)
     b10:	4c2e      	ldr	r4, [pc, #184]	; (bcc <hif_handle_isr+0x358>)
     b12:	47a0      	blx	r4
     b14:	9903      	ldr	r1, [sp, #12]
     b16:	4841      	ldr	r0, [pc, #260]	; (c1c <hif_handle_isr+0x3a8>)
     b18:	47a0      	blx	r4
     b1a:	200d      	movs	r0, #13
     b1c:	4b2e      	ldr	r3, [pc, #184]	; (bd8 <hif_handle_isr+0x364>)
     b1e:	4798      	blx	r3
     b20:	240c      	movs	r4, #12
     b22:	4264      	negs	r4, r4
     b24:	e00a      	b.n	b3c <hif_handle_isr+0x2c8>
     b26:	4a3e      	ldr	r2, [pc, #248]	; (c20 <hif_handle_isr+0x3ac>)
     b28:	4926      	ldr	r1, [pc, #152]	; (bc4 <hif_handle_isr+0x350>)
     b2a:	4827      	ldr	r0, [pc, #156]	; (bc8 <hif_handle_isr+0x354>)
     b2c:	4b27      	ldr	r3, [pc, #156]	; (bcc <hif_handle_isr+0x358>)
     b2e:	4798      	blx	r3
     b30:	483c      	ldr	r0, [pc, #240]	; (c24 <hif_handle_isr+0x3b0>)
     b32:	4b28      	ldr	r3, [pc, #160]	; (bd4 <hif_handle_isr+0x360>)
     b34:	4798      	blx	r3
     b36:	200d      	movs	r0, #13
     b38:	4b27      	ldr	r3, [pc, #156]	; (bd8 <hif_handle_isr+0x364>)
     b3a:	4798      	blx	r3
     b3c:	4a3a      	ldr	r2, [pc, #232]	; (c28 <hif_handle_isr+0x3b4>)
     b3e:	493b      	ldr	r1, [pc, #236]	; (c2c <hif_handle_isr+0x3b8>)
     b40:	4821      	ldr	r0, [pc, #132]	; (bc8 <hif_handle_isr+0x354>)
     b42:	4f22      	ldr	r7, [pc, #136]	; (bcc <hif_handle_isr+0x358>)
     b44:	47b8      	blx	r7
     b46:	0021      	movs	r1, r4
     b48:	4839      	ldr	r0, [pc, #228]	; (c30 <hif_handle_isr+0x3bc>)
     b4a:	47b8      	blx	r7
     b4c:	200d      	movs	r0, #13
     b4e:	4b22      	ldr	r3, [pc, #136]	; (bd8 <hif_handle_isr+0x364>)
     b50:	4798      	blx	r3
     b52:	a903      	add	r1, sp, #12
     b54:	4837      	ldr	r0, [pc, #220]	; (c34 <hif_handle_isr+0x3c0>)
     b56:	47b0      	blx	r6
     b58:	1e04      	subs	r4, r0, #0
     b5a:	d1e4      	bne.n	b26 <hif_handle_isr+0x2b2>
     b5c:	9b03      	ldr	r3, [sp, #12]
     b5e:	07db      	lsls	r3, r3, #31
     b60:	d5d3      	bpl.n	b0a <hif_handle_isr+0x296>
     b62:	2000      	movs	r0, #0
     b64:	4b1e      	ldr	r3, [pc, #120]	; (be0 <hif_handle_isr+0x36c>)
     b66:	4798      	blx	r3
     b68:	2301      	movs	r3, #1
     b6a:	9903      	ldr	r1, [sp, #12]
     b6c:	4399      	bics	r1, r3
     b6e:	9103      	str	r1, [sp, #12]
     b70:	4830      	ldr	r0, [pc, #192]	; (c34 <hif_handle_isr+0x3c0>)
     b72:	4b31      	ldr	r3, [pc, #196]	; (c38 <hif_handle_isr+0x3c4>)
     b74:	4798      	blx	r3
     b76:	1e04      	subs	r4, r0, #0
     b78:	d1e0      	bne.n	b3c <hif_handle_isr+0x2c8>
     b7a:	2201      	movs	r2, #1
     b7c:	4b0f      	ldr	r3, [pc, #60]	; (bbc <hif_handle_isr+0x348>)
     b7e:	709a      	strb	r2, [r3, #2]
     b80:	9b03      	ldr	r3, [sp, #12]
     b82:	049d      	lsls	r5, r3, #18
     b84:	0d2d      	lsrs	r5, r5, #20
     b86:	d0b2      	beq.n	aee <hif_handle_isr+0x27a>
     b88:	2300      	movs	r3, #0
     b8a:	9305      	str	r3, [sp, #20]
     b8c:	a905      	add	r1, sp, #20
     b8e:	482b      	ldr	r0, [pc, #172]	; (c3c <hif_handle_isr+0x3c8>)
     b90:	4b15      	ldr	r3, [pc, #84]	; (be8 <hif_handle_isr+0x374>)
     b92:	4798      	blx	r3
     b94:	1e04      	subs	r4, r0, #0
     b96:	d100      	bne.n	b9a <hif_handle_isr+0x326>
     b98:	e675      	b.n	886 <hif_handle_isr+0x12>
     b9a:	22e6      	movs	r2, #230	; 0xe6
     b9c:	0052      	lsls	r2, r2, #1
     b9e:	4909      	ldr	r1, [pc, #36]	; (bc4 <hif_handle_isr+0x350>)
     ba0:	4809      	ldr	r0, [pc, #36]	; (bc8 <hif_handle_isr+0x354>)
     ba2:	4b0a      	ldr	r3, [pc, #40]	; (bcc <hif_handle_isr+0x358>)
     ba4:	4798      	blx	r3
     ba6:	4826      	ldr	r0, [pc, #152]	; (c40 <hif_handle_isr+0x3cc>)
     ba8:	4b0a      	ldr	r3, [pc, #40]	; (bd4 <hif_handle_isr+0x360>)
     baa:	4798      	blx	r3
     bac:	200d      	movs	r0, #13
     bae:	4b0a      	ldr	r3, [pc, #40]	; (bd8 <hif_handle_isr+0x364>)
     bb0:	4798      	blx	r3
     bb2:	2001      	movs	r0, #1
     bb4:	4b0a      	ldr	r3, [pc, #40]	; (be0 <hif_handle_isr+0x36c>)
     bb6:	4798      	blx	r3
     bb8:	e7c0      	b.n	b3c <hif_handle_isr+0x2c8>
     bba:	46c0      	nop			; (mov r8, r8)
     bbc:	20000a1c 	.word	0x20000a1c
     bc0:	00001995 	.word	0x00001995
     bc4:	00009e7c 	.word	0x00009e7c
     bc8:	00009e28 	.word	0x00009e28
     bcc:	00008bd5 	.word	0x00008bd5
     bd0:	00009fd8 	.word	0x00009fd8
     bd4:	00008cf1 	.word	0x00008cf1
     bd8:	00008c09 	.word	0x00008c09
     bdc:	00009ed4 	.word	0x00009ed4
     be0:	0000023d 	.word	0x0000023d
     be4:	00009eec 	.word	0x00009eec
     be8:	0000197d 	.word	0x0000197d
     bec:	00009f2c 	.word	0x00009f2c
     bf0:	00009f4c 	.word	0x00009f4c
     bf4:	00009f70 	.word	0x00009f70
     bf8:	00009f90 	.word	0x00009f90
     bfc:	0000020b 	.word	0x0000020b
     c00:	00009fb4 	.word	0x00009fb4
     c04:	0000021a 	.word	0x0000021a
     c08:	00009ff0 	.word	0x00009ff0
     c0c:	00000571 	.word	0x00000571
     c10:	00000221 	.word	0x00000221
     c14:	0000a01c 	.word	0x0000a01c
     c18:	00000229 	.word	0x00000229
     c1c:	0000a030 	.word	0x0000a030
     c20:	00000232 	.word	0x00000232
     c24:	0000a04c 	.word	0x0000a04c
     c28:	00000256 	.word	0x00000256
     c2c:	00009e84 	.word	0x00009e84
     c30:	0000a070 	.word	0x0000a070
     c34:	00001070 	.word	0x00001070
     c38:	00001989 	.word	0x00001989
     c3c:	00001084 	.word	0x00001084
     c40:	00009eb0 	.word	0x00009eb0
     c44:	2000      	movs	r0, #0
     c46:	b007      	add	sp, #28
     c48:	bc0c      	pop	{r2, r3}
     c4a:	4690      	mov	r8, r2
     c4c:	4699      	mov	r9, r3
     c4e:	bdf0      	pop	{r4, r5, r6, r7, pc}

00000c50 <hif_receive>:
     c50:	b570      	push	{r4, r5, r6, lr}
     c52:	0014      	movs	r4, r2
     c54:	001d      	movs	r5, r3
     c56:	2800      	cmp	r0, #0
     c58:	d003      	beq.n	c62 <hif_receive+0x12>
     c5a:	2900      	cmp	r1, #0
     c5c:	d001      	beq.n	c62 <hif_receive+0x12>
     c5e:	2a00      	cmp	r2, #0
     c60:	d112      	bne.n	c88 <hif_receive+0x38>
     c62:	2d00      	cmp	r5, #0
     c64:	d002      	beq.n	c6c <hif_receive+0x1c>
     c66:	4b27      	ldr	r3, [pc, #156]	; (d04 <hif_receive+0xb4>)
     c68:	4798      	blx	r3
     c6a:	bd70      	pop	{r4, r5, r6, pc}
     c6c:	4a26      	ldr	r2, [pc, #152]	; (d08 <hif_receive+0xb8>)
     c6e:	4927      	ldr	r1, [pc, #156]	; (d0c <hif_receive+0xbc>)
     c70:	4827      	ldr	r0, [pc, #156]	; (d10 <hif_receive+0xc0>)
     c72:	4b28      	ldr	r3, [pc, #160]	; (d14 <hif_receive+0xc4>)
     c74:	4798      	blx	r3
     c76:	4828      	ldr	r0, [pc, #160]	; (d18 <hif_receive+0xc8>)
     c78:	4b28      	ldr	r3, [pc, #160]	; (d1c <hif_receive+0xcc>)
     c7a:	4798      	blx	r3
     c7c:	200d      	movs	r0, #13
     c7e:	4b28      	ldr	r3, [pc, #160]	; (d20 <hif_receive+0xd0>)
     c80:	4798      	blx	r3
     c82:	200c      	movs	r0, #12
     c84:	4240      	negs	r0, r0
     c86:	e7f0      	b.n	c6a <hif_receive+0x1a>
     c88:	4b26      	ldr	r3, [pc, #152]	; (d24 <hif_receive+0xd4>)
     c8a:	689b      	ldr	r3, [r3, #8]
     c8c:	429a      	cmp	r2, r3
     c8e:	d81a      	bhi.n	cc6 <hif_receive+0x76>
     c90:	4b24      	ldr	r3, [pc, #144]	; (d24 <hif_receive+0xd4>)
     c92:	685b      	ldr	r3, [r3, #4]
     c94:	4298      	cmp	r0, r3
     c96:	d326      	bcc.n	ce6 <hif_receive+0x96>
     c98:	1886      	adds	r6, r0, r2
     c9a:	4a22      	ldr	r2, [pc, #136]	; (d24 <hif_receive+0xd4>)
     c9c:	6853      	ldr	r3, [r2, #4]
     c9e:	6892      	ldr	r2, [r2, #8]
     ca0:	189b      	adds	r3, r3, r2
     ca2:	429e      	cmp	r6, r3
     ca4:	d81f      	bhi.n	ce6 <hif_receive+0x96>
     ca6:	0022      	movs	r2, r4
     ca8:	4b1f      	ldr	r3, [pc, #124]	; (d28 <hif_receive+0xd8>)
     caa:	4798      	blx	r3
     cac:	2800      	cmp	r0, #0
     cae:	d1dc      	bne.n	c6a <hif_receive+0x1a>
     cb0:	4a1c      	ldr	r2, [pc, #112]	; (d24 <hif_receive+0xd4>)
     cb2:	6853      	ldr	r3, [r2, #4]
     cb4:	6892      	ldr	r2, [r2, #8]
     cb6:	189b      	adds	r3, r3, r2
     cb8:	429e      	cmp	r6, r3
     cba:	d001      	beq.n	cc0 <hif_receive+0x70>
     cbc:	2d00      	cmp	r5, #0
     cbe:	d0d4      	beq.n	c6a <hif_receive+0x1a>
     cc0:	4b10      	ldr	r3, [pc, #64]	; (d04 <hif_receive+0xb4>)
     cc2:	4798      	blx	r3
     cc4:	e7d1      	b.n	c6a <hif_receive+0x1a>
     cc6:	4a19      	ldr	r2, [pc, #100]	; (d2c <hif_receive+0xdc>)
     cc8:	4910      	ldr	r1, [pc, #64]	; (d0c <hif_receive+0xbc>)
     cca:	4811      	ldr	r0, [pc, #68]	; (d10 <hif_receive+0xc0>)
     ccc:	4d11      	ldr	r5, [pc, #68]	; (d14 <hif_receive+0xc4>)
     cce:	47a8      	blx	r5
     cd0:	4b14      	ldr	r3, [pc, #80]	; (d24 <hif_receive+0xd4>)
     cd2:	689a      	ldr	r2, [r3, #8]
     cd4:	0021      	movs	r1, r4
     cd6:	4816      	ldr	r0, [pc, #88]	; (d30 <hif_receive+0xe0>)
     cd8:	47a8      	blx	r5
     cda:	200d      	movs	r0, #13
     cdc:	4b10      	ldr	r3, [pc, #64]	; (d20 <hif_receive+0xd0>)
     cde:	4798      	blx	r3
     ce0:	200c      	movs	r0, #12
     ce2:	4240      	negs	r0, r0
     ce4:	e7c1      	b.n	c6a <hif_receive+0x1a>
     ce6:	4a13      	ldr	r2, [pc, #76]	; (d34 <hif_receive+0xe4>)
     ce8:	4908      	ldr	r1, [pc, #32]	; (d0c <hif_receive+0xbc>)
     cea:	4809      	ldr	r0, [pc, #36]	; (d10 <hif_receive+0xc0>)
     cec:	4b09      	ldr	r3, [pc, #36]	; (d14 <hif_receive+0xc4>)
     cee:	4798      	blx	r3
     cf0:	4811      	ldr	r0, [pc, #68]	; (d38 <hif_receive+0xe8>)
     cf2:	4b0a      	ldr	r3, [pc, #40]	; (d1c <hif_receive+0xcc>)
     cf4:	4798      	blx	r3
     cf6:	200d      	movs	r0, #13
     cf8:	4b09      	ldr	r3, [pc, #36]	; (d20 <hif_receive+0xd0>)
     cfa:	4798      	blx	r3
     cfc:	200c      	movs	r0, #12
     cfe:	4240      	negs	r0, r0
     d00:	e7b3      	b.n	c6a <hif_receive+0x1a>
     d02:	46c0      	nop			; (mov r8, r8)
     d04:	00000571 	.word	0x00000571
     d08:	00000277 	.word	0x00000277
     d0c:	00009e94 	.word	0x00009e94
     d10:	00009e28 	.word	0x00009e28
     d14:	00008bd5 	.word	0x00008bd5
     d18:	0000a0a0 	.word	0x0000a0a0
     d1c:	00008cf1 	.word	0x00008cf1
     d20:	00008c09 	.word	0x00008c09
     d24:	20000a1c 	.word	0x20000a1c
     d28:	00001995 	.word	0x00001995
     d2c:	0000027f 	.word	0x0000027f
     d30:	0000a0c0 	.word	0x0000a0c0
     d34:	00000285 	.word	0x00000285
     d38:	0000a108 	.word	0x0000a108

00000d3c <hif_register_cb>:
     d3c:	b570      	push	{r4, r5, r6, lr}
     d3e:	0004      	movs	r4, r0
     d40:	2807      	cmp	r0, #7
     d42:	d81f      	bhi.n	d84 <hif_register_cb+0x48>
     d44:	0083      	lsls	r3, r0, #2
     d46:	4a16      	ldr	r2, [pc, #88]	; (da0 <hif_register_cb+0x64>)
     d48:	58d3      	ldr	r3, [r2, r3]
     d4a:	469f      	mov	pc, r3
     d4c:	4b15      	ldr	r3, [pc, #84]	; (da4 <hif_register_cb+0x68>)
     d4e:	6119      	str	r1, [r3, #16]
     d50:	2000      	movs	r0, #0
     d52:	bd70      	pop	{r4, r5, r6, pc}
     d54:	4b13      	ldr	r3, [pc, #76]	; (da4 <hif_register_cb+0x68>)
     d56:	60d9      	str	r1, [r3, #12]
     d58:	2000      	movs	r0, #0
     d5a:	e7fa      	b.n	d52 <hif_register_cb+0x16>
     d5c:	4b11      	ldr	r3, [pc, #68]	; (da4 <hif_register_cb+0x68>)
     d5e:	6159      	str	r1, [r3, #20]
     d60:	2000      	movs	r0, #0
     d62:	e7f6      	b.n	d52 <hif_register_cb+0x16>
     d64:	4b0f      	ldr	r3, [pc, #60]	; (da4 <hif_register_cb+0x68>)
     d66:	61d9      	str	r1, [r3, #28]
     d68:	2000      	movs	r0, #0
     d6a:	e7f2      	b.n	d52 <hif_register_cb+0x16>
     d6c:	4b0d      	ldr	r3, [pc, #52]	; (da4 <hif_register_cb+0x68>)
     d6e:	6219      	str	r1, [r3, #32]
     d70:	2000      	movs	r0, #0
     d72:	e7ee      	b.n	d52 <hif_register_cb+0x16>
     d74:	4b0b      	ldr	r3, [pc, #44]	; (da4 <hif_register_cb+0x68>)
     d76:	6199      	str	r1, [r3, #24]
     d78:	2000      	movs	r0, #0
     d7a:	e7ea      	b.n	d52 <hif_register_cb+0x16>
     d7c:	4b09      	ldr	r3, [pc, #36]	; (da4 <hif_register_cb+0x68>)
     d7e:	6259      	str	r1, [r3, #36]	; 0x24
     d80:	2000      	movs	r0, #0
     d82:	e7e6      	b.n	d52 <hif_register_cb+0x16>
     d84:	4a08      	ldr	r2, [pc, #32]	; (da8 <hif_register_cb+0x6c>)
     d86:	4909      	ldr	r1, [pc, #36]	; (dac <hif_register_cb+0x70>)
     d88:	4809      	ldr	r0, [pc, #36]	; (db0 <hif_register_cb+0x74>)
     d8a:	4d0a      	ldr	r5, [pc, #40]	; (db4 <hif_register_cb+0x78>)
     d8c:	47a8      	blx	r5
     d8e:	0021      	movs	r1, r4
     d90:	4809      	ldr	r0, [pc, #36]	; (db8 <hif_register_cb+0x7c>)
     d92:	47a8      	blx	r5
     d94:	200d      	movs	r0, #13
     d96:	4b09      	ldr	r3, [pc, #36]	; (dbc <hif_register_cb+0x80>)
     d98:	4798      	blx	r3
     d9a:	200c      	movs	r0, #12
     d9c:	4240      	negs	r0, r0
     d9e:	e7d8      	b.n	d52 <hif_register_cb+0x16>
     da0:	00009e50 	.word	0x00009e50
     da4:	20000a1c 	.word	0x20000a1c
     da8:	000002bd 	.word	0x000002bd
     dac:	00009ea0 	.word	0x00009ea0
     db0:	00009e28 	.word	0x00009e28
     db4:	00008bd5 	.word	0x00008bd5
     db8:	0000a14c 	.word	0x0000a14c
     dbc:	00008c09 	.word	0x00008c09

00000dc0 <hif_init>:
     dc0:	b510      	push	{r4, lr}
     dc2:	2228      	movs	r2, #40	; 0x28
     dc4:	2100      	movs	r1, #0
     dc6:	4806      	ldr	r0, [pc, #24]	; (de0 <hif_init+0x20>)
     dc8:	4b06      	ldr	r3, [pc, #24]	; (de4 <hif_init+0x24>)
     dca:	4798      	blx	r3
     dcc:	4806      	ldr	r0, [pc, #24]	; (de8 <hif_init+0x28>)
     dce:	4b07      	ldr	r3, [pc, #28]	; (dec <hif_init+0x2c>)
     dd0:	4798      	blx	r3
     dd2:	4907      	ldr	r1, [pc, #28]	; (df0 <hif_init+0x30>)
     dd4:	2003      	movs	r0, #3
     dd6:	4b07      	ldr	r3, [pc, #28]	; (df4 <hif_init+0x34>)
     dd8:	4798      	blx	r3
     dda:	2000      	movs	r0, #0
     ddc:	bd10      	pop	{r4, pc}
     dde:	46c0      	nop			; (mov r8, r8)
     de0:	20000a1c 	.word	0x20000a1c
     de4:	00000531 	.word	0x00000531
     de8:	0000055d 	.word	0x0000055d
     dec:	000001e5 	.word	0x000001e5
     df0:	0000056d 	.word	0x0000056d
     df4:	00000d3d 	.word	0x00000d3d

00000df8 <m2m_wifi_cb>:
     df8:	b530      	push	{r4, r5, lr}
     dfa:	b09f      	sub	sp, #124	; 0x7c
     dfc:	0004      	movs	r4, r0
     dfe:	0015      	movs	r5, r2
     e00:	282c      	cmp	r0, #44	; 0x2c
     e02:	d02f      	beq.n	e64 <m2m_wifi_cb+0x6c>
     e04:	281b      	cmp	r0, #27
     e06:	d03d      	beq.n	e84 <m2m_wifi_cb+0x8c>
     e08:	2806      	cmp	r0, #6
     e0a:	d04b      	beq.n	ea4 <m2m_wifi_cb+0xac>
     e0c:	280e      	cmp	r0, #14
     e0e:	d027      	beq.n	e60 <m2m_wifi_cb+0x68>
     e10:	2832      	cmp	r0, #50	; 0x32
     e12:	d057      	beq.n	ec4 <m2m_wifi_cb+0xcc>
     e14:	282f      	cmp	r0, #47	; 0x2f
     e16:	d065      	beq.n	ee4 <m2m_wifi_cb+0xec>
     e18:	2834      	cmp	r0, #52	; 0x34
     e1a:	d100      	bne.n	e1e <m2m_wifi_cb+0x26>
     e1c:	e077      	b.n	f0e <m2m_wifi_cb+0x116>
     e1e:	2811      	cmp	r0, #17
     e20:	d100      	bne.n	e24 <m2m_wifi_cb+0x2c>
     e22:	e096      	b.n	f52 <m2m_wifi_cb+0x15a>
     e24:	2813      	cmp	r0, #19
     e26:	d100      	bne.n	e2a <m2m_wifi_cb+0x32>
     e28:	e0ac      	b.n	f84 <m2m_wifi_cb+0x18c>
     e2a:	2804      	cmp	r0, #4
     e2c:	d100      	bne.n	e30 <m2m_wifi_cb+0x38>
     e2e:	e0bb      	b.n	fa8 <m2m_wifi_cb+0x1b0>
     e30:	2865      	cmp	r0, #101	; 0x65
     e32:	d100      	bne.n	e36 <m2m_wifi_cb+0x3e>
     e34:	e0ca      	b.n	fcc <m2m_wifi_cb+0x1d4>
     e36:	2809      	cmp	r0, #9
     e38:	d100      	bne.n	e3c <m2m_wifi_cb+0x44>
     e3a:	e0d9      	b.n	ff0 <m2m_wifi_cb+0x1f8>
     e3c:	282a      	cmp	r0, #42	; 0x2a
     e3e:	d100      	bne.n	e42 <m2m_wifi_cb+0x4a>
     e40:	e0e8      	b.n	1014 <m2m_wifi_cb+0x21c>
     e42:	2820      	cmp	r0, #32
     e44:	d100      	bne.n	e48 <m2m_wifi_cb+0x50>
     e46:	e0f7      	b.n	1038 <m2m_wifi_cb+0x240>
     e48:	2295      	movs	r2, #149	; 0x95
     e4a:	0052      	lsls	r2, r2, #1
     e4c:	4989      	ldr	r1, [pc, #548]	; (1074 <m2m_wifi_cb+0x27c>)
     e4e:	488a      	ldr	r0, [pc, #552]	; (1078 <m2m_wifi_cb+0x280>)
     e50:	4d8a      	ldr	r5, [pc, #552]	; (107c <m2m_wifi_cb+0x284>)
     e52:	47a8      	blx	r5
     e54:	0021      	movs	r1, r4
     e56:	488a      	ldr	r0, [pc, #552]	; (1080 <m2m_wifi_cb+0x288>)
     e58:	47a8      	blx	r5
     e5a:	200d      	movs	r0, #13
     e5c:	4b89      	ldr	r3, [pc, #548]	; (1084 <m2m_wifi_cb+0x28c>)
     e5e:	4798      	blx	r3
     e60:	b01f      	add	sp, #124	; 0x7c
     e62:	bd30      	pop	{r4, r5, pc}
     e64:	2300      	movs	r3, #0
     e66:	2204      	movs	r2, #4
     e68:	a903      	add	r1, sp, #12
     e6a:	0028      	movs	r0, r5
     e6c:	4c86      	ldr	r4, [pc, #536]	; (1088 <m2m_wifi_cb+0x290>)
     e6e:	47a0      	blx	r4
     e70:	2800      	cmp	r0, #0
     e72:	d1f5      	bne.n	e60 <m2m_wifi_cb+0x68>
     e74:	4b85      	ldr	r3, [pc, #532]	; (108c <m2m_wifi_cb+0x294>)
     e76:	681b      	ldr	r3, [r3, #0]
     e78:	2b00      	cmp	r3, #0
     e7a:	d0f1      	beq.n	e60 <m2m_wifi_cb+0x68>
     e7c:	a903      	add	r1, sp, #12
     e7e:	302c      	adds	r0, #44	; 0x2c
     e80:	4798      	blx	r3
     e82:	e7ed      	b.n	e60 <m2m_wifi_cb+0x68>
     e84:	2300      	movs	r3, #0
     e86:	2208      	movs	r2, #8
     e88:	a903      	add	r1, sp, #12
     e8a:	0028      	movs	r0, r5
     e8c:	4c7e      	ldr	r4, [pc, #504]	; (1088 <m2m_wifi_cb+0x290>)
     e8e:	47a0      	blx	r4
     e90:	2800      	cmp	r0, #0
     e92:	d1e5      	bne.n	e60 <m2m_wifi_cb+0x68>
     e94:	4b7d      	ldr	r3, [pc, #500]	; (108c <m2m_wifi_cb+0x294>)
     e96:	681b      	ldr	r3, [r3, #0]
     e98:	2b00      	cmp	r3, #0
     e9a:	d0e1      	beq.n	e60 <m2m_wifi_cb+0x68>
     e9c:	a903      	add	r1, sp, #12
     e9e:	301b      	adds	r0, #27
     ea0:	4798      	blx	r3
     ea2:	e7dd      	b.n	e60 <m2m_wifi_cb+0x68>
     ea4:	2301      	movs	r3, #1
     ea6:	2230      	movs	r2, #48	; 0x30
     ea8:	a903      	add	r1, sp, #12
     eaa:	0028      	movs	r0, r5
     eac:	4c76      	ldr	r4, [pc, #472]	; (1088 <m2m_wifi_cb+0x290>)
     eae:	47a0      	blx	r4
     eb0:	2800      	cmp	r0, #0
     eb2:	d1d5      	bne.n	e60 <m2m_wifi_cb+0x68>
     eb4:	4b75      	ldr	r3, [pc, #468]	; (108c <m2m_wifi_cb+0x294>)
     eb6:	681b      	ldr	r3, [r3, #0]
     eb8:	2b00      	cmp	r3, #0
     eba:	d0d1      	beq.n	e60 <m2m_wifi_cb+0x68>
     ebc:	a903      	add	r1, sp, #12
     ebe:	3006      	adds	r0, #6
     ec0:	4798      	blx	r3
     ec2:	e7cd      	b.n	e60 <m2m_wifi_cb+0x68>
     ec4:	2300      	movs	r3, #0
     ec6:	2214      	movs	r2, #20
     ec8:	a903      	add	r1, sp, #12
     eca:	0028      	movs	r0, r5
     ecc:	4c6e      	ldr	r4, [pc, #440]	; (1088 <m2m_wifi_cb+0x290>)
     ece:	47a0      	blx	r4
     ed0:	2800      	cmp	r0, #0
     ed2:	d1c5      	bne.n	e60 <m2m_wifi_cb+0x68>
     ed4:	4b6d      	ldr	r3, [pc, #436]	; (108c <m2m_wifi_cb+0x294>)
     ed6:	681b      	ldr	r3, [r3, #0]
     ed8:	2b00      	cmp	r3, #0
     eda:	d0c1      	beq.n	e60 <m2m_wifi_cb+0x68>
     edc:	a903      	add	r1, sp, #12
     ede:	3032      	adds	r0, #50	; 0x32
     ee0:	4798      	blx	r3
     ee2:	e7bd      	b.n	e60 <m2m_wifi_cb+0x68>
     ee4:	2264      	movs	r2, #100	; 0x64
     ee6:	2100      	movs	r1, #0
     ee8:	a803      	add	r0, sp, #12
     eea:	4b69      	ldr	r3, [pc, #420]	; (1090 <m2m_wifi_cb+0x298>)
     eec:	4798      	blx	r3
     eee:	2300      	movs	r3, #0
     ef0:	2264      	movs	r2, #100	; 0x64
     ef2:	a903      	add	r1, sp, #12
     ef4:	0028      	movs	r0, r5
     ef6:	4c64      	ldr	r4, [pc, #400]	; (1088 <m2m_wifi_cb+0x290>)
     ef8:	47a0      	blx	r4
     efa:	2800      	cmp	r0, #0
     efc:	d1b0      	bne.n	e60 <m2m_wifi_cb+0x68>
     efe:	4b63      	ldr	r3, [pc, #396]	; (108c <m2m_wifi_cb+0x294>)
     f00:	681b      	ldr	r3, [r3, #0]
     f02:	2b00      	cmp	r3, #0
     f04:	d0ac      	beq.n	e60 <m2m_wifi_cb+0x68>
     f06:	a903      	add	r1, sp, #12
     f08:	302f      	adds	r0, #47	; 0x2f
     f0a:	4798      	blx	r3
     f0c:	e7a8      	b.n	e60 <m2m_wifi_cb+0x68>
     f0e:	2300      	movs	r3, #0
     f10:	2204      	movs	r2, #4
     f12:	a903      	add	r1, sp, #12
     f14:	0028      	movs	r0, r5
     f16:	4c5c      	ldr	r4, [pc, #368]	; (1088 <m2m_wifi_cb+0x290>)
     f18:	47a0      	blx	r4
     f1a:	2800      	cmp	r0, #0
     f1c:	d1a0      	bne.n	e60 <m2m_wifi_cb+0x68>
     f1e:	485d      	ldr	r0, [pc, #372]	; (1094 <m2m_wifi_cb+0x29c>)
     f20:	4d56      	ldr	r5, [pc, #344]	; (107c <m2m_wifi_cb+0x284>)
     f22:	47a8      	blx	r5
     f24:	9c03      	ldr	r4, [sp, #12]
     f26:	0a23      	lsrs	r3, r4, #8
     f28:	20ff      	movs	r0, #255	; 0xff
     f2a:	4003      	ands	r3, r0
     f2c:	0c22      	lsrs	r2, r4, #16
     f2e:	4002      	ands	r2, r0
     f30:	0e21      	lsrs	r1, r4, #24
     f32:	4020      	ands	r0, r4
     f34:	9000      	str	r0, [sp, #0]
     f36:	4858      	ldr	r0, [pc, #352]	; (1098 <m2m_wifi_cb+0x2a0>)
     f38:	47a8      	blx	r5
     f3a:	200d      	movs	r0, #13
     f3c:	4b51      	ldr	r3, [pc, #324]	; (1084 <m2m_wifi_cb+0x28c>)
     f3e:	4798      	blx	r3
     f40:	4b52      	ldr	r3, [pc, #328]	; (108c <m2m_wifi_cb+0x294>)
     f42:	681b      	ldr	r3, [r3, #0]
     f44:	2b00      	cmp	r3, #0
     f46:	d100      	bne.n	f4a <m2m_wifi_cb+0x152>
     f48:	e78a      	b.n	e60 <m2m_wifi_cb+0x68>
     f4a:	2100      	movs	r1, #0
     f4c:	2034      	movs	r0, #52	; 0x34
     f4e:	4798      	blx	r3
     f50:	e786      	b.n	e60 <m2m_wifi_cb+0x68>
     f52:	2200      	movs	r2, #0
     f54:	4b51      	ldr	r3, [pc, #324]	; (109c <m2m_wifi_cb+0x2a4>)
     f56:	701a      	strb	r2, [r3, #0]
     f58:	2300      	movs	r3, #0
     f5a:	3204      	adds	r2, #4
     f5c:	a903      	add	r1, sp, #12
     f5e:	0028      	movs	r0, r5
     f60:	4c49      	ldr	r4, [pc, #292]	; (1088 <m2m_wifi_cb+0x290>)
     f62:	47a0      	blx	r4
     f64:	2800      	cmp	r0, #0
     f66:	d000      	beq.n	f6a <m2m_wifi_cb+0x172>
     f68:	e77a      	b.n	e60 <m2m_wifi_cb+0x68>
     f6a:	ab03      	add	r3, sp, #12
     f6c:	781a      	ldrb	r2, [r3, #0]
     f6e:	4b4c      	ldr	r3, [pc, #304]	; (10a0 <m2m_wifi_cb+0x2a8>)
     f70:	701a      	strb	r2, [r3, #0]
     f72:	4b46      	ldr	r3, [pc, #280]	; (108c <m2m_wifi_cb+0x294>)
     f74:	681b      	ldr	r3, [r3, #0]
     f76:	2b00      	cmp	r3, #0
     f78:	d100      	bne.n	f7c <m2m_wifi_cb+0x184>
     f7a:	e771      	b.n	e60 <m2m_wifi_cb+0x68>
     f7c:	a903      	add	r1, sp, #12
     f7e:	3011      	adds	r0, #17
     f80:	4798      	blx	r3
     f82:	e76d      	b.n	e60 <m2m_wifi_cb+0x68>
     f84:	2300      	movs	r3, #0
     f86:	222c      	movs	r2, #44	; 0x2c
     f88:	a903      	add	r1, sp, #12
     f8a:	0028      	movs	r0, r5
     f8c:	4c3e      	ldr	r4, [pc, #248]	; (1088 <m2m_wifi_cb+0x290>)
     f8e:	47a0      	blx	r4
     f90:	2800      	cmp	r0, #0
     f92:	d000      	beq.n	f96 <m2m_wifi_cb+0x19e>
     f94:	e764      	b.n	e60 <m2m_wifi_cb+0x68>
     f96:	4b3d      	ldr	r3, [pc, #244]	; (108c <m2m_wifi_cb+0x294>)
     f98:	681b      	ldr	r3, [r3, #0]
     f9a:	2b00      	cmp	r3, #0
     f9c:	d100      	bne.n	fa0 <m2m_wifi_cb+0x1a8>
     f9e:	e75f      	b.n	e60 <m2m_wifi_cb+0x68>
     fa0:	a903      	add	r1, sp, #12
     fa2:	3013      	adds	r0, #19
     fa4:	4798      	blx	r3
     fa6:	e75b      	b.n	e60 <m2m_wifi_cb+0x68>
     fa8:	2300      	movs	r3, #0
     faa:	2204      	movs	r2, #4
     fac:	a91c      	add	r1, sp, #112	; 0x70
     fae:	0028      	movs	r0, r5
     fb0:	4c35      	ldr	r4, [pc, #212]	; (1088 <m2m_wifi_cb+0x290>)
     fb2:	47a0      	blx	r4
     fb4:	2800      	cmp	r0, #0
     fb6:	d000      	beq.n	fba <m2m_wifi_cb+0x1c2>
     fb8:	e752      	b.n	e60 <m2m_wifi_cb+0x68>
     fba:	4b34      	ldr	r3, [pc, #208]	; (108c <m2m_wifi_cb+0x294>)
     fbc:	681b      	ldr	r3, [r3, #0]
     fbe:	2b00      	cmp	r3, #0
     fc0:	d100      	bne.n	fc4 <m2m_wifi_cb+0x1cc>
     fc2:	e74d      	b.n	e60 <m2m_wifi_cb+0x68>
     fc4:	a91c      	add	r1, sp, #112	; 0x70
     fc6:	3004      	adds	r0, #4
     fc8:	4798      	blx	r3
     fca:	e749      	b.n	e60 <m2m_wifi_cb+0x68>
     fcc:	2300      	movs	r3, #0
     fce:	2204      	movs	r2, #4
     fd0:	a91c      	add	r1, sp, #112	; 0x70
     fd2:	0028      	movs	r0, r5
     fd4:	4c2c      	ldr	r4, [pc, #176]	; (1088 <m2m_wifi_cb+0x290>)
     fd6:	47a0      	blx	r4
     fd8:	2800      	cmp	r0, #0
     fda:	d000      	beq.n	fde <m2m_wifi_cb+0x1e6>
     fdc:	e740      	b.n	e60 <m2m_wifi_cb+0x68>
     fde:	4b2b      	ldr	r3, [pc, #172]	; (108c <m2m_wifi_cb+0x294>)
     fe0:	681b      	ldr	r3, [r3, #0]
     fe2:	2b00      	cmp	r3, #0
     fe4:	d100      	bne.n	fe8 <m2m_wifi_cb+0x1f0>
     fe6:	e73b      	b.n	e60 <m2m_wifi_cb+0x68>
     fe8:	a91c      	add	r1, sp, #112	; 0x70
     fea:	3065      	adds	r0, #101	; 0x65
     fec:	4798      	blx	r3
     fee:	e737      	b.n	e60 <m2m_wifi_cb+0x68>
     ff0:	2301      	movs	r3, #1
     ff2:	2264      	movs	r2, #100	; 0x64
     ff4:	a903      	add	r1, sp, #12
     ff6:	0028      	movs	r0, r5
     ff8:	4c23      	ldr	r4, [pc, #140]	; (1088 <m2m_wifi_cb+0x290>)
     ffa:	47a0      	blx	r4
     ffc:	2800      	cmp	r0, #0
     ffe:	d000      	beq.n	1002 <m2m_wifi_cb+0x20a>
    1000:	e72e      	b.n	e60 <m2m_wifi_cb+0x68>
    1002:	4b22      	ldr	r3, [pc, #136]	; (108c <m2m_wifi_cb+0x294>)
    1004:	681b      	ldr	r3, [r3, #0]
    1006:	2b00      	cmp	r3, #0
    1008:	d100      	bne.n	100c <m2m_wifi_cb+0x214>
    100a:	e729      	b.n	e60 <m2m_wifi_cb+0x68>
    100c:	a903      	add	r1, sp, #12
    100e:	3009      	adds	r0, #9
    1010:	4798      	blx	r3
    1012:	e725      	b.n	e60 <m2m_wifi_cb+0x68>
    1014:	2301      	movs	r3, #1
    1016:	2204      	movs	r2, #4
    1018:	a903      	add	r1, sp, #12
    101a:	0028      	movs	r0, r5
    101c:	4c1a      	ldr	r4, [pc, #104]	; (1088 <m2m_wifi_cb+0x290>)
    101e:	47a0      	blx	r4
    1020:	2800      	cmp	r0, #0
    1022:	d000      	beq.n	1026 <m2m_wifi_cb+0x22e>
    1024:	e71c      	b.n	e60 <m2m_wifi_cb+0x68>
    1026:	4b19      	ldr	r3, [pc, #100]	; (108c <m2m_wifi_cb+0x294>)
    1028:	681b      	ldr	r3, [r3, #0]
    102a:	2b00      	cmp	r3, #0
    102c:	d100      	bne.n	1030 <m2m_wifi_cb+0x238>
    102e:	e717      	b.n	e60 <m2m_wifi_cb+0x68>
    1030:	a903      	add	r1, sp, #12
    1032:	302a      	adds	r0, #42	; 0x2a
    1034:	4798      	blx	r3
    1036:	e713      	b.n	e60 <m2m_wifi_cb+0x68>
    1038:	2300      	movs	r3, #0
    103a:	2208      	movs	r2, #8
    103c:	a903      	add	r1, sp, #12
    103e:	0028      	movs	r0, r5
    1040:	4c11      	ldr	r4, [pc, #68]	; (1088 <m2m_wifi_cb+0x290>)
    1042:	47a0      	blx	r4
    1044:	2800      	cmp	r0, #0
    1046:	d000      	beq.n	104a <m2m_wifi_cb+0x252>
    1048:	e70a      	b.n	e60 <m2m_wifi_cb+0x68>
    104a:	ab03      	add	r3, sp, #12
    104c:	889a      	ldrh	r2, [r3, #4]
    104e:	0028      	movs	r0, r5
    1050:	3008      	adds	r0, #8
    1052:	2301      	movs	r3, #1
    1054:	9903      	ldr	r1, [sp, #12]
    1056:	4c0c      	ldr	r4, [pc, #48]	; (1088 <m2m_wifi_cb+0x290>)
    1058:	47a0      	blx	r4
    105a:	2800      	cmp	r0, #0
    105c:	d000      	beq.n	1060 <m2m_wifi_cb+0x268>
    105e:	e6ff      	b.n	e60 <m2m_wifi_cb+0x68>
    1060:	4b0a      	ldr	r3, [pc, #40]	; (108c <m2m_wifi_cb+0x294>)
    1062:	681b      	ldr	r3, [r3, #0]
    1064:	2b00      	cmp	r3, #0
    1066:	d100      	bne.n	106a <m2m_wifi_cb+0x272>
    1068:	e6fa      	b.n	e60 <m2m_wifi_cb+0x68>
    106a:	a903      	add	r1, sp, #12
    106c:	3020      	adds	r0, #32
    106e:	4798      	blx	r3
    1070:	e6f6      	b.n	e60 <m2m_wifi_cb+0x68>
    1072:	46c0      	nop			; (mov r8, r8)
    1074:	0000a190 	.word	0x0000a190
    1078:	00009e28 	.word	0x00009e28
    107c:	00008bd5 	.word	0x00008bd5
    1080:	0000a1e0 	.word	0x0000a1e0
    1084:	00008c09 	.word	0x00008c09
    1088:	00000c51 	.word	0x00000c51
    108c:	200000b4 	.word	0x200000b4
    1090:	00000531 	.word	0x00000531
    1094:	0000a158 	.word	0x0000a158
    1098:	0000a1c0 	.word	0x0000a1c0
    109c:	200000b9 	.word	0x200000b9
    10a0:	200000b8 	.word	0x200000b8

000010a4 <m2m_wifi_init>:
    10a4:	b5f0      	push	{r4, r5, r6, r7, lr}
    10a6:	b08f      	sub	sp, #60	; 0x3c
    10a8:	2201      	movs	r2, #1
    10aa:	230f      	movs	r3, #15
    10ac:	446b      	add	r3, sp
    10ae:	701a      	strb	r2, [r3, #0]
    10b0:	2800      	cmp	r0, #0
    10b2:	d061      	beq.n	1178 <m2m_wifi_init+0xd4>
    10b4:	6802      	ldr	r2, [r0, #0]
    10b6:	4b32      	ldr	r3, [pc, #200]	; (1180 <m2m_wifi_init+0xdc>)
    10b8:	601a      	str	r2, [r3, #0]
    10ba:	2200      	movs	r2, #0
    10bc:	4b31      	ldr	r3, [pc, #196]	; (1184 <m2m_wifi_init+0xe0>)
    10be:	701a      	strb	r2, [r3, #0]
    10c0:	200f      	movs	r0, #15
    10c2:	4468      	add	r0, sp
    10c4:	4b30      	ldr	r3, [pc, #192]	; (1188 <m2m_wifi_init+0xe4>)
    10c6:	4798      	blx	r3
    10c8:	1e04      	subs	r4, r0, #0
    10ca:	d002      	beq.n	10d2 <m2m_wifi_init+0x2e>
    10cc:	0020      	movs	r0, r4
    10ce:	b00f      	add	sp, #60	; 0x3c
    10d0:	bdf0      	pop	{r4, r5, r6, r7, pc}
    10d2:	2000      	movs	r0, #0
    10d4:	4b2d      	ldr	r3, [pc, #180]	; (118c <m2m_wifi_init+0xe8>)
    10d6:	4798      	blx	r3
    10d8:	1e04      	subs	r4, r0, #0
    10da:	d149      	bne.n	1170 <m2m_wifi_init+0xcc>
    10dc:	492c      	ldr	r1, [pc, #176]	; (1190 <m2m_wifi_init+0xec>)
    10de:	2001      	movs	r0, #1
    10e0:	4b2c      	ldr	r3, [pc, #176]	; (1194 <m2m_wifi_init+0xf0>)
    10e2:	4798      	blx	r3
    10e4:	ae04      	add	r6, sp, #16
    10e6:	0030      	movs	r0, r6
    10e8:	4b2b      	ldr	r3, [pc, #172]	; (1198 <m2m_wifi_init+0xf4>)
    10ea:	4798      	blx	r3
    10ec:	0004      	movs	r4, r0
    10ee:	482b      	ldr	r0, [pc, #172]	; (119c <m2m_wifi_init+0xf8>)
    10f0:	4d2b      	ldr	r5, [pc, #172]	; (11a0 <m2m_wifi_init+0xfc>)
    10f2:	47a8      	blx	r5
    10f4:	79b3      	ldrb	r3, [r6, #6]
    10f6:	7972      	ldrb	r2, [r6, #5]
    10f8:	7931      	ldrb	r1, [r6, #4]
    10fa:	8c30      	ldrh	r0, [r6, #32]
    10fc:	9000      	str	r0, [sp, #0]
    10fe:	4829      	ldr	r0, [pc, #164]	; (11a4 <m2m_wifi_init+0x100>)
    1100:	47a8      	blx	r5
    1102:	200d      	movs	r0, #13
    1104:	4f28      	ldr	r7, [pc, #160]	; (11a8 <m2m_wifi_init+0x104>)
    1106:	47b8      	blx	r7
    1108:	4824      	ldr	r0, [pc, #144]	; (119c <m2m_wifi_init+0xf8>)
    110a:	47a8      	blx	r5
    110c:	2226      	movs	r2, #38	; 0x26
    110e:	446a      	add	r2, sp
    1110:	211a      	movs	r1, #26
    1112:	4469      	add	r1, sp
    1114:	4825      	ldr	r0, [pc, #148]	; (11ac <m2m_wifi_init+0x108>)
    1116:	47a8      	blx	r5
    1118:	200d      	movs	r0, #13
    111a:	47b8      	blx	r7
    111c:	481f      	ldr	r0, [pc, #124]	; (119c <m2m_wifi_init+0xf8>)
    111e:	47a8      	blx	r5
    1120:	7a73      	ldrb	r3, [r6, #9]
    1122:	7a32      	ldrb	r2, [r6, #8]
    1124:	79f1      	ldrb	r1, [r6, #7]
    1126:	4822      	ldr	r0, [pc, #136]	; (11b0 <m2m_wifi_init+0x10c>)
    1128:	47a8      	blx	r5
    112a:	200d      	movs	r0, #13
    112c:	47b8      	blx	r7
    112e:	481b      	ldr	r0, [pc, #108]	; (119c <m2m_wifi_init+0xf8>)
    1130:	47a8      	blx	r5
    1132:	2302      	movs	r3, #2
    1134:	2205      	movs	r2, #5
    1136:	2113      	movs	r1, #19
    1138:	481e      	ldr	r0, [pc, #120]	; (11b4 <m2m_wifi_init+0x110>)
    113a:	47a8      	blx	r5
    113c:	200d      	movs	r0, #13
    113e:	47b8      	blx	r7
    1140:	4816      	ldr	r0, [pc, #88]	; (119c <m2m_wifi_init+0xf8>)
    1142:	47a8      	blx	r5
    1144:	4a1c      	ldr	r2, [pc, #112]	; (11b8 <m2m_wifi_init+0x114>)
    1146:	491d      	ldr	r1, [pc, #116]	; (11bc <m2m_wifi_init+0x118>)
    1148:	481d      	ldr	r0, [pc, #116]	; (11c0 <m2m_wifi_init+0x11c>)
    114a:	47a8      	blx	r5
    114c:	200d      	movs	r0, #13
    114e:	47b8      	blx	r7
    1150:	0023      	movs	r3, r4
    1152:	330d      	adds	r3, #13
    1154:	d1ba      	bne.n	10cc <m2m_wifi_init+0x28>
    1156:	22f8      	movs	r2, #248	; 0xf8
    1158:	0052      	lsls	r2, r2, #1
    115a:	491a      	ldr	r1, [pc, #104]	; (11c4 <m2m_wifi_init+0x120>)
    115c:	481a      	ldr	r0, [pc, #104]	; (11c8 <m2m_wifi_init+0x124>)
    115e:	4b10      	ldr	r3, [pc, #64]	; (11a0 <m2m_wifi_init+0xfc>)
    1160:	4798      	blx	r3
    1162:	481a      	ldr	r0, [pc, #104]	; (11cc <m2m_wifi_init+0x128>)
    1164:	4b1a      	ldr	r3, [pc, #104]	; (11d0 <m2m_wifi_init+0x12c>)
    1166:	4798      	blx	r3
    1168:	200d      	movs	r0, #13
    116a:	4b0f      	ldr	r3, [pc, #60]	; (11a8 <m2m_wifi_init+0x104>)
    116c:	4798      	blx	r3
    116e:	e7ad      	b.n	10cc <m2m_wifi_init+0x28>
    1170:	2000      	movs	r0, #0
    1172:	4b18      	ldr	r3, [pc, #96]	; (11d4 <m2m_wifi_init+0x130>)
    1174:	4798      	blx	r3
    1176:	e7a9      	b.n	10cc <m2m_wifi_init+0x28>
    1178:	240c      	movs	r4, #12
    117a:	4264      	negs	r4, r4
    117c:	e7a6      	b.n	10cc <m2m_wifi_init+0x28>
    117e:	46c0      	nop			; (mov r8, r8)
    1180:	200000b4 	.word	0x200000b4
    1184:	200000b9 	.word	0x200000b9
    1188:	00001b49 	.word	0x00001b49
    118c:	00000dc1 	.word	0x00000dc1
    1190:	00000df9 	.word	0x00000df9
    1194:	00000d3d 	.word	0x00000d3d
    1198:	00001a65 	.word	0x00001a65
    119c:	0000a158 	.word	0x0000a158
    11a0:	00008bd5 	.word	0x00008bd5
    11a4:	0000a29c 	.word	0x0000a29c
    11a8:	00008c09 	.word	0x00008c09
    11ac:	0000a2c4 	.word	0x0000a2c4
    11b0:	0000a2e0 	.word	0x0000a2e0
    11b4:	0000a304 	.word	0x0000a304
    11b8:	0000a31c 	.word	0x0000a31c
    11bc:	0000a328 	.word	0x0000a328
    11c0:	0000a334 	.word	0x0000a334
    11c4:	0000a19c 	.word	0x0000a19c
    11c8:	00009e28 	.word	0x00009e28
    11cc:	0000a34c 	.word	0x0000a34c
    11d0:	00008cf1 	.word	0x00008cf1
    11d4:	00001c1d 	.word	0x00001c1d

000011d8 <m2m_wifi_handle_events>:
    11d8:	b510      	push	{r4, lr}
    11da:	4b01      	ldr	r3, [pc, #4]	; (11e0 <m2m_wifi_handle_events+0x8>)
    11dc:	4798      	blx	r3
    11de:	bd10      	pop	{r4, pc}
    11e0:	00000875 	.word	0x00000875

000011e4 <m2m_wifi_connect_sc>:
    11e4:	b5f0      	push	{r4, r5, r6, r7, lr}
    11e6:	46ce      	mov	lr, r9
    11e8:	4647      	mov	r7, r8
    11ea:	b580      	push	{r7, lr}
    11ec:	b0a3      	sub	sp, #140	; 0x8c
    11ee:	9005      	str	r0, [sp, #20]
    11f0:	000c      	movs	r4, r1
    11f2:	0015      	movs	r5, r2
    11f4:	001f      	movs	r7, r3
    11f6:	ab2a      	add	r3, sp, #168	; 0xa8
    11f8:	881b      	ldrh	r3, [r3, #0]
    11fa:	4699      	mov	r9, r3
    11fc:	ab2b      	add	r3, sp, #172	; 0xac
    11fe:	781b      	ldrb	r3, [r3, #0]
    1200:	4698      	mov	r8, r3
    1202:	2a01      	cmp	r2, #1
    1204:	d003      	beq.n	120e <m2m_wifi_connect_sc+0x2a>
    1206:	2f00      	cmp	r7, #0
    1208:	d040      	beq.n	128c <m2m_wifi_connect_sc+0xa8>
    120a:	2a02      	cmp	r2, #2
    120c:	d04c      	beq.n	12a8 <m2m_wifi_connect_sc+0xc4>
    120e:	1e63      	subs	r3, r4, #1
    1210:	2b1f      	cmp	r3, #31
    1212:	d900      	bls.n	1216 <m2m_wifi_connect_sc+0x32>
    1214:	e078      	b.n	1308 <m2m_wifi_connect_sc+0x124>
    1216:	464b      	mov	r3, r9
    1218:	3b01      	subs	r3, #1
    121a:	b29b      	uxth	r3, r3
    121c:	2b0d      	cmp	r3, #13
    121e:	d903      	bls.n	1228 <m2m_wifi_connect_sc+0x44>
    1220:	464b      	mov	r3, r9
    1222:	2bff      	cmp	r3, #255	; 0xff
    1224:	d000      	beq.n	1228 <m2m_wifi_connect_sc+0x44>
    1226:	e07d      	b.n	1324 <m2m_wifi_connect_sc+0x140>
    1228:	ae07      	add	r6, sp, #28
    122a:	0022      	movs	r2, r4
    122c:	9905      	ldr	r1, [sp, #20]
    122e:	205a      	movs	r0, #90	; 0x5a
    1230:	ab02      	add	r3, sp, #8
    1232:	469c      	mov	ip, r3
    1234:	4460      	add	r0, ip
    1236:	4b78      	ldr	r3, [pc, #480]	; (1418 <m2m_wifi_connect_sc+0x234>)
    1238:	4798      	blx	r3
    123a:	1934      	adds	r4, r6, r4
    123c:	3446      	adds	r4, #70	; 0x46
    123e:	2300      	movs	r3, #0
    1240:	7023      	strb	r3, [r4, #0]
    1242:	3344      	adds	r3, #68	; 0x44
    1244:	464a      	mov	r2, r9
    1246:	52f2      	strh	r2, [r6, r3]
    1248:	4643      	mov	r3, r8
    124a:	1e5a      	subs	r2, r3, #1
    124c:	4193      	sbcs	r3, r2
    124e:	2267      	movs	r2, #103	; 0x67
    1250:	54b3      	strb	r3, [r6, r2]
    1252:	2341      	movs	r3, #65	; 0x41
    1254:	54f5      	strb	r5, [r6, r3]
    1256:	2d03      	cmp	r5, #3
    1258:	d100      	bne.n	125c <m2m_wifi_connect_sc+0x78>
    125a:	e071      	b.n	1340 <m2m_wifi_connect_sc+0x15c>
    125c:	2d02      	cmp	r5, #2
    125e:	d100      	bne.n	1262 <m2m_wifi_connect_sc+0x7e>
    1260:	e0aa      	b.n	13b8 <m2m_wifi_connect_sc+0x1d4>
    1262:	2d04      	cmp	r5, #4
    1264:	d100      	bne.n	1268 <m2m_wifi_connect_sc+0x84>
    1266:	e0c2      	b.n	13ee <m2m_wifi_connect_sc+0x20a>
    1268:	2d01      	cmp	r5, #1
    126a:	d000      	beq.n	126e <m2m_wifi_connect_sc+0x8a>
    126c:	e0c5      	b.n	13fa <m2m_wifi_connect_sc+0x216>
    126e:	2300      	movs	r3, #0
    1270:	9302      	str	r3, [sp, #8]
    1272:	9301      	str	r3, [sp, #4]
    1274:	9300      	str	r3, [sp, #0]
    1276:	336c      	adds	r3, #108	; 0x6c
    1278:	aa07      	add	r2, sp, #28
    127a:	2128      	movs	r1, #40	; 0x28
    127c:	2001      	movs	r0, #1
    127e:	4c67      	ldr	r4, [pc, #412]	; (141c <m2m_wifi_connect_sc+0x238>)
    1280:	47a0      	blx	r4
    1282:	b023      	add	sp, #140	; 0x8c
    1284:	bc0c      	pop	{r2, r3}
    1286:	4690      	mov	r8, r2
    1288:	4699      	mov	r9, r3
    128a:	bdf0      	pop	{r4, r5, r6, r7, pc}
    128c:	4a64      	ldr	r2, [pc, #400]	; (1420 <m2m_wifi_connect_sc+0x23c>)
    128e:	4965      	ldr	r1, [pc, #404]	; (1424 <m2m_wifi_connect_sc+0x240>)
    1290:	4865      	ldr	r0, [pc, #404]	; (1428 <m2m_wifi_connect_sc+0x244>)
    1292:	4b66      	ldr	r3, [pc, #408]	; (142c <m2m_wifi_connect_sc+0x248>)
    1294:	4798      	blx	r3
    1296:	4866      	ldr	r0, [pc, #408]	; (1430 <m2m_wifi_connect_sc+0x24c>)
    1298:	4b66      	ldr	r3, [pc, #408]	; (1434 <m2m_wifi_connect_sc+0x250>)
    129a:	4798      	blx	r3
    129c:	200d      	movs	r0, #13
    129e:	4b66      	ldr	r3, [pc, #408]	; (1438 <m2m_wifi_connect_sc+0x254>)
    12a0:	4798      	blx	r3
    12a2:	200c      	movs	r0, #12
    12a4:	4240      	negs	r0, r0
    12a6:	e7ec      	b.n	1282 <m2m_wifi_connect_sc+0x9e>
    12a8:	0038      	movs	r0, r7
    12aa:	4b64      	ldr	r3, [pc, #400]	; (143c <m2m_wifi_connect_sc+0x258>)
    12ac:	4798      	blx	r3
    12ae:	2840      	cmp	r0, #64	; 0x40
    12b0:	d1ad      	bne.n	120e <m2m_wifi_connect_sc+0x2a>
    12b2:	783b      	ldrb	r3, [r7, #0]
    12b4:	001a      	movs	r2, r3
    12b6:	3a30      	subs	r2, #48	; 0x30
    12b8:	2a36      	cmp	r2, #54	; 0x36
    12ba:	d817      	bhi.n	12ec <m2m_wifi_connect_sc+0x108>
    12bc:	3a0a      	subs	r2, #10
    12be:	2a06      	cmp	r2, #6
    12c0:	d914      	bls.n	12ec <m2m_wifi_connect_sc+0x108>
    12c2:	3b47      	subs	r3, #71	; 0x47
    12c4:	2b19      	cmp	r3, #25
    12c6:	d911      	bls.n	12ec <m2m_wifi_connect_sc+0x108>
    12c8:	1c7a      	adds	r2, r7, #1
    12ca:	0038      	movs	r0, r7
    12cc:	3040      	adds	r0, #64	; 0x40
    12ce:	7813      	ldrb	r3, [r2, #0]
    12d0:	0019      	movs	r1, r3
    12d2:	3930      	subs	r1, #48	; 0x30
    12d4:	2936      	cmp	r1, #54	; 0x36
    12d6:	d809      	bhi.n	12ec <m2m_wifi_connect_sc+0x108>
    12d8:	390a      	subs	r1, #10
    12da:	2906      	cmp	r1, #6
    12dc:	d906      	bls.n	12ec <m2m_wifi_connect_sc+0x108>
    12de:	3b47      	subs	r3, #71	; 0x47
    12e0:	2b19      	cmp	r3, #25
    12e2:	d903      	bls.n	12ec <m2m_wifi_connect_sc+0x108>
    12e4:	3201      	adds	r2, #1
    12e6:	4282      	cmp	r2, r0
    12e8:	d1f1      	bne.n	12ce <m2m_wifi_connect_sc+0xea>
    12ea:	e790      	b.n	120e <m2m_wifi_connect_sc+0x2a>
    12ec:	4a54      	ldr	r2, [pc, #336]	; (1440 <m2m_wifi_connect_sc+0x25c>)
    12ee:	494d      	ldr	r1, [pc, #308]	; (1424 <m2m_wifi_connect_sc+0x240>)
    12f0:	484d      	ldr	r0, [pc, #308]	; (1428 <m2m_wifi_connect_sc+0x244>)
    12f2:	4b4e      	ldr	r3, [pc, #312]	; (142c <m2m_wifi_connect_sc+0x248>)
    12f4:	4798      	blx	r3
    12f6:	4853      	ldr	r0, [pc, #332]	; (1444 <m2m_wifi_connect_sc+0x260>)
    12f8:	4b4e      	ldr	r3, [pc, #312]	; (1434 <m2m_wifi_connect_sc+0x250>)
    12fa:	4798      	blx	r3
    12fc:	200d      	movs	r0, #13
    12fe:	4b4e      	ldr	r3, [pc, #312]	; (1438 <m2m_wifi_connect_sc+0x254>)
    1300:	4798      	blx	r3
    1302:	200c      	movs	r0, #12
    1304:	4240      	negs	r0, r0
    1306:	e7bc      	b.n	1282 <m2m_wifi_connect_sc+0x9e>
    1308:	4a4f      	ldr	r2, [pc, #316]	; (1448 <m2m_wifi_connect_sc+0x264>)
    130a:	4946      	ldr	r1, [pc, #280]	; (1424 <m2m_wifi_connect_sc+0x240>)
    130c:	4846      	ldr	r0, [pc, #280]	; (1428 <m2m_wifi_connect_sc+0x244>)
    130e:	4b47      	ldr	r3, [pc, #284]	; (142c <m2m_wifi_connect_sc+0x248>)
    1310:	4798      	blx	r3
    1312:	484e      	ldr	r0, [pc, #312]	; (144c <m2m_wifi_connect_sc+0x268>)
    1314:	4b47      	ldr	r3, [pc, #284]	; (1434 <m2m_wifi_connect_sc+0x250>)
    1316:	4798      	blx	r3
    1318:	200d      	movs	r0, #13
    131a:	4b47      	ldr	r3, [pc, #284]	; (1438 <m2m_wifi_connect_sc+0x254>)
    131c:	4798      	blx	r3
    131e:	200c      	movs	r0, #12
    1320:	4240      	negs	r0, r0
    1322:	e7ae      	b.n	1282 <m2m_wifi_connect_sc+0x9e>
    1324:	4a4a      	ldr	r2, [pc, #296]	; (1450 <m2m_wifi_connect_sc+0x26c>)
    1326:	493f      	ldr	r1, [pc, #252]	; (1424 <m2m_wifi_connect_sc+0x240>)
    1328:	483f      	ldr	r0, [pc, #252]	; (1428 <m2m_wifi_connect_sc+0x244>)
    132a:	4b40      	ldr	r3, [pc, #256]	; (142c <m2m_wifi_connect_sc+0x248>)
    132c:	4798      	blx	r3
    132e:	4849      	ldr	r0, [pc, #292]	; (1454 <m2m_wifi_connect_sc+0x270>)
    1330:	4b40      	ldr	r3, [pc, #256]	; (1434 <m2m_wifi_connect_sc+0x250>)
    1332:	4798      	blx	r3
    1334:	200d      	movs	r0, #13
    1336:	4b40      	ldr	r3, [pc, #256]	; (1438 <m2m_wifi_connect_sc+0x254>)
    1338:	4798      	blx	r3
    133a:	200c      	movs	r0, #12
    133c:	4240      	negs	r0, r0
    133e:	e7a0      	b.n	1282 <m2m_wifi_connect_sc+0x9e>
    1340:	783b      	ldrb	r3, [r7, #0]
    1342:	3b01      	subs	r3, #1
    1344:	b2db      	uxtb	r3, r3
    1346:	aa07      	add	r2, sp, #28
    1348:	7013      	strb	r3, [r2, #0]
    134a:	2b03      	cmp	r3, #3
    134c:	d817      	bhi.n	137e <m2m_wifi_connect_sc+0x19a>
    134e:	787a      	ldrb	r2, [r7, #1]
    1350:	1e51      	subs	r1, r2, #1
    1352:	ab07      	add	r3, sp, #28
    1354:	7059      	strb	r1, [r3, #1]
    1356:	2310      	movs	r3, #16
    1358:	0011      	movs	r1, r2
    135a:	4399      	bics	r1, r3
    135c:	290b      	cmp	r1, #11
    135e:	d01d      	beq.n	139c <m2m_wifi_connect_sc+0x1b8>
    1360:	4a3d      	ldr	r2, [pc, #244]	; (1458 <m2m_wifi_connect_sc+0x274>)
    1362:	4930      	ldr	r1, [pc, #192]	; (1424 <m2m_wifi_connect_sc+0x240>)
    1364:	4830      	ldr	r0, [pc, #192]	; (1428 <m2m_wifi_connect_sc+0x244>)
    1366:	4c31      	ldr	r4, [pc, #196]	; (142c <m2m_wifi_connect_sc+0x248>)
    1368:	47a0      	blx	r4
    136a:	ab07      	add	r3, sp, #28
    136c:	7859      	ldrb	r1, [r3, #1]
    136e:	483b      	ldr	r0, [pc, #236]	; (145c <m2m_wifi_connect_sc+0x278>)
    1370:	47a0      	blx	r4
    1372:	200d      	movs	r0, #13
    1374:	4b30      	ldr	r3, [pc, #192]	; (1438 <m2m_wifi_connect_sc+0x254>)
    1376:	4798      	blx	r3
    1378:	200c      	movs	r0, #12
    137a:	4240      	negs	r0, r0
    137c:	e781      	b.n	1282 <m2m_wifi_connect_sc+0x9e>
    137e:	4a38      	ldr	r2, [pc, #224]	; (1460 <m2m_wifi_connect_sc+0x27c>)
    1380:	4928      	ldr	r1, [pc, #160]	; (1424 <m2m_wifi_connect_sc+0x240>)
    1382:	4829      	ldr	r0, [pc, #164]	; (1428 <m2m_wifi_connect_sc+0x244>)
    1384:	4c29      	ldr	r4, [pc, #164]	; (142c <m2m_wifi_connect_sc+0x248>)
    1386:	47a0      	blx	r4
    1388:	ab07      	add	r3, sp, #28
    138a:	7819      	ldrb	r1, [r3, #0]
    138c:	4835      	ldr	r0, [pc, #212]	; (1464 <m2m_wifi_connect_sc+0x280>)
    138e:	47a0      	blx	r4
    1390:	200d      	movs	r0, #13
    1392:	4b29      	ldr	r3, [pc, #164]	; (1438 <m2m_wifi_connect_sc+0x254>)
    1394:	4798      	blx	r3
    1396:	200c      	movs	r0, #12
    1398:	4240      	negs	r0, r0
    139a:	e772      	b.n	1282 <m2m_wifi_connect_sc+0x9e>
    139c:	1cb9      	adds	r1, r7, #2
    139e:	2016      	movs	r0, #22
    13a0:	ab02      	add	r3, sp, #8
    13a2:	469c      	mov	ip, r3
    13a4:	4460      	add	r0, ip
    13a6:	4b1c      	ldr	r3, [pc, #112]	; (1418 <m2m_wifi_connect_sc+0x234>)
    13a8:	4798      	blx	r3
    13aa:	787b      	ldrb	r3, [r7, #1]
    13ac:	aa07      	add	r2, sp, #28
    13ae:	4694      	mov	ip, r2
    13b0:	4463      	add	r3, ip
    13b2:	2200      	movs	r2, #0
    13b4:	709a      	strb	r2, [r3, #2]
    13b6:	e75a      	b.n	126e <m2m_wifi_connect_sc+0x8a>
    13b8:	0038      	movs	r0, r7
    13ba:	4b20      	ldr	r3, [pc, #128]	; (143c <m2m_wifi_connect_sc+0x258>)
    13bc:	4798      	blx	r3
    13be:	1e43      	subs	r3, r0, #1
    13c0:	b29b      	uxth	r3, r3
    13c2:	2b3f      	cmp	r3, #63	; 0x3f
    13c4:	d805      	bhi.n	13d2 <m2m_wifi_connect_sc+0x1ee>
    13c6:	1c42      	adds	r2, r0, #1
    13c8:	0039      	movs	r1, r7
    13ca:	a807      	add	r0, sp, #28
    13cc:	4b12      	ldr	r3, [pc, #72]	; (1418 <m2m_wifi_connect_sc+0x234>)
    13ce:	4798      	blx	r3
    13d0:	e74d      	b.n	126e <m2m_wifi_connect_sc+0x8a>
    13d2:	4a25      	ldr	r2, [pc, #148]	; (1468 <m2m_wifi_connect_sc+0x284>)
    13d4:	4913      	ldr	r1, [pc, #76]	; (1424 <m2m_wifi_connect_sc+0x240>)
    13d6:	4814      	ldr	r0, [pc, #80]	; (1428 <m2m_wifi_connect_sc+0x244>)
    13d8:	4b14      	ldr	r3, [pc, #80]	; (142c <m2m_wifi_connect_sc+0x248>)
    13da:	4798      	blx	r3
    13dc:	4823      	ldr	r0, [pc, #140]	; (146c <m2m_wifi_connect_sc+0x288>)
    13de:	4b15      	ldr	r3, [pc, #84]	; (1434 <m2m_wifi_connect_sc+0x250>)
    13e0:	4798      	blx	r3
    13e2:	200d      	movs	r0, #13
    13e4:	4b14      	ldr	r3, [pc, #80]	; (1438 <m2m_wifi_connect_sc+0x254>)
    13e6:	4798      	blx	r3
    13e8:	200c      	movs	r0, #12
    13ea:	4240      	negs	r0, r0
    13ec:	e749      	b.n	1282 <m2m_wifi_connect_sc+0x9e>
    13ee:	223e      	movs	r2, #62	; 0x3e
    13f0:	0039      	movs	r1, r7
    13f2:	a807      	add	r0, sp, #28
    13f4:	4b08      	ldr	r3, [pc, #32]	; (1418 <m2m_wifi_connect_sc+0x234>)
    13f6:	4798      	blx	r3
    13f8:	e739      	b.n	126e <m2m_wifi_connect_sc+0x8a>
    13fa:	4a1d      	ldr	r2, [pc, #116]	; (1470 <m2m_wifi_connect_sc+0x28c>)
    13fc:	4909      	ldr	r1, [pc, #36]	; (1424 <m2m_wifi_connect_sc+0x240>)
    13fe:	480a      	ldr	r0, [pc, #40]	; (1428 <m2m_wifi_connect_sc+0x244>)
    1400:	4b0a      	ldr	r3, [pc, #40]	; (142c <m2m_wifi_connect_sc+0x248>)
    1402:	4798      	blx	r3
    1404:	481b      	ldr	r0, [pc, #108]	; (1474 <m2m_wifi_connect_sc+0x290>)
    1406:	4b0b      	ldr	r3, [pc, #44]	; (1434 <m2m_wifi_connect_sc+0x250>)
    1408:	4798      	blx	r3
    140a:	200d      	movs	r0, #13
    140c:	4b0a      	ldr	r3, [pc, #40]	; (1438 <m2m_wifi_connect_sc+0x254>)
    140e:	4798      	blx	r3
    1410:	200c      	movs	r0, #12
    1412:	4240      	negs	r0, r0
    1414:	e735      	b.n	1282 <m2m_wifi_connect_sc+0x9e>
    1416:	46c0      	nop			; (mov r8, r8)
    1418:	0000051d 	.word	0x0000051d
    141c:	00000645 	.word	0x00000645
    1420:	0000021f 	.word	0x0000021f
    1424:	0000a1ac 	.word	0x0000a1ac
    1428:	00009e28 	.word	0x00009e28
    142c:	00008bd5 	.word	0x00008bd5
    1430:	0000a1f4 	.word	0x0000a1f4
    1434:	00008cf1 	.word	0x00008cf1
    1438:	00008c09 	.word	0x00008c09
    143c:	00000541 	.word	0x00000541
    1440:	0000022b 	.word	0x0000022b
    1444:	0000a208 	.word	0x0000a208
    1448:	00000236 	.word	0x00000236
    144c:	0000a214 	.word	0x0000a214
    1450:	0000023f 	.word	0x0000023f
    1454:	0000a228 	.word	0x0000a228
    1458:	0000025d 	.word	0x0000025d
    145c:	0000a250 	.word	0x0000a250
    1460:	00000256 	.word	0x00000256
    1464:	0000a234 	.word	0x0000a234
    1468:	00000269 	.word	0x00000269
    146c:	0000a26c 	.word	0x0000a26c
    1470:	00000276 	.word	0x00000276
    1474:	0000a288 	.word	0x0000a288

00001478 <m2m_wifi_connect>:
    1478:	b530      	push	{r4, r5, lr}
    147a:	b083      	sub	sp, #12
    147c:	ac06      	add	r4, sp, #24
    147e:	8824      	ldrh	r4, [r4, #0]
    1480:	2500      	movs	r5, #0
    1482:	9501      	str	r5, [sp, #4]
    1484:	9400      	str	r4, [sp, #0]
    1486:	4c02      	ldr	r4, [pc, #8]	; (1490 <m2m_wifi_connect+0x18>)
    1488:	47a0      	blx	r4
    148a:	b003      	add	sp, #12
    148c:	bd30      	pop	{r4, r5, pc}
    148e:	46c0      	nop			; (mov r8, r8)
    1490:	000011e5 	.word	0x000011e5

00001494 <m2m_wifi_request_dhcp_client>:
    1494:	2000      	movs	r0, #0
    1496:	4770      	bx	lr

00001498 <chip_apply_conf>:
    1498:	b5f0      	push	{r4, r5, r6, r7, lr}
    149a:	b083      	sub	sp, #12
    149c:	2580      	movs	r5, #128	; 0x80
    149e:	006d      	lsls	r5, r5, #1
    14a0:	4305      	orrs	r5, r0
    14a2:	24a5      	movs	r4, #165	; 0xa5
    14a4:	0164      	lsls	r4, r4, #5
    14a6:	4f08      	ldr	r7, [pc, #32]	; (14c8 <chip_apply_conf+0x30>)
    14a8:	4e08      	ldr	r6, [pc, #32]	; (14cc <chip_apply_conf+0x34>)
    14aa:	0029      	movs	r1, r5
    14ac:	0020      	movs	r0, r4
    14ae:	47b8      	blx	r7
    14b0:	2300      	movs	r3, #0
    14b2:	9301      	str	r3, [sp, #4]
    14b4:	a901      	add	r1, sp, #4
    14b6:	0020      	movs	r0, r4
    14b8:	47b0      	blx	r6
    14ba:	2800      	cmp	r0, #0
    14bc:	d1f5      	bne.n	14aa <chip_apply_conf+0x12>
    14be:	9b01      	ldr	r3, [sp, #4]
    14c0:	429d      	cmp	r5, r3
    14c2:	d1f2      	bne.n	14aa <chip_apply_conf+0x12>
    14c4:	b003      	add	sp, #12
    14c6:	bdf0      	pop	{r4, r5, r6, r7, pc}
    14c8:	00001989 	.word	0x00001989
    14cc:	0000197d 	.word	0x0000197d

000014d0 <enable_interrupts>:
    14d0:	b500      	push	{lr}
    14d2:	b083      	sub	sp, #12
    14d4:	2300      	movs	r3, #0
    14d6:	9301      	str	r3, [sp, #4]
    14d8:	a901      	add	r1, sp, #4
    14da:	4811      	ldr	r0, [pc, #68]	; (1520 <enable_interrupts+0x50>)
    14dc:	4b11      	ldr	r3, [pc, #68]	; (1524 <enable_interrupts+0x54>)
    14de:	4798      	blx	r3
    14e0:	2800      	cmp	r0, #0
    14e2:	d001      	beq.n	14e8 <enable_interrupts+0x18>
    14e4:	b003      	add	sp, #12
    14e6:	bd00      	pop	{pc}
    14e8:	2180      	movs	r1, #128	; 0x80
    14ea:	0049      	lsls	r1, r1, #1
    14ec:	9b01      	ldr	r3, [sp, #4]
    14ee:	4319      	orrs	r1, r3
    14f0:	9101      	str	r1, [sp, #4]
    14f2:	480b      	ldr	r0, [pc, #44]	; (1520 <enable_interrupts+0x50>)
    14f4:	4b0c      	ldr	r3, [pc, #48]	; (1528 <enable_interrupts+0x58>)
    14f6:	4798      	blx	r3
    14f8:	2800      	cmp	r0, #0
    14fa:	d1f3      	bne.n	14e4 <enable_interrupts+0x14>
    14fc:	a901      	add	r1, sp, #4
    14fe:	20d0      	movs	r0, #208	; 0xd0
    1500:	0140      	lsls	r0, r0, #5
    1502:	4b08      	ldr	r3, [pc, #32]	; (1524 <enable_interrupts+0x54>)
    1504:	4798      	blx	r3
    1506:	2800      	cmp	r0, #0
    1508:	d1ec      	bne.n	14e4 <enable_interrupts+0x14>
    150a:	2180      	movs	r1, #128	; 0x80
    150c:	0249      	lsls	r1, r1, #9
    150e:	9b01      	ldr	r3, [sp, #4]
    1510:	4319      	orrs	r1, r3
    1512:	9101      	str	r1, [sp, #4]
    1514:	20d0      	movs	r0, #208	; 0xd0
    1516:	0140      	lsls	r0, r0, #5
    1518:	4b03      	ldr	r3, [pc, #12]	; (1528 <enable_interrupts+0x58>)
    151a:	4798      	blx	r3
    151c:	e7e2      	b.n	14e4 <enable_interrupts+0x14>
    151e:	46c0      	nop			; (mov r8, r8)
    1520:	00001408 	.word	0x00001408
    1524:	0000197d 	.word	0x0000197d
    1528:	00001989 	.word	0x00001989

0000152c <nmi_get_chipid>:
    152c:	b510      	push	{r4, lr}
    152e:	b082      	sub	sp, #8
    1530:	4b28      	ldr	r3, [pc, #160]	; (15d4 <nmi_get_chipid+0xa8>)
    1532:	681c      	ldr	r4, [r3, #0]
    1534:	2c00      	cmp	r4, #0
    1536:	d004      	beq.n	1542 <nmi_get_chipid+0x16>
    1538:	4b26      	ldr	r3, [pc, #152]	; (15d4 <nmi_get_chipid+0xa8>)
    153a:	681c      	ldr	r4, [r3, #0]
    153c:	0020      	movs	r0, r4
    153e:	b002      	add	sp, #8
    1540:	bd10      	pop	{r4, pc}
    1542:	0019      	movs	r1, r3
    1544:	2080      	movs	r0, #128	; 0x80
    1546:	0140      	lsls	r0, r0, #5
    1548:	4b23      	ldr	r3, [pc, #140]	; (15d8 <nmi_get_chipid+0xac>)
    154a:	4798      	blx	r3
    154c:	2800      	cmp	r0, #0
    154e:	d003      	beq.n	1558 <nmi_get_chipid+0x2c>
    1550:	2200      	movs	r2, #0
    1552:	4b20      	ldr	r3, [pc, #128]	; (15d4 <nmi_get_chipid+0xa8>)
    1554:	601a      	str	r2, [r3, #0]
    1556:	e7f1      	b.n	153c <nmi_get_chipid+0x10>
    1558:	a901      	add	r1, sp, #4
    155a:	4820      	ldr	r0, [pc, #128]	; (15dc <nmi_get_chipid+0xb0>)
    155c:	4b1e      	ldr	r3, [pc, #120]	; (15d8 <nmi_get_chipid+0xac>)
    155e:	4798      	blx	r3
    1560:	2800      	cmp	r0, #0
    1562:	d003      	beq.n	156c <nmi_get_chipid+0x40>
    1564:	2200      	movs	r2, #0
    1566:	4b1b      	ldr	r3, [pc, #108]	; (15d4 <nmi_get_chipid+0xa8>)
    1568:	601a      	str	r2, [r3, #0]
    156a:	e7e7      	b.n	153c <nmi_get_chipid+0x10>
    156c:	4b19      	ldr	r3, [pc, #100]	; (15d4 <nmi_get_chipid+0xa8>)
    156e:	681b      	ldr	r3, [r3, #0]
    1570:	4a1b      	ldr	r2, [pc, #108]	; (15e0 <nmi_get_chipid+0xb4>)
    1572:	4293      	cmp	r3, r2
    1574:	d00e      	beq.n	1594 <nmi_get_chipid+0x68>
    1576:	4a1b      	ldr	r2, [pc, #108]	; (15e4 <nmi_get_chipid+0xb8>)
    1578:	4293      	cmp	r3, r2
    157a:	d012      	beq.n	15a2 <nmi_get_chipid+0x76>
    157c:	4a1a      	ldr	r2, [pc, #104]	; (15e8 <nmi_get_chipid+0xbc>)
    157e:	4293      	cmp	r3, r2
    1580:	d01c      	beq.n	15bc <nmi_get_chipid+0x90>
    1582:	4914      	ldr	r1, [pc, #80]	; (15d4 <nmi_get_chipid+0xa8>)
    1584:	4a19      	ldr	r2, [pc, #100]	; (15ec <nmi_get_chipid+0xc0>)
    1586:	680b      	ldr	r3, [r1, #0]
    1588:	401a      	ands	r2, r3
    158a:	23a0      	movs	r3, #160	; 0xa0
    158c:	02db      	lsls	r3, r3, #11
    158e:	4313      	orrs	r3, r2
    1590:	600b      	str	r3, [r1, #0]
    1592:	e7d1      	b.n	1538 <nmi_get_chipid+0xc>
    1594:	9b01      	ldr	r3, [sp, #4]
    1596:	2b01      	cmp	r3, #1
    1598:	d0f3      	beq.n	1582 <nmi_get_chipid+0x56>
    159a:	4a15      	ldr	r2, [pc, #84]	; (15f0 <nmi_get_chipid+0xc4>)
    159c:	4b0d      	ldr	r3, [pc, #52]	; (15d4 <nmi_get_chipid+0xa8>)
    159e:	601a      	str	r2, [r3, #0]
    15a0:	e7ef      	b.n	1582 <nmi_get_chipid+0x56>
    15a2:	9b01      	ldr	r3, [sp, #4]
    15a4:	2b03      	cmp	r3, #3
    15a6:	d0ec      	beq.n	1582 <nmi_get_chipid+0x56>
    15a8:	2b04      	cmp	r3, #4
    15aa:	d003      	beq.n	15b4 <nmi_get_chipid+0x88>
    15ac:	4a11      	ldr	r2, [pc, #68]	; (15f4 <nmi_get_chipid+0xc8>)
    15ae:	4b09      	ldr	r3, [pc, #36]	; (15d4 <nmi_get_chipid+0xa8>)
    15b0:	601a      	str	r2, [r3, #0]
    15b2:	e7e6      	b.n	1582 <nmi_get_chipid+0x56>
    15b4:	4a10      	ldr	r2, [pc, #64]	; (15f8 <nmi_get_chipid+0xcc>)
    15b6:	4b07      	ldr	r3, [pc, #28]	; (15d4 <nmi_get_chipid+0xa8>)
    15b8:	601a      	str	r2, [r3, #0]
    15ba:	e7e2      	b.n	1582 <nmi_get_chipid+0x56>
    15bc:	4905      	ldr	r1, [pc, #20]	; (15d4 <nmi_get_chipid+0xa8>)
    15be:	20ec      	movs	r0, #236	; 0xec
    15c0:	0380      	lsls	r0, r0, #14
    15c2:	4b05      	ldr	r3, [pc, #20]	; (15d8 <nmi_get_chipid+0xac>)
    15c4:	4798      	blx	r3
    15c6:	2800      	cmp	r0, #0
    15c8:	d0db      	beq.n	1582 <nmi_get_chipid+0x56>
    15ca:	2200      	movs	r2, #0
    15cc:	4b01      	ldr	r3, [pc, #4]	; (15d4 <nmi_get_chipid+0xa8>)
    15ce:	601a      	str	r2, [r3, #0]
    15d0:	e7b4      	b.n	153c <nmi_get_chipid+0x10>
    15d2:	46c0      	nop			; (mov r8, r8)
    15d4:	200000bc 	.word	0x200000bc
    15d8:	0000197d 	.word	0x0000197d
    15dc:	000013f4 	.word	0x000013f4
    15e0:	001002a0 	.word	0x001002a0
    15e4:	001002b0 	.word	0x001002b0
    15e8:	001000f0 	.word	0x001000f0
    15ec:	fff0ffff 	.word	0xfff0ffff
    15f0:	001002a1 	.word	0x001002a1
    15f4:	001002b2 	.word	0x001002b2
    15f8:	001002b1 	.word	0x001002b1

000015fc <chip_sleep>:
    15fc:	b530      	push	{r4, r5, lr}
    15fe:	b083      	sub	sp, #12
    1600:	4c16      	ldr	r4, [pc, #88]	; (165c <chip_sleep+0x60>)
    1602:	2501      	movs	r5, #1
    1604:	a901      	add	r1, sp, #4
    1606:	2010      	movs	r0, #16
    1608:	47a0      	blx	r4
    160a:	2800      	cmp	r0, #0
    160c:	d11c      	bne.n	1648 <chip_sleep+0x4c>
    160e:	9b01      	ldr	r3, [sp, #4]
    1610:	422b      	tst	r3, r5
    1612:	d1f7      	bne.n	1604 <chip_sleep+0x8>
    1614:	a901      	add	r1, sp, #4
    1616:	3001      	adds	r0, #1
    1618:	4b10      	ldr	r3, [pc, #64]	; (165c <chip_sleep+0x60>)
    161a:	4798      	blx	r3
    161c:	2800      	cmp	r0, #0
    161e:	d113      	bne.n	1648 <chip_sleep+0x4c>
    1620:	9901      	ldr	r1, [sp, #4]
    1622:	078b      	lsls	r3, r1, #30
    1624:	d507      	bpl.n	1636 <chip_sleep+0x3a>
    1626:	2302      	movs	r3, #2
    1628:	4399      	bics	r1, r3
    162a:	9101      	str	r1, [sp, #4]
    162c:	3001      	adds	r0, #1
    162e:	4b0c      	ldr	r3, [pc, #48]	; (1660 <chip_sleep+0x64>)
    1630:	4798      	blx	r3
    1632:	2800      	cmp	r0, #0
    1634:	d108      	bne.n	1648 <chip_sleep+0x4c>
    1636:	a901      	add	r1, sp, #4
    1638:	200b      	movs	r0, #11
    163a:	4b08      	ldr	r3, [pc, #32]	; (165c <chip_sleep+0x60>)
    163c:	4798      	blx	r3
    163e:	2800      	cmp	r0, #0
    1640:	d102      	bne.n	1648 <chip_sleep+0x4c>
    1642:	9901      	ldr	r1, [sp, #4]
    1644:	07cb      	lsls	r3, r1, #31
    1646:	d401      	bmi.n	164c <chip_sleep+0x50>
    1648:	b003      	add	sp, #12
    164a:	bd30      	pop	{r4, r5, pc}
    164c:	2301      	movs	r3, #1
    164e:	4399      	bics	r1, r3
    1650:	9101      	str	r1, [sp, #4]
    1652:	300b      	adds	r0, #11
    1654:	4b02      	ldr	r3, [pc, #8]	; (1660 <chip_sleep+0x64>)
    1656:	4798      	blx	r3
    1658:	e7f6      	b.n	1648 <chip_sleep+0x4c>
    165a:	46c0      	nop			; (mov r8, r8)
    165c:	0000197d 	.word	0x0000197d
    1660:	00001989 	.word	0x00001989

00001664 <chip_wake>:
    1664:	b5f0      	push	{r4, r5, r6, r7, lr}
    1666:	b083      	sub	sp, #12
    1668:	2300      	movs	r3, #0
    166a:	9301      	str	r3, [sp, #4]
    166c:	9300      	str	r3, [sp, #0]
    166e:	a901      	add	r1, sp, #4
    1670:	200b      	movs	r0, #11
    1672:	4b28      	ldr	r3, [pc, #160]	; (1714 <chip_wake+0xb0>)
    1674:	4798      	blx	r3
    1676:	1e04      	subs	r4, r0, #0
    1678:	d130      	bne.n	16dc <chip_wake+0x78>
    167a:	9901      	ldr	r1, [sp, #4]
    167c:	07cb      	lsls	r3, r1, #31
    167e:	d406      	bmi.n	168e <chip_wake+0x2a>
    1680:	2301      	movs	r3, #1
    1682:	4319      	orrs	r1, r3
    1684:	200b      	movs	r0, #11
    1686:	4b24      	ldr	r3, [pc, #144]	; (1718 <chip_wake+0xb4>)
    1688:	4798      	blx	r3
    168a:	1e04      	subs	r4, r0, #0
    168c:	d126      	bne.n	16dc <chip_wake+0x78>
    168e:	a901      	add	r1, sp, #4
    1690:	2001      	movs	r0, #1
    1692:	4b20      	ldr	r3, [pc, #128]	; (1714 <chip_wake+0xb0>)
    1694:	4798      	blx	r3
    1696:	1e04      	subs	r4, r0, #0
    1698:	d120      	bne.n	16dc <chip_wake+0x78>
    169a:	9901      	ldr	r1, [sp, #4]
    169c:	078b      	lsls	r3, r1, #30
    169e:	d520      	bpl.n	16e2 <chip_wake+0x7e>
    16a0:	2505      	movs	r5, #5
    16a2:	4f1c      	ldr	r7, [pc, #112]	; (1714 <chip_wake+0xb0>)
    16a4:	4e1d      	ldr	r6, [pc, #116]	; (171c <chip_wake+0xb8>)
    16a6:	4669      	mov	r1, sp
    16a8:	200f      	movs	r0, #15
    16aa:	47b8      	blx	r7
    16ac:	1e04      	subs	r4, r0, #0
    16ae:	d120      	bne.n	16f2 <chip_wake+0x8e>
    16b0:	9b00      	ldr	r3, [sp, #0]
    16b2:	075b      	lsls	r3, r3, #29
    16b4:	d42b      	bmi.n	170e <chip_wake+0xaa>
    16b6:	2002      	movs	r0, #2
    16b8:	47b0      	blx	r6
    16ba:	3d01      	subs	r5, #1
    16bc:	2d00      	cmp	r5, #0
    16be:	d1f2      	bne.n	16a6 <chip_wake+0x42>
    16c0:	22af      	movs	r2, #175	; 0xaf
    16c2:	0052      	lsls	r2, r2, #1
    16c4:	4916      	ldr	r1, [pc, #88]	; (1720 <chip_wake+0xbc>)
    16c6:	4817      	ldr	r0, [pc, #92]	; (1724 <chip_wake+0xc0>)
    16c8:	4b17      	ldr	r3, [pc, #92]	; (1728 <chip_wake+0xc4>)
    16ca:	4798      	blx	r3
    16cc:	4817      	ldr	r0, [pc, #92]	; (172c <chip_wake+0xc8>)
    16ce:	4b18      	ldr	r3, [pc, #96]	; (1730 <chip_wake+0xcc>)
    16d0:	4798      	blx	r3
    16d2:	200d      	movs	r0, #13
    16d4:	4b17      	ldr	r3, [pc, #92]	; (1734 <chip_wake+0xd0>)
    16d6:	4798      	blx	r3
    16d8:	2404      	movs	r4, #4
    16da:	4264      	negs	r4, r4
    16dc:	0020      	movs	r0, r4
    16de:	b003      	add	sp, #12
    16e0:	bdf0      	pop	{r4, r5, r6, r7, pc}
    16e2:	2302      	movs	r3, #2
    16e4:	4319      	orrs	r1, r3
    16e6:	2001      	movs	r0, #1
    16e8:	4b0b      	ldr	r3, [pc, #44]	; (1718 <chip_wake+0xb4>)
    16ea:	4798      	blx	r3
    16ec:	1e04      	subs	r4, r0, #0
    16ee:	d0d7      	beq.n	16a0 <chip_wake+0x3c>
    16f0:	e7f4      	b.n	16dc <chip_wake+0x78>
    16f2:	22aa      	movs	r2, #170	; 0xaa
    16f4:	0052      	lsls	r2, r2, #1
    16f6:	490a      	ldr	r1, [pc, #40]	; (1720 <chip_wake+0xbc>)
    16f8:	480a      	ldr	r0, [pc, #40]	; (1724 <chip_wake+0xc0>)
    16fa:	4d0b      	ldr	r5, [pc, #44]	; (1728 <chip_wake+0xc4>)
    16fc:	47a8      	blx	r5
    16fe:	9a00      	ldr	r2, [sp, #0]
    1700:	0021      	movs	r1, r4
    1702:	480d      	ldr	r0, [pc, #52]	; (1738 <chip_wake+0xd4>)
    1704:	47a8      	blx	r5
    1706:	200d      	movs	r0, #13
    1708:	4b0a      	ldr	r3, [pc, #40]	; (1734 <chip_wake+0xd0>)
    170a:	4798      	blx	r3
    170c:	e7e6      	b.n	16dc <chip_wake+0x78>
    170e:	4b0b      	ldr	r3, [pc, #44]	; (173c <chip_wake+0xd8>)
    1710:	4798      	blx	r3
    1712:	e7e3      	b.n	16dc <chip_wake+0x78>
    1714:	0000197d 	.word	0x0000197d
    1718:	00001989 	.word	0x00001989
    171c:	00000129 	.word	0x00000129
    1720:	0000a368 	.word	0x0000a368
    1724:	00009e28 	.word	0x00009e28
    1728:	00008bd5 	.word	0x00008bd5
    172c:	0000a3b0 	.word	0x0000a3b0
    1730:	00008cf1 	.word	0x00008cf1
    1734:	00008c09 	.word	0x00008c09
    1738:	0000a398 	.word	0x0000a398
    173c:	00001965 	.word	0x00001965

00001740 <wait_for_bootrom>:
    1740:	b5f8      	push	{r3, r4, r5, r6, r7, lr}
    1742:	0007      	movs	r7, r0
    1744:	4d2d      	ldr	r5, [pc, #180]	; (17fc <wait_for_bootrom+0xbc>)
    1746:	4c2e      	ldr	r4, [pc, #184]	; (1800 <wait_for_bootrom+0xc0>)
    1748:	4e2e      	ldr	r6, [pc, #184]	; (1804 <wait_for_bootrom+0xc4>)
    174a:	0028      	movs	r0, r5
    174c:	47a0      	blx	r4
    174e:	2800      	cmp	r0, #0
    1750:	db02      	blt.n	1758 <wait_for_bootrom+0x18>
    1752:	2001      	movs	r0, #1
    1754:	47b0      	blx	r6
    1756:	e7f8      	b.n	174a <wait_for_bootrom+0xa>
    1758:	482b      	ldr	r0, [pc, #172]	; (1808 <wait_for_bootrom+0xc8>)
    175a:	4b29      	ldr	r3, [pc, #164]	; (1800 <wait_for_bootrom+0xc0>)
    175c:	4798      	blx	r3
    175e:	07c3      	lsls	r3, r0, #31
    1760:	d409      	bmi.n	1776 <wait_for_bootrom+0x36>
    1762:	4e28      	ldr	r6, [pc, #160]	; (1804 <wait_for_bootrom+0xc4>)
    1764:	4c29      	ldr	r4, [pc, #164]	; (180c <wait_for_bootrom+0xcc>)
    1766:	4d26      	ldr	r5, [pc, #152]	; (1800 <wait_for_bootrom+0xc0>)
    1768:	2001      	movs	r0, #1
    176a:	47b0      	blx	r6
    176c:	0020      	movs	r0, r4
    176e:	47a8      	blx	r5
    1770:	4b27      	ldr	r3, [pc, #156]	; (1810 <wait_for_bootrom+0xd0>)
    1772:	4298      	cmp	r0, r3
    1774:	d1f8      	bne.n	1768 <wait_for_bootrom+0x28>
    1776:	2f02      	cmp	r7, #2
    1778:	d021      	beq.n	17be <wait_for_bootrom+0x7e>
    177a:	2f03      	cmp	r7, #3
    177c:	d029      	beq.n	17d2 <wait_for_bootrom+0x92>
    177e:	2f04      	cmp	r7, #4
    1780:	d030      	beq.n	17e4 <wait_for_bootrom+0xa4>
    1782:	4924      	ldr	r1, [pc, #144]	; (1814 <wait_for_bootrom+0xd4>)
    1784:	4824      	ldr	r0, [pc, #144]	; (1818 <wait_for_bootrom+0xd8>)
    1786:	4b25      	ldr	r3, [pc, #148]	; (181c <wait_for_bootrom+0xdc>)
    1788:	4798      	blx	r3
    178a:	2400      	movs	r4, #0
    178c:	4b24      	ldr	r3, [pc, #144]	; (1820 <wait_for_bootrom+0xe0>)
    178e:	4798      	blx	r3
    1790:	0500      	lsls	r0, r0, #20
    1792:	0d00      	lsrs	r0, r0, #20
    1794:	4b23      	ldr	r3, [pc, #140]	; (1824 <wait_for_bootrom+0xe4>)
    1796:	4298      	cmp	r0, r3
    1798:	d82a      	bhi.n	17f0 <wait_for_bootrom+0xb0>
    179a:	0020      	movs	r0, r4
    179c:	4b22      	ldr	r3, [pc, #136]	; (1828 <wait_for_bootrom+0xe8>)
    179e:	4798      	blx	r3
    17a0:	4822      	ldr	r0, [pc, #136]	; (182c <wait_for_bootrom+0xec>)
    17a2:	4c23      	ldr	r4, [pc, #140]	; (1830 <wait_for_bootrom+0xf0>)
    17a4:	47a0      	blx	r4
    17a6:	491b      	ldr	r1, [pc, #108]	; (1814 <wait_for_bootrom+0xd4>)
    17a8:	4822      	ldr	r0, [pc, #136]	; (1834 <wait_for_bootrom+0xf4>)
    17aa:	47a0      	blx	r4
    17ac:	200d      	movs	r0, #13
    17ae:	4b22      	ldr	r3, [pc, #136]	; (1838 <wait_for_bootrom+0xf8>)
    17b0:	4798      	blx	r3
    17b2:	4922      	ldr	r1, [pc, #136]	; (183c <wait_for_bootrom+0xfc>)
    17b4:	4815      	ldr	r0, [pc, #84]	; (180c <wait_for_bootrom+0xcc>)
    17b6:	4b19      	ldr	r3, [pc, #100]	; (181c <wait_for_bootrom+0xdc>)
    17b8:	4798      	blx	r3
    17ba:	2000      	movs	r0, #0
    17bc:	bdf8      	pop	{r3, r4, r5, r6, r7, pc}
    17be:	4920      	ldr	r1, [pc, #128]	; (1840 <wait_for_bootrom+0x100>)
    17c0:	4820      	ldr	r0, [pc, #128]	; (1844 <wait_for_bootrom+0x104>)
    17c2:	4c16      	ldr	r4, [pc, #88]	; (181c <wait_for_bootrom+0xdc>)
    17c4:	47a0      	blx	r4
    17c6:	2180      	movs	r1, #128	; 0x80
    17c8:	0349      	lsls	r1, r1, #13
    17ca:	4813      	ldr	r0, [pc, #76]	; (1818 <wait_for_bootrom+0xd8>)
    17cc:	47a0      	blx	r4
    17ce:	2400      	movs	r4, #0
    17d0:	e7dc      	b.n	178c <wait_for_bootrom+0x4c>
    17d2:	491b      	ldr	r1, [pc, #108]	; (1840 <wait_for_bootrom+0x100>)
    17d4:	481b      	ldr	r0, [pc, #108]	; (1844 <wait_for_bootrom+0x104>)
    17d6:	4c11      	ldr	r4, [pc, #68]	; (181c <wait_for_bootrom+0xdc>)
    17d8:	47a0      	blx	r4
    17da:	2100      	movs	r1, #0
    17dc:	480e      	ldr	r0, [pc, #56]	; (1818 <wait_for_bootrom+0xd8>)
    17de:	47a0      	blx	r4
    17e0:	2400      	movs	r4, #0
    17e2:	e7d3      	b.n	178c <wait_for_bootrom+0x4c>
    17e4:	490b      	ldr	r1, [pc, #44]	; (1814 <wait_for_bootrom+0xd4>)
    17e6:	480c      	ldr	r0, [pc, #48]	; (1818 <wait_for_bootrom+0xd8>)
    17e8:	4b0c      	ldr	r3, [pc, #48]	; (181c <wait_for_bootrom+0xdc>)
    17ea:	4798      	blx	r3
    17ec:	2480      	movs	r4, #128	; 0x80
    17ee:	e7cd      	b.n	178c <wait_for_bootrom+0x4c>
    17f0:	2002      	movs	r0, #2
    17f2:	4320      	orrs	r0, r4
    17f4:	4b0c      	ldr	r3, [pc, #48]	; (1828 <wait_for_bootrom+0xe8>)
    17f6:	4798      	blx	r3
    17f8:	e7d2      	b.n	17a0 <wait_for_bootrom+0x60>
    17fa:	46c0      	nop			; (mov r8, r8)
    17fc:	00001014 	.word	0x00001014
    1800:	00001971 	.word	0x00001971
    1804:	00000129 	.word	0x00000129
    1808:	000207bc 	.word	0x000207bc
    180c:	000c000c 	.word	0x000c000c
    1810:	10add09e 	.word	0x10add09e
    1814:	13521352 	.word	0x13521352
    1818:	0000108c 	.word	0x0000108c
    181c:	00001989 	.word	0x00001989
    1820:	0000152d 	.word	0x0000152d
    1824:	0000039f 	.word	0x0000039f
    1828:	00001499 	.word	0x00001499
    182c:	0000a158 	.word	0x0000a158
    1830:	00008bd5 	.word	0x00008bd5
    1834:	0000a3cc 	.word	0x0000a3cc
    1838:	00008c09 	.word	0x00008c09
    183c:	ef522f61 	.word	0xef522f61
    1840:	3c1cd57d 	.word	0x3c1cd57d
    1844:	000207ac 	.word	0x000207ac

00001848 <wait_for_firmware_start>:
    1848:	b570      	push	{r4, r5, r6, lr}
    184a:	b082      	sub	sp, #8
    184c:	4b15      	ldr	r3, [pc, #84]	; (18a4 <wait_for_firmware_start+0x5c>)
    184e:	9301      	str	r3, [sp, #4]
    1850:	4b15      	ldr	r3, [pc, #84]	; (18a8 <wait_for_firmware_start+0x60>)
    1852:	9300      	str	r3, [sp, #0]
    1854:	3802      	subs	r0, #2
    1856:	2801      	cmp	r0, #1
    1858:	d911      	bls.n	187e <wait_for_firmware_start+0x36>
    185a:	2401      	movs	r4, #1
    185c:	4264      	negs	r4, r4
    185e:	2000      	movs	r0, #0
    1860:	4e12      	ldr	r6, [pc, #72]	; (18ac <wait_for_firmware_start+0x64>)
    1862:	4d13      	ldr	r5, [pc, #76]	; (18b0 <wait_for_firmware_start+0x68>)
    1864:	9b00      	ldr	r3, [sp, #0]
    1866:	4298      	cmp	r0, r3
    1868:	d00e      	beq.n	1888 <wait_for_firmware_start+0x40>
    186a:	2002      	movs	r0, #2
    186c:	47b0      	blx	r6
    186e:	9801      	ldr	r0, [sp, #4]
    1870:	47a8      	blx	r5
    1872:	3c01      	subs	r4, #1
    1874:	2c00      	cmp	r4, #0
    1876:	d1f5      	bne.n	1864 <wait_for_firmware_start+0x1c>
    1878:	2005      	movs	r0, #5
    187a:	4240      	negs	r0, r0
    187c:	e009      	b.n	1892 <wait_for_firmware_start+0x4a>
    187e:	4b0d      	ldr	r3, [pc, #52]	; (18b4 <wait_for_firmware_start+0x6c>)
    1880:	9301      	str	r3, [sp, #4]
    1882:	4b0d      	ldr	r3, [pc, #52]	; (18b8 <wait_for_firmware_start+0x70>)
    1884:	9300      	str	r3, [sp, #0]
    1886:	e7e8      	b.n	185a <wait_for_firmware_start+0x12>
    1888:	9a00      	ldr	r2, [sp, #0]
    188a:	4b07      	ldr	r3, [pc, #28]	; (18a8 <wait_for_firmware_start+0x60>)
    188c:	2000      	movs	r0, #0
    188e:	429a      	cmp	r2, r3
    1890:	d001      	beq.n	1896 <wait_for_firmware_start+0x4e>
    1892:	b002      	add	sp, #8
    1894:	bd70      	pop	{r4, r5, r6, pc}
    1896:	2100      	movs	r1, #0
    1898:	4802      	ldr	r0, [pc, #8]	; (18a4 <wait_for_firmware_start+0x5c>)
    189a:	4b08      	ldr	r3, [pc, #32]	; (18bc <wait_for_firmware_start+0x74>)
    189c:	4798      	blx	r3
    189e:	2000      	movs	r0, #0
    18a0:	e7f7      	b.n	1892 <wait_for_firmware_start+0x4a>
    18a2:	46c0      	nop			; (mov r8, r8)
    18a4:	0000108c 	.word	0x0000108c
    18a8:	02532636 	.word	0x02532636
    18ac:	00000129 	.word	0x00000129
    18b0:	00001971 	.word	0x00001971
    18b4:	000207ac 	.word	0x000207ac
    18b8:	d75dc1c3 	.word	0xd75dc1c3
    18bc:	00001989 	.word	0x00001989

000018c0 <chip_deinit>:
    18c0:	b510      	push	{r4, lr}
    18c2:	b082      	sub	sp, #8
    18c4:	2300      	movs	r3, #0
    18c6:	9301      	str	r3, [sp, #4]
    18c8:	a901      	add	r1, sp, #4
    18ca:	20a0      	movs	r0, #160	; 0xa0
    18cc:	0140      	lsls	r0, r0, #5
    18ce:	4b14      	ldr	r3, [pc, #80]	; (1920 <chip_deinit+0x60>)
    18d0:	4798      	blx	r3
    18d2:	1e04      	subs	r4, r0, #0
    18d4:	d115      	bne.n	1902 <chip_deinit+0x42>
    18d6:	4913      	ldr	r1, [pc, #76]	; (1924 <chip_deinit+0x64>)
    18d8:	9b01      	ldr	r3, [sp, #4]
    18da:	4019      	ands	r1, r3
    18dc:	9101      	str	r1, [sp, #4]
    18de:	20a0      	movs	r0, #160	; 0xa0
    18e0:	0140      	lsls	r0, r0, #5
    18e2:	4b11      	ldr	r3, [pc, #68]	; (1928 <chip_deinit+0x68>)
    18e4:	4798      	blx	r3
    18e6:	1e04      	subs	r4, r0, #0
    18e8:	d016      	beq.n	1918 <chip_deinit+0x58>
    18ea:	4a10      	ldr	r2, [pc, #64]	; (192c <chip_deinit+0x6c>)
    18ec:	4910      	ldr	r1, [pc, #64]	; (1930 <chip_deinit+0x70>)
    18ee:	4811      	ldr	r0, [pc, #68]	; (1934 <chip_deinit+0x74>)
    18f0:	4b11      	ldr	r3, [pc, #68]	; (1938 <chip_deinit+0x78>)
    18f2:	4798      	blx	r3
    18f4:	4811      	ldr	r0, [pc, #68]	; (193c <chip_deinit+0x7c>)
    18f6:	4b12      	ldr	r3, [pc, #72]	; (1940 <chip_deinit+0x80>)
    18f8:	4798      	blx	r3
    18fa:	200d      	movs	r0, #13
    18fc:	4b11      	ldr	r3, [pc, #68]	; (1944 <chip_deinit+0x84>)
    18fe:	4798      	blx	r3
    1900:	e00a      	b.n	1918 <chip_deinit+0x58>
    1902:	4a11      	ldr	r2, [pc, #68]	; (1948 <chip_deinit+0x88>)
    1904:	490a      	ldr	r1, [pc, #40]	; (1930 <chip_deinit+0x70>)
    1906:	480b      	ldr	r0, [pc, #44]	; (1934 <chip_deinit+0x74>)
    1908:	4b0b      	ldr	r3, [pc, #44]	; (1938 <chip_deinit+0x78>)
    190a:	4798      	blx	r3
    190c:	480b      	ldr	r0, [pc, #44]	; (193c <chip_deinit+0x7c>)
    190e:	4b0c      	ldr	r3, [pc, #48]	; (1940 <chip_deinit+0x80>)
    1910:	4798      	blx	r3
    1912:	200d      	movs	r0, #13
    1914:	4b0b      	ldr	r3, [pc, #44]	; (1944 <chip_deinit+0x84>)
    1916:	4798      	blx	r3
    1918:	0020      	movs	r0, r4
    191a:	b002      	add	sp, #8
    191c:	bd10      	pop	{r4, pc}
    191e:	46c0      	nop			; (mov r8, r8)
    1920:	0000197d 	.word	0x0000197d
    1924:	fffffbff 	.word	0xfffffbff
    1928:	00001989 	.word	0x00001989
    192c:	0000020b 	.word	0x0000020b
    1930:	0000a374 	.word	0x0000a374
    1934:	00009e28 	.word	0x00009e28
    1938:	00008bd5 	.word	0x00008bd5
    193c:	0000a380 	.word	0x0000a380
    1940:	00008cf1 	.word	0x00008cf1
    1944:	00008c09 	.word	0x00008c09
    1948:	00000205 	.word	0x00000205

0000194c <nm_bus_iface_init>:
    194c:	b510      	push	{r4, lr}
    194e:	4b01      	ldr	r3, [pc, #4]	; (1954 <nm_bus_iface_init+0x8>)
    1950:	4798      	blx	r3
    1952:	bd10      	pop	{r4, pc}
    1954:	00000261 	.word	0x00000261

00001958 <nm_bus_iface_deinit>:
    1958:	b510      	push	{r4, lr}
    195a:	4b01      	ldr	r3, [pc, #4]	; (1960 <nm_bus_iface_deinit+0x8>)
    195c:	4798      	blx	r3
    195e:	bd10      	pop	{r4, pc}
    1960:	000004b1 	.word	0x000004b1

00001964 <nm_bus_reset>:
    1964:	b510      	push	{r4, lr}
    1966:	4b01      	ldr	r3, [pc, #4]	; (196c <nm_bus_reset+0x8>)
    1968:	4798      	blx	r3
    196a:	bd10      	pop	{r4, pc}
    196c:	00002311 	.word	0x00002311

00001970 <nm_read_reg>:
    1970:	b510      	push	{r4, lr}
    1972:	4b01      	ldr	r3, [pc, #4]	; (1978 <nm_read_reg+0x8>)
    1974:	4798      	blx	r3
    1976:	bd10      	pop	{r4, pc}
    1978:	00002349 	.word	0x00002349

0000197c <nm_read_reg_with_ret>:
    197c:	b510      	push	{r4, lr}
    197e:	4b01      	ldr	r3, [pc, #4]	; (1984 <nm_read_reg_with_ret+0x8>)
    1980:	4798      	blx	r3
    1982:	bd10      	pop	{r4, pc}
    1984:	0000235d 	.word	0x0000235d

00001988 <nm_write_reg>:
    1988:	b510      	push	{r4, lr}
    198a:	4b01      	ldr	r3, [pc, #4]	; (1990 <nm_write_reg+0x8>)
    198c:	4798      	blx	r3
    198e:	bd10      	pop	{r4, pc}
    1990:	00002375 	.word	0x00002375

00001994 <nm_read_block>:
    1994:	b5f0      	push	{r4, r5, r6, r7, lr}
    1996:	46d6      	mov	lr, sl
    1998:	464f      	mov	r7, r9
    199a:	4646      	mov	r6, r8
    199c:	b5c0      	push	{r6, r7, lr}
    199e:	b082      	sub	sp, #8
    19a0:	4680      	mov	r8, r0
    19a2:	4689      	mov	r9, r1
    19a4:	0015      	movs	r5, r2
    19a6:	4b13      	ldr	r3, [pc, #76]	; (19f4 <nm_read_block+0x60>)
    19a8:	881f      	ldrh	r7, [r3, #0]
    19aa:	3f08      	subs	r7, #8
    19ac:	b2bb      	uxth	r3, r7
    19ae:	9301      	str	r3, [sp, #4]
    19b0:	001e      	movs	r6, r3
    19b2:	0004      	movs	r4, r0
    19b4:	429a      	cmp	r2, r3
    19b6:	d91a      	bls.n	19ee <nm_read_block+0x5a>
    19b8:	4b0f      	ldr	r3, [pc, #60]	; (19f8 <nm_read_block+0x64>)
    19ba:	469a      	mov	sl, r3
    19bc:	1a37      	subs	r7, r6, r0
    19be:	4643      	mov	r3, r8
    19c0:	1ae1      	subs	r1, r4, r3
    19c2:	4449      	add	r1, r9
    19c4:	9a01      	ldr	r2, [sp, #4]
    19c6:	0020      	movs	r0, r4
    19c8:	47d0      	blx	sl
    19ca:	2800      	cmp	r0, #0
    19cc:	d109      	bne.n	19e2 <nm_read_block+0x4e>
    19ce:	1bad      	subs	r5, r5, r6
    19d0:	1939      	adds	r1, r7, r4
    19d2:	19a4      	adds	r4, r4, r6
    19d4:	42b5      	cmp	r5, r6
    19d6:	d8f2      	bhi.n	19be <nm_read_block+0x2a>
    19d8:	b2aa      	uxth	r2, r5
    19da:	4449      	add	r1, r9
    19dc:	0020      	movs	r0, r4
    19de:	4b06      	ldr	r3, [pc, #24]	; (19f8 <nm_read_block+0x64>)
    19e0:	4798      	blx	r3
    19e2:	b002      	add	sp, #8
    19e4:	bc1c      	pop	{r2, r3, r4}
    19e6:	4690      	mov	r8, r2
    19e8:	4699      	mov	r9, r3
    19ea:	46a2      	mov	sl, r4
    19ec:	bdf0      	pop	{r4, r5, r6, r7, pc}
    19ee:	2100      	movs	r1, #0
    19f0:	e7f2      	b.n	19d8 <nm_read_block+0x44>
    19f2:	46c0      	nop			; (mov r8, r8)
    19f4:	20000000 	.word	0x20000000
    19f8:	000024b9 	.word	0x000024b9

000019fc <nm_write_block>:
    19fc:	b5f0      	push	{r4, r5, r6, r7, lr}
    19fe:	46d6      	mov	lr, sl
    1a00:	464f      	mov	r7, r9
    1a02:	4646      	mov	r6, r8
    1a04:	b5c0      	push	{r6, r7, lr}
    1a06:	b082      	sub	sp, #8
    1a08:	4680      	mov	r8, r0
    1a0a:	4689      	mov	r9, r1
    1a0c:	0015      	movs	r5, r2
    1a0e:	4b13      	ldr	r3, [pc, #76]	; (1a5c <nm_write_block+0x60>)
    1a10:	881f      	ldrh	r7, [r3, #0]
    1a12:	3f08      	subs	r7, #8
    1a14:	b2bb      	uxth	r3, r7
    1a16:	9301      	str	r3, [sp, #4]
    1a18:	001e      	movs	r6, r3
    1a1a:	0004      	movs	r4, r0
    1a1c:	429a      	cmp	r2, r3
    1a1e:	d91a      	bls.n	1a56 <nm_write_block+0x5a>
    1a20:	4b0f      	ldr	r3, [pc, #60]	; (1a60 <nm_write_block+0x64>)
    1a22:	469a      	mov	sl, r3
    1a24:	1a37      	subs	r7, r6, r0
    1a26:	4643      	mov	r3, r8
    1a28:	1ae1      	subs	r1, r4, r3
    1a2a:	4449      	add	r1, r9
    1a2c:	9a01      	ldr	r2, [sp, #4]
    1a2e:	0020      	movs	r0, r4
    1a30:	47d0      	blx	sl
    1a32:	2800      	cmp	r0, #0
    1a34:	d109      	bne.n	1a4a <nm_write_block+0x4e>
    1a36:	1bad      	subs	r5, r5, r6
    1a38:	1939      	adds	r1, r7, r4
    1a3a:	19a4      	adds	r4, r4, r6
    1a3c:	42b5      	cmp	r5, r6
    1a3e:	d8f2      	bhi.n	1a26 <nm_write_block+0x2a>
    1a40:	b2aa      	uxth	r2, r5
    1a42:	4449      	add	r1, r9
    1a44:	0020      	movs	r0, r4
    1a46:	4b06      	ldr	r3, [pc, #24]	; (1a60 <nm_write_block+0x64>)
    1a48:	4798      	blx	r3
    1a4a:	b002      	add	sp, #8
    1a4c:	bc1c      	pop	{r2, r3, r4}
    1a4e:	4690      	mov	r8, r2
    1a50:	4699      	mov	r9, r3
    1a52:	46a2      	mov	sl, r4
    1a54:	bdf0      	pop	{r4, r5, r6, r7, pc}
    1a56:	2100      	movs	r1, #0
    1a58:	e7f2      	b.n	1a40 <nm_write_block+0x44>
    1a5a:	46c0      	nop			; (mov r8, r8)
    1a5c:	20000000 	.word	0x20000000
    1a60:	00002611 	.word	0x00002611

00001a64 <nm_get_firmware_full_info>:
    1a64:	b570      	push	{r4, r5, r6, lr}
    1a66:	b084      	sub	sp, #16
    1a68:	0004      	movs	r4, r0
    1a6a:	2300      	movs	r3, #0
    1a6c:	9303      	str	r3, [sp, #12]
    1a6e:	2208      	movs	r2, #8
    1a70:	2100      	movs	r1, #0
    1a72:	a801      	add	r0, sp, #4
    1a74:	4b2d      	ldr	r3, [pc, #180]	; (1b2c <nm_get_firmware_full_info+0xc8>)
    1a76:	4798      	blx	r3
    1a78:	2c00      	cmp	r4, #0
    1a7a:	d044      	beq.n	1b06 <nm_get_firmware_full_info+0xa2>
    1a7c:	2228      	movs	r2, #40	; 0x28
    1a7e:	2100      	movs	r1, #0
    1a80:	0020      	movs	r0, r4
    1a82:	4b2b      	ldr	r3, [pc, #172]	; (1b30 <nm_get_firmware_full_info+0xcc>)
    1a84:	4798      	blx	r3
    1a86:	a903      	add	r1, sp, #12
    1a88:	482a      	ldr	r0, [pc, #168]	; (1b34 <nm_get_firmware_full_info+0xd0>)
    1a8a:	4b2b      	ldr	r3, [pc, #172]	; (1b38 <nm_get_firmware_full_info+0xd4>)
    1a8c:	4798      	blx	r3
    1a8e:	2800      	cmp	r0, #0
    1a90:	d13a      	bne.n	1b08 <nm_get_firmware_full_info+0xa4>
    1a92:	9b03      	ldr	r3, [sp, #12]
    1a94:	2b00      	cmp	r3, #0
    1a96:	d039      	beq.n	1b0c <nm_get_firmware_full_info+0xa8>
    1a98:	20c0      	movs	r0, #192	; 0xc0
    1a9a:	0280      	lsls	r0, r0, #10
    1a9c:	4318      	orrs	r0, r3
    1a9e:	2208      	movs	r2, #8
    1aa0:	a901      	add	r1, sp, #4
    1aa2:	4b26      	ldr	r3, [pc, #152]	; (1b3c <nm_get_firmware_full_info+0xd8>)
    1aa4:	4798      	blx	r3
    1aa6:	2800      	cmp	r0, #0
    1aa8:	d12e      	bne.n	1b08 <nm_get_firmware_full_info+0xa4>
    1aaa:	9b02      	ldr	r3, [sp, #8]
    1aac:	0418      	lsls	r0, r3, #16
    1aae:	0c00      	lsrs	r0, r0, #16
    1ab0:	9003      	str	r0, [sp, #12]
    1ab2:	d02e      	beq.n	1b12 <nm_get_firmware_full_info+0xae>
    1ab4:	23c0      	movs	r3, #192	; 0xc0
    1ab6:	029b      	lsls	r3, r3, #10
    1ab8:	4318      	orrs	r0, r3
    1aba:	2228      	movs	r2, #40	; 0x28
    1abc:	0021      	movs	r1, r4
    1abe:	4b1f      	ldr	r3, [pc, #124]	; (1b3c <nm_get_firmware_full_info+0xd8>)
    1ac0:	4798      	blx	r3
    1ac2:	2800      	cmp	r0, #0
    1ac4:	d120      	bne.n	1b08 <nm_get_firmware_full_info+0xa4>
    1ac6:	7921      	ldrb	r1, [r4, #4]
    1ac8:	0209      	lsls	r1, r1, #8
    1aca:	79a2      	ldrb	r2, [r4, #6]
    1acc:	230f      	movs	r3, #15
    1ace:	401a      	ands	r2, r3
    1ad0:	430a      	orrs	r2, r1
    1ad2:	7961      	ldrb	r1, [r4, #5]
    1ad4:	0109      	lsls	r1, r1, #4
    1ad6:	25ff      	movs	r5, #255	; 0xff
    1ad8:	4029      	ands	r1, r5
    1ada:	430a      	orrs	r2, r1
    1adc:	79e1      	ldrb	r1, [r4, #7]
    1ade:	0209      	lsls	r1, r1, #8
    1ae0:	7a66      	ldrb	r6, [r4, #9]
    1ae2:	4033      	ands	r3, r6
    1ae4:	430b      	orrs	r3, r1
    1ae6:	7a21      	ldrb	r1, [r4, #8]
    1ae8:	0109      	lsls	r1, r1, #4
    1aea:	400d      	ands	r5, r1
    1aec:	432b      	orrs	r3, r5
    1aee:	2a00      	cmp	r2, #0
    1af0:	d012      	beq.n	1b18 <nm_get_firmware_full_info+0xb4>
    1af2:	2b00      	cmp	r3, #0
    1af4:	d013      	beq.n	1b1e <nm_get_firmware_full_info+0xba>
    1af6:	4912      	ldr	r1, [pc, #72]	; (1b40 <nm_get_firmware_full_info+0xdc>)
    1af8:	428b      	cmp	r3, r1
    1afa:	d813      	bhi.n	1b24 <nm_get_firmware_full_info+0xc0>
    1afc:	4b11      	ldr	r3, [pc, #68]	; (1b44 <nm_get_firmware_full_info+0xe0>)
    1afe:	429a      	cmp	r2, r3
    1b00:	d802      	bhi.n	1b08 <nm_get_firmware_full_info+0xa4>
    1b02:	380d      	subs	r0, #13
    1b04:	e000      	b.n	1b08 <nm_get_firmware_full_info+0xa4>
    1b06:	2000      	movs	r0, #0
    1b08:	b004      	add	sp, #16
    1b0a:	bd70      	pop	{r4, r5, r6, pc}
    1b0c:	200c      	movs	r0, #12
    1b0e:	4240      	negs	r0, r0
    1b10:	e7fa      	b.n	1b08 <nm_get_firmware_full_info+0xa4>
    1b12:	200c      	movs	r0, #12
    1b14:	4240      	negs	r0, r0
    1b16:	e7f7      	b.n	1b08 <nm_get_firmware_full_info+0xa4>
    1b18:	200c      	movs	r0, #12
    1b1a:	4240      	negs	r0, r0
    1b1c:	e7f4      	b.n	1b08 <nm_get_firmware_full_info+0xa4>
    1b1e:	200c      	movs	r0, #12
    1b20:	4240      	negs	r0, r0
    1b22:	e7f1      	b.n	1b08 <nm_get_firmware_full_info+0xa4>
    1b24:	200d      	movs	r0, #13
    1b26:	4240      	negs	r0, r0
    1b28:	e7ee      	b.n	1b08 <nm_get_firmware_full_info+0xa4>
    1b2a:	46c0      	nop			; (mov r8, r8)
    1b2c:	00008bc3 	.word	0x00008bc3
    1b30:	00000531 	.word	0x00000531
    1b34:	000c0008 	.word	0x000c0008
    1b38:	0000197d 	.word	0x0000197d
    1b3c:	00001995 	.word	0x00001995
    1b40:	00001352 	.word	0x00001352
    1b44:	00001351 	.word	0x00001351

00001b48 <nm_drv_init>:
    1b48:	b570      	push	{r4, r5, r6, lr}
    1b4a:	2800      	cmp	r0, #0
    1b4c:	d037      	beq.n	1bbe <nm_drv_init+0x76>
    1b4e:	7805      	ldrb	r5, [r0, #0]
    1b50:	1e6b      	subs	r3, r5, #1
    1b52:	2b03      	cmp	r3, #3
    1b54:	d900      	bls.n	1b58 <nm_drv_init+0x10>
    1b56:	2501      	movs	r5, #1
    1b58:	2000      	movs	r0, #0
    1b5a:	4b20      	ldr	r3, [pc, #128]	; (1bdc <nm_drv_init+0x94>)
    1b5c:	4798      	blx	r3
    1b5e:	1e04      	subs	r4, r0, #0
    1b60:	d12f      	bne.n	1bc2 <nm_drv_init+0x7a>
    1b62:	481f      	ldr	r0, [pc, #124]	; (1be0 <nm_drv_init+0x98>)
    1b64:	4c1f      	ldr	r4, [pc, #124]	; (1be4 <nm_drv_init+0x9c>)
    1b66:	47a0      	blx	r4
    1b68:	4b1f      	ldr	r3, [pc, #124]	; (1be8 <nm_drv_init+0xa0>)
    1b6a:	4798      	blx	r3
    1b6c:	0001      	movs	r1, r0
    1b6e:	481f      	ldr	r0, [pc, #124]	; (1bec <nm_drv_init+0xa4>)
    1b70:	47a0      	blx	r4
    1b72:	200d      	movs	r0, #13
    1b74:	4b1e      	ldr	r3, [pc, #120]	; (1bf0 <nm_drv_init+0xa8>)
    1b76:	4798      	blx	r3
    1b78:	4b1e      	ldr	r3, [pc, #120]	; (1bf4 <nm_drv_init+0xac>)
    1b7a:	4798      	blx	r3
    1b7c:	0028      	movs	r0, r5
    1b7e:	4b1e      	ldr	r3, [pc, #120]	; (1bf8 <nm_drv_init+0xb0>)
    1b80:	4798      	blx	r3
    1b82:	1e04      	subs	r4, r0, #0
    1b84:	d117      	bne.n	1bb6 <nm_drv_init+0x6e>
    1b86:	0028      	movs	r0, r5
    1b88:	4b1c      	ldr	r3, [pc, #112]	; (1bfc <nm_drv_init+0xb4>)
    1b8a:	4798      	blx	r3
    1b8c:	1e04      	subs	r4, r0, #0
    1b8e:	d112      	bne.n	1bb6 <nm_drv_init+0x6e>
    1b90:	3d02      	subs	r5, #2
    1b92:	2d01      	cmp	r5, #1
    1b94:	d911      	bls.n	1bba <nm_drv_init+0x72>
    1b96:	4b1a      	ldr	r3, [pc, #104]	; (1c00 <nm_drv_init+0xb8>)
    1b98:	4798      	blx	r3
    1b9a:	1e04      	subs	r4, r0, #0
    1b9c:	d00d      	beq.n	1bba <nm_drv_init+0x72>
    1b9e:	2260      	movs	r2, #96	; 0x60
    1ba0:	32ff      	adds	r2, #255	; 0xff
    1ba2:	4918      	ldr	r1, [pc, #96]	; (1c04 <nm_drv_init+0xbc>)
    1ba4:	4818      	ldr	r0, [pc, #96]	; (1c08 <nm_drv_init+0xc0>)
    1ba6:	4b0f      	ldr	r3, [pc, #60]	; (1be4 <nm_drv_init+0x9c>)
    1ba8:	4798      	blx	r3
    1baa:	4818      	ldr	r0, [pc, #96]	; (1c0c <nm_drv_init+0xc4>)
    1bac:	4b18      	ldr	r3, [pc, #96]	; (1c10 <nm_drv_init+0xc8>)
    1bae:	4798      	blx	r3
    1bb0:	200d      	movs	r0, #13
    1bb2:	4b0f      	ldr	r3, [pc, #60]	; (1bf0 <nm_drv_init+0xa8>)
    1bb4:	4798      	blx	r3
    1bb6:	4b17      	ldr	r3, [pc, #92]	; (1c14 <nm_drv_init+0xcc>)
    1bb8:	4798      	blx	r3
    1bba:	0020      	movs	r0, r4
    1bbc:	bd70      	pop	{r4, r5, r6, pc}
    1bbe:	2501      	movs	r5, #1
    1bc0:	e7ca      	b.n	1b58 <nm_drv_init+0x10>
    1bc2:	2296      	movs	r2, #150	; 0x96
    1bc4:	0052      	lsls	r2, r2, #1
    1bc6:	490f      	ldr	r1, [pc, #60]	; (1c04 <nm_drv_init+0xbc>)
    1bc8:	480f      	ldr	r0, [pc, #60]	; (1c08 <nm_drv_init+0xc0>)
    1bca:	4b06      	ldr	r3, [pc, #24]	; (1be4 <nm_drv_init+0x9c>)
    1bcc:	4798      	blx	r3
    1bce:	4812      	ldr	r0, [pc, #72]	; (1c18 <nm_drv_init+0xd0>)
    1bd0:	4b0f      	ldr	r3, [pc, #60]	; (1c10 <nm_drv_init+0xc8>)
    1bd2:	4798      	blx	r3
    1bd4:	200d      	movs	r0, #13
    1bd6:	4b06      	ldr	r3, [pc, #24]	; (1bf0 <nm_drv_init+0xa8>)
    1bd8:	4798      	blx	r3
    1bda:	e7ee      	b.n	1bba <nm_drv_init+0x72>
    1bdc:	0000194d 	.word	0x0000194d
    1be0:	0000a158 	.word	0x0000a158
    1be4:	00008bd5 	.word	0x00008bd5
    1be8:	0000152d 	.word	0x0000152d
    1bec:	0000a49c 	.word	0x0000a49c
    1bf0:	00008c09 	.word	0x00008c09
    1bf4:	0000238d 	.word	0x0000238d
    1bf8:	00001741 	.word	0x00001741
    1bfc:	00001849 	.word	0x00001849
    1c00:	000014d1 	.word	0x000014d1
    1c04:	0000a3e4 	.word	0x0000a3e4
    1c08:	00009e28 	.word	0x00009e28
    1c0c:	0000a460 	.word	0x0000a460
    1c10:	00008cf1 	.word	0x00008cf1
    1c14:	00001959 	.word	0x00001959
    1c18:	0000a480 	.word	0x0000a480

00001c1c <nm_drv_deinit>:
    1c1c:	b510      	push	{r4, lr}
    1c1e:	4b1c      	ldr	r3, [pc, #112]	; (1c90 <nm_drv_deinit+0x74>)
    1c20:	4798      	blx	r3
    1c22:	1e04      	subs	r4, r0, #0
    1c24:	d10b      	bne.n	1c3e <nm_drv_deinit+0x22>
    1c26:	2000      	movs	r0, #0
    1c28:	4b1a      	ldr	r3, [pc, #104]	; (1c94 <nm_drv_deinit+0x78>)
    1c2a:	4798      	blx	r3
    1c2c:	1e04      	subs	r4, r0, #0
    1c2e:	d114      	bne.n	1c5a <nm_drv_deinit+0x3e>
    1c30:	4b19      	ldr	r3, [pc, #100]	; (1c98 <nm_drv_deinit+0x7c>)
    1c32:	4798      	blx	r3
    1c34:	1e04      	subs	r4, r0, #0
    1c36:	d11d      	bne.n	1c74 <nm_drv_deinit+0x58>
    1c38:	4b18      	ldr	r3, [pc, #96]	; (1c9c <nm_drv_deinit+0x80>)
    1c3a:	4798      	blx	r3
    1c3c:	e00b      	b.n	1c56 <nm_drv_deinit+0x3a>
    1c3e:	22bb      	movs	r2, #187	; 0xbb
    1c40:	0052      	lsls	r2, r2, #1
    1c42:	4917      	ldr	r1, [pc, #92]	; (1ca0 <nm_drv_deinit+0x84>)
    1c44:	4817      	ldr	r0, [pc, #92]	; (1ca4 <nm_drv_deinit+0x88>)
    1c46:	4b18      	ldr	r3, [pc, #96]	; (1ca8 <nm_drv_deinit+0x8c>)
    1c48:	4798      	blx	r3
    1c4a:	4818      	ldr	r0, [pc, #96]	; (1cac <nm_drv_deinit+0x90>)
    1c4c:	4b18      	ldr	r3, [pc, #96]	; (1cb0 <nm_drv_deinit+0x94>)
    1c4e:	4798      	blx	r3
    1c50:	200d      	movs	r0, #13
    1c52:	4b18      	ldr	r3, [pc, #96]	; (1cb4 <nm_drv_deinit+0x98>)
    1c54:	4798      	blx	r3
    1c56:	0020      	movs	r0, r4
    1c58:	bd10      	pop	{r4, pc}
    1c5a:	227e      	movs	r2, #126	; 0x7e
    1c5c:	32ff      	adds	r2, #255	; 0xff
    1c5e:	4910      	ldr	r1, [pc, #64]	; (1ca0 <nm_drv_deinit+0x84>)
    1c60:	4810      	ldr	r0, [pc, #64]	; (1ca4 <nm_drv_deinit+0x88>)
    1c62:	4b11      	ldr	r3, [pc, #68]	; (1ca8 <nm_drv_deinit+0x8c>)
    1c64:	4798      	blx	r3
    1c66:	4814      	ldr	r0, [pc, #80]	; (1cb8 <nm_drv_deinit+0x9c>)
    1c68:	4b11      	ldr	r3, [pc, #68]	; (1cb0 <nm_drv_deinit+0x94>)
    1c6a:	4798      	blx	r3
    1c6c:	200d      	movs	r0, #13
    1c6e:	4b11      	ldr	r3, [pc, #68]	; (1cb4 <nm_drv_deinit+0x98>)
    1c70:	4798      	blx	r3
    1c72:	e7f0      	b.n	1c56 <nm_drv_deinit+0x3a>
    1c74:	2284      	movs	r2, #132	; 0x84
    1c76:	32ff      	adds	r2, #255	; 0xff
    1c78:	4909      	ldr	r1, [pc, #36]	; (1ca0 <nm_drv_deinit+0x84>)
    1c7a:	480a      	ldr	r0, [pc, #40]	; (1ca4 <nm_drv_deinit+0x88>)
    1c7c:	4b0a      	ldr	r3, [pc, #40]	; (1ca8 <nm_drv_deinit+0x8c>)
    1c7e:	4798      	blx	r3
    1c80:	480e      	ldr	r0, [pc, #56]	; (1cbc <nm_drv_deinit+0xa0>)
    1c82:	4b0b      	ldr	r3, [pc, #44]	; (1cb0 <nm_drv_deinit+0x94>)
    1c84:	4798      	blx	r3
    1c86:	200d      	movs	r0, #13
    1c88:	4b0a      	ldr	r3, [pc, #40]	; (1cb4 <nm_drv_deinit+0x98>)
    1c8a:	4798      	blx	r3
    1c8c:	e7e3      	b.n	1c56 <nm_drv_deinit+0x3a>
    1c8e:	46c0      	nop			; (mov r8, r8)
    1c90:	000018c1 	.word	0x000018c1
    1c94:	00003159 	.word	0x00003159
    1c98:	00001959 	.word	0x00001959
    1c9c:	00002339 	.word	0x00002339
    1ca0:	0000a3f0 	.word	0x0000a3f0
    1ca4:	00009e28 	.word	0x00009e28
    1ca8:	00008bd5 	.word	0x00008bd5
    1cac:	0000a400 	.word	0x0000a400
    1cb0:	00008cf1 	.word	0x00008cf1
    1cb4:	00008c09 	.word	0x00008c09
    1cb8:	0000a420 	.word	0x0000a420
    1cbc:	0000a444 	.word	0x0000a444

00001cc0 <nmi_spi_write>:
    1cc0:	b500      	push	{lr}
    1cc2:	b085      	sub	sp, #20
    1cc4:	ab01      	add	r3, sp, #4
    1cc6:	9001      	str	r0, [sp, #4]
    1cc8:	2200      	movs	r2, #0
    1cca:	9202      	str	r2, [sp, #8]
    1ccc:	8119      	strh	r1, [r3, #8]
    1cce:	0019      	movs	r1, r3
    1cd0:	2003      	movs	r0, #3
    1cd2:	4b02      	ldr	r3, [pc, #8]	; (1cdc <nmi_spi_write+0x1c>)
    1cd4:	4798      	blx	r3
    1cd6:	b005      	add	sp, #20
    1cd8:	bd00      	pop	{pc}
    1cda:	46c0      	nop			; (mov r8, r8)
    1cdc:	00000365 	.word	0x00000365

00001ce0 <spi_cmd>:
    1ce0:	b570      	push	{r4, r5, r6, lr}
    1ce2:	b084      	sub	sp, #16
    1ce4:	ac08      	add	r4, sp, #32
    1ce6:	7825      	ldrb	r5, [r4, #0]
    1ce8:	ac01      	add	r4, sp, #4
    1cea:	7020      	strb	r0, [r4, #0]
    1cec:	303f      	adds	r0, #63	; 0x3f
    1cee:	b2c4      	uxtb	r4, r0
    1cf0:	2c0e      	cmp	r4, #14
    1cf2:	d900      	bls.n	1cf6 <spi_cmd+0x16>
    1cf4:	e084      	b.n	1e00 <spi_cmd+0x120>
    1cf6:	00a0      	lsls	r0, r4, #2
    1cf8:	4c4f      	ldr	r4, [pc, #316]	; (1e38 <spi_cmd+0x158>)
    1cfa:	5820      	ldr	r0, [r4, r0]
    1cfc:	4687      	mov	pc, r0
    1cfe:	ab01      	add	r3, sp, #4
    1d00:	0c0a      	lsrs	r2, r1, #16
    1d02:	705a      	strb	r2, [r3, #1]
    1d04:	0a0a      	lsrs	r2, r1, #8
    1d06:	709a      	strb	r2, [r3, #2]
    1d08:	70d9      	strb	r1, [r3, #3]
    1d0a:	2105      	movs	r1, #5
    1d0c:	4b4b      	ldr	r3, [pc, #300]	; (1e3c <spi_cmd+0x15c>)
    1d0e:	781b      	ldrb	r3, [r3, #0]
    1d10:	2b00      	cmp	r3, #0
    1d12:	d077      	beq.n	1e04 <spi_cmd+0x124>
    1d14:	3901      	subs	r1, #1
    1d16:	b2c9      	uxtb	r1, r1
    1d18:	e083      	b.n	1e22 <spi_cmd+0x142>
    1d1a:	0a0b      	lsrs	r3, r1, #8
    1d1c:	b2db      	uxtb	r3, r3
    1d1e:	2d00      	cmp	r5, #0
    1d20:	d107      	bne.n	1d32 <spi_cmd+0x52>
    1d22:	aa01      	add	r2, sp, #4
    1d24:	7053      	strb	r3, [r2, #1]
    1d26:	ab01      	add	r3, sp, #4
    1d28:	7099      	strb	r1, [r3, #2]
    1d2a:	2200      	movs	r2, #0
    1d2c:	70da      	strb	r2, [r3, #3]
    1d2e:	2105      	movs	r1, #5
    1d30:	e7ec      	b.n	1d0c <spi_cmd+0x2c>
    1d32:	2280      	movs	r2, #128	; 0x80
    1d34:	4252      	negs	r2, r2
    1d36:	4313      	orrs	r3, r2
    1d38:	aa01      	add	r2, sp, #4
    1d3a:	7053      	strb	r3, [r2, #1]
    1d3c:	e7f3      	b.n	1d26 <spi_cmd+0x46>
    1d3e:	ab01      	add	r3, sp, #4
    1d40:	2200      	movs	r2, #0
    1d42:	705a      	strb	r2, [r3, #1]
    1d44:	709a      	strb	r2, [r3, #2]
    1d46:	70da      	strb	r2, [r3, #3]
    1d48:	2105      	movs	r1, #5
    1d4a:	e7df      	b.n	1d0c <spi_cmd+0x2c>
    1d4c:	ab01      	add	r3, sp, #4
    1d4e:	2200      	movs	r2, #0
    1d50:	705a      	strb	r2, [r3, #1]
    1d52:	709a      	strb	r2, [r3, #2]
    1d54:	70da      	strb	r2, [r3, #3]
    1d56:	2105      	movs	r1, #5
    1d58:	e7d8      	b.n	1d0c <spi_cmd+0x2c>
    1d5a:	ab01      	add	r3, sp, #4
    1d5c:	22ff      	movs	r2, #255	; 0xff
    1d5e:	705a      	strb	r2, [r3, #1]
    1d60:	709a      	strb	r2, [r3, #2]
    1d62:	70da      	strb	r2, [r3, #3]
    1d64:	2105      	movs	r1, #5
    1d66:	e7d1      	b.n	1d0c <spi_cmd+0x2c>
    1d68:	aa01      	add	r2, sp, #4
    1d6a:	0c08      	lsrs	r0, r1, #16
    1d6c:	7050      	strb	r0, [r2, #1]
    1d6e:	0a08      	lsrs	r0, r1, #8
    1d70:	7090      	strb	r0, [r2, #2]
    1d72:	70d1      	strb	r1, [r2, #3]
    1d74:	0a19      	lsrs	r1, r3, #8
    1d76:	7111      	strb	r1, [r2, #4]
    1d78:	7153      	strb	r3, [r2, #5]
    1d7a:	2107      	movs	r1, #7
    1d7c:	e7c6      	b.n	1d0c <spi_cmd+0x2c>
    1d7e:	aa01      	add	r2, sp, #4
    1d80:	0c08      	lsrs	r0, r1, #16
    1d82:	7050      	strb	r0, [r2, #1]
    1d84:	0a08      	lsrs	r0, r1, #8
    1d86:	7090      	strb	r0, [r2, #2]
    1d88:	70d1      	strb	r1, [r2, #3]
    1d8a:	0c19      	lsrs	r1, r3, #16
    1d8c:	7111      	strb	r1, [r2, #4]
    1d8e:	0a19      	lsrs	r1, r3, #8
    1d90:	7151      	strb	r1, [r2, #5]
    1d92:	7193      	strb	r3, [r2, #6]
    1d94:	2108      	movs	r1, #8
    1d96:	e7b9      	b.n	1d0c <spi_cmd+0x2c>
    1d98:	0a0b      	lsrs	r3, r1, #8
    1d9a:	b2db      	uxtb	r3, r3
    1d9c:	2d00      	cmp	r5, #0
    1d9e:	d10c      	bne.n	1dba <spi_cmd+0xda>
    1da0:	a801      	add	r0, sp, #4
    1da2:	7043      	strb	r3, [r0, #1]
    1da4:	ab01      	add	r3, sp, #4
    1da6:	7099      	strb	r1, [r3, #2]
    1da8:	0e11      	lsrs	r1, r2, #24
    1daa:	70d9      	strb	r1, [r3, #3]
    1dac:	0c11      	lsrs	r1, r2, #16
    1dae:	7119      	strb	r1, [r3, #4]
    1db0:	0a11      	lsrs	r1, r2, #8
    1db2:	7159      	strb	r1, [r3, #5]
    1db4:	719a      	strb	r2, [r3, #6]
    1db6:	2108      	movs	r1, #8
    1db8:	e7a8      	b.n	1d0c <spi_cmd+0x2c>
    1dba:	2080      	movs	r0, #128	; 0x80
    1dbc:	4240      	negs	r0, r0
    1dbe:	4303      	orrs	r3, r0
    1dc0:	a801      	add	r0, sp, #4
    1dc2:	7043      	strb	r3, [r0, #1]
    1dc4:	e7ee      	b.n	1da4 <spi_cmd+0xc4>
    1dc6:	ab01      	add	r3, sp, #4
    1dc8:	0c08      	lsrs	r0, r1, #16
    1dca:	7058      	strb	r0, [r3, #1]
    1dcc:	0a08      	lsrs	r0, r1, #8
    1dce:	7098      	strb	r0, [r3, #2]
    1dd0:	70d9      	strb	r1, [r3, #3]
    1dd2:	0e11      	lsrs	r1, r2, #24
    1dd4:	7119      	strb	r1, [r3, #4]
    1dd6:	0c11      	lsrs	r1, r2, #16
    1dd8:	7159      	strb	r1, [r3, #5]
    1dda:	0a11      	lsrs	r1, r2, #8
    1ddc:	7199      	strb	r1, [r3, #6]
    1dde:	71da      	strb	r2, [r3, #7]
    1de0:	2109      	movs	r1, #9
    1de2:	e793      	b.n	1d0c <spi_cmd+0x2c>
    1de4:	2234      	movs	r2, #52	; 0x34
    1de6:	32ff      	adds	r2, #255	; 0xff
    1de8:	4915      	ldr	r1, [pc, #84]	; (1e40 <spi_cmd+0x160>)
    1dea:	4816      	ldr	r0, [pc, #88]	; (1e44 <spi_cmd+0x164>)
    1dec:	4b16      	ldr	r3, [pc, #88]	; (1e48 <spi_cmd+0x168>)
    1dee:	4798      	blx	r3
    1df0:	4816      	ldr	r0, [pc, #88]	; (1e4c <spi_cmd+0x16c>)
    1df2:	4b17      	ldr	r3, [pc, #92]	; (1e50 <spi_cmd+0x170>)
    1df4:	4798      	blx	r3
    1df6:	200d      	movs	r0, #13
    1df8:	4b16      	ldr	r3, [pc, #88]	; (1e54 <spi_cmd+0x174>)
    1dfa:	4798      	blx	r3
    1dfc:	2300      	movs	r3, #0
    1dfe:	e017      	b.n	1e30 <spi_cmd+0x150>
    1e00:	2300      	movs	r3, #0
    1e02:	e015      	b.n	1e30 <spi_cmd+0x150>
    1e04:	1e4e      	subs	r6, r1, #1
    1e06:	aa01      	add	r2, sp, #4
    1e08:	1995      	adds	r5, r2, r6
    1e0a:	237f      	movs	r3, #127	; 0x7f
    1e0c:	4c12      	ldr	r4, [pc, #72]	; (1e58 <spi_cmd+0x178>)
    1e0e:	005b      	lsls	r3, r3, #1
    1e10:	7810      	ldrb	r0, [r2, #0]
    1e12:	4043      	eors	r3, r0
    1e14:	5ce3      	ldrb	r3, [r4, r3]
    1e16:	3201      	adds	r2, #1
    1e18:	42aa      	cmp	r2, r5
    1e1a:	d1f8      	bne.n	1e0e <spi_cmd+0x12e>
    1e1c:	005b      	lsls	r3, r3, #1
    1e1e:	aa01      	add	r2, sp, #4
    1e20:	5593      	strb	r3, [r2, r6]
    1e22:	b289      	uxth	r1, r1
    1e24:	a801      	add	r0, sp, #4
    1e26:	4b0d      	ldr	r3, [pc, #52]	; (1e5c <spi_cmd+0x17c>)
    1e28:	4798      	blx	r3
    1e2a:	2301      	movs	r3, #1
    1e2c:	2800      	cmp	r0, #0
    1e2e:	d1d9      	bne.n	1de4 <spi_cmd+0x104>
    1e30:	0018      	movs	r0, r3
    1e32:	b004      	add	sp, #16
    1e34:	bd70      	pop	{r4, r5, r6, pc}
    1e36:	46c0      	nop			; (mov r8, r8)
    1e38:	0000a4ac 	.word	0x0000a4ac
    1e3c:	200000c0 	.word	0x200000c0
    1e40:	0000a4ec 	.word	0x0000a4ec
    1e44:	00009e28 	.word	0x00009e28
    1e48:	00008bd5 	.word	0x00008bd5
    1e4c:	0000a97c 	.word	0x0000a97c
    1e50:	00008cf1 	.word	0x00008cf1
    1e54:	00008c09 	.word	0x00008c09
    1e58:	0000a578 	.word	0x0000a578
    1e5c:	00001cc1 	.word	0x00001cc1

00001e60 <nmi_spi_read>:
    1e60:	b500      	push	{lr}
    1e62:	b085      	sub	sp, #20
    1e64:	ab01      	add	r3, sp, #4
    1e66:	2200      	movs	r2, #0
    1e68:	9201      	str	r2, [sp, #4]
    1e6a:	9002      	str	r0, [sp, #8]
    1e6c:	8119      	strh	r1, [r3, #8]
    1e6e:	0019      	movs	r1, r3
    1e70:	2003      	movs	r0, #3
    1e72:	4b02      	ldr	r3, [pc, #8]	; (1e7c <nmi_spi_read+0x1c>)
    1e74:	4798      	blx	r3
    1e76:	b005      	add	sp, #20
    1e78:	bd00      	pop	{pc}
    1e7a:	46c0      	nop			; (mov r8, r8)
    1e7c:	00000365 	.word	0x00000365

00001e80 <spi_cmd_rsp>:
    1e80:	b5f0      	push	{r4, r5, r6, r7, lr}
    1e82:	46c6      	mov	lr, r8
    1e84:	b500      	push	{lr}
    1e86:	b082      	sub	sp, #8
    1e88:	0007      	movs	r7, r0
    1e8a:	28cf      	cmp	r0, #207	; 0xcf
    1e8c:	d02b      	beq.n	1ee6 <spi_cmd_rsp+0x66>
    1e8e:	0003      	movs	r3, r0
    1e90:	333b      	adds	r3, #59	; 0x3b
    1e92:	b2db      	uxtb	r3, r3
    1e94:	2b01      	cmp	r3, #1
    1e96:	d926      	bls.n	1ee6 <spi_cmd_rsp+0x66>
    1e98:	240b      	movs	r4, #11
    1e9a:	466b      	mov	r3, sp
    1e9c:	1dde      	adds	r6, r3, #7
    1e9e:	4b26      	ldr	r3, [pc, #152]	; (1f38 <spi_cmd_rsp+0xb8>)
    1ea0:	4698      	mov	r8, r3
    1ea2:	2101      	movs	r1, #1
    1ea4:	0030      	movs	r0, r6
    1ea6:	47c0      	blx	r8
    1ea8:	1e05      	subs	r5, r0, #0
    1eaa:	d125      	bne.n	1ef8 <spi_cmd_rsp+0x78>
    1eac:	7833      	ldrb	r3, [r6, #0]
    1eae:	42bb      	cmp	r3, r7
    1eb0:	d030      	beq.n	1f14 <spi_cmd_rsp+0x94>
    1eb2:	3c01      	subs	r4, #1
    1eb4:	b2e4      	uxtb	r4, r4
    1eb6:	2c00      	cmp	r4, #0
    1eb8:	d1f3      	bne.n	1ea2 <spi_cmd_rsp+0x22>
    1eba:	340b      	adds	r4, #11
    1ebc:	466b      	mov	r3, sp
    1ebe:	1dde      	adds	r6, r3, #7
    1ec0:	4f1d      	ldr	r7, [pc, #116]	; (1f38 <spi_cmd_rsp+0xb8>)
    1ec2:	2101      	movs	r1, #1
    1ec4:	0030      	movs	r0, r6
    1ec6:	47b8      	blx	r7
    1ec8:	2800      	cmp	r0, #0
    1eca:	d125      	bne.n	1f18 <spi_cmd_rsp+0x98>
    1ecc:	7833      	ldrb	r3, [r6, #0]
    1ece:	2b00      	cmp	r3, #0
    1ed0:	d02f      	beq.n	1f32 <spi_cmd_rsp+0xb2>
    1ed2:	3c01      	subs	r4, #1
    1ed4:	b2e4      	uxtb	r4, r4
    1ed6:	2c00      	cmp	r4, #0
    1ed8:	d1f3      	bne.n	1ec2 <spi_cmd_rsp+0x42>
    1eda:	2501      	movs	r5, #1
    1edc:	0028      	movs	r0, r5
    1ede:	b002      	add	sp, #8
    1ee0:	bc04      	pop	{r2}
    1ee2:	4690      	mov	r8, r2
    1ee4:	bdf0      	pop	{r4, r5, r6, r7, pc}
    1ee6:	2101      	movs	r1, #1
    1ee8:	466b      	mov	r3, sp
    1eea:	1dd8      	adds	r0, r3, #7
    1eec:	4b12      	ldr	r3, [pc, #72]	; (1f38 <spi_cmd_rsp+0xb8>)
    1eee:	4798      	blx	r3
    1ef0:	2500      	movs	r5, #0
    1ef2:	2800      	cmp	r0, #0
    1ef4:	d0d0      	beq.n	1e98 <spi_cmd_rsp+0x18>
    1ef6:	e7f1      	b.n	1edc <spi_cmd_rsp+0x5c>
    1ef8:	22b7      	movs	r2, #183	; 0xb7
    1efa:	0052      	lsls	r2, r2, #1
    1efc:	490f      	ldr	r1, [pc, #60]	; (1f3c <spi_cmd_rsp+0xbc>)
    1efe:	4810      	ldr	r0, [pc, #64]	; (1f40 <spi_cmd_rsp+0xc0>)
    1f00:	4b10      	ldr	r3, [pc, #64]	; (1f44 <spi_cmd_rsp+0xc4>)
    1f02:	4798      	blx	r3
    1f04:	4810      	ldr	r0, [pc, #64]	; (1f48 <spi_cmd_rsp+0xc8>)
    1f06:	4b11      	ldr	r3, [pc, #68]	; (1f4c <spi_cmd_rsp+0xcc>)
    1f08:	4798      	blx	r3
    1f0a:	200d      	movs	r0, #13
    1f0c:	4b10      	ldr	r3, [pc, #64]	; (1f50 <spi_cmd_rsp+0xd0>)
    1f0e:	4798      	blx	r3
    1f10:	2500      	movs	r5, #0
    1f12:	e7e3      	b.n	1edc <spi_cmd_rsp+0x5c>
    1f14:	240b      	movs	r4, #11
    1f16:	e7d1      	b.n	1ebc <spi_cmd_rsp+0x3c>
    1f18:	22be      	movs	r2, #190	; 0xbe
    1f1a:	0052      	lsls	r2, r2, #1
    1f1c:	4907      	ldr	r1, [pc, #28]	; (1f3c <spi_cmd_rsp+0xbc>)
    1f1e:	4808      	ldr	r0, [pc, #32]	; (1f40 <spi_cmd_rsp+0xc0>)
    1f20:	4b08      	ldr	r3, [pc, #32]	; (1f44 <spi_cmd_rsp+0xc4>)
    1f22:	4798      	blx	r3
    1f24:	4808      	ldr	r0, [pc, #32]	; (1f48 <spi_cmd_rsp+0xc8>)
    1f26:	4b09      	ldr	r3, [pc, #36]	; (1f4c <spi_cmd_rsp+0xcc>)
    1f28:	4798      	blx	r3
    1f2a:	200d      	movs	r0, #13
    1f2c:	4b08      	ldr	r3, [pc, #32]	; (1f50 <spi_cmd_rsp+0xd0>)
    1f2e:	4798      	blx	r3
    1f30:	e7d4      	b.n	1edc <spi_cmd_rsp+0x5c>
    1f32:	2501      	movs	r5, #1
    1f34:	e7d2      	b.n	1edc <spi_cmd_rsp+0x5c>
    1f36:	46c0      	nop			; (mov r8, r8)
    1f38:	00001e61 	.word	0x00001e61
    1f3c:	0000a504 	.word	0x0000a504
    1f40:	00009e28 	.word	0x00009e28
    1f44:	00008bd5 	.word	0x00008bd5
    1f48:	0000a9a8 	.word	0x0000a9a8
    1f4c:	00008cf1 	.word	0x00008cf1
    1f50:	00008c09 	.word	0x00008c09

00001f54 <spi_data_read>:
    1f54:	b5f0      	push	{r4, r5, r6, r7, lr}
    1f56:	46de      	mov	lr, fp
    1f58:	4657      	mov	r7, sl
    1f5a:	464e      	mov	r6, r9
    1f5c:	4645      	mov	r5, r8
    1f5e:	b5e0      	push	{r5, r6, r7, lr}
    1f60:	b087      	sub	sp, #28
    1f62:	9001      	str	r0, [sp, #4]
    1f64:	4689      	mov	r9, r1
    1f66:	9202      	str	r2, [sp, #8]
    1f68:	2300      	movs	r3, #0
    1f6a:	469a      	mov	sl, r3
    1f6c:	2380      	movs	r3, #128	; 0x80
    1f6e:	019b      	lsls	r3, r3, #6
    1f70:	469b      	mov	fp, r3
    1f72:	466a      	mov	r2, sp
    1f74:	81d3      	strh	r3, [r2, #14]
    1f76:	4b3b      	ldr	r3, [pc, #236]	; (2064 <STACK_SIZE+0x64>)
    1f78:	4698      	mov	r8, r3
    1f7a:	e02f      	b.n	1fdc <spi_data_read+0x88>
    1f7c:	22c3      	movs	r2, #195	; 0xc3
    1f7e:	0092      	lsls	r2, r2, #2
    1f80:	4939      	ldr	r1, [pc, #228]	; (2068 <STACK_SIZE+0x68>)
    1f82:	483a      	ldr	r0, [pc, #232]	; (206c <STACK_SIZE+0x6c>)
    1f84:	4b3a      	ldr	r3, [pc, #232]	; (2070 <STACK_SIZE+0x70>)
    1f86:	4798      	blx	r3
    1f88:	483a      	ldr	r0, [pc, #232]	; (2074 <STACK_SIZE+0x74>)
    1f8a:	4b3b      	ldr	r3, [pc, #236]	; (2078 <STACK_SIZE+0x78>)
    1f8c:	4798      	blx	r3
    1f8e:	200d      	movs	r0, #13
    1f90:	4b3a      	ldr	r3, [pc, #232]	; (207c <STACK_SIZE+0x7c>)
    1f92:	4798      	blx	r3
    1f94:	2500      	movs	r5, #0
    1f96:	0028      	movs	r0, r5
    1f98:	b007      	add	sp, #28
    1f9a:	bc3c      	pop	{r2, r3, r4, r5}
    1f9c:	4690      	mov	r8, r2
    1f9e:	4699      	mov	r9, r3
    1fa0:	46a2      	mov	sl, r4
    1fa2:	46ab      	mov	fp, r5
    1fa4:	bdf0      	pop	{r4, r5, r6, r7, pc}
    1fa6:	2c00      	cmp	r4, #0
    1fa8:	dd2e      	ble.n	2008 <STACK_SIZE+0x8>
    1faa:	9b01      	ldr	r3, [sp, #4]
    1fac:	4453      	add	r3, sl
    1fae:	0018      	movs	r0, r3
    1fb0:	0039      	movs	r1, r7
    1fb2:	4b2c      	ldr	r3, [pc, #176]	; (2064 <STACK_SIZE+0x64>)
    1fb4:	4798      	blx	r3
    1fb6:	1e04      	subs	r4, r0, #0
    1fb8:	d133      	bne.n	2022 <STACK_SIZE+0x22>
    1fba:	9b02      	ldr	r3, [sp, #8]
    1fbc:	2b00      	cmp	r3, #0
    1fbe:	d103      	bne.n	1fc8 <spi_data_read+0x74>
    1fc0:	4b2f      	ldr	r3, [pc, #188]	; (2080 <STACK_SIZE+0x80>)
    1fc2:	781b      	ldrb	r3, [r3, #0]
    1fc4:	2b00      	cmp	r3, #0
    1fc6:	d038      	beq.n	203a <STACK_SIZE+0x3a>
    1fc8:	4653      	mov	r3, sl
    1fca:	18fb      	adds	r3, r7, r3
    1fcc:	b21b      	sxth	r3, r3
    1fce:	469a      	mov	sl, r3
    1fd0:	464b      	mov	r3, r9
    1fd2:	1bdf      	subs	r7, r3, r7
    1fd4:	b2bb      	uxth	r3, r7
    1fd6:	4699      	mov	r9, r3
    1fd8:	2b00      	cmp	r3, #0
    1fda:	d041      	beq.n	2060 <STACK_SIZE+0x60>
    1fdc:	464f      	mov	r7, r9
    1fde:	45d9      	cmp	r9, fp
    1fe0:	d901      	bls.n	1fe6 <spi_data_read+0x92>
    1fe2:	466b      	mov	r3, sp
    1fe4:	89df      	ldrh	r7, [r3, #14]
    1fe6:	b2bf      	uxth	r7, r7
    1fe8:	240a      	movs	r4, #10
    1fea:	ab04      	add	r3, sp, #16
    1fec:	1cde      	adds	r6, r3, #3
    1fee:	2101      	movs	r1, #1
    1ff0:	0030      	movs	r0, r6
    1ff2:	47c0      	blx	r8
    1ff4:	1e05      	subs	r5, r0, #0
    1ff6:	d1c1      	bne.n	1f7c <spi_data_read+0x28>
    1ff8:	7833      	ldrb	r3, [r6, #0]
    1ffa:	091b      	lsrs	r3, r3, #4
    1ffc:	2b0f      	cmp	r3, #15
    1ffe:	d0d2      	beq.n	1fa6 <spi_data_read+0x52>
    2000:	3c01      	subs	r4, #1
    2002:	b224      	sxth	r4, r4
    2004:	1c63      	adds	r3, r4, #1
    2006:	d1f2      	bne.n	1fee <spi_data_read+0x9a>
    2008:	4a1e      	ldr	r2, [pc, #120]	; (2084 <STACK_SIZE+0x84>)
    200a:	4917      	ldr	r1, [pc, #92]	; (2068 <STACK_SIZE+0x68>)
    200c:	4817      	ldr	r0, [pc, #92]	; (206c <STACK_SIZE+0x6c>)
    200e:	4c18      	ldr	r4, [pc, #96]	; (2070 <STACK_SIZE+0x70>)
    2010:	47a0      	blx	r4
    2012:	ab04      	add	r3, sp, #16
    2014:	78d9      	ldrb	r1, [r3, #3]
    2016:	481c      	ldr	r0, [pc, #112]	; (2088 <STACK_SIZE+0x88>)
    2018:	47a0      	blx	r4
    201a:	200d      	movs	r0, #13
    201c:	4b17      	ldr	r3, [pc, #92]	; (207c <STACK_SIZE+0x7c>)
    201e:	4798      	blx	r3
    2020:	e7b9      	b.n	1f96 <spi_data_read+0x42>
    2022:	4a1a      	ldr	r2, [pc, #104]	; (208c <STACK_SIZE+0x8c>)
    2024:	4910      	ldr	r1, [pc, #64]	; (2068 <STACK_SIZE+0x68>)
    2026:	4811      	ldr	r0, [pc, #68]	; (206c <STACK_SIZE+0x6c>)
    2028:	4b11      	ldr	r3, [pc, #68]	; (2070 <STACK_SIZE+0x70>)
    202a:	4798      	blx	r3
    202c:	4818      	ldr	r0, [pc, #96]	; (2090 <STACK_SIZE+0x90>)
    202e:	4b12      	ldr	r3, [pc, #72]	; (2078 <STACK_SIZE+0x78>)
    2030:	4798      	blx	r3
    2032:	200d      	movs	r0, #13
    2034:	4b11      	ldr	r3, [pc, #68]	; (207c <STACK_SIZE+0x7c>)
    2036:	4798      	blx	r3
    2038:	e7ad      	b.n	1f96 <spi_data_read+0x42>
    203a:	2102      	movs	r1, #2
    203c:	a805      	add	r0, sp, #20
    203e:	4b09      	ldr	r3, [pc, #36]	; (2064 <STACK_SIZE+0x64>)
    2040:	4798      	blx	r3
    2042:	2800      	cmp	r0, #0
    2044:	d0c0      	beq.n	1fc8 <spi_data_read+0x74>
    2046:	4a13      	ldr	r2, [pc, #76]	; (2094 <STACK_SIZE+0x94>)
    2048:	4907      	ldr	r1, [pc, #28]	; (2068 <STACK_SIZE+0x68>)
    204a:	4808      	ldr	r0, [pc, #32]	; (206c <STACK_SIZE+0x6c>)
    204c:	4b08      	ldr	r3, [pc, #32]	; (2070 <STACK_SIZE+0x70>)
    204e:	4798      	blx	r3
    2050:	4811      	ldr	r0, [pc, #68]	; (2098 <STACK_SIZE+0x98>)
    2052:	4b09      	ldr	r3, [pc, #36]	; (2078 <STACK_SIZE+0x78>)
    2054:	4798      	blx	r3
    2056:	200d      	movs	r0, #13
    2058:	4b08      	ldr	r3, [pc, #32]	; (207c <STACK_SIZE+0x7c>)
    205a:	4798      	blx	r3
    205c:	0025      	movs	r5, r4
    205e:	e79a      	b.n	1f96 <spi_data_read+0x42>
    2060:	2501      	movs	r5, #1
    2062:	e798      	b.n	1f96 <spi_data_read+0x42>
    2064:	00001e61 	.word	0x00001e61
    2068:	0000a510 	.word	0x0000a510
    206c:	00009e28 	.word	0x00009e28
    2070:	00008bd5 	.word	0x00008bd5
    2074:	0000a9dc 	.word	0x0000a9dc
    2078:	00008cf1 	.word	0x00008cf1
    207c:	00008c09 	.word	0x00008c09
    2080:	200000c0 	.word	0x200000c0
    2084:	00000317 	.word	0x00000317
    2088:	0000aa10 	.word	0x0000aa10
    208c:	00000321 	.word	0x00000321
    2090:	0000aa40 	.word	0x0000aa40
    2094:	0000032f 	.word	0x0000032f
    2098:	0000aa70 	.word	0x0000aa70

0000209c <spi_write_reg>:
    209c:	b5f0      	push	{r4, r5, r6, r7, lr}
    209e:	46d6      	mov	lr, sl
    20a0:	464f      	mov	r7, r9
    20a2:	4646      	mov	r6, r8
    20a4:	b5c0      	push	{r6, r7, lr}
    20a6:	b086      	sub	sp, #24
    20a8:	9003      	str	r0, [sp, #12]
    20aa:	9104      	str	r1, [sp, #16]
    20ac:	2830      	cmp	r0, #48	; 0x30
    20ae:	d80f      	bhi.n	20d0 <spi_write_reg+0x34>
    20b0:	4b30      	ldr	r3, [pc, #192]	; (2174 <spi_write_reg+0xd8>)
    20b2:	781f      	ldrb	r7, [r3, #0]
    20b4:	b2fb      	uxtb	r3, r7
    20b6:	9305      	str	r3, [sp, #20]
    20b8:	2300      	movs	r3, #0
    20ba:	2230      	movs	r2, #48	; 0x30
    20bc:	9903      	ldr	r1, [sp, #12]
    20be:	428a      	cmp	r2, r1
    20c0:	415b      	adcs	r3, r3
    20c2:	b2db      	uxtb	r3, r3
    20c4:	469a      	mov	sl, r3
    20c6:	250a      	movs	r5, #10
    20c8:	4b2b      	ldr	r3, [pc, #172]	; (2178 <spi_write_reg+0xdc>)
    20ca:	4698      	mov	r8, r3
    20cc:	46d1      	mov	r9, sl
    20ce:	e033      	b.n	2138 <spi_write_reg+0x9c>
    20d0:	4b2a      	ldr	r3, [pc, #168]	; (217c <spi_write_reg+0xe0>)
    20d2:	781f      	ldrb	r7, [r3, #0]
    20d4:	e7ee      	b.n	20b4 <spi_write_reg+0x18>
    20d6:	9805      	ldr	r0, [sp, #20]
    20d8:	4b29      	ldr	r3, [pc, #164]	; (2180 <spi_write_reg+0xe4>)
    20da:	4798      	blx	r3
    20dc:	0004      	movs	r4, r0
    20de:	2801      	cmp	r0, #1
    20e0:	d041      	beq.n	2166 <spi_write_reg+0xca>
    20e2:	4a28      	ldr	r2, [pc, #160]	; (2184 <spi_write_reg+0xe8>)
    20e4:	4928      	ldr	r1, [pc, #160]	; (2188 <spi_write_reg+0xec>)
    20e6:	4829      	ldr	r0, [pc, #164]	; (218c <spi_write_reg+0xf0>)
    20e8:	4e29      	ldr	r6, [pc, #164]	; (2190 <spi_write_reg+0xf4>)
    20ea:	47b0      	blx	r6
    20ec:	9903      	ldr	r1, [sp, #12]
    20ee:	4829      	ldr	r0, [pc, #164]	; (2194 <spi_write_reg+0xf8>)
    20f0:	47b0      	blx	r6
    20f2:	200d      	movs	r0, #13
    20f4:	4b28      	ldr	r3, [pc, #160]	; (2198 <spi_write_reg+0xfc>)
    20f6:	4798      	blx	r3
    20f8:	2001      	movs	r0, #1
    20fa:	4e28      	ldr	r6, [pc, #160]	; (219c <spi_write_reg+0x100>)
    20fc:	47b0      	blx	r6
    20fe:	2300      	movs	r3, #0
    2100:	9300      	str	r3, [sp, #0]
    2102:	2200      	movs	r2, #0
    2104:	2100      	movs	r1, #0
    2106:	20cf      	movs	r0, #207	; 0xcf
    2108:	4f1b      	ldr	r7, [pc, #108]	; (2178 <spi_write_reg+0xdc>)
    210a:	47b8      	blx	r7
    210c:	20cf      	movs	r0, #207	; 0xcf
    210e:	4b1c      	ldr	r3, [pc, #112]	; (2180 <spi_write_reg+0xe4>)
    2110:	4798      	blx	r3
    2112:	22f0      	movs	r2, #240	; 0xf0
    2114:	0092      	lsls	r2, r2, #2
    2116:	491c      	ldr	r1, [pc, #112]	; (2188 <spi_write_reg+0xec>)
    2118:	481c      	ldr	r0, [pc, #112]	; (218c <spi_write_reg+0xf0>)
    211a:	4f1d      	ldr	r7, [pc, #116]	; (2190 <spi_write_reg+0xf4>)
    211c:	47b8      	blx	r7
    211e:	9b04      	ldr	r3, [sp, #16]
    2120:	9a03      	ldr	r2, [sp, #12]
    2122:	0029      	movs	r1, r5
    2124:	481e      	ldr	r0, [pc, #120]	; (21a0 <spi_write_reg+0x104>)
    2126:	47b8      	blx	r7
    2128:	200d      	movs	r0, #13
    212a:	4b1b      	ldr	r3, [pc, #108]	; (2198 <spi_write_reg+0xfc>)
    212c:	4798      	blx	r3
    212e:	2001      	movs	r0, #1
    2130:	47b0      	blx	r6
    2132:	3d01      	subs	r5, #1
    2134:	2d00      	cmp	r5, #0
    2136:	d016      	beq.n	2166 <spi_write_reg+0xca>
    2138:	464b      	mov	r3, r9
    213a:	9300      	str	r3, [sp, #0]
    213c:	2304      	movs	r3, #4
    213e:	9a04      	ldr	r2, [sp, #16]
    2140:	9f03      	ldr	r7, [sp, #12]
    2142:	0039      	movs	r1, r7
    2144:	9805      	ldr	r0, [sp, #20]
    2146:	47c0      	blx	r8
    2148:	0004      	movs	r4, r0
    214a:	2801      	cmp	r0, #1
    214c:	d0c3      	beq.n	20d6 <spi_write_reg+0x3a>
    214e:	4a15      	ldr	r2, [pc, #84]	; (21a4 <spi_write_reg+0x108>)
    2150:	490d      	ldr	r1, [pc, #52]	; (2188 <spi_write_reg+0xec>)
    2152:	480e      	ldr	r0, [pc, #56]	; (218c <spi_write_reg+0xf0>)
    2154:	4e0e      	ldr	r6, [pc, #56]	; (2190 <spi_write_reg+0xf4>)
    2156:	47b0      	blx	r6
    2158:	0039      	movs	r1, r7
    215a:	4813      	ldr	r0, [pc, #76]	; (21a8 <spi_write_reg+0x10c>)
    215c:	47b0      	blx	r6
    215e:	200d      	movs	r0, #13
    2160:	4b0d      	ldr	r3, [pc, #52]	; (2198 <spi_write_reg+0xfc>)
    2162:	4798      	blx	r3
    2164:	e7c8      	b.n	20f8 <spi_write_reg+0x5c>
    2166:	0020      	movs	r0, r4
    2168:	b006      	add	sp, #24
    216a:	bc1c      	pop	{r2, r3, r4}
    216c:	4690      	mov	r8, r2
    216e:	4699      	mov	r9, r3
    2170:	46a2      	mov	sl, r4
    2172:	bdf0      	pop	{r4, r5, r6, r7, pc}
    2174:	0000a4e8 	.word	0x0000a4e8
    2178:	00001ce1 	.word	0x00001ce1
    217c:	0000a4e9 	.word	0x0000a4e9
    2180:	00001e81 	.word	0x00001e81
    2184:	000003ad 	.word	0x000003ad
    2188:	0000a530 	.word	0x0000a530
    218c:	00009e28 	.word	0x00009e28
    2190:	00008bd5 	.word	0x00008bd5
    2194:	0000ab68 	.word	0x0000ab68
    2198:	00008c09 	.word	0x00008c09
    219c:	00000129 	.word	0x00000129
    21a0:	0000aba0 	.word	0x0000aba0
    21a4:	000003a7 	.word	0x000003a7
    21a8:	0000ab3c 	.word	0x0000ab3c

000021ac <spi_read_reg>:
    21ac:	b5f0      	push	{r4, r5, r6, r7, lr}
    21ae:	46de      	mov	lr, fp
    21b0:	4657      	mov	r7, sl
    21b2:	464e      	mov	r6, r9
    21b4:	4645      	mov	r5, r8
    21b6:	b5e0      	push	{r5, r6, r7, lr}
    21b8:	b087      	sub	sp, #28
    21ba:	9002      	str	r0, [sp, #8]
    21bc:	468b      	mov	fp, r1
    21be:	28ff      	cmp	r0, #255	; 0xff
    21c0:	d80f      	bhi.n	21e2 <spi_read_reg+0x36>
    21c2:	4b42      	ldr	r3, [pc, #264]	; (22cc <spi_read_reg+0x120>)
    21c4:	781f      	ldrb	r7, [r3, #0]
    21c6:	b2fb      	uxtb	r3, r7
    21c8:	9303      	str	r3, [sp, #12]
    21ca:	2300      	movs	r3, #0
    21cc:	22ff      	movs	r2, #255	; 0xff
    21ce:	9902      	ldr	r1, [sp, #8]
    21d0:	428a      	cmp	r2, r1
    21d2:	415b      	adcs	r3, r3
    21d4:	b2db      	uxtb	r3, r3
    21d6:	469a      	mov	sl, r3
    21d8:	250a      	movs	r5, #10
    21da:	4b3d      	ldr	r3, [pc, #244]	; (22d0 <spi_read_reg+0x124>)
    21dc:	4698      	mov	r8, r3
    21de:	46d1      	mov	r9, sl
    21e0:	e032      	b.n	2248 <spi_read_reg+0x9c>
    21e2:	4b3c      	ldr	r3, [pc, #240]	; (22d4 <spi_read_reg+0x128>)
    21e4:	781f      	ldrb	r7, [r3, #0]
    21e6:	e7ee      	b.n	21c6 <spi_read_reg+0x1a>
    21e8:	9803      	ldr	r0, [sp, #12]
    21ea:	4b3b      	ldr	r3, [pc, #236]	; (22d8 <spi_read_reg+0x12c>)
    21ec:	4798      	blx	r3
    21ee:	0004      	movs	r4, r0
    21f0:	2801      	cmp	r0, #1
    21f2:	d040      	beq.n	2276 <spi_read_reg+0xca>
    21f4:	2286      	movs	r2, #134	; 0x86
    21f6:	00d2      	lsls	r2, r2, #3
    21f8:	4938      	ldr	r1, [pc, #224]	; (22dc <spi_read_reg+0x130>)
    21fa:	4839      	ldr	r0, [pc, #228]	; (22e0 <spi_read_reg+0x134>)
    21fc:	4e39      	ldr	r6, [pc, #228]	; (22e4 <spi_read_reg+0x138>)
    21fe:	47b0      	blx	r6
    2200:	9902      	ldr	r1, [sp, #8]
    2202:	4839      	ldr	r0, [pc, #228]	; (22e8 <spi_read_reg+0x13c>)
    2204:	47b0      	blx	r6
    2206:	200d      	movs	r0, #13
    2208:	4b38      	ldr	r3, [pc, #224]	; (22ec <spi_read_reg+0x140>)
    220a:	4798      	blx	r3
    220c:	2001      	movs	r0, #1
    220e:	4e38      	ldr	r6, [pc, #224]	; (22f0 <spi_read_reg+0x144>)
    2210:	47b0      	blx	r6
    2212:	2300      	movs	r3, #0
    2214:	9300      	str	r3, [sp, #0]
    2216:	2200      	movs	r2, #0
    2218:	2100      	movs	r1, #0
    221a:	20cf      	movs	r0, #207	; 0xcf
    221c:	4f2c      	ldr	r7, [pc, #176]	; (22d0 <spi_read_reg+0x124>)
    221e:	47b8      	blx	r7
    2220:	20cf      	movs	r0, #207	; 0xcf
    2222:	4b2d      	ldr	r3, [pc, #180]	; (22d8 <spi_read_reg+0x12c>)
    2224:	4798      	blx	r3
    2226:	4a33      	ldr	r2, [pc, #204]	; (22f4 <spi_read_reg+0x148>)
    2228:	492c      	ldr	r1, [pc, #176]	; (22dc <spi_read_reg+0x130>)
    222a:	482d      	ldr	r0, [pc, #180]	; (22e0 <spi_read_reg+0x134>)
    222c:	4f2d      	ldr	r7, [pc, #180]	; (22e4 <spi_read_reg+0x138>)
    222e:	47b8      	blx	r7
    2230:	9a02      	ldr	r2, [sp, #8]
    2232:	0029      	movs	r1, r5
    2234:	4830      	ldr	r0, [pc, #192]	; (22f8 <spi_read_reg+0x14c>)
    2236:	47b8      	blx	r7
    2238:	200d      	movs	r0, #13
    223a:	4b2c      	ldr	r3, [pc, #176]	; (22ec <spi_read_reg+0x140>)
    223c:	4798      	blx	r3
    223e:	2001      	movs	r0, #1
    2240:	47b0      	blx	r6
    2242:	3d01      	subs	r5, #1
    2244:	2d00      	cmp	r5, #0
    2246:	d038      	beq.n	22ba <spi_read_reg+0x10e>
    2248:	464b      	mov	r3, r9
    224a:	9300      	str	r3, [sp, #0]
    224c:	2304      	movs	r3, #4
    224e:	2200      	movs	r2, #0
    2250:	9f02      	ldr	r7, [sp, #8]
    2252:	0039      	movs	r1, r7
    2254:	9803      	ldr	r0, [sp, #12]
    2256:	47c0      	blx	r8
    2258:	0004      	movs	r4, r0
    225a:	2801      	cmp	r0, #1
    225c:	d0c4      	beq.n	21e8 <spi_read_reg+0x3c>
    225e:	4a27      	ldr	r2, [pc, #156]	; (22fc <spi_read_reg+0x150>)
    2260:	491e      	ldr	r1, [pc, #120]	; (22dc <spi_read_reg+0x130>)
    2262:	481f      	ldr	r0, [pc, #124]	; (22e0 <spi_read_reg+0x134>)
    2264:	4e1f      	ldr	r6, [pc, #124]	; (22e4 <spi_read_reg+0x138>)
    2266:	47b0      	blx	r6
    2268:	0039      	movs	r1, r7
    226a:	4825      	ldr	r0, [pc, #148]	; (2300 <spi_read_reg+0x154>)
    226c:	47b0      	blx	r6
    226e:	200d      	movs	r0, #13
    2270:	4b1e      	ldr	r3, [pc, #120]	; (22ec <spi_read_reg+0x140>)
    2272:	4798      	blx	r3
    2274:	e7ca      	b.n	220c <spi_read_reg+0x60>
    2276:	464a      	mov	r2, r9
    2278:	2104      	movs	r1, #4
    227a:	a805      	add	r0, sp, #20
    227c:	4b21      	ldr	r3, [pc, #132]	; (2304 <spi_read_reg+0x158>)
    227e:	4798      	blx	r3
    2280:	0004      	movs	r4, r0
    2282:	2801      	cmp	r0, #1
    2284:	d00c      	beq.n	22a0 <spi_read_reg+0xf4>
    2286:	2287      	movs	r2, #135	; 0x87
    2288:	00d2      	lsls	r2, r2, #3
    228a:	4914      	ldr	r1, [pc, #80]	; (22dc <spi_read_reg+0x130>)
    228c:	4814      	ldr	r0, [pc, #80]	; (22e0 <spi_read_reg+0x134>)
    228e:	4b15      	ldr	r3, [pc, #84]	; (22e4 <spi_read_reg+0x138>)
    2290:	4798      	blx	r3
    2292:	481d      	ldr	r0, [pc, #116]	; (2308 <spi_read_reg+0x15c>)
    2294:	4b1d      	ldr	r3, [pc, #116]	; (230c <spi_read_reg+0x160>)
    2296:	4798      	blx	r3
    2298:	200d      	movs	r0, #13
    229a:	4b14      	ldr	r3, [pc, #80]	; (22ec <spi_read_reg+0x140>)
    229c:	4798      	blx	r3
    229e:	e7b5      	b.n	220c <spi_read_reg+0x60>
    22a0:	aa05      	add	r2, sp, #20
    22a2:	7853      	ldrb	r3, [r2, #1]
    22a4:	021b      	lsls	r3, r3, #8
    22a6:	7891      	ldrb	r1, [r2, #2]
    22a8:	0409      	lsls	r1, r1, #16
    22aa:	430b      	orrs	r3, r1
    22ac:	7811      	ldrb	r1, [r2, #0]
    22ae:	430b      	orrs	r3, r1
    22b0:	78d2      	ldrb	r2, [r2, #3]
    22b2:	0612      	lsls	r2, r2, #24
    22b4:	4313      	orrs	r3, r2
    22b6:	465a      	mov	r2, fp
    22b8:	6013      	str	r3, [r2, #0]
    22ba:	0020      	movs	r0, r4
    22bc:	b007      	add	sp, #28
    22be:	bc3c      	pop	{r2, r3, r4, r5}
    22c0:	4690      	mov	r8, r2
    22c2:	4699      	mov	r9, r3
    22c4:	46a2      	mov	sl, r4
    22c6:	46ab      	mov	fp, r5
    22c8:	bdf0      	pop	{r4, r5, r6, r7, pc}
    22ca:	46c0      	nop			; (mov r8, r8)
    22cc:	0000a4ea 	.word	0x0000a4ea
    22d0:	00001ce1 	.word	0x00001ce1
    22d4:	0000a4eb 	.word	0x0000a4eb
    22d8:	00001e81 	.word	0x00001e81
    22dc:	0000a550 	.word	0x0000a550
    22e0:	00009e28 	.word	0x00009e28
    22e4:	00008bd5 	.word	0x00008bd5
    22e8:	0000aad0 	.word	0x0000aad0
    22ec:	00008c09 	.word	0x00008c09
    22f0:	00000129 	.word	0x00000129
    22f4:	00000451 	.word	0x00000451
    22f8:	0000ab24 	.word	0x0000ab24
    22fc:	00000429 	.word	0x00000429
    2300:	0000aaa4 	.word	0x0000aaa4
    2304:	00001f55 	.word	0x00001f55
    2308:	0000ab04 	.word	0x0000ab04
    230c:	00008cf1 	.word	0x00008cf1

00002310 <nm_spi_reset>:
    2310:	b510      	push	{r4, lr}
    2312:	b082      	sub	sp, #8
    2314:	2300      	movs	r3, #0
    2316:	9300      	str	r3, [sp, #0]
    2318:	2200      	movs	r2, #0
    231a:	2100      	movs	r1, #0
    231c:	20cf      	movs	r0, #207	; 0xcf
    231e:	4c04      	ldr	r4, [pc, #16]	; (2330 <nm_spi_reset+0x20>)
    2320:	47a0      	blx	r4
    2322:	20cf      	movs	r0, #207	; 0xcf
    2324:	4b03      	ldr	r3, [pc, #12]	; (2334 <nm_spi_reset+0x24>)
    2326:	4798      	blx	r3
    2328:	2000      	movs	r0, #0
    232a:	b002      	add	sp, #8
    232c:	bd10      	pop	{r4, pc}
    232e:	46c0      	nop			; (mov r8, r8)
    2330:	00001ce1 	.word	0x00001ce1
    2334:	00001e81 	.word	0x00001e81

00002338 <nm_spi_deinit>:
    2338:	2200      	movs	r2, #0
    233a:	4b02      	ldr	r3, [pc, #8]	; (2344 <nm_spi_deinit+0xc>)
    233c:	701a      	strb	r2, [r3, #0]
    233e:	2000      	movs	r0, #0
    2340:	4770      	bx	lr
    2342:	46c0      	nop			; (mov r8, r8)
    2344:	200000c0 	.word	0x200000c0

00002348 <nm_spi_read_reg>:
    2348:	b500      	push	{lr}
    234a:	b083      	sub	sp, #12
    234c:	a901      	add	r1, sp, #4
    234e:	4b02      	ldr	r3, [pc, #8]	; (2358 <nm_spi_read_reg+0x10>)
    2350:	4798      	blx	r3
    2352:	9801      	ldr	r0, [sp, #4]
    2354:	b003      	add	sp, #12
    2356:	bd00      	pop	{pc}
    2358:	000021ad 	.word	0x000021ad

0000235c <nm_spi_read_reg_with_ret>:
    235c:	b510      	push	{r4, lr}
    235e:	4b04      	ldr	r3, [pc, #16]	; (2370 <nm_spi_read_reg_with_ret+0x14>)
    2360:	4798      	blx	r3
    2362:	2300      	movs	r3, #0
    2364:	2801      	cmp	r0, #1
    2366:	d101      	bne.n	236c <nm_spi_read_reg_with_ret+0x10>
    2368:	0018      	movs	r0, r3
    236a:	bd10      	pop	{r4, pc}
    236c:	3b06      	subs	r3, #6
    236e:	e7fb      	b.n	2368 <nm_spi_read_reg_with_ret+0xc>
    2370:	000021ad 	.word	0x000021ad

00002374 <nm_spi_write_reg>:
    2374:	b510      	push	{r4, lr}
    2376:	4b04      	ldr	r3, [pc, #16]	; (2388 <nm_spi_write_reg+0x14>)
    2378:	4798      	blx	r3
    237a:	2300      	movs	r3, #0
    237c:	2801      	cmp	r0, #1
    237e:	d101      	bne.n	2384 <nm_spi_write_reg+0x10>
    2380:	0018      	movs	r0, r3
    2382:	bd10      	pop	{r4, pc}
    2384:	3b06      	subs	r3, #6
    2386:	e7fb      	b.n	2380 <nm_spi_write_reg+0xc>
    2388:	0000209d 	.word	0x0000209d

0000238c <nm_spi_init>:
    238c:	b510      	push	{r4, lr}
    238e:	b082      	sub	sp, #8
    2390:	2300      	movs	r3, #0
    2392:	9300      	str	r3, [sp, #0]
    2394:	4a35      	ldr	r2, [pc, #212]	; (246c <nm_spi_init+0xe0>)
    2396:	7013      	strb	r3, [r2, #0]
    2398:	4669      	mov	r1, sp
    239a:	4835      	ldr	r0, [pc, #212]	; (2470 <nm_spi_init+0xe4>)
    239c:	4b35      	ldr	r3, [pc, #212]	; (2474 <nm_spi_init+0xe8>)
    239e:	4798      	blx	r3
    23a0:	2800      	cmp	r0, #0
    23a2:	d028      	beq.n	23f6 <nm_spi_init+0x6a>
    23a4:	4b31      	ldr	r3, [pc, #196]	; (246c <nm_spi_init+0xe0>)
    23a6:	781b      	ldrb	r3, [r3, #0]
    23a8:	2b00      	cmp	r3, #0
    23aa:	d10d      	bne.n	23c8 <nm_spi_init+0x3c>
    23ac:	337c      	adds	r3, #124	; 0x7c
    23ae:	9900      	ldr	r1, [sp, #0]
    23b0:	4399      	bics	r1, r3
    23b2:	3b2c      	subs	r3, #44	; 0x2c
    23b4:	4319      	orrs	r1, r3
    23b6:	9100      	str	r1, [sp, #0]
    23b8:	482d      	ldr	r0, [pc, #180]	; (2470 <nm_spi_init+0xe4>)
    23ba:	4b2f      	ldr	r3, [pc, #188]	; (2478 <nm_spi_init+0xec>)
    23bc:	4798      	blx	r3
    23be:	1e04      	subs	r4, r0, #0
    23c0:	d039      	beq.n	2436 <nm_spi_init+0xaa>
    23c2:	2201      	movs	r2, #1
    23c4:	4b29      	ldr	r3, [pc, #164]	; (246c <nm_spi_init+0xe0>)
    23c6:	701a      	strb	r2, [r3, #0]
    23c8:	a901      	add	r1, sp, #4
    23ca:	2080      	movs	r0, #128	; 0x80
    23cc:	0140      	lsls	r0, r0, #5
    23ce:	4b29      	ldr	r3, [pc, #164]	; (2474 <nm_spi_init+0xe8>)
    23d0:	4798      	blx	r3
    23d2:	2800      	cmp	r0, #0
    23d4:	d03b      	beq.n	244e <nm_spi_init+0xc2>
    23d6:	4c26      	ldr	r4, [pc, #152]	; (2470 <nm_spi_init+0xe4>)
    23d8:	0020      	movs	r0, r4
    23da:	4b28      	ldr	r3, [pc, #160]	; (247c <nm_spi_init+0xf0>)
    23dc:	4798      	blx	r3
    23de:	2370      	movs	r3, #112	; 0x70
    23e0:	0001      	movs	r1, r0
    23e2:	4399      	bics	r1, r3
    23e4:	2050      	movs	r0, #80	; 0x50
    23e6:	4301      	orrs	r1, r0
    23e8:	0020      	movs	r0, r4
    23ea:	4b25      	ldr	r3, [pc, #148]	; (2480 <nm_spi_init+0xf4>)
    23ec:	4798      	blx	r3
    23ee:	2400      	movs	r4, #0
    23f0:	0020      	movs	r0, r4
    23f2:	b002      	add	sp, #8
    23f4:	bd10      	pop	{r4, pc}
    23f6:	2201      	movs	r2, #1
    23f8:	4b1c      	ldr	r3, [pc, #112]	; (246c <nm_spi_init+0xe0>)
    23fa:	701a      	strb	r2, [r3, #0]
    23fc:	4a21      	ldr	r2, [pc, #132]	; (2484 <nm_spi_init+0xf8>)
    23fe:	4922      	ldr	r1, [pc, #136]	; (2488 <nm_spi_init+0xfc>)
    2400:	4822      	ldr	r0, [pc, #136]	; (248c <nm_spi_init+0x100>)
    2402:	4b23      	ldr	r3, [pc, #140]	; (2490 <nm_spi_init+0x104>)
    2404:	4798      	blx	r3
    2406:	4823      	ldr	r0, [pc, #140]	; (2494 <nm_spi_init+0x108>)
    2408:	4b23      	ldr	r3, [pc, #140]	; (2498 <nm_spi_init+0x10c>)
    240a:	4798      	blx	r3
    240c:	200d      	movs	r0, #13
    240e:	4b23      	ldr	r3, [pc, #140]	; (249c <nm_spi_init+0x110>)
    2410:	4798      	blx	r3
    2412:	4669      	mov	r1, sp
    2414:	4816      	ldr	r0, [pc, #88]	; (2470 <nm_spi_init+0xe4>)
    2416:	4b17      	ldr	r3, [pc, #92]	; (2474 <nm_spi_init+0xe8>)
    2418:	4798      	blx	r3
    241a:	1e04      	subs	r4, r0, #0
    241c:	d1c2      	bne.n	23a4 <nm_spi_init+0x18>
    241e:	4a20      	ldr	r2, [pc, #128]	; (24a0 <nm_spi_init+0x114>)
    2420:	4919      	ldr	r1, [pc, #100]	; (2488 <nm_spi_init+0xfc>)
    2422:	481a      	ldr	r0, [pc, #104]	; (248c <nm_spi_init+0x100>)
    2424:	4b1a      	ldr	r3, [pc, #104]	; (2490 <nm_spi_init+0x104>)
    2426:	4798      	blx	r3
    2428:	481e      	ldr	r0, [pc, #120]	; (24a4 <nm_spi_init+0x118>)
    242a:	4b1b      	ldr	r3, [pc, #108]	; (2498 <nm_spi_init+0x10c>)
    242c:	4798      	blx	r3
    242e:	200d      	movs	r0, #13
    2430:	4b1a      	ldr	r3, [pc, #104]	; (249c <nm_spi_init+0x110>)
    2432:	4798      	blx	r3
    2434:	e7dc      	b.n	23f0 <nm_spi_init+0x64>
    2436:	4a1c      	ldr	r2, [pc, #112]	; (24a8 <nm_spi_init+0x11c>)
    2438:	4913      	ldr	r1, [pc, #76]	; (2488 <nm_spi_init+0xfc>)
    243a:	4814      	ldr	r0, [pc, #80]	; (248c <nm_spi_init+0x100>)
    243c:	4b14      	ldr	r3, [pc, #80]	; (2490 <nm_spi_init+0x104>)
    243e:	4798      	blx	r3
    2440:	481a      	ldr	r0, [pc, #104]	; (24ac <nm_spi_init+0x120>)
    2442:	4b15      	ldr	r3, [pc, #84]	; (2498 <nm_spi_init+0x10c>)
    2444:	4798      	blx	r3
    2446:	200d      	movs	r0, #13
    2448:	4b14      	ldr	r3, [pc, #80]	; (249c <nm_spi_init+0x110>)
    244a:	4798      	blx	r3
    244c:	e7d0      	b.n	23f0 <nm_spi_init+0x64>
    244e:	4a18      	ldr	r2, [pc, #96]	; (24b0 <nm_spi_init+0x124>)
    2450:	490d      	ldr	r1, [pc, #52]	; (2488 <nm_spi_init+0xfc>)
    2452:	480e      	ldr	r0, [pc, #56]	; (248c <nm_spi_init+0x100>)
    2454:	4b0e      	ldr	r3, [pc, #56]	; (2490 <nm_spi_init+0x104>)
    2456:	4798      	blx	r3
    2458:	4816      	ldr	r0, [pc, #88]	; (24b4 <nm_spi_init+0x128>)
    245a:	4b0f      	ldr	r3, [pc, #60]	; (2498 <nm_spi_init+0x10c>)
    245c:	4798      	blx	r3
    245e:	200d      	movs	r0, #13
    2460:	4b0e      	ldr	r3, [pc, #56]	; (249c <nm_spi_init+0x110>)
    2462:	4798      	blx	r3
    2464:	2406      	movs	r4, #6
    2466:	4264      	negs	r4, r4
    2468:	e7c2      	b.n	23f0 <nm_spi_init+0x64>
    246a:	46c0      	nop			; (mov r8, r8)
    246c:	200000c0 	.word	0x200000c0
    2470:	0000e824 	.word	0x0000e824
    2474:	000021ad 	.word	0x000021ad
    2478:	0000209d 	.word	0x0000209d
    247c:	00002349 	.word	0x00002349
    2480:	00002375 	.word	0x00002375
    2484:	000004dc 	.word	0x000004dc
    2488:	0000a56c 	.word	0x0000a56c
    248c:	00009e28 	.word	0x00009e28
    2490:	00008bd5 	.word	0x00008bd5
    2494:	0000a678 	.word	0x0000a678
    2498:	00008cf1 	.word	0x00008cf1
    249c:	00008c09 	.word	0x00008c09
    24a0:	000004df 	.word	0x000004df
    24a4:	0000a6c8 	.word	0x0000a6c8
    24a8:	000004e9 	.word	0x000004e9
    24ac:	0000a6f4 	.word	0x0000a6f4
    24b0:	000004f3 	.word	0x000004f3
    24b4:	0000a728 	.word	0x0000a728

000024b8 <nm_spi_read_block>:
    24b8:	b5f0      	push	{r4, r5, r6, r7, lr}
    24ba:	46de      	mov	lr, fp
    24bc:	4657      	mov	r7, sl
    24be:	464e      	mov	r6, r9
    24c0:	4645      	mov	r5, r8
    24c2:	b5e0      	push	{r5, r6, r7, lr}
    24c4:	b087      	sub	sp, #28
    24c6:	9002      	str	r0, [sp, #8]
    24c8:	9103      	str	r1, [sp, #12]
    24ca:	0016      	movs	r6, r2
    24cc:	250a      	movs	r5, #10
    24ce:	2300      	movs	r3, #0
    24d0:	469b      	mov	fp, r3
    24d2:	2400      	movs	r4, #0
    24d4:	4b3f      	ldr	r3, [pc, #252]	; (25d4 <nm_spi_read_block+0x11c>)
    24d6:	4698      	mov	r8, r3
    24d8:	46a9      	mov	r9, r5
    24da:	e038      	b.n	254e <nm_spi_read_block+0x96>
    24dc:	2301      	movs	r3, #1
    24de:	469b      	mov	fp, r3
    24e0:	3601      	adds	r6, #1
    24e2:	e036      	b.n	2552 <nm_spi_read_block+0x9a>
    24e4:	20c8      	movs	r0, #200	; 0xc8
    24e6:	4b3c      	ldr	r3, [pc, #240]	; (25d8 <nm_spi_read_block+0x120>)
    24e8:	4798      	blx	r3
    24ea:	2801      	cmp	r0, #1
    24ec:	d046      	beq.n	257c <nm_spi_read_block+0xc4>
    24ee:	228f      	movs	r2, #143	; 0x8f
    24f0:	00d2      	lsls	r2, r2, #3
    24f2:	493a      	ldr	r1, [pc, #232]	; (25dc <nm_spi_read_block+0x124>)
    24f4:	483a      	ldr	r0, [pc, #232]	; (25e0 <nm_spi_read_block+0x128>)
    24f6:	4f3b      	ldr	r7, [pc, #236]	; (25e4 <nm_spi_read_block+0x12c>)
    24f8:	47b8      	blx	r7
    24fa:	9902      	ldr	r1, [sp, #8]
    24fc:	483a      	ldr	r0, [pc, #232]	; (25e8 <nm_spi_read_block+0x130>)
    24fe:	47b8      	blx	r7
    2500:	200d      	movs	r0, #13
    2502:	4b3a      	ldr	r3, [pc, #232]	; (25ec <nm_spi_read_block+0x134>)
    2504:	4798      	blx	r3
    2506:	2001      	movs	r0, #1
    2508:	4f39      	ldr	r7, [pc, #228]	; (25f0 <nm_spi_read_block+0x138>)
    250a:	47b8      	blx	r7
    250c:	9400      	str	r4, [sp, #0]
    250e:	0023      	movs	r3, r4
    2510:	0022      	movs	r2, r4
    2512:	0021      	movs	r1, r4
    2514:	20cf      	movs	r0, #207	; 0xcf
    2516:	4d2f      	ldr	r5, [pc, #188]	; (25d4 <nm_spi_read_block+0x11c>)
    2518:	47a8      	blx	r5
    251a:	20cf      	movs	r0, #207	; 0xcf
    251c:	4b2e      	ldr	r3, [pc, #184]	; (25d8 <nm_spi_read_block+0x120>)
    251e:	4798      	blx	r3
    2520:	4a34      	ldr	r2, [pc, #208]	; (25f4 <nm_spi_read_block+0x13c>)
    2522:	492e      	ldr	r1, [pc, #184]	; (25dc <nm_spi_read_block+0x124>)
    2524:	482e      	ldr	r0, [pc, #184]	; (25e0 <nm_spi_read_block+0x128>)
    2526:	4b2f      	ldr	r3, [pc, #188]	; (25e4 <nm_spi_read_block+0x12c>)
    2528:	469a      	mov	sl, r3
    252a:	4798      	blx	r3
    252c:	0033      	movs	r3, r6
    252e:	9a02      	ldr	r2, [sp, #8]
    2530:	4649      	mov	r1, r9
    2532:	4831      	ldr	r0, [pc, #196]	; (25f8 <nm_spi_read_block+0x140>)
    2534:	47d0      	blx	sl
    2536:	200d      	movs	r0, #13
    2538:	4b2c      	ldr	r3, [pc, #176]	; (25ec <nm_spi_read_block+0x134>)
    253a:	4798      	blx	r3
    253c:	2001      	movs	r0, #1
    253e:	47b8      	blx	r7
    2540:	2301      	movs	r3, #1
    2542:	425b      	negs	r3, r3
    2544:	469c      	mov	ip, r3
    2546:	44e1      	add	r9, ip
    2548:	464b      	mov	r3, r9
    254a:	2b00      	cmp	r3, #0
    254c:	d039      	beq.n	25c2 <nm_spi_read_block+0x10a>
    254e:	2e01      	cmp	r6, #1
    2550:	d0c4      	beq.n	24dc <nm_spi_read_block+0x24>
    2552:	9400      	str	r4, [sp, #0]
    2554:	0033      	movs	r3, r6
    2556:	0022      	movs	r2, r4
    2558:	9d02      	ldr	r5, [sp, #8]
    255a:	0029      	movs	r1, r5
    255c:	20c8      	movs	r0, #200	; 0xc8
    255e:	47c0      	blx	r8
    2560:	2801      	cmp	r0, #1
    2562:	d0bf      	beq.n	24e4 <nm_spi_read_block+0x2c>
    2564:	4a25      	ldr	r2, [pc, #148]	; (25fc <nm_spi_read_block+0x144>)
    2566:	491d      	ldr	r1, [pc, #116]	; (25dc <nm_spi_read_block+0x124>)
    2568:	481d      	ldr	r0, [pc, #116]	; (25e0 <nm_spi_read_block+0x128>)
    256a:	4f1e      	ldr	r7, [pc, #120]	; (25e4 <nm_spi_read_block+0x12c>)
    256c:	47b8      	blx	r7
    256e:	0029      	movs	r1, r5
    2570:	4823      	ldr	r0, [pc, #140]	; (2600 <nm_spi_read_block+0x148>)
    2572:	47b8      	blx	r7
    2574:	200d      	movs	r0, #13
    2576:	4b1d      	ldr	r3, [pc, #116]	; (25ec <nm_spi_read_block+0x134>)
    2578:	4798      	blx	r3
    257a:	e7c4      	b.n	2506 <nm_spi_read_block+0x4e>
    257c:	465b      	mov	r3, fp
    257e:	2b00      	cmp	r3, #0
    2580:	d017      	beq.n	25b2 <nm_spi_read_block+0xfa>
    2582:	af05      	add	r7, sp, #20
    2584:	0022      	movs	r2, r4
    2586:	0031      	movs	r1, r6
    2588:	0038      	movs	r0, r7
    258a:	4b1e      	ldr	r3, [pc, #120]	; (2604 <nm_spi_read_block+0x14c>)
    258c:	4798      	blx	r3
    258e:	783b      	ldrb	r3, [r7, #0]
    2590:	9a03      	ldr	r2, [sp, #12]
    2592:	7013      	strb	r3, [r2, #0]
    2594:	2801      	cmp	r0, #1
    2596:	d012      	beq.n	25be <nm_spi_read_block+0x106>
    2598:	2291      	movs	r2, #145	; 0x91
    259a:	00d2      	lsls	r2, r2, #3
    259c:	490f      	ldr	r1, [pc, #60]	; (25dc <nm_spi_read_block+0x124>)
    259e:	4810      	ldr	r0, [pc, #64]	; (25e0 <nm_spi_read_block+0x128>)
    25a0:	4b10      	ldr	r3, [pc, #64]	; (25e4 <nm_spi_read_block+0x12c>)
    25a2:	4798      	blx	r3
    25a4:	4818      	ldr	r0, [pc, #96]	; (2608 <nm_spi_read_block+0x150>)
    25a6:	4b19      	ldr	r3, [pc, #100]	; (260c <nm_spi_read_block+0x154>)
    25a8:	4798      	blx	r3
    25aa:	200d      	movs	r0, #13
    25ac:	4b0f      	ldr	r3, [pc, #60]	; (25ec <nm_spi_read_block+0x134>)
    25ae:	4798      	blx	r3
    25b0:	e7a9      	b.n	2506 <nm_spi_read_block+0x4e>
    25b2:	0022      	movs	r2, r4
    25b4:	0031      	movs	r1, r6
    25b6:	9803      	ldr	r0, [sp, #12]
    25b8:	4b12      	ldr	r3, [pc, #72]	; (2604 <nm_spi_read_block+0x14c>)
    25ba:	4798      	blx	r3
    25bc:	e7ea      	b.n	2594 <nm_spi_read_block+0xdc>
    25be:	2000      	movs	r0, #0
    25c0:	e001      	b.n	25c6 <nm_spi_read_block+0x10e>
    25c2:	2006      	movs	r0, #6
    25c4:	4240      	negs	r0, r0
    25c6:	b007      	add	sp, #28
    25c8:	bc3c      	pop	{r2, r3, r4, r5}
    25ca:	4690      	mov	r8, r2
    25cc:	4699      	mov	r9, r3
    25ce:	46a2      	mov	sl, r4
    25d0:	46ab      	mov	fp, r5
    25d2:	bdf0      	pop	{r4, r5, r6, r7, pc}
    25d4:	00001ce1 	.word	0x00001ce1
    25d8:	00001e81 	.word	0x00001e81
    25dc:	0000a560 	.word	0x0000a560
    25e0:	00009e28 	.word	0x00009e28
    25e4:	00008bd5 	.word	0x00008bd5
    25e8:	0000a77c 	.word	0x0000a77c
    25ec:	00008c09 	.word	0x00008c09
    25f0:	00000129 	.word	0x00000129
    25f4:	00000499 	.word	0x00000499
    25f8:	0000a7dc 	.word	0x0000a7dc
    25fc:	00000472 	.word	0x00000472
    2600:	0000a74c 	.word	0x0000a74c
    2604:	00001f55 	.word	0x00001f55
    2608:	0000a7b4 	.word	0x0000a7b4
    260c:	00008cf1 	.word	0x00008cf1

00002610 <nm_spi_write_block>:
    2610:	b5f0      	push	{r4, r5, r6, r7, lr}
    2612:	46de      	mov	lr, fp
    2614:	4647      	mov	r7, r8
    2616:	b580      	push	{r7, lr}
    2618:	b089      	sub	sp, #36	; 0x24
    261a:	9004      	str	r0, [sp, #16]
    261c:	468b      	mov	fp, r1
    261e:	9203      	str	r2, [sp, #12]
    2620:	260a      	movs	r6, #10
    2622:	2780      	movs	r7, #128	; 0x80
    2624:	01bf      	lsls	r7, r7, #6
    2626:	466b      	mov	r3, sp
    2628:	82df      	strh	r7, [r3, #22]
    262a:	0035      	movs	r5, r6
    262c:	e02d      	b.n	268a <nm_spi_write_block+0x7a>
    262e:	3301      	adds	r3, #1
    2630:	9303      	str	r3, [sp, #12]
    2632:	e02d      	b.n	2690 <nm_spi_write_block+0x80>
    2634:	4a82      	ldr	r2, [pc, #520]	; (2840 <nm_spi_write_block+0x230>)
    2636:	4983      	ldr	r1, [pc, #524]	; (2844 <nm_spi_write_block+0x234>)
    2638:	4883      	ldr	r0, [pc, #524]	; (2848 <nm_spi_write_block+0x238>)
    263a:	4c84      	ldr	r4, [pc, #528]	; (284c <nm_spi_write_block+0x23c>)
    263c:	47a0      	blx	r4
    263e:	0031      	movs	r1, r6
    2640:	4883      	ldr	r0, [pc, #524]	; (2850 <nm_spi_write_block+0x240>)
    2642:	47a0      	blx	r4
    2644:	200d      	movs	r0, #13
    2646:	4b83      	ldr	r3, [pc, #524]	; (2854 <nm_spi_write_block+0x244>)
    2648:	4798      	blx	r3
    264a:	2001      	movs	r0, #1
    264c:	4c82      	ldr	r4, [pc, #520]	; (2858 <nm_spi_write_block+0x248>)
    264e:	47a0      	blx	r4
    2650:	2300      	movs	r3, #0
    2652:	9300      	str	r3, [sp, #0]
    2654:	2200      	movs	r2, #0
    2656:	2100      	movs	r1, #0
    2658:	20cf      	movs	r0, #207	; 0xcf
    265a:	4e80      	ldr	r6, [pc, #512]	; (285c <nm_spi_write_block+0x24c>)
    265c:	47b0      	blx	r6
    265e:	20cf      	movs	r0, #207	; 0xcf
    2660:	4b7f      	ldr	r3, [pc, #508]	; (2860 <nm_spi_write_block+0x250>)
    2662:	4798      	blx	r3
    2664:	4a7f      	ldr	r2, [pc, #508]	; (2864 <nm_spi_write_block+0x254>)
    2666:	4977      	ldr	r1, [pc, #476]	; (2844 <nm_spi_write_block+0x234>)
    2668:	4877      	ldr	r0, [pc, #476]	; (2848 <nm_spi_write_block+0x238>)
    266a:	4e78      	ldr	r6, [pc, #480]	; (284c <nm_spi_write_block+0x23c>)
    266c:	47b0      	blx	r6
    266e:	9b03      	ldr	r3, [sp, #12]
    2670:	9a04      	ldr	r2, [sp, #16]
    2672:	0029      	movs	r1, r5
    2674:	487c      	ldr	r0, [pc, #496]	; (2868 <nm_spi_write_block+0x258>)
    2676:	47b0      	blx	r6
    2678:	200d      	movs	r0, #13
    267a:	4b76      	ldr	r3, [pc, #472]	; (2854 <nm_spi_write_block+0x244>)
    267c:	4798      	blx	r3
    267e:	2001      	movs	r0, #1
    2680:	47a0      	blx	r4
    2682:	3d01      	subs	r5, #1
    2684:	2d00      	cmp	r5, #0
    2686:	d100      	bne.n	268a <nm_spi_write_block+0x7a>
    2688:	e0d2      	b.n	2830 <nm_spi_write_block+0x220>
    268a:	9b03      	ldr	r3, [sp, #12]
    268c:	2b01      	cmp	r3, #1
    268e:	d0ce      	beq.n	262e <nm_spi_write_block+0x1e>
    2690:	2300      	movs	r3, #0
    2692:	9300      	str	r3, [sp, #0]
    2694:	9b03      	ldr	r3, [sp, #12]
    2696:	2200      	movs	r2, #0
    2698:	9e04      	ldr	r6, [sp, #16]
    269a:	0031      	movs	r1, r6
    269c:	20c7      	movs	r0, #199	; 0xc7
    269e:	4c6f      	ldr	r4, [pc, #444]	; (285c <nm_spi_write_block+0x24c>)
    26a0:	47a0      	blx	r4
    26a2:	2801      	cmp	r0, #1
    26a4:	d1c6      	bne.n	2634 <nm_spi_write_block+0x24>
    26a6:	20c7      	movs	r0, #199	; 0xc7
    26a8:	4b6d      	ldr	r3, [pc, #436]	; (2860 <nm_spi_write_block+0x250>)
    26aa:	4798      	blx	r3
    26ac:	2801      	cmp	r0, #1
    26ae:	d00b      	beq.n	26c8 <nm_spi_write_block+0xb8>
    26b0:	4a6e      	ldr	r2, [pc, #440]	; (286c <nm_spi_write_block+0x25c>)
    26b2:	4964      	ldr	r1, [pc, #400]	; (2844 <nm_spi_write_block+0x234>)
    26b4:	4864      	ldr	r0, [pc, #400]	; (2848 <nm_spi_write_block+0x238>)
    26b6:	4c65      	ldr	r4, [pc, #404]	; (284c <nm_spi_write_block+0x23c>)
    26b8:	47a0      	blx	r4
    26ba:	9904      	ldr	r1, [sp, #16]
    26bc:	486c      	ldr	r0, [pc, #432]	; (2870 <nm_spi_write_block+0x260>)
    26be:	47a0      	blx	r4
    26c0:	200d      	movs	r0, #13
    26c2:	4b64      	ldr	r3, [pc, #400]	; (2854 <nm_spi_write_block+0x244>)
    26c4:	4798      	blx	r3
    26c6:	e7c0      	b.n	264a <nm_spi_write_block+0x3a>
    26c8:	2200      	movs	r2, #0
    26ca:	ab07      	add	r3, sp, #28
    26cc:	801a      	strh	r2, [r3, #0]
    26ce:	9c03      	ldr	r4, [sp, #12]
    26d0:	2600      	movs	r6, #0
    26d2:	46a8      	mov	r8, r5
    26d4:	0035      	movs	r5, r6
    26d6:	0026      	movs	r6, r4
    26d8:	e021      	b.n	271e <nm_spi_write_block+0x10e>
    26da:	2300      	movs	r3, #0
    26dc:	42b7      	cmp	r7, r6
    26de:	415b      	adcs	r3, r3
    26e0:	3302      	adds	r3, #2
    26e2:	200b      	movs	r0, #11
    26e4:	aa04      	add	r2, sp, #16
    26e6:	4694      	mov	ip, r2
    26e8:	4460      	add	r0, ip
    26ea:	2210      	movs	r2, #16
    26ec:	4252      	negs	r2, r2
    26ee:	4313      	orrs	r3, r2
    26f0:	7003      	strb	r3, [r0, #0]
    26f2:	2101      	movs	r1, #1
    26f4:	4b5f      	ldr	r3, [pc, #380]	; (2874 <nm_spi_write_block+0x264>)
    26f6:	4798      	blx	r3
    26f8:	2800      	cmp	r0, #0
    26fa:	d11d      	bne.n	2738 <nm_spi_write_block+0x128>
    26fc:	465b      	mov	r3, fp
    26fe:	1958      	adds	r0, r3, r5
    2700:	0021      	movs	r1, r4
    2702:	4b5c      	ldr	r3, [pc, #368]	; (2874 <nm_spi_write_block+0x264>)
    2704:	4798      	blx	r3
    2706:	2800      	cmp	r0, #0
    2708:	d12e      	bne.n	2768 <nm_spi_write_block+0x158>
    270a:	4b5b      	ldr	r3, [pc, #364]	; (2878 <nm_spi_write_block+0x268>)
    270c:	781b      	ldrb	r3, [r3, #0]
    270e:	2b00      	cmp	r3, #0
    2710:	d037      	beq.n	2782 <nm_spi_write_block+0x172>
    2712:	1965      	adds	r5, r4, r5
    2714:	b22d      	sxth	r5, r5
    2716:	1b36      	subs	r6, r6, r4
    2718:	b2b6      	uxth	r6, r6
    271a:	2e00      	cmp	r6, #0
    271c:	d052      	beq.n	27c4 <nm_spi_write_block+0x1b4>
    271e:	1c34      	adds	r4, r6, #0
    2720:	42be      	cmp	r6, r7
    2722:	d901      	bls.n	2728 <nm_spi_write_block+0x118>
    2724:	466b      	mov	r3, sp
    2726:	8adc      	ldrh	r4, [r3, #22]
    2728:	b2a4      	uxth	r4, r4
    272a:	2d00      	cmp	r5, #0
    272c:	d1d5      	bne.n	26da <nm_spi_write_block+0xca>
    272e:	2303      	movs	r3, #3
    2730:	42be      	cmp	r6, r7
    2732:	d9d6      	bls.n	26e2 <nm_spi_write_block+0xd2>
    2734:	3b02      	subs	r3, #2
    2736:	e7d4      	b.n	26e2 <nm_spi_write_block+0xd2>
    2738:	4645      	mov	r5, r8
    273a:	4a50      	ldr	r2, [pc, #320]	; (287c <nm_spi_write_block+0x26c>)
    273c:	4950      	ldr	r1, [pc, #320]	; (2880 <nm_spi_write_block+0x270>)
    273e:	4842      	ldr	r0, [pc, #264]	; (2848 <nm_spi_write_block+0x238>)
    2740:	4b42      	ldr	r3, [pc, #264]	; (284c <nm_spi_write_block+0x23c>)
    2742:	4798      	blx	r3
    2744:	484f      	ldr	r0, [pc, #316]	; (2884 <nm_spi_write_block+0x274>)
    2746:	4b50      	ldr	r3, [pc, #320]	; (2888 <nm_spi_write_block+0x278>)
    2748:	4798      	blx	r3
    274a:	200d      	movs	r0, #13
    274c:	4b41      	ldr	r3, [pc, #260]	; (2854 <nm_spi_write_block+0x244>)
    274e:	4798      	blx	r3
    2750:	4a4e      	ldr	r2, [pc, #312]	; (288c <nm_spi_write_block+0x27c>)
    2752:	493c      	ldr	r1, [pc, #240]	; (2844 <nm_spi_write_block+0x234>)
    2754:	483c      	ldr	r0, [pc, #240]	; (2848 <nm_spi_write_block+0x238>)
    2756:	4b3d      	ldr	r3, [pc, #244]	; (284c <nm_spi_write_block+0x23c>)
    2758:	4798      	blx	r3
    275a:	484d      	ldr	r0, [pc, #308]	; (2890 <nm_spi_write_block+0x280>)
    275c:	4b4a      	ldr	r3, [pc, #296]	; (2888 <nm_spi_write_block+0x278>)
    275e:	4798      	blx	r3
    2760:	200d      	movs	r0, #13
    2762:	4b3c      	ldr	r3, [pc, #240]	; (2854 <nm_spi_write_block+0x244>)
    2764:	4798      	blx	r3
    2766:	e770      	b.n	264a <nm_spi_write_block+0x3a>
    2768:	4645      	mov	r5, r8
    276a:	4a4a      	ldr	r2, [pc, #296]	; (2894 <nm_spi_write_block+0x284>)
    276c:	4944      	ldr	r1, [pc, #272]	; (2880 <nm_spi_write_block+0x270>)
    276e:	4836      	ldr	r0, [pc, #216]	; (2848 <nm_spi_write_block+0x238>)
    2770:	4b36      	ldr	r3, [pc, #216]	; (284c <nm_spi_write_block+0x23c>)
    2772:	4798      	blx	r3
    2774:	4848      	ldr	r0, [pc, #288]	; (2898 <nm_spi_write_block+0x288>)
    2776:	4b44      	ldr	r3, [pc, #272]	; (2888 <nm_spi_write_block+0x278>)
    2778:	4798      	blx	r3
    277a:	200d      	movs	r0, #13
    277c:	4b35      	ldr	r3, [pc, #212]	; (2854 <nm_spi_write_block+0x244>)
    277e:	4798      	blx	r3
    2780:	e7e6      	b.n	2750 <nm_spi_write_block+0x140>
    2782:	2102      	movs	r1, #2
    2784:	a807      	add	r0, sp, #28
    2786:	4b3b      	ldr	r3, [pc, #236]	; (2874 <nm_spi_write_block+0x264>)
    2788:	4798      	blx	r3
    278a:	2800      	cmp	r0, #0
    278c:	d0c1      	beq.n	2712 <nm_spi_write_block+0x102>
    278e:	4645      	mov	r5, r8
    2790:	22dd      	movs	r2, #221	; 0xdd
    2792:	0092      	lsls	r2, r2, #2
    2794:	493a      	ldr	r1, [pc, #232]	; (2880 <nm_spi_write_block+0x270>)
    2796:	482c      	ldr	r0, [pc, #176]	; (2848 <nm_spi_write_block+0x238>)
    2798:	4b2c      	ldr	r3, [pc, #176]	; (284c <nm_spi_write_block+0x23c>)
    279a:	4798      	blx	r3
    279c:	483f      	ldr	r0, [pc, #252]	; (289c <nm_spi_write_block+0x28c>)
    279e:	4b3a      	ldr	r3, [pc, #232]	; (2888 <nm_spi_write_block+0x278>)
    27a0:	4798      	blx	r3
    27a2:	200d      	movs	r0, #13
    27a4:	4b2b      	ldr	r3, [pc, #172]	; (2854 <nm_spi_write_block+0x244>)
    27a6:	4798      	blx	r3
    27a8:	e7d2      	b.n	2750 <nm_spi_write_block+0x140>
    27aa:	2248      	movs	r2, #72	; 0x48
    27ac:	32ff      	adds	r2, #255	; 0xff
    27ae:	493c      	ldr	r1, [pc, #240]	; (28a0 <nm_spi_write_block+0x290>)
    27b0:	4825      	ldr	r0, [pc, #148]	; (2848 <nm_spi_write_block+0x238>)
    27b2:	4b26      	ldr	r3, [pc, #152]	; (284c <nm_spi_write_block+0x23c>)
    27b4:	4798      	blx	r3
    27b6:	483b      	ldr	r0, [pc, #236]	; (28a4 <nm_spi_write_block+0x294>)
    27b8:	4b33      	ldr	r3, [pc, #204]	; (2888 <nm_spi_write_block+0x278>)
    27ba:	4798      	blx	r3
    27bc:	200d      	movs	r0, #13
    27be:	4b25      	ldr	r3, [pc, #148]	; (2854 <nm_spi_write_block+0x244>)
    27c0:	4798      	blx	r3
    27c2:	e027      	b.n	2814 <nm_spi_write_block+0x204>
    27c4:	4645      	mov	r5, r8
    27c6:	4b2c      	ldr	r3, [pc, #176]	; (2878 <nm_spi_write_block+0x268>)
    27c8:	781c      	ldrb	r4, [r3, #0]
    27ca:	1e63      	subs	r3, r4, #1
    27cc:	419c      	sbcs	r4, r3
    27ce:	3402      	adds	r4, #2
    27d0:	b2a1      	uxth	r1, r4
    27d2:	a807      	add	r0, sp, #28
    27d4:	4b34      	ldr	r3, [pc, #208]	; (28a8 <nm_spi_write_block+0x298>)
    27d6:	4798      	blx	r3
    27d8:	2800      	cmp	r0, #0
    27da:	d1e6      	bne.n	27aa <nm_spi_write_block+0x19a>
    27dc:	ab08      	add	r3, sp, #32
    27de:	191b      	adds	r3, r3, r4
    27e0:	3b05      	subs	r3, #5
    27e2:	781b      	ldrb	r3, [r3, #0]
    27e4:	2b00      	cmp	r3, #0
    27e6:	d106      	bne.n	27f6 <nm_spi_write_block+0x1e6>
    27e8:	ab08      	add	r3, sp, #32
    27ea:	469c      	mov	ip, r3
    27ec:	4464      	add	r4, ip
    27ee:	3c06      	subs	r4, #6
    27f0:	7823      	ldrb	r3, [r4, #0]
    27f2:	2bc3      	cmp	r3, #195	; 0xc3
    27f4:	d01a      	beq.n	282c <nm_spi_write_block+0x21c>
    27f6:	22a7      	movs	r2, #167	; 0xa7
    27f8:	0052      	lsls	r2, r2, #1
    27fa:	4929      	ldr	r1, [pc, #164]	; (28a0 <nm_spi_write_block+0x290>)
    27fc:	4812      	ldr	r0, [pc, #72]	; (2848 <nm_spi_write_block+0x238>)
    27fe:	4c13      	ldr	r4, [pc, #76]	; (284c <nm_spi_write_block+0x23c>)
    2800:	47a0      	blx	r4
    2802:	a907      	add	r1, sp, #28
    2804:	788b      	ldrb	r3, [r1, #2]
    2806:	784a      	ldrb	r2, [r1, #1]
    2808:	7809      	ldrb	r1, [r1, #0]
    280a:	4828      	ldr	r0, [pc, #160]	; (28ac <nm_spi_write_block+0x29c>)
    280c:	47a0      	blx	r4
    280e:	200d      	movs	r0, #13
    2810:	4b10      	ldr	r3, [pc, #64]	; (2854 <nm_spi_write_block+0x244>)
    2812:	4798      	blx	r3
    2814:	4a26      	ldr	r2, [pc, #152]	; (28b0 <nm_spi_write_block+0x2a0>)
    2816:	490b      	ldr	r1, [pc, #44]	; (2844 <nm_spi_write_block+0x234>)
    2818:	480b      	ldr	r0, [pc, #44]	; (2848 <nm_spi_write_block+0x238>)
    281a:	4b0c      	ldr	r3, [pc, #48]	; (284c <nm_spi_write_block+0x23c>)
    281c:	4798      	blx	r3
    281e:	481c      	ldr	r0, [pc, #112]	; (2890 <nm_spi_write_block+0x280>)
    2820:	4b19      	ldr	r3, [pc, #100]	; (2888 <nm_spi_write_block+0x278>)
    2822:	4798      	blx	r3
    2824:	200d      	movs	r0, #13
    2826:	4b0b      	ldr	r3, [pc, #44]	; (2854 <nm_spi_write_block+0x244>)
    2828:	4798      	blx	r3
    282a:	e70e      	b.n	264a <nm_spi_write_block+0x3a>
    282c:	2000      	movs	r0, #0
    282e:	e001      	b.n	2834 <nm_spi_write_block+0x224>
    2830:	2006      	movs	r0, #6
    2832:	4240      	negs	r0, r0
    2834:	b009      	add	sp, #36	; 0x24
    2836:	bc0c      	pop	{r2, r3}
    2838:	4690      	mov	r8, r2
    283a:	469b      	mov	fp, r3
    283c:	bdf0      	pop	{r4, r5, r6, r7, pc}
    283e:	46c0      	nop			; (mov r8, r8)
    2840:	000003db 	.word	0x000003db
    2844:	0000a540 	.word	0x0000a540
    2848:	00009e28 	.word	0x00009e28
    284c:	00008bd5 	.word	0x00008bd5
    2850:	0000a7f8 	.word	0x0000a7f8
    2854:	00008c09 	.word	0x00008c09
    2858:	00000129 	.word	0x00000129
    285c:	00001ce1 	.word	0x00001ce1
    2860:	00001e81 	.word	0x00001e81
    2864:	00000403 	.word	0x00000403
    2868:	0000a7dc 	.word	0x0000a7dc
    286c:	000003e1 	.word	0x000003e1
    2870:	0000a828 	.word	0x0000a828
    2874:	00001cc1 	.word	0x00001cc1
    2878:	200000c0 	.word	0x200000c0
    287c:	00000361 	.word	0x00000361
    2880:	0000a520 	.word	0x0000a520
    2884:	0000a860 	.word	0x0000a860
    2888:	00008cf1 	.word	0x00008cf1
    288c:	000003f1 	.word	0x000003f1
    2890:	0000a954 	.word	0x0000a954
    2894:	0000036a 	.word	0x0000036a
    2898:	0000a898 	.word	0x0000a898
    289c:	0000a8cc 	.word	0x0000a8cc
    28a0:	0000a4f4 	.word	0x0000a4f4
    28a4:	0000a904 	.word	0x0000a904
    28a8:	00001e61 	.word	0x00001e61
    28ac:	0000a924 	.word	0x0000a924
    28b0:	000003f9 	.word	0x000003f9

000028b4 <Socket_ReadSocketData>:
    28b4:	b5f0      	push	{r4, r5, r6, r7, lr}
    28b6:	46de      	mov	lr, fp
    28b8:	4657      	mov	r7, sl
    28ba:	464e      	mov	r6, r9
    28bc:	4645      	mov	r5, r8
    28be:	b5e0      	push	{r5, r6, r7, lr}
    28c0:	b085      	sub	sp, #20
    28c2:	9001      	str	r0, [sp, #4]
    28c4:	000e      	movs	r6, r1
    28c6:	9202      	str	r2, [sp, #8]
    28c8:	001d      	movs	r5, r3
    28ca:	ab0e      	add	r3, sp, #56	; 0x38
    28cc:	881c      	ldrh	r4, [r3, #0]
    28ce:	2c00      	cmp	r4, #0
    28d0:	d064      	beq.n	299c <Socket_ReadSocketData+0xe8>
    28d2:	0103      	lsls	r3, r0, #4
    28d4:	4935      	ldr	r1, [pc, #212]	; (29ac <Socket_ReadSocketData+0xf8>)
    28d6:	585b      	ldr	r3, [r3, r1]
    28d8:	2b00      	cmp	r3, #0
    28da:	d05f      	beq.n	299c <Socket_ReadSocketData+0xe8>
    28dc:	0101      	lsls	r1, r0, #4
    28de:	4b33      	ldr	r3, [pc, #204]	; (29ac <Socket_ReadSocketData+0xf8>)
    28e0:	185b      	adds	r3, r3, r1
    28e2:	889b      	ldrh	r3, [r3, #4]
    28e4:	b29b      	uxth	r3, r3
    28e6:	2b00      	cmp	r3, #0
    28e8:	d058      	beq.n	299c <Socket_ReadSocketData+0xe8>
    28ea:	4b30      	ldr	r3, [pc, #192]	; (29ac <Socket_ReadSocketData+0xf8>)
    28ec:	185b      	adds	r3, r3, r1
    28ee:	7a9b      	ldrb	r3, [r3, #10]
    28f0:	2b01      	cmp	r3, #1
    28f2:	d153      	bne.n	299c <Socket_ReadSocketData+0xe8>
    28f4:	80f4      	strh	r4, [r6, #6]
    28f6:	4b2d      	ldr	r3, [pc, #180]	; (29ac <Socket_ReadSocketData+0xf8>)
    28f8:	469b      	mov	fp, r3
    28fa:	448b      	add	fp, r1
    28fc:	465b      	mov	r3, fp
    28fe:	220a      	movs	r2, #10
    2900:	4690      	mov	r8, r2
    2902:	44d8      	add	r8, fp
    2904:	468a      	mov	sl, r1
    2906:	9500      	str	r5, [sp, #0]
    2908:	9303      	str	r3, [sp, #12]
    290a:	e015      	b.n	2938 <Socket_ReadSocketData+0x84>
    290c:	0025      	movs	r5, r4
    290e:	2301      	movs	r3, #1
    2910:	e01c      	b.n	294c <Socket_ReadSocketData+0x98>
    2912:	3301      	adds	r3, #1
    2914:	2200      	movs	r2, #0
    2916:	2100      	movs	r1, #0
    2918:	2000      	movs	r0, #0
    291a:	4c25      	ldr	r4, [pc, #148]	; (29b0 <Socket_ReadSocketData+0xfc>)
    291c:	47a0      	blx	r4
    291e:	e03d      	b.n	299c <Socket_ReadSocketData+0xe8>
    2920:	4824      	ldr	r0, [pc, #144]	; (29b4 <Socket_ReadSocketData+0x100>)
    2922:	4d25      	ldr	r5, [pc, #148]	; (29b8 <Socket_ReadSocketData+0x104>)
    2924:	47a8      	blx	r5
    2926:	0021      	movs	r1, r4
    2928:	4824      	ldr	r0, [pc, #144]	; (29bc <Socket_ReadSocketData+0x108>)
    292a:	47a8      	blx	r5
    292c:	200d      	movs	r0, #13
    292e:	4b24      	ldr	r3, [pc, #144]	; (29c0 <Socket_ReadSocketData+0x10c>)
    2930:	4798      	blx	r3
    2932:	e033      	b.n	299c <Socket_ReadSocketData+0xe8>
    2934:	2c00      	cmp	r4, #0
    2936:	d031      	beq.n	299c <Socket_ReadSocketData+0xe8>
    2938:	465b      	mov	r3, fp
    293a:	889b      	ldrh	r3, [r3, #4]
    293c:	1ae3      	subs	r3, r4, r3
    293e:	b21b      	sxth	r3, r3
    2940:	2b00      	cmp	r3, #0
    2942:	dde3      	ble.n	290c <Socket_ReadSocketData+0x58>
    2944:	9b03      	ldr	r3, [sp, #12]
    2946:	889d      	ldrh	r5, [r3, #4]
    2948:	b2ad      	uxth	r5, r5
    294a:	2300      	movs	r3, #0
    294c:	4a17      	ldr	r2, [pc, #92]	; (29ac <Socket_ReadSocketData+0xf8>)
    294e:	4651      	mov	r1, sl
    2950:	5889      	ldr	r1, [r1, r2]
    2952:	002a      	movs	r2, r5
    2954:	9800      	ldr	r0, [sp, #0]
    2956:	4f16      	ldr	r7, [pc, #88]	; (29b0 <Socket_ReadSocketData+0xfc>)
    2958:	47b8      	blx	r7
    295a:	2800      	cmp	r0, #0
    295c:	d1e0      	bne.n	2920 <Socket_ReadSocketData+0x6c>
    295e:	4b13      	ldr	r3, [pc, #76]	; (29ac <Socket_ReadSocketData+0xf8>)
    2960:	4652      	mov	r2, sl
    2962:	58d3      	ldr	r3, [r2, r3]
    2964:	6033      	str	r3, [r6, #0]
    2966:	80b5      	strh	r5, [r6, #4]
    2968:	88f3      	ldrh	r3, [r6, #6]
    296a:	1b5b      	subs	r3, r3, r5
    296c:	80f3      	strh	r3, [r6, #6]
    296e:	4b15      	ldr	r3, [pc, #84]	; (29c4 <Socket_ReadSocketData+0x110>)
    2970:	681b      	ldr	r3, [r3, #0]
    2972:	2b00      	cmp	r3, #0
    2974:	d005      	beq.n	2982 <Socket_ReadSocketData+0xce>
    2976:	4b13      	ldr	r3, [pc, #76]	; (29c4 <Socket_ReadSocketData+0x110>)
    2978:	681b      	ldr	r3, [r3, #0]
    297a:	0032      	movs	r2, r6
    297c:	9902      	ldr	r1, [sp, #8]
    297e:	9801      	ldr	r0, [sp, #4]
    2980:	4798      	blx	r3
    2982:	1b64      	subs	r4, r4, r5
    2984:	b2a4      	uxth	r4, r4
    2986:	9b00      	ldr	r3, [sp, #0]
    2988:	469c      	mov	ip, r3
    298a:	44ac      	add	ip, r5
    298c:	4663      	mov	r3, ip
    298e:	9300      	str	r3, [sp, #0]
    2990:	4643      	mov	r3, r8
    2992:	781b      	ldrb	r3, [r3, #0]
    2994:	2b00      	cmp	r3, #0
    2996:	d1cd      	bne.n	2934 <Socket_ReadSocketData+0x80>
    2998:	2c00      	cmp	r4, #0
    299a:	d1ba      	bne.n	2912 <Socket_ReadSocketData+0x5e>
    299c:	b005      	add	sp, #20
    299e:	bc3c      	pop	{r2, r3, r4, r5}
    29a0:	4690      	mov	r8, r2
    29a2:	4699      	mov	r9, r3
    29a4:	46a2      	mov	sl, r4
    29a6:	46ab      	mov	fp, r5
    29a8:	bdf0      	pop	{r4, r5, r6, r7, pc}
    29aa:	46c0      	nop			; (mov r8, r8)
    29ac:	20000a48 	.word	0x20000a48
    29b0:	00000c51 	.word	0x00000c51
    29b4:	0000a158 	.word	0x0000a158
    29b8:	00008bd5 	.word	0x00008bd5
    29bc:	0000abbc 	.word	0x0000abbc
    29c0:	00008c09 	.word	0x00008c09
    29c4:	20000af8 	.word	0x20000af8

000029c8 <m2m_ip_cb>:
    29c8:	b5f0      	push	{r4, r5, r6, r7, lr}
    29ca:	46d6      	mov	lr, sl
    29cc:	464f      	mov	r7, r9
    29ce:	4646      	mov	r6, r8
    29d0:	b5c0      	push	{r6, r7, lr}
    29d2:	b09a      	sub	sp, #104	; 0x68
    29d4:	000d      	movs	r5, r1
    29d6:	0014      	movs	r4, r2
    29d8:	2841      	cmp	r0, #65	; 0x41
    29da:	d039      	beq.n	2a50 <m2m_ip_cb+0x88>
    29dc:	2854      	cmp	r0, #84	; 0x54
    29de:	d037      	beq.n	2a50 <m2m_ip_cb+0x88>
    29e0:	2842      	cmp	r0, #66	; 0x42
    29e2:	d053      	beq.n	2a8c <m2m_ip_cb+0xc4>
    29e4:	2843      	cmp	r0, #67	; 0x43
    29e6:	d06a      	beq.n	2abe <m2m_ip_cb+0xf6>
    29e8:	2844      	cmp	r0, #68	; 0x44
    29ea:	d100      	bne.n	29ee <m2m_ip_cb+0x26>
    29ec:	e0af      	b.n	2b4e <m2m_ip_cb+0x186>
    29ee:	284b      	cmp	r0, #75	; 0x4b
    29f0:	d100      	bne.n	29f4 <m2m_ip_cb+0x2c>
    29f2:	e0ac      	b.n	2b4e <m2m_ip_cb+0x186>
    29f4:	284a      	cmp	r0, #74	; 0x4a
    29f6:	d100      	bne.n	29fa <m2m_ip_cb+0x32>
    29f8:	e0cf      	b.n	2b9a <m2m_ip_cb+0x1d2>
    29fa:	2846      	cmp	r0, #70	; 0x46
    29fc:	d100      	bne.n	2a00 <m2m_ip_cb+0x38>
    29fe:	e0e5      	b.n	2bcc <m2m_ip_cb+0x204>
    2a00:	2848      	cmp	r0, #72	; 0x48
    2a02:	d100      	bne.n	2a06 <m2m_ip_cb+0x3e>
    2a04:	e10e      	b.n	2c24 <m2m_ip_cb+0x25c>
    2a06:	284d      	cmp	r0, #77	; 0x4d
    2a08:	d100      	bne.n	2a0c <m2m_ip_cb+0x44>
    2a0a:	e0dc      	b.n	2bc6 <m2m_ip_cb+0x1fe>
    2a0c:	2845      	cmp	r0, #69	; 0x45
    2a0e:	d100      	bne.n	2a12 <m2m_ip_cb+0x4a>
    2a10:	e12c      	b.n	2c6c <m2m_ip_cb+0x2a4>
    2a12:	2847      	cmp	r0, #71	; 0x47
    2a14:	d100      	bne.n	2a18 <m2m_ip_cb+0x50>
    2a16:	e14d      	b.n	2cb4 <m2m_ip_cb+0x2ec>
    2a18:	2507      	movs	r5, #7
    2a1a:	284c      	cmp	r0, #76	; 0x4c
    2a1c:	d100      	bne.n	2a20 <m2m_ip_cb+0x58>
    2a1e:	e126      	b.n	2c6e <m2m_ip_cb+0x2a6>
    2a20:	2852      	cmp	r0, #82	; 0x52
    2a22:	d12d      	bne.n	2a80 <m2m_ip_cb+0xb8>
    2a24:	2301      	movs	r3, #1
    2a26:	2214      	movs	r2, #20
    2a28:	a909      	add	r1, sp, #36	; 0x24
    2a2a:	0020      	movs	r0, r4
    2a2c:	4ca2      	ldr	r4, [pc, #648]	; (2cb8 <m2m_ip_cb+0x2f0>)
    2a2e:	47a0      	blx	r4
    2a30:	2800      	cmp	r0, #0
    2a32:	d125      	bne.n	2a80 <m2m_ip_cb+0xb8>
    2a34:	4ba1      	ldr	r3, [pc, #644]	; (2cbc <m2m_ip_cb+0x2f4>)
    2a36:	9a0a      	ldr	r2, [sp, #40]	; 0x28
    2a38:	601a      	str	r2, [r3, #0]
    2a3a:	681b      	ldr	r3, [r3, #0]
    2a3c:	2b00      	cmp	r3, #0
    2a3e:	d01f      	beq.n	2a80 <m2m_ip_cb+0xb8>
    2a40:	4b9e      	ldr	r3, [pc, #632]	; (2cbc <m2m_ip_cb+0x2f4>)
    2a42:	681c      	ldr	r4, [r3, #0]
    2a44:	ab09      	add	r3, sp, #36	; 0x24
    2a46:	7c1a      	ldrb	r2, [r3, #16]
    2a48:	990b      	ldr	r1, [sp, #44]	; 0x2c
    2a4a:	9809      	ldr	r0, [sp, #36]	; 0x24
    2a4c:	47a0      	blx	r4
    2a4e:	e017      	b.n	2a80 <m2m_ip_cb+0xb8>
    2a50:	2300      	movs	r3, #0
    2a52:	2204      	movs	r2, #4
    2a54:	a909      	add	r1, sp, #36	; 0x24
    2a56:	0020      	movs	r0, r4
    2a58:	4c97      	ldr	r4, [pc, #604]	; (2cb8 <m2m_ip_cb+0x2f0>)
    2a5a:	47a0      	blx	r4
    2a5c:	2800      	cmp	r0, #0
    2a5e:	d10f      	bne.n	2a80 <m2m_ip_cb+0xb8>
    2a60:	ab09      	add	r3, sp, #36	; 0x24
    2a62:	785a      	ldrb	r2, [r3, #1]
    2a64:	ab05      	add	r3, sp, #20
    2a66:	701a      	strb	r2, [r3, #0]
    2a68:	4b95      	ldr	r3, [pc, #596]	; (2cc0 <m2m_ip_cb+0x2f8>)
    2a6a:	681b      	ldr	r3, [r3, #0]
    2a6c:	2b00      	cmp	r3, #0
    2a6e:	d007      	beq.n	2a80 <m2m_ip_cb+0xb8>
    2a70:	4b93      	ldr	r3, [pc, #588]	; (2cc0 <m2m_ip_cb+0x2f8>)
    2a72:	681b      	ldr	r3, [r3, #0]
    2a74:	aa09      	add	r2, sp, #36	; 0x24
    2a76:	2000      	movs	r0, #0
    2a78:	5610      	ldrsb	r0, [r2, r0]
    2a7a:	aa05      	add	r2, sp, #20
    2a7c:	2101      	movs	r1, #1
    2a7e:	4798      	blx	r3
    2a80:	b01a      	add	sp, #104	; 0x68
    2a82:	bc1c      	pop	{r2, r3, r4}
    2a84:	4690      	mov	r8, r2
    2a86:	4699      	mov	r9, r3
    2a88:	46a2      	mov	sl, r4
    2a8a:	bdf0      	pop	{r4, r5, r6, r7, pc}
    2a8c:	2300      	movs	r3, #0
    2a8e:	2204      	movs	r2, #4
    2a90:	a909      	add	r1, sp, #36	; 0x24
    2a92:	0020      	movs	r0, r4
    2a94:	4c88      	ldr	r4, [pc, #544]	; (2cb8 <m2m_ip_cb+0x2f0>)
    2a96:	47a0      	blx	r4
    2a98:	2800      	cmp	r0, #0
    2a9a:	d1f1      	bne.n	2a80 <m2m_ip_cb+0xb8>
    2a9c:	ab09      	add	r3, sp, #36	; 0x24
    2a9e:	785a      	ldrb	r2, [r3, #1]
    2aa0:	ab05      	add	r3, sp, #20
    2aa2:	701a      	strb	r2, [r3, #0]
    2aa4:	4b86      	ldr	r3, [pc, #536]	; (2cc0 <m2m_ip_cb+0x2f8>)
    2aa6:	681b      	ldr	r3, [r3, #0]
    2aa8:	2b00      	cmp	r3, #0
    2aaa:	d0e9      	beq.n	2a80 <m2m_ip_cb+0xb8>
    2aac:	4b84      	ldr	r3, [pc, #528]	; (2cc0 <m2m_ip_cb+0x2f8>)
    2aae:	681b      	ldr	r3, [r3, #0]
    2ab0:	aa09      	add	r2, sp, #36	; 0x24
    2ab2:	2000      	movs	r0, #0
    2ab4:	5610      	ldrsb	r0, [r2, r0]
    2ab6:	aa05      	add	r2, sp, #20
    2ab8:	2102      	movs	r1, #2
    2aba:	4798      	blx	r3
    2abc:	e7e0      	b.n	2a80 <m2m_ip_cb+0xb8>
    2abe:	2300      	movs	r3, #0
    2ac0:	220c      	movs	r2, #12
    2ac2:	a905      	add	r1, sp, #20
    2ac4:	0020      	movs	r0, r4
    2ac6:	4c7c      	ldr	r4, [pc, #496]	; (2cb8 <m2m_ip_cb+0x2f0>)
    2ac8:	47a0      	blx	r4
    2aca:	2800      	cmp	r0, #0
    2acc:	d1d8      	bne.n	2a80 <m2m_ip_cb+0xb8>
    2ace:	ab05      	add	r3, sp, #20
    2ad0:	2209      	movs	r2, #9
    2ad2:	569a      	ldrsb	r2, [r3, r2]
    2ad4:	2a00      	cmp	r2, #0
    2ad6:	db24      	blt.n	2b22 <m2m_ip_cb+0x15a>
    2ad8:	0018      	movs	r0, r3
    2ada:	2108      	movs	r1, #8
    2adc:	5659      	ldrsb	r1, [r3, r1]
    2ade:	4b79      	ldr	r3, [pc, #484]	; (2cc4 <m2m_ip_cb+0x2fc>)
    2ae0:	0109      	lsls	r1, r1, #4
    2ae2:	1859      	adds	r1, r3, r1
    2ae4:	7ac9      	ldrb	r1, [r1, #11]
    2ae6:	b2c9      	uxtb	r1, r1
    2ae8:	0114      	lsls	r4, r2, #4
    2aea:	191b      	adds	r3, r3, r4
    2aec:	72d9      	strb	r1, [r3, #11]
    2aee:	2101      	movs	r1, #1
    2af0:	7299      	strb	r1, [r3, #10]
    2af2:	8941      	ldrh	r1, [r0, #10]
    2af4:	3908      	subs	r1, #8
    2af6:	b289      	uxth	r1, r1
    2af8:	8119      	strh	r1, [r3, #8]
    2afa:	4973      	ldr	r1, [pc, #460]	; (2cc8 <m2m_ip_cb+0x300>)
    2afc:	880b      	ldrh	r3, [r1, #0]
    2afe:	3301      	adds	r3, #1
    2b00:	b29b      	uxth	r3, r3
    2b02:	800b      	strh	r3, [r1, #0]
    2b04:	880b      	ldrh	r3, [r1, #0]
    2b06:	b29b      	uxth	r3, r3
    2b08:	2b00      	cmp	r3, #0
    2b0a:	d103      	bne.n	2b14 <m2m_ip_cb+0x14c>
    2b0c:	880b      	ldrh	r3, [r1, #0]
    2b0e:	3301      	adds	r3, #1
    2b10:	b29b      	uxth	r3, r3
    2b12:	800b      	strh	r3, [r1, #0]
    2b14:	4b6c      	ldr	r3, [pc, #432]	; (2cc8 <m2m_ip_cb+0x300>)
    2b16:	8819      	ldrh	r1, [r3, #0]
    2b18:	b289      	uxth	r1, r1
    2b1a:	0110      	lsls	r0, r2, #4
    2b1c:	4b69      	ldr	r3, [pc, #420]	; (2cc4 <m2m_ip_cb+0x2fc>)
    2b1e:	181b      	adds	r3, r3, r0
    2b20:	80d9      	strh	r1, [r3, #6]
    2b22:	ab09      	add	r3, sp, #36	; 0x24
    2b24:	701a      	strb	r2, [r3, #0]
    2b26:	2202      	movs	r2, #2
    2b28:	809a      	strh	r2, [r3, #4]
    2b2a:	aa05      	add	r2, sp, #20
    2b2c:	8851      	ldrh	r1, [r2, #2]
    2b2e:	80d9      	strh	r1, [r3, #6]
    2b30:	9a06      	ldr	r2, [sp, #24]
    2b32:	920b      	str	r2, [sp, #44]	; 0x2c
    2b34:	4b62      	ldr	r3, [pc, #392]	; (2cc0 <m2m_ip_cb+0x2f8>)
    2b36:	681b      	ldr	r3, [r3, #0]
    2b38:	2b00      	cmp	r3, #0
    2b3a:	d0a1      	beq.n	2a80 <m2m_ip_cb+0xb8>
    2b3c:	4b60      	ldr	r3, [pc, #384]	; (2cc0 <m2m_ip_cb+0x2f8>)
    2b3e:	681b      	ldr	r3, [r3, #0]
    2b40:	aa05      	add	r2, sp, #20
    2b42:	2008      	movs	r0, #8
    2b44:	5610      	ldrsb	r0, [r2, r0]
    2b46:	aa09      	add	r2, sp, #36	; 0x24
    2b48:	2104      	movs	r1, #4
    2b4a:	4798      	blx	r3
    2b4c:	e798      	b.n	2a80 <m2m_ip_cb+0xb8>
    2b4e:	2300      	movs	r3, #0
    2b50:	2204      	movs	r2, #4
    2b52:	a909      	add	r1, sp, #36	; 0x24
    2b54:	0020      	movs	r0, r4
    2b56:	4c58      	ldr	r4, [pc, #352]	; (2cb8 <m2m_ip_cb+0x2f0>)
    2b58:	47a0      	blx	r4
    2b5a:	2800      	cmp	r0, #0
    2b5c:	d000      	beq.n	2b60 <m2m_ip_cb+0x198>
    2b5e:	e78f      	b.n	2a80 <m2m_ip_cb+0xb8>
    2b60:	ab09      	add	r3, sp, #36	; 0x24
    2b62:	2000      	movs	r0, #0
    2b64:	5618      	ldrsb	r0, [r3, r0]
    2b66:	aa05      	add	r2, sp, #20
    2b68:	7010      	strb	r0, [r2, #0]
    2b6a:	785b      	ldrb	r3, [r3, #1]
    2b6c:	b25b      	sxtb	r3, r3
    2b6e:	7053      	strb	r3, [r2, #1]
    2b70:	2b00      	cmp	r3, #0
    2b72:	d107      	bne.n	2b84 <m2m_ip_cb+0x1bc>
    2b74:	ab09      	add	r3, sp, #36	; 0x24
    2b76:	885b      	ldrh	r3, [r3, #2]
    2b78:	3b08      	subs	r3, #8
    2b7a:	b29b      	uxth	r3, r3
    2b7c:	0101      	lsls	r1, r0, #4
    2b7e:	4a51      	ldr	r2, [pc, #324]	; (2cc4 <m2m_ip_cb+0x2fc>)
    2b80:	1852      	adds	r2, r2, r1
    2b82:	8113      	strh	r3, [r2, #8]
    2b84:	4b4e      	ldr	r3, [pc, #312]	; (2cc0 <m2m_ip_cb+0x2f8>)
    2b86:	681b      	ldr	r3, [r3, #0]
    2b88:	2b00      	cmp	r3, #0
    2b8a:	d100      	bne.n	2b8e <m2m_ip_cb+0x1c6>
    2b8c:	e778      	b.n	2a80 <m2m_ip_cb+0xb8>
    2b8e:	4b4c      	ldr	r3, [pc, #304]	; (2cc0 <m2m_ip_cb+0x2f8>)
    2b90:	681b      	ldr	r3, [r3, #0]
    2b92:	aa05      	add	r2, sp, #20
    2b94:	2105      	movs	r1, #5
    2b96:	4798      	blx	r3
    2b98:	e772      	b.n	2a80 <m2m_ip_cb+0xb8>
    2b9a:	2300      	movs	r3, #0
    2b9c:	2244      	movs	r2, #68	; 0x44
    2b9e:	a909      	add	r1, sp, #36	; 0x24
    2ba0:	0020      	movs	r0, r4
    2ba2:	4c45      	ldr	r4, [pc, #276]	; (2cb8 <m2m_ip_cb+0x2f0>)
    2ba4:	47a0      	blx	r4
    2ba6:	2800      	cmp	r0, #0
    2ba8:	d000      	beq.n	2bac <m2m_ip_cb+0x1e4>
    2baa:	e769      	b.n	2a80 <m2m_ip_cb+0xb8>
    2bac:	4b47      	ldr	r3, [pc, #284]	; (2ccc <m2m_ip_cb+0x304>)
    2bae:	681b      	ldr	r3, [r3, #0]
    2bb0:	2b00      	cmp	r3, #0
    2bb2:	d100      	bne.n	2bb6 <m2m_ip_cb+0x1ee>
    2bb4:	e764      	b.n	2a80 <m2m_ip_cb+0xb8>
    2bb6:	4b45      	ldr	r3, [pc, #276]	; (2ccc <m2m_ip_cb+0x304>)
    2bb8:	681b      	ldr	r3, [r3, #0]
    2bba:	9a19      	ldr	r2, [sp, #100]	; 0x64
    2bbc:	9203      	str	r2, [sp, #12]
    2bbe:	0011      	movs	r1, r2
    2bc0:	a809      	add	r0, sp, #36	; 0x24
    2bc2:	4798      	blx	r3
    2bc4:	e75c      	b.n	2a80 <m2m_ip_cb+0xb8>
    2bc6:	2306      	movs	r3, #6
    2bc8:	469a      	mov	sl, r3
    2bca:	e001      	b.n	2bd0 <m2m_ip_cb+0x208>
    2bcc:	2306      	movs	r3, #6
    2bce:	469a      	mov	sl, r3
    2bd0:	2300      	movs	r3, #0
    2bd2:	2210      	movs	r2, #16
    2bd4:	a905      	add	r1, sp, #20
    2bd6:	0020      	movs	r0, r4
    2bd8:	4f37      	ldr	r7, [pc, #220]	; (2cb8 <m2m_ip_cb+0x2f0>)
    2bda:	47b8      	blx	r7
    2bdc:	2800      	cmp	r0, #0
    2bde:	d000      	beq.n	2be2 <m2m_ip_cb+0x21a>
    2be0:	e74e      	b.n	2a80 <m2m_ip_cb+0xb8>
    2be2:	aa05      	add	r2, sp, #20
    2be4:	200c      	movs	r0, #12
    2be6:	5610      	ldrsb	r0, [r2, r0]
    2be8:	89d3      	ldrh	r3, [r2, #14]
    2bea:	0107      	lsls	r7, r0, #4
    2bec:	4935      	ldr	r1, [pc, #212]	; (2cc4 <m2m_ip_cb+0x2fc>)
    2bee:	19c9      	adds	r1, r1, r7
    2bf0:	2700      	movs	r7, #0
    2bf2:	730f      	strb	r7, [r1, #12]
    2bf4:	2608      	movs	r6, #8
    2bf6:	5f97      	ldrsh	r7, [r2, r6]
    2bf8:	46b8      	mov	r8, r7
    2bfa:	8957      	ldrh	r7, [r2, #10]
    2bfc:	46b9      	mov	r9, r7
    2bfe:	af09      	add	r7, sp, #36	; 0x24
    2c00:	8856      	ldrh	r6, [r2, #2]
    2c02:	817e      	strh	r6, [r7, #10]
    2c04:	9a06      	ldr	r2, [sp, #24]
    2c06:	920c      	str	r2, [sp, #48]	; 0x30
    2c08:	88ca      	ldrh	r2, [r1, #6]
    2c0a:	b292      	uxth	r2, r2
    2c0c:	4293      	cmp	r3, r2
    2c0e:	d00c      	beq.n	2c2a <m2m_ip_cb+0x262>
    2c10:	2d10      	cmp	r5, #16
    2c12:	d800      	bhi.n	2c16 <m2m_ip_cb+0x24e>
    2c14:	e734      	b.n	2a80 <m2m_ip_cb+0xb8>
    2c16:	2301      	movs	r3, #1
    2c18:	2200      	movs	r2, #0
    2c1a:	2100      	movs	r1, #0
    2c1c:	2000      	movs	r0, #0
    2c1e:	4c26      	ldr	r4, [pc, #152]	; (2cb8 <m2m_ip_cb+0x2f0>)
    2c20:	47a0      	blx	r4
    2c22:	e72d      	b.n	2a80 <m2m_ip_cb+0xb8>
    2c24:	2309      	movs	r3, #9
    2c26:	469a      	mov	sl, r3
    2c28:	e7d2      	b.n	2bd0 <m2m_ip_cb+0x208>
    2c2a:	4643      	mov	r3, r8
    2c2c:	2b00      	cmp	r3, #0
    2c2e:	dd01      	ble.n	2c34 <m2m_ip_cb+0x26c>
    2c30:	45a8      	cmp	r8, r5
    2c32:	db0f      	blt.n	2c54 <m2m_ip_cb+0x28c>
    2c34:	ab09      	add	r3, sp, #36	; 0x24
    2c36:	4642      	mov	r2, r8
    2c38:	809a      	strh	r2, [r3, #4]
    2c3a:	2300      	movs	r3, #0
    2c3c:	9309      	str	r3, [sp, #36]	; 0x24
    2c3e:	4b20      	ldr	r3, [pc, #128]	; (2cc0 <m2m_ip_cb+0x2f8>)
    2c40:	681b      	ldr	r3, [r3, #0]
    2c42:	2b00      	cmp	r3, #0
    2c44:	d100      	bne.n	2c48 <m2m_ip_cb+0x280>
    2c46:	e71b      	b.n	2a80 <m2m_ip_cb+0xb8>
    2c48:	4b1d      	ldr	r3, [pc, #116]	; (2cc0 <m2m_ip_cb+0x2f8>)
    2c4a:	681b      	ldr	r3, [r3, #0]
    2c4c:	aa09      	add	r2, sp, #36	; 0x24
    2c4e:	4651      	mov	r1, sl
    2c50:	4798      	blx	r3
    2c52:	e715      	b.n	2a80 <m2m_ip_cb+0xb8>
    2c54:	0023      	movs	r3, r4
    2c56:	444b      	add	r3, r9
    2c58:	4642      	mov	r2, r8
    2c5a:	4669      	mov	r1, sp
    2c5c:	818a      	strh	r2, [r1, #12]
    2c5e:	898a      	ldrh	r2, [r1, #12]
    2c60:	9200      	str	r2, [sp, #0]
    2c62:	4652      	mov	r2, sl
    2c64:	0039      	movs	r1, r7
    2c66:	4c1a      	ldr	r4, [pc, #104]	; (2cd0 <m2m_ip_cb+0x308>)
    2c68:	47a0      	blx	r4
    2c6a:	e709      	b.n	2a80 <m2m_ip_cb+0xb8>
    2c6c:	2507      	movs	r5, #7
    2c6e:	2300      	movs	r3, #0
    2c70:	2208      	movs	r2, #8
    2c72:	a909      	add	r1, sp, #36	; 0x24
    2c74:	0020      	movs	r0, r4
    2c76:	4c10      	ldr	r4, [pc, #64]	; (2cb8 <m2m_ip_cb+0x2f0>)
    2c78:	47a0      	blx	r4
    2c7a:	2800      	cmp	r0, #0
    2c7c:	d000      	beq.n	2c80 <m2m_ip_cb+0x2b8>
    2c7e:	e6ff      	b.n	2a80 <m2m_ip_cb+0xb8>
    2c80:	ab09      	add	r3, sp, #36	; 0x24
    2c82:	2000      	movs	r0, #0
    2c84:	5618      	ldrsb	r0, [r3, r0]
    2c86:	889a      	ldrh	r2, [r3, #4]
    2c88:	8859      	ldrh	r1, [r3, #2]
    2c8a:	ab05      	add	r3, sp, #20
    2c8c:	8019      	strh	r1, [r3, #0]
    2c8e:	0101      	lsls	r1, r0, #4
    2c90:	4b0c      	ldr	r3, [pc, #48]	; (2cc4 <m2m_ip_cb+0x2fc>)
    2c92:	185b      	adds	r3, r3, r1
    2c94:	88db      	ldrh	r3, [r3, #6]
    2c96:	b29b      	uxth	r3, r3
    2c98:	429a      	cmp	r2, r3
    2c9a:	d000      	beq.n	2c9e <m2m_ip_cb+0x2d6>
    2c9c:	e6f0      	b.n	2a80 <m2m_ip_cb+0xb8>
    2c9e:	4b08      	ldr	r3, [pc, #32]	; (2cc0 <m2m_ip_cb+0x2f8>)
    2ca0:	681b      	ldr	r3, [r3, #0]
    2ca2:	2b00      	cmp	r3, #0
    2ca4:	d100      	bne.n	2ca8 <m2m_ip_cb+0x2e0>
    2ca6:	e6eb      	b.n	2a80 <m2m_ip_cb+0xb8>
    2ca8:	4b05      	ldr	r3, [pc, #20]	; (2cc0 <m2m_ip_cb+0x2f8>)
    2caa:	681b      	ldr	r3, [r3, #0]
    2cac:	aa05      	add	r2, sp, #20
    2cae:	0029      	movs	r1, r5
    2cb0:	4798      	blx	r3
    2cb2:	e6e5      	b.n	2a80 <m2m_ip_cb+0xb8>
    2cb4:	2508      	movs	r5, #8
    2cb6:	e7da      	b.n	2c6e <m2m_ip_cb+0x2a6>
    2cb8:	00000c51 	.word	0x00000c51
    2cbc:	20000afc 	.word	0x20000afc
    2cc0:	20000af8 	.word	0x20000af8
    2cc4:	20000a48 	.word	0x20000a48
    2cc8:	200000c2 	.word	0x200000c2
    2ccc:	20000b00 	.word	0x20000b00
    2cd0:	000028b5 	.word	0x000028b5

00002cd4 <socketInit>:
    2cd4:	b510      	push	{r4, lr}
    2cd6:	4b0a      	ldr	r3, [pc, #40]	; (2d00 <socketInit+0x2c>)
    2cd8:	781b      	ldrb	r3, [r3, #0]
    2cda:	2b00      	cmp	r3, #0
    2cdc:	d000      	beq.n	2ce0 <socketInit+0xc>
    2cde:	bd10      	pop	{r4, pc}
    2ce0:	22b0      	movs	r2, #176	; 0xb0
    2ce2:	2100      	movs	r1, #0
    2ce4:	4807      	ldr	r0, [pc, #28]	; (2d04 <socketInit+0x30>)
    2ce6:	4b08      	ldr	r3, [pc, #32]	; (2d08 <socketInit+0x34>)
    2ce8:	4798      	blx	r3
    2cea:	4908      	ldr	r1, [pc, #32]	; (2d0c <socketInit+0x38>)
    2cec:	2002      	movs	r0, #2
    2cee:	4b08      	ldr	r3, [pc, #32]	; (2d10 <socketInit+0x3c>)
    2cf0:	4798      	blx	r3
    2cf2:	2201      	movs	r2, #1
    2cf4:	4b02      	ldr	r3, [pc, #8]	; (2d00 <socketInit+0x2c>)
    2cf6:	701a      	strb	r2, [r3, #0]
    2cf8:	2200      	movs	r2, #0
    2cfa:	4b06      	ldr	r3, [pc, #24]	; (2d14 <socketInit+0x40>)
    2cfc:	801a      	strh	r2, [r3, #0]
    2cfe:	e7ee      	b.n	2cde <socketInit+0xa>
    2d00:	200000c1 	.word	0x200000c1
    2d04:	20000a48 	.word	0x20000a48
    2d08:	00000531 	.word	0x00000531
    2d0c:	000029c9 	.word	0x000029c9
    2d10:	00000d3d 	.word	0x00000d3d
    2d14:	200000c2 	.word	0x200000c2

00002d18 <registerSocketCallback>:
    2d18:	4b02      	ldr	r3, [pc, #8]	; (2d24 <registerSocketCallback+0xc>)
    2d1a:	6018      	str	r0, [r3, #0]
    2d1c:	4b02      	ldr	r3, [pc, #8]	; (2d28 <registerSocketCallback+0x10>)
    2d1e:	6019      	str	r1, [r3, #0]
    2d20:	4770      	bx	lr
    2d22:	46c0      	nop			; (mov r8, r8)
    2d24:	20000af8 	.word	0x20000af8
    2d28:	20000b00 	.word	0x20000b00

00002d2c <socket>:
    2d2c:	b5f0      	push	{r4, r5, r6, r7, lr}
    2d2e:	46d6      	mov	lr, sl
    2d30:	4647      	mov	r7, r8
    2d32:	b580      	push	{r7, lr}
    2d34:	b089      	sub	sp, #36	; 0x24
    2d36:	9205      	str	r2, [sp, #20]
    2d38:	2802      	cmp	r0, #2
    2d3a:	d000      	beq.n	2d3e <socket+0x12>
    2d3c:	e09c      	b.n	2e78 <socket+0x14c>
    2d3e:	2901      	cmp	r1, #1
    2d40:	d00a      	beq.n	2d58 <socket+0x2c>
    2d42:	2902      	cmp	r1, #2
    2d44:	d100      	bne.n	2d48 <socket+0x1c>
    2d46:	e070      	b.n	2e2a <socket+0xfe>
    2d48:	2501      	movs	r5, #1
    2d4a:	426d      	negs	r5, r5
    2d4c:	0028      	movs	r0, r5
    2d4e:	b009      	add	sp, #36	; 0x24
    2d50:	bc0c      	pop	{r2, r3}
    2d52:	4690      	mov	r8, r2
    2d54:	469a      	mov	sl, r3
    2d56:	bdf0      	pop	{r4, r5, r6, r7, pc}
    2d58:	4c49      	ldr	r4, [pc, #292]	; (2e80 <socket+0x154>)
    2d5a:	7827      	ldrb	r7, [r4, #0]
    2d5c:	b2ff      	uxtb	r7, r7
    2d5e:	7826      	ldrb	r6, [r4, #0]
    2d60:	b2f6      	uxtb	r6, r6
    2d62:	7820      	ldrb	r0, [r4, #0]
    2d64:	3001      	adds	r0, #1
    2d66:	3106      	adds	r1, #6
    2d68:	4b46      	ldr	r3, [pc, #280]	; (2e84 <socket+0x158>)
    2d6a:	4798      	blx	r3
    2d6c:	b2c9      	uxtb	r1, r1
    2d6e:	7021      	strb	r1, [r4, #0]
    2d70:	0132      	lsls	r2, r6, #4
    2d72:	4b45      	ldr	r3, [pc, #276]	; (2e88 <socket+0x15c>)
    2d74:	189b      	adds	r3, r3, r2
    2d76:	7a9b      	ldrb	r3, [r3, #10]
    2d78:	2506      	movs	r5, #6
    2d7a:	2b00      	cmp	r3, #0
    2d7c:	d018      	beq.n	2db0 <socket+0x84>
    2d7e:	4e40      	ldr	r6, [pc, #256]	; (2e80 <socket+0x154>)
    2d80:	4b40      	ldr	r3, [pc, #256]	; (2e84 <socket+0x158>)
    2d82:	469a      	mov	sl, r3
    2d84:	4b40      	ldr	r3, [pc, #256]	; (2e88 <socket+0x15c>)
    2d86:	4698      	mov	r8, r3
    2d88:	7837      	ldrb	r7, [r6, #0]
    2d8a:	b2ff      	uxtb	r7, r7
    2d8c:	7834      	ldrb	r4, [r6, #0]
    2d8e:	b2e4      	uxtb	r4, r4
    2d90:	7830      	ldrb	r0, [r6, #0]
    2d92:	3001      	adds	r0, #1
    2d94:	2107      	movs	r1, #7
    2d96:	47d0      	blx	sl
    2d98:	b2c9      	uxtb	r1, r1
    2d9a:	7031      	strb	r1, [r6, #0]
    2d9c:	0123      	lsls	r3, r4, #4
    2d9e:	4443      	add	r3, r8
    2da0:	7a9b      	ldrb	r3, [r3, #10]
    2da2:	2b00      	cmp	r3, #0
    2da4:	d007      	beq.n	2db6 <socket+0x8a>
    2da6:	3d01      	subs	r5, #1
    2da8:	b2ed      	uxtb	r5, r5
    2daa:	2d00      	cmp	r5, #0
    2dac:	d1ec      	bne.n	2d88 <socket+0x5c>
    2dae:	e7cb      	b.n	2d48 <socket+0x1c>
    2db0:	4b35      	ldr	r3, [pc, #212]	; (2e88 <socket+0x15c>)
    2db2:	18d4      	adds	r4, r2, r3
    2db4:	e002      	b.n	2dbc <socket+0x90>
    2db6:	0124      	lsls	r4, r4, #4
    2db8:	4b33      	ldr	r3, [pc, #204]	; (2e88 <socket+0x15c>)
    2dba:	18e4      	adds	r4, r4, r3
    2dbc:	b27d      	sxtb	r5, r7
    2dbe:	2d00      	cmp	r5, #0
    2dc0:	dbc4      	blt.n	2d4c <socket+0x20>
    2dc2:	2210      	movs	r2, #16
    2dc4:	2100      	movs	r1, #0
    2dc6:	0020      	movs	r0, r4
    2dc8:	4b30      	ldr	r3, [pc, #192]	; (2e8c <socket+0x160>)
    2dca:	4798      	blx	r3
    2dcc:	2301      	movs	r3, #1
    2dce:	72a3      	strb	r3, [r4, #10]
    2dd0:	4a2f      	ldr	r2, [pc, #188]	; (2e90 <socket+0x164>)
    2dd2:	8813      	ldrh	r3, [r2, #0]
    2dd4:	3301      	adds	r3, #1
    2dd6:	b29b      	uxth	r3, r3
    2dd8:	8013      	strh	r3, [r2, #0]
    2dda:	8813      	ldrh	r3, [r2, #0]
    2ddc:	b29b      	uxth	r3, r3
    2dde:	2b00      	cmp	r3, #0
    2de0:	d103      	bne.n	2dea <socket+0xbe>
    2de2:	8813      	ldrh	r3, [r2, #0]
    2de4:	3301      	adds	r3, #1
    2de6:	b29b      	uxth	r3, r3
    2de8:	8013      	strh	r3, [r2, #0]
    2dea:	4e29      	ldr	r6, [pc, #164]	; (2e90 <socket+0x164>)
    2dec:	8833      	ldrh	r3, [r6, #0]
    2dee:	b29b      	uxth	r3, r3
    2df0:	80e3      	strh	r3, [r4, #6]
    2df2:	4828      	ldr	r0, [pc, #160]	; (2e94 <socket+0x168>)
    2df4:	4f28      	ldr	r7, [pc, #160]	; (2e98 <socket+0x16c>)
    2df6:	47b8      	blx	r7
    2df8:	8832      	ldrh	r2, [r6, #0]
    2dfa:	b292      	uxth	r2, r2
    2dfc:	0029      	movs	r1, r5
    2dfe:	4827      	ldr	r0, [pc, #156]	; (2e9c <socket+0x170>)
    2e00:	47b8      	blx	r7
    2e02:	200d      	movs	r0, #13
    2e04:	4b26      	ldr	r3, [pc, #152]	; (2ea0 <socket+0x174>)
    2e06:	4798      	blx	r3
    2e08:	9b05      	ldr	r3, [sp, #20]
    2e0a:	07db      	lsls	r3, r3, #31
    2e0c:	d59e      	bpl.n	2d4c <socket+0x20>
    2e0e:	aa07      	add	r2, sp, #28
    2e10:	7015      	strb	r5, [r2, #0]
    2e12:	2321      	movs	r3, #33	; 0x21
    2e14:	72e3      	strb	r3, [r4, #11]
    2e16:	2300      	movs	r3, #0
    2e18:	9302      	str	r3, [sp, #8]
    2e1a:	9301      	str	r3, [sp, #4]
    2e1c:	9300      	str	r3, [sp, #0]
    2e1e:	3304      	adds	r3, #4
    2e20:	2150      	movs	r1, #80	; 0x50
    2e22:	2002      	movs	r0, #2
    2e24:	4c1f      	ldr	r4, [pc, #124]	; (2ea4 <socket+0x178>)
    2e26:	47a0      	blx	r4
    2e28:	e790      	b.n	2d4c <socket+0x20>
    2e2a:	4b1f      	ldr	r3, [pc, #124]	; (2ea8 <socket+0x17c>)
    2e2c:	781d      	ldrb	r5, [r3, #0]
    2e2e:	b2ed      	uxtb	r5, r5
    2e30:	781c      	ldrb	r4, [r3, #0]
    2e32:	0124      	lsls	r4, r4, #4
    2e34:	4a1d      	ldr	r2, [pc, #116]	; (2eac <socket+0x180>)
    2e36:	18a4      	adds	r4, r4, r2
    2e38:	7819      	ldrb	r1, [r3, #0]
    2e3a:	3101      	adds	r1, #1
    2e3c:	2203      	movs	r2, #3
    2e3e:	400a      	ands	r2, r1
    2e40:	701a      	strb	r2, [r3, #0]
    2e42:	7aa3      	ldrb	r3, [r4, #10]
    2e44:	2b00      	cmp	r3, #0
    2e46:	d014      	beq.n	2e72 <socket+0x146>
    2e48:	2203      	movs	r2, #3
    2e4a:	4917      	ldr	r1, [pc, #92]	; (2ea8 <socket+0x17c>)
    2e4c:	4f17      	ldr	r7, [pc, #92]	; (2eac <socket+0x180>)
    2e4e:	2003      	movs	r0, #3
    2e50:	780d      	ldrb	r5, [r1, #0]
    2e52:	b2ed      	uxtb	r5, r5
    2e54:	780c      	ldrb	r4, [r1, #0]
    2e56:	0124      	lsls	r4, r4, #4
    2e58:	19e4      	adds	r4, r4, r7
    2e5a:	780b      	ldrb	r3, [r1, #0]
    2e5c:	3301      	adds	r3, #1
    2e5e:	4003      	ands	r3, r0
    2e60:	700b      	strb	r3, [r1, #0]
    2e62:	7aa3      	ldrb	r3, [r4, #10]
    2e64:	2b00      	cmp	r3, #0
    2e66:	d004      	beq.n	2e72 <socket+0x146>
    2e68:	3a01      	subs	r2, #1
    2e6a:	b2d2      	uxtb	r2, r2
    2e6c:	2a00      	cmp	r2, #0
    2e6e:	d1ef      	bne.n	2e50 <socket+0x124>
    2e70:	e76a      	b.n	2d48 <socket+0x1c>
    2e72:	3507      	adds	r5, #7
    2e74:	b26d      	sxtb	r5, r5
    2e76:	e7a2      	b.n	2dbe <socket+0x92>
    2e78:	2501      	movs	r5, #1
    2e7a:	426d      	negs	r5, r5
    2e7c:	e766      	b.n	2d4c <socket+0x20>
    2e7e:	46c0      	nop			; (mov r8, r8)
    2e80:	200000c4 	.word	0x200000c4
    2e84:	00008b09 	.word	0x00008b09
    2e88:	20000a48 	.word	0x20000a48
    2e8c:	00000531 	.word	0x00000531
    2e90:	200000c2 	.word	0x200000c2
    2e94:	0000a158 	.word	0x0000a158
    2e98:	00008bd5 	.word	0x00008bd5
    2e9c:	0000abd0 	.word	0x0000abd0
    2ea0:	00008c09 	.word	0x00008c09
    2ea4:	00000645 	.word	0x00000645
    2ea8:	200000c5 	.word	0x200000c5
    2eac:	20000ab8 	.word	0x20000ab8

00002eb0 <bind>:
    2eb0:	b570      	push	{r4, r5, r6, lr}
    2eb2:	b088      	sub	sp, #32
    2eb4:	0004      	movs	r4, r0
    2eb6:	2900      	cmp	r1, #0
    2eb8:	d02b      	beq.n	2f12 <bind+0x62>
    2eba:	2800      	cmp	r0, #0
    2ebc:	db2c      	blt.n	2f18 <bind+0x68>
    2ebe:	0100      	lsls	r0, r0, #4
    2ec0:	4b1a      	ldr	r3, [pc, #104]	; (2f2c <bind+0x7c>)
    2ec2:	181b      	adds	r3, r3, r0
    2ec4:	7a9b      	ldrb	r3, [r3, #10]
    2ec6:	2b01      	cmp	r3, #1
    2ec8:	d129      	bne.n	2f1e <bind+0x6e>
    2eca:	2a00      	cmp	r2, #0
    2ecc:	d02a      	beq.n	2f24 <bind+0x74>
    2ece:	4b17      	ldr	r3, [pc, #92]	; (2f2c <bind+0x7c>)
    2ed0:	181b      	adds	r3, r3, r0
    2ed2:	7adb      	ldrb	r3, [r3, #11]
    2ed4:	2641      	movs	r6, #65	; 0x41
    2ed6:	07db      	lsls	r3, r3, #31
    2ed8:	d500      	bpl.n	2edc <bind+0x2c>
    2eda:	3613      	adds	r6, #19
    2edc:	ad05      	add	r5, sp, #20
    2ede:	722c      	strb	r4, [r5, #8]
    2ee0:	2208      	movs	r2, #8
    2ee2:	0028      	movs	r0, r5
    2ee4:	4b12      	ldr	r3, [pc, #72]	; (2f30 <bind+0x80>)
    2ee6:	4798      	blx	r3
    2ee8:	0124      	lsls	r4, r4, #4
    2eea:	4b10      	ldr	r3, [pc, #64]	; (2f2c <bind+0x7c>)
    2eec:	191c      	adds	r4, r3, r4
    2eee:	88e3      	ldrh	r3, [r4, #6]
    2ef0:	816b      	strh	r3, [r5, #10]
    2ef2:	2300      	movs	r3, #0
    2ef4:	9302      	str	r3, [sp, #8]
    2ef6:	9301      	str	r3, [sp, #4]
    2ef8:	9300      	str	r3, [sp, #0]
    2efa:	330c      	adds	r3, #12
    2efc:	002a      	movs	r2, r5
    2efe:	0031      	movs	r1, r6
    2f00:	2002      	movs	r0, #2
    2f02:	4c0c      	ldr	r4, [pc, #48]	; (2f34 <bind+0x84>)
    2f04:	47a0      	blx	r4
    2f06:	2800      	cmp	r0, #0
    2f08:	d001      	beq.n	2f0e <bind+0x5e>
    2f0a:	2009      	movs	r0, #9
    2f0c:	4240      	negs	r0, r0
    2f0e:	b008      	add	sp, #32
    2f10:	bd70      	pop	{r4, r5, r6, pc}
    2f12:	2006      	movs	r0, #6
    2f14:	4240      	negs	r0, r0
    2f16:	e7fa      	b.n	2f0e <bind+0x5e>
    2f18:	2006      	movs	r0, #6
    2f1a:	4240      	negs	r0, r0
    2f1c:	e7f7      	b.n	2f0e <bind+0x5e>
    2f1e:	2006      	movs	r0, #6
    2f20:	4240      	negs	r0, r0
    2f22:	e7f4      	b.n	2f0e <bind+0x5e>
    2f24:	2006      	movs	r0, #6
    2f26:	4240      	negs	r0, r0
    2f28:	e7f1      	b.n	2f0e <bind+0x5e>
    2f2a:	46c0      	nop			; (mov r8, r8)
    2f2c:	20000a48 	.word	0x20000a48
    2f30:	0000051d 	.word	0x0000051d
    2f34:	00000645 	.word	0x00000645

00002f38 <listen>:
    2f38:	b510      	push	{r4, lr}
    2f3a:	b086      	sub	sp, #24
    2f3c:	2800      	cmp	r0, #0
    2f3e:	db1c      	blt.n	2f7a <listen+0x42>
    2f40:	0102      	lsls	r2, r0, #4
    2f42:	4b11      	ldr	r3, [pc, #68]	; (2f88 <listen+0x50>)
    2f44:	189b      	adds	r3, r3, r2
    2f46:	7a9b      	ldrb	r3, [r3, #10]
    2f48:	2b01      	cmp	r3, #1
    2f4a:	d119      	bne.n	2f80 <listen+0x48>
    2f4c:	aa05      	add	r2, sp, #20
    2f4e:	7010      	strb	r0, [r2, #0]
    2f50:	7051      	strb	r1, [r2, #1]
    2f52:	0100      	lsls	r0, r0, #4
    2f54:	4b0c      	ldr	r3, [pc, #48]	; (2f88 <listen+0x50>)
    2f56:	1818      	adds	r0, r3, r0
    2f58:	88c3      	ldrh	r3, [r0, #6]
    2f5a:	8053      	strh	r3, [r2, #2]
    2f5c:	2300      	movs	r3, #0
    2f5e:	9302      	str	r3, [sp, #8]
    2f60:	9301      	str	r3, [sp, #4]
    2f62:	9300      	str	r3, [sp, #0]
    2f64:	3304      	adds	r3, #4
    2f66:	2142      	movs	r1, #66	; 0x42
    2f68:	2002      	movs	r0, #2
    2f6a:	4c08      	ldr	r4, [pc, #32]	; (2f8c <listen+0x54>)
    2f6c:	47a0      	blx	r4
    2f6e:	2800      	cmp	r0, #0
    2f70:	d001      	beq.n	2f76 <listen+0x3e>
    2f72:	2009      	movs	r0, #9
    2f74:	4240      	negs	r0, r0
    2f76:	b006      	add	sp, #24
    2f78:	bd10      	pop	{r4, pc}
    2f7a:	2006      	movs	r0, #6
    2f7c:	4240      	negs	r0, r0
    2f7e:	e7fa      	b.n	2f76 <listen+0x3e>
    2f80:	2006      	movs	r0, #6
    2f82:	4240      	negs	r0, r0
    2f84:	e7f7      	b.n	2f76 <listen+0x3e>
    2f86:	46c0      	nop			; (mov r8, r8)
    2f88:	20000a48 	.word	0x20000a48
    2f8c:	00000645 	.word	0x00000645

00002f90 <accept>:
    2f90:	2800      	cmp	r0, #0
    2f92:	db07      	blt.n	2fa4 <accept+0x14>
    2f94:	0100      	lsls	r0, r0, #4
    2f96:	4b06      	ldr	r3, [pc, #24]	; (2fb0 <accept+0x20>)
    2f98:	1818      	adds	r0, r3, r0
    2f9a:	7a83      	ldrb	r3, [r0, #10]
    2f9c:	2b01      	cmp	r3, #1
    2f9e:	d104      	bne.n	2faa <accept+0x1a>
    2fa0:	2000      	movs	r0, #0
    2fa2:	4770      	bx	lr
    2fa4:	2006      	movs	r0, #6
    2fa6:	4240      	negs	r0, r0
    2fa8:	e7fb      	b.n	2fa2 <accept+0x12>
    2faa:	2006      	movs	r0, #6
    2fac:	4240      	negs	r0, r0
    2fae:	e7f8      	b.n	2fa2 <accept+0x12>
    2fb0:	20000a48 	.word	0x20000a48

00002fb4 <send>:
    2fb4:	b530      	push	{r4, r5, lr}
    2fb6:	b089      	sub	sp, #36	; 0x24
    2fb8:	2800      	cmp	r0, #0
    2fba:	db36      	blt.n	302a <send+0x76>
    2fbc:	2900      	cmp	r1, #0
    2fbe:	d037      	beq.n	3030 <send+0x7c>
    2fc0:	23af      	movs	r3, #175	; 0xaf
    2fc2:	00db      	lsls	r3, r3, #3
    2fc4:	429a      	cmp	r2, r3
    2fc6:	d836      	bhi.n	3036 <send+0x82>
    2fc8:	0104      	lsls	r4, r0, #4
    2fca:	4b1e      	ldr	r3, [pc, #120]	; (3044 <send+0x90>)
    2fcc:	191b      	adds	r3, r3, r4
    2fce:	7a9b      	ldrb	r3, [r3, #10]
    2fd0:	2b01      	cmp	r3, #1
    2fd2:	d133      	bne.n	303c <send+0x88>
    2fd4:	ab04      	add	r3, sp, #16
    2fd6:	7018      	strb	r0, [r3, #0]
    2fd8:	805a      	strh	r2, [r3, #2]
    2fda:	0025      	movs	r5, r4
    2fdc:	4c19      	ldr	r4, [pc, #100]	; (3044 <send+0x90>)
    2fde:	1964      	adds	r4, r4, r5
    2fe0:	88e4      	ldrh	r4, [r4, #6]
    2fe2:	819c      	strh	r4, [r3, #12]
    2fe4:	2550      	movs	r5, #80	; 0x50
    2fe6:	2806      	cmp	r0, #6
    2fe8:	dd00      	ble.n	2fec <send+0x38>
    2fea:	3d0c      	subs	r5, #12
    2fec:	0104      	lsls	r4, r0, #4
    2fee:	4b15      	ldr	r3, [pc, #84]	; (3044 <send+0x90>)
    2ff0:	191b      	adds	r3, r3, r4
    2ff2:	7adc      	ldrb	r4, [r3, #11]
    2ff4:	2345      	movs	r3, #69	; 0x45
    2ff6:	07e4      	lsls	r4, r4, #31
    2ff8:	d505      	bpl.n	3006 <send+0x52>
    2ffa:	0100      	lsls	r0, r0, #4
    2ffc:	4b11      	ldr	r3, [pc, #68]	; (3044 <send+0x90>)
    2ffe:	1818      	adds	r0, r3, r0
    3000:	8905      	ldrh	r5, [r0, #8]
    3002:	b2ad      	uxth	r5, r5
    3004:	234c      	movs	r3, #76	; 0x4c
    3006:	2080      	movs	r0, #128	; 0x80
    3008:	4318      	orrs	r0, r3
    300a:	9502      	str	r5, [sp, #8]
    300c:	9201      	str	r2, [sp, #4]
    300e:	9100      	str	r1, [sp, #0]
    3010:	2310      	movs	r3, #16
    3012:	aa04      	add	r2, sp, #16
    3014:	0001      	movs	r1, r0
    3016:	2002      	movs	r0, #2
    3018:	4c0b      	ldr	r4, [pc, #44]	; (3048 <send+0x94>)
    301a:	47a0      	blx	r4
    301c:	2300      	movs	r3, #0
    301e:	2800      	cmp	r0, #0
    3020:	d000      	beq.n	3024 <send+0x70>
    3022:	3b0e      	subs	r3, #14
    3024:	0018      	movs	r0, r3
    3026:	b009      	add	sp, #36	; 0x24
    3028:	bd30      	pop	{r4, r5, pc}
    302a:	2306      	movs	r3, #6
    302c:	425b      	negs	r3, r3
    302e:	e7f9      	b.n	3024 <send+0x70>
    3030:	2306      	movs	r3, #6
    3032:	425b      	negs	r3, r3
    3034:	e7f6      	b.n	3024 <send+0x70>
    3036:	2306      	movs	r3, #6
    3038:	425b      	negs	r3, r3
    303a:	e7f3      	b.n	3024 <send+0x70>
    303c:	2306      	movs	r3, #6
    303e:	425b      	negs	r3, r3
    3040:	e7f0      	b.n	3024 <send+0x70>
    3042:	46c0      	nop			; (mov r8, r8)
    3044:	20000a48 	.word	0x20000a48
    3048:	00000645 	.word	0x00000645

0000304c <recv>:
    304c:	b530      	push	{r4, r5, lr}
    304e:	b087      	sub	sp, #28
    3050:	2800      	cmp	r0, #0
    3052:	db34      	blt.n	30be <recv+0x72>
    3054:	2900      	cmp	r1, #0
    3056:	d035      	beq.n	30c4 <recv+0x78>
    3058:	2a00      	cmp	r2, #0
    305a:	d036      	beq.n	30ca <recv+0x7e>
    305c:	0105      	lsls	r5, r0, #4
    305e:	4c1e      	ldr	r4, [pc, #120]	; (30d8 <recv+0x8c>)
    3060:	1964      	adds	r4, r4, r5
    3062:	7aa4      	ldrb	r4, [r4, #10]
    3064:	2c01      	cmp	r4, #1
    3066:	d133      	bne.n	30d0 <recv+0x84>
    3068:	4c1b      	ldr	r4, [pc, #108]	; (30d8 <recv+0x8c>)
    306a:	5129      	str	r1, [r5, r4]
    306c:	1964      	adds	r4, r4, r5
    306e:	80a2      	strh	r2, [r4, #4]
    3070:	7b21      	ldrb	r1, [r4, #12]
    3072:	2200      	movs	r2, #0
    3074:	2900      	cmp	r1, #0
    3076:	d11d      	bne.n	30b4 <recv+0x68>
    3078:	2101      	movs	r1, #1
    307a:	7321      	strb	r1, [r4, #12]
    307c:	7ae2      	ldrb	r2, [r4, #11]
    307e:	3145      	adds	r1, #69	; 0x45
    3080:	07d2      	lsls	r2, r2, #31
    3082:	d500      	bpl.n	3086 <recv+0x3a>
    3084:	3107      	adds	r1, #7
    3086:	2b00      	cmp	r3, #0
    3088:	d117      	bne.n	30ba <recv+0x6e>
    308a:	3b01      	subs	r3, #1
    308c:	9304      	str	r3, [sp, #16]
    308e:	aa04      	add	r2, sp, #16
    3090:	7110      	strb	r0, [r2, #4]
    3092:	0100      	lsls	r0, r0, #4
    3094:	4b10      	ldr	r3, [pc, #64]	; (30d8 <recv+0x8c>)
    3096:	1818      	adds	r0, r3, r0
    3098:	88c3      	ldrh	r3, [r0, #6]
    309a:	80d3      	strh	r3, [r2, #6]
    309c:	2300      	movs	r3, #0
    309e:	9302      	str	r3, [sp, #8]
    30a0:	9301      	str	r3, [sp, #4]
    30a2:	9300      	str	r3, [sp, #0]
    30a4:	3308      	adds	r3, #8
    30a6:	2002      	movs	r0, #2
    30a8:	4c0c      	ldr	r4, [pc, #48]	; (30dc <recv+0x90>)
    30aa:	47a0      	blx	r4
    30ac:	2200      	movs	r2, #0
    30ae:	2800      	cmp	r0, #0
    30b0:	d000      	beq.n	30b4 <recv+0x68>
    30b2:	3a0e      	subs	r2, #14
    30b4:	0010      	movs	r0, r2
    30b6:	b007      	add	sp, #28
    30b8:	bd30      	pop	{r4, r5, pc}
    30ba:	9304      	str	r3, [sp, #16]
    30bc:	e7e7      	b.n	308e <recv+0x42>
    30be:	2206      	movs	r2, #6
    30c0:	4252      	negs	r2, r2
    30c2:	e7f7      	b.n	30b4 <recv+0x68>
    30c4:	2206      	movs	r2, #6
    30c6:	4252      	negs	r2, r2
    30c8:	e7f4      	b.n	30b4 <recv+0x68>
    30ca:	2206      	movs	r2, #6
    30cc:	4252      	negs	r2, r2
    30ce:	e7f1      	b.n	30b4 <recv+0x68>
    30d0:	2206      	movs	r2, #6
    30d2:	4252      	negs	r2, r2
    30d4:	e7ee      	b.n	30b4 <recv+0x68>
    30d6:	46c0      	nop			; (mov r8, r8)
    30d8:	20000a48 	.word	0x20000a48
    30dc:	00000645 	.word	0x00000645

000030e0 <close>:
    30e0:	b530      	push	{r4, r5, lr}
    30e2:	b087      	sub	sp, #28
    30e4:	1e04      	subs	r4, r0, #0
    30e6:	db2a      	blt.n	313e <close+0x5e>
    30e8:	0102      	lsls	r2, r0, #4
    30ea:	4b18      	ldr	r3, [pc, #96]	; (314c <close+0x6c>)
    30ec:	189b      	adds	r3, r3, r2
    30ee:	7a9b      	ldrb	r3, [r3, #10]
    30f0:	2b01      	cmp	r3, #1
    30f2:	d127      	bne.n	3144 <close+0x64>
    30f4:	a905      	add	r1, sp, #20
    30f6:	7008      	strb	r0, [r1, #0]
    30f8:	4b14      	ldr	r3, [pc, #80]	; (314c <close+0x6c>)
    30fa:	189b      	adds	r3, r3, r2
    30fc:	88da      	ldrh	r2, [r3, #6]
    30fe:	804a      	strh	r2, [r1, #2]
    3100:	2200      	movs	r2, #0
    3102:	729a      	strb	r2, [r3, #10]
    3104:	80da      	strh	r2, [r3, #6]
    3106:	7adb      	ldrb	r3, [r3, #11]
    3108:	2149      	movs	r1, #73	; 0x49
    310a:	07db      	lsls	r3, r3, #31
    310c:	d500      	bpl.n	3110 <close+0x30>
    310e:	3105      	adds	r1, #5
    3110:	2300      	movs	r3, #0
    3112:	9302      	str	r3, [sp, #8]
    3114:	9301      	str	r3, [sp, #4]
    3116:	9300      	str	r3, [sp, #0]
    3118:	3304      	adds	r3, #4
    311a:	aa05      	add	r2, sp, #20
    311c:	2002      	movs	r0, #2
    311e:	4d0c      	ldr	r5, [pc, #48]	; (3150 <close+0x70>)
    3120:	47a8      	blx	r5
    3122:	1e05      	subs	r5, r0, #0
    3124:	d001      	beq.n	312a <close+0x4a>
    3126:	2509      	movs	r5, #9
    3128:	426d      	negs	r5, r5
    312a:	0124      	lsls	r4, r4, #4
    312c:	4807      	ldr	r0, [pc, #28]	; (314c <close+0x6c>)
    312e:	1820      	adds	r0, r4, r0
    3130:	2210      	movs	r2, #16
    3132:	2100      	movs	r1, #0
    3134:	4b07      	ldr	r3, [pc, #28]	; (3154 <close+0x74>)
    3136:	4798      	blx	r3
    3138:	0028      	movs	r0, r5
    313a:	b007      	add	sp, #28
    313c:	bd30      	pop	{r4, r5, pc}
    313e:	2506      	movs	r5, #6
    3140:	426d      	negs	r5, r5
    3142:	e7f9      	b.n	3138 <close+0x58>
    3144:	2506      	movs	r5, #6
    3146:	426d      	negs	r5, r5
    3148:	e7f6      	b.n	3138 <close+0x58>
    314a:	46c0      	nop			; (mov r8, r8)
    314c:	20000a48 	.word	0x20000a48
    3150:	00000645 	.word	0x00000645
    3154:	00000531 	.word	0x00000531

00003158 <spi_flash_enable>:
    3158:	b570      	push	{r4, r5, r6, lr}
    315a:	b082      	sub	sp, #8
    315c:	0004      	movs	r4, r0
    315e:	4b2a      	ldr	r3, [pc, #168]	; (3208 <spi_flash_enable+0xb0>)
    3160:	4798      	blx	r3
    3162:	0500      	lsls	r0, r0, #20
    3164:	0d00      	lsrs	r0, r0, #20
    3166:	4b29      	ldr	r3, [pc, #164]	; (320c <spi_flash_enable+0xb4>)
    3168:	2500      	movs	r5, #0
    316a:	4298      	cmp	r0, r3
    316c:	d802      	bhi.n	3174 <spi_flash_enable+0x1c>
    316e:	0028      	movs	r0, r5
    3170:	b002      	add	sp, #8
    3172:	bd70      	pop	{r4, r5, r6, pc}
    3174:	a901      	add	r1, sp, #4
    3176:	4826      	ldr	r0, [pc, #152]	; (3210 <spi_flash_enable+0xb8>)
    3178:	4b26      	ldr	r3, [pc, #152]	; (3214 <spi_flash_enable+0xbc>)
    317a:	4798      	blx	r3
    317c:	1e05      	subs	r5, r0, #0
    317e:	d1f6      	bne.n	316e <spi_flash_enable+0x16>
    3180:	4b25      	ldr	r3, [pc, #148]	; (3218 <spi_flash_enable+0xc0>)
    3182:	9a01      	ldr	r2, [sp, #4]
    3184:	4013      	ands	r3, r2
    3186:	4925      	ldr	r1, [pc, #148]	; (321c <spi_flash_enable+0xc4>)
    3188:	4319      	orrs	r1, r3
    318a:	9101      	str	r1, [sp, #4]
    318c:	4820      	ldr	r0, [pc, #128]	; (3210 <spi_flash_enable+0xb8>)
    318e:	4b24      	ldr	r3, [pc, #144]	; (3220 <spi_flash_enable+0xc8>)
    3190:	4798      	blx	r3
    3192:	2c00      	cmp	r4, #0
    3194:	d020      	beq.n	31d8 <spi_flash_enable+0x80>
    3196:	2100      	movs	r1, #0
    3198:	4822      	ldr	r0, [pc, #136]	; (3224 <spi_flash_enable+0xcc>)
    319a:	4c21      	ldr	r4, [pc, #132]	; (3220 <spi_flash_enable+0xc8>)
    319c:	47a0      	blx	r4
    319e:	21ab      	movs	r1, #171	; 0xab
    31a0:	4821      	ldr	r0, [pc, #132]	; (3228 <spi_flash_enable+0xd0>)
    31a2:	47a0      	blx	r4
    31a4:	2101      	movs	r1, #1
    31a6:	4821      	ldr	r0, [pc, #132]	; (322c <spi_flash_enable+0xd4>)
    31a8:	47a0      	blx	r4
    31aa:	2100      	movs	r1, #0
    31ac:	4820      	ldr	r0, [pc, #128]	; (3230 <spi_flash_enable+0xd8>)
    31ae:	47a0      	blx	r4
    31b0:	2181      	movs	r1, #129	; 0x81
    31b2:	4820      	ldr	r0, [pc, #128]	; (3234 <spi_flash_enable+0xdc>)
    31b4:	47a0      	blx	r4
    31b6:	4e20      	ldr	r6, [pc, #128]	; (3238 <spi_flash_enable+0xe0>)
    31b8:	4c20      	ldr	r4, [pc, #128]	; (323c <spi_flash_enable+0xe4>)
    31ba:	0030      	movs	r0, r6
    31bc:	47a0      	blx	r4
    31be:	2801      	cmp	r0, #1
    31c0:	d1fb      	bne.n	31ba <spi_flash_enable+0x62>
    31c2:	4b15      	ldr	r3, [pc, #84]	; (3218 <spi_flash_enable+0xc0>)
    31c4:	9a01      	ldr	r2, [sp, #4]
    31c6:	4013      	ands	r3, r2
    31c8:	2180      	movs	r1, #128	; 0x80
    31ca:	0249      	lsls	r1, r1, #9
    31cc:	4319      	orrs	r1, r3
    31ce:	9101      	str	r1, [sp, #4]
    31d0:	480f      	ldr	r0, [pc, #60]	; (3210 <spi_flash_enable+0xb8>)
    31d2:	4b13      	ldr	r3, [pc, #76]	; (3220 <spi_flash_enable+0xc8>)
    31d4:	4798      	blx	r3
    31d6:	e7ca      	b.n	316e <spi_flash_enable+0x16>
    31d8:	2100      	movs	r1, #0
    31da:	4812      	ldr	r0, [pc, #72]	; (3224 <spi_flash_enable+0xcc>)
    31dc:	4c10      	ldr	r4, [pc, #64]	; (3220 <spi_flash_enable+0xc8>)
    31de:	47a0      	blx	r4
    31e0:	21b9      	movs	r1, #185	; 0xb9
    31e2:	4811      	ldr	r0, [pc, #68]	; (3228 <spi_flash_enable+0xd0>)
    31e4:	47a0      	blx	r4
    31e6:	2101      	movs	r1, #1
    31e8:	4810      	ldr	r0, [pc, #64]	; (322c <spi_flash_enable+0xd4>)
    31ea:	47a0      	blx	r4
    31ec:	2100      	movs	r1, #0
    31ee:	4810      	ldr	r0, [pc, #64]	; (3230 <spi_flash_enable+0xd8>)
    31f0:	47a0      	blx	r4
    31f2:	2181      	movs	r1, #129	; 0x81
    31f4:	480f      	ldr	r0, [pc, #60]	; (3234 <spi_flash_enable+0xdc>)
    31f6:	47a0      	blx	r4
    31f8:	4e0f      	ldr	r6, [pc, #60]	; (3238 <spi_flash_enable+0xe0>)
    31fa:	4c10      	ldr	r4, [pc, #64]	; (323c <spi_flash_enable+0xe4>)
    31fc:	0030      	movs	r0, r6
    31fe:	47a0      	blx	r4
    3200:	2801      	cmp	r0, #1
    3202:	d1fb      	bne.n	31fc <spi_flash_enable+0xa4>
    3204:	e7dd      	b.n	31c2 <spi_flash_enable+0x6a>
    3206:	46c0      	nop			; (mov r8, r8)
    3208:	0000152d 	.word	0x0000152d
    320c:	0000039f 	.word	0x0000039f
    3210:	00001410 	.word	0x00001410
    3214:	0000197d 	.word	0x0000197d
    3218:	f8888fff 	.word	0xf8888fff
    321c:	01111000 	.word	0x01111000
    3220:	00001989 	.word	0x00001989
    3224:	00010208 	.word	0x00010208
    3228:	0001020c 	.word	0x0001020c
    322c:	00010214 	.word	0x00010214
    3230:	0001021c 	.word	0x0001021c
    3234:	00010204 	.word	0x00010204
    3238:	00010218 	.word	0x00010218
    323c:	00001971 	.word	0x00001971

00003240 <usart_init>:
    3240:	b5f0      	push	{r4, r5, r6, r7, lr}
    3242:	46de      	mov	lr, fp
    3244:	4657      	mov	r7, sl
    3246:	464e      	mov	r6, r9
    3248:	4645      	mov	r5, r8
    324a:	b5e0      	push	{r5, r6, r7, lr}
    324c:	b091      	sub	sp, #68	; 0x44
    324e:	0005      	movs	r5, r0
    3250:	000c      	movs	r4, r1
    3252:	0016      	movs	r6, r2
    3254:	6029      	str	r1, [r5, #0]
    3256:	0008      	movs	r0, r1
    3258:	4bbc      	ldr	r3, [pc, #752]	; (354c <usart_init+0x30c>)
    325a:	4798      	blx	r3
    325c:	0002      	movs	r2, r0
    325e:	6823      	ldr	r3, [r4, #0]
    3260:	2005      	movs	r0, #5
    3262:	07db      	lsls	r3, r3, #31
    3264:	d506      	bpl.n	3274 <usart_init+0x34>
    3266:	b011      	add	sp, #68	; 0x44
    3268:	bc3c      	pop	{r2, r3, r4, r5}
    326a:	4690      	mov	r8, r2
    326c:	4699      	mov	r9, r3
    326e:	46a2      	mov	sl, r4
    3270:	46ab      	mov	fp, r5
    3272:	bdf0      	pop	{r4, r5, r6, r7, pc}
    3274:	6823      	ldr	r3, [r4, #0]
    3276:	3017      	adds	r0, #23
    3278:	079b      	lsls	r3, r3, #30
    327a:	d4f4      	bmi.n	3266 <usart_init+0x26>
    327c:	49b4      	ldr	r1, [pc, #720]	; (3550 <usart_init+0x310>)
    327e:	6a08      	ldr	r0, [r1, #32]
    3280:	1c97      	adds	r7, r2, #2
    3282:	2301      	movs	r3, #1
    3284:	40bb      	lsls	r3, r7
    3286:	4303      	orrs	r3, r0
    3288:	620b      	str	r3, [r1, #32]
    328a:	a90f      	add	r1, sp, #60	; 0x3c
    328c:	272d      	movs	r7, #45	; 0x2d
    328e:	5df3      	ldrb	r3, [r6, r7]
    3290:	700b      	strb	r3, [r1, #0]
    3292:	3214      	adds	r2, #20
    3294:	b2d3      	uxtb	r3, r2
    3296:	9302      	str	r3, [sp, #8]
    3298:	0018      	movs	r0, r3
    329a:	4bae      	ldr	r3, [pc, #696]	; (3554 <usart_init+0x314>)
    329c:	4798      	blx	r3
    329e:	9802      	ldr	r0, [sp, #8]
    32a0:	4bad      	ldr	r3, [pc, #692]	; (3558 <usart_init+0x318>)
    32a2:	4798      	blx	r3
    32a4:	5df0      	ldrb	r0, [r6, r7]
    32a6:	2100      	movs	r1, #0
    32a8:	4bac      	ldr	r3, [pc, #688]	; (355c <usart_init+0x31c>)
    32aa:	4798      	blx	r3
    32ac:	7af3      	ldrb	r3, [r6, #11]
    32ae:	716b      	strb	r3, [r5, #5]
    32b0:	2324      	movs	r3, #36	; 0x24
    32b2:	5cf3      	ldrb	r3, [r6, r3]
    32b4:	71ab      	strb	r3, [r5, #6]
    32b6:	2325      	movs	r3, #37	; 0x25
    32b8:	5cf3      	ldrb	r3, [r6, r3]
    32ba:	71eb      	strb	r3, [r5, #7]
    32bc:	7ef3      	ldrb	r3, [r6, #27]
    32be:	722b      	strb	r3, [r5, #8]
    32c0:	7f33      	ldrb	r3, [r6, #28]
    32c2:	726b      	strb	r3, [r5, #9]
    32c4:	682b      	ldr	r3, [r5, #0]
    32c6:	4698      	mov	r8, r3
    32c8:	0018      	movs	r0, r3
    32ca:	4ba0      	ldr	r3, [pc, #640]	; (354c <usart_init+0x30c>)
    32cc:	4798      	blx	r3
    32ce:	3014      	adds	r0, #20
    32d0:	2200      	movs	r2, #0
    32d2:	230e      	movs	r3, #14
    32d4:	a906      	add	r1, sp, #24
    32d6:	468c      	mov	ip, r1
    32d8:	4463      	add	r3, ip
    32da:	801a      	strh	r2, [r3, #0]
    32dc:	8a32      	ldrh	r2, [r6, #16]
    32de:	9202      	str	r2, [sp, #8]
    32e0:	2380      	movs	r3, #128	; 0x80
    32e2:	01db      	lsls	r3, r3, #7
    32e4:	429a      	cmp	r2, r3
    32e6:	d100      	bne.n	32ea <usart_init+0xaa>
    32e8:	e09e      	b.n	3428 <usart_init+0x1e8>
    32ea:	d90f      	bls.n	330c <usart_init+0xcc>
    32ec:	23c0      	movs	r3, #192	; 0xc0
    32ee:	01db      	lsls	r3, r3, #7
    32f0:	9a02      	ldr	r2, [sp, #8]
    32f2:	429a      	cmp	r2, r3
    32f4:	d100      	bne.n	32f8 <usart_init+0xb8>
    32f6:	e092      	b.n	341e <usart_init+0x1de>
    32f8:	2380      	movs	r3, #128	; 0x80
    32fa:	021b      	lsls	r3, r3, #8
    32fc:	429a      	cmp	r2, r3
    32fe:	d000      	beq.n	3302 <usart_init+0xc2>
    3300:	e11f      	b.n	3542 <usart_init+0x302>
    3302:	2303      	movs	r3, #3
    3304:	9306      	str	r3, [sp, #24]
    3306:	2300      	movs	r3, #0
    3308:	9307      	str	r3, [sp, #28]
    330a:	e008      	b.n	331e <usart_init+0xde>
    330c:	2380      	movs	r3, #128	; 0x80
    330e:	019b      	lsls	r3, r3, #6
    3310:	429a      	cmp	r2, r3
    3312:	d000      	beq.n	3316 <usart_init+0xd6>
    3314:	e115      	b.n	3542 <usart_init+0x302>
    3316:	2310      	movs	r3, #16
    3318:	9306      	str	r3, [sp, #24]
    331a:	3b0f      	subs	r3, #15
    331c:	9307      	str	r3, [sp, #28]
    331e:	6833      	ldr	r3, [r6, #0]
    3320:	9305      	str	r3, [sp, #20]
    3322:	68f3      	ldr	r3, [r6, #12]
    3324:	9303      	str	r3, [sp, #12]
    3326:	6973      	ldr	r3, [r6, #20]
    3328:	9304      	str	r3, [sp, #16]
    332a:	7e33      	ldrb	r3, [r6, #24]
    332c:	469b      	mov	fp, r3
    332e:	2326      	movs	r3, #38	; 0x26
    3330:	5cf3      	ldrb	r3, [r6, r3]
    3332:	469a      	mov	sl, r3
    3334:	6873      	ldr	r3, [r6, #4]
    3336:	4699      	mov	r9, r3
    3338:	2b00      	cmp	r3, #0
    333a:	d100      	bne.n	333e <usart_init+0xfe>
    333c:	e0a0      	b.n	3480 <usart_init+0x240>
    333e:	2380      	movs	r3, #128	; 0x80
    3340:	055b      	lsls	r3, r3, #21
    3342:	4599      	cmp	r9, r3
    3344:	d100      	bne.n	3348 <usart_init+0x108>
    3346:	e084      	b.n	3452 <usart_init+0x212>
    3348:	7e73      	ldrb	r3, [r6, #25]
    334a:	2b00      	cmp	r3, #0
    334c:	d002      	beq.n	3354 <usart_init+0x114>
    334e:	7eb3      	ldrb	r3, [r6, #26]
    3350:	4642      	mov	r2, r8
    3352:	7393      	strb	r3, [r2, #14]
    3354:	682a      	ldr	r2, [r5, #0]
    3356:	9f02      	ldr	r7, [sp, #8]
    3358:	69d3      	ldr	r3, [r2, #28]
    335a:	2b00      	cmp	r3, #0
    335c:	d1fc      	bne.n	3358 <usart_init+0x118>
    335e:	330e      	adds	r3, #14
    3360:	aa06      	add	r2, sp, #24
    3362:	4694      	mov	ip, r2
    3364:	4463      	add	r3, ip
    3366:	881b      	ldrh	r3, [r3, #0]
    3368:	4642      	mov	r2, r8
    336a:	8193      	strh	r3, [r2, #12]
    336c:	9b05      	ldr	r3, [sp, #20]
    336e:	9a03      	ldr	r2, [sp, #12]
    3370:	4313      	orrs	r3, r2
    3372:	9a04      	ldr	r2, [sp, #16]
    3374:	4313      	orrs	r3, r2
    3376:	464a      	mov	r2, r9
    3378:	4313      	orrs	r3, r2
    337a:	431f      	orrs	r7, r3
    337c:	465b      	mov	r3, fp
    337e:	021b      	lsls	r3, r3, #8
    3380:	431f      	orrs	r7, r3
    3382:	4653      	mov	r3, sl
    3384:	075b      	lsls	r3, r3, #29
    3386:	431f      	orrs	r7, r3
    3388:	2327      	movs	r3, #39	; 0x27
    338a:	5cf3      	ldrb	r3, [r6, r3]
    338c:	2b00      	cmp	r3, #0
    338e:	d101      	bne.n	3394 <usart_init+0x154>
    3390:	3304      	adds	r3, #4
    3392:	431f      	orrs	r7, r3
    3394:	7e73      	ldrb	r3, [r6, #25]
    3396:	029b      	lsls	r3, r3, #10
    3398:	7f32      	ldrb	r2, [r6, #28]
    339a:	0252      	lsls	r2, r2, #9
    339c:	4313      	orrs	r3, r2
    339e:	7f72      	ldrb	r2, [r6, #29]
    33a0:	0212      	lsls	r2, r2, #8
    33a2:	4313      	orrs	r3, r2
    33a4:	2224      	movs	r2, #36	; 0x24
    33a6:	5cb2      	ldrb	r2, [r6, r2]
    33a8:	0452      	lsls	r2, r2, #17
    33aa:	4313      	orrs	r3, r2
    33ac:	2225      	movs	r2, #37	; 0x25
    33ae:	5cb2      	ldrb	r2, [r6, r2]
    33b0:	0412      	lsls	r2, r2, #16
    33b2:	4313      	orrs	r3, r2
    33b4:	7ab1      	ldrb	r1, [r6, #10]
    33b6:	7af2      	ldrb	r2, [r6, #11]
    33b8:	4311      	orrs	r1, r2
    33ba:	4319      	orrs	r1, r3
    33bc:	8933      	ldrh	r3, [r6, #8]
    33be:	2bff      	cmp	r3, #255	; 0xff
    33c0:	d100      	bne.n	33c4 <usart_init+0x184>
    33c2:	e081      	b.n	34c8 <usart_init+0x288>
    33c4:	2280      	movs	r2, #128	; 0x80
    33c6:	0452      	lsls	r2, r2, #17
    33c8:	4317      	orrs	r7, r2
    33ca:	4319      	orrs	r1, r3
    33cc:	232c      	movs	r3, #44	; 0x2c
    33ce:	5cf3      	ldrb	r3, [r6, r3]
    33d0:	2b00      	cmp	r3, #0
    33d2:	d103      	bne.n	33dc <usart_init+0x19c>
    33d4:	4b62      	ldr	r3, [pc, #392]	; (3560 <usart_init+0x320>)
    33d6:	789b      	ldrb	r3, [r3, #2]
    33d8:	079b      	lsls	r3, r3, #30
    33da:	d501      	bpl.n	33e0 <usart_init+0x1a0>
    33dc:	2380      	movs	r3, #128	; 0x80
    33de:	431f      	orrs	r7, r3
    33e0:	682a      	ldr	r2, [r5, #0]
    33e2:	69d3      	ldr	r3, [r2, #28]
    33e4:	2b00      	cmp	r3, #0
    33e6:	d1fc      	bne.n	33e2 <usart_init+0x1a2>
    33e8:	4643      	mov	r3, r8
    33ea:	6059      	str	r1, [r3, #4]
    33ec:	682a      	ldr	r2, [r5, #0]
    33ee:	69d3      	ldr	r3, [r2, #28]
    33f0:	2b00      	cmp	r3, #0
    33f2:	d1fc      	bne.n	33ee <usart_init+0x1ae>
    33f4:	4643      	mov	r3, r8
    33f6:	601f      	str	r7, [r3, #0]
    33f8:	ab0e      	add	r3, sp, #56	; 0x38
    33fa:	2280      	movs	r2, #128	; 0x80
    33fc:	701a      	strb	r2, [r3, #0]
    33fe:	2200      	movs	r2, #0
    3400:	705a      	strb	r2, [r3, #1]
    3402:	70da      	strb	r2, [r3, #3]
    3404:	709a      	strb	r2, [r3, #2]
    3406:	6b33      	ldr	r3, [r6, #48]	; 0x30
    3408:	930a      	str	r3, [sp, #40]	; 0x28
    340a:	6b73      	ldr	r3, [r6, #52]	; 0x34
    340c:	930b      	str	r3, [sp, #44]	; 0x2c
    340e:	6bb3      	ldr	r3, [r6, #56]	; 0x38
    3410:	930c      	str	r3, [sp, #48]	; 0x30
    3412:	6bf3      	ldr	r3, [r6, #60]	; 0x3c
    3414:	9302      	str	r3, [sp, #8]
    3416:	930d      	str	r3, [sp, #52]	; 0x34
    3418:	2700      	movs	r7, #0
    341a:	ae0a      	add	r6, sp, #40	; 0x28
    341c:	e063      	b.n	34e6 <usart_init+0x2a6>
    341e:	2308      	movs	r3, #8
    3420:	9306      	str	r3, [sp, #24]
    3422:	3b07      	subs	r3, #7
    3424:	9307      	str	r3, [sp, #28]
    3426:	e77a      	b.n	331e <usart_init+0xde>
    3428:	6833      	ldr	r3, [r6, #0]
    342a:	9305      	str	r3, [sp, #20]
    342c:	68f3      	ldr	r3, [r6, #12]
    342e:	9303      	str	r3, [sp, #12]
    3430:	6973      	ldr	r3, [r6, #20]
    3432:	9304      	str	r3, [sp, #16]
    3434:	7e33      	ldrb	r3, [r6, #24]
    3436:	469b      	mov	fp, r3
    3438:	2326      	movs	r3, #38	; 0x26
    343a:	5cf3      	ldrb	r3, [r6, r3]
    343c:	469a      	mov	sl, r3
    343e:	6873      	ldr	r3, [r6, #4]
    3440:	4699      	mov	r9, r3
    3442:	2b00      	cmp	r3, #0
    3444:	d018      	beq.n	3478 <usart_init+0x238>
    3446:	2380      	movs	r3, #128	; 0x80
    3448:	055b      	lsls	r3, r3, #21
    344a:	4599      	cmp	r9, r3
    344c:	d001      	beq.n	3452 <usart_init+0x212>
    344e:	2000      	movs	r0, #0
    3450:	e025      	b.n	349e <usart_init+0x25e>
    3452:	2327      	movs	r3, #39	; 0x27
    3454:	5cf3      	ldrb	r3, [r6, r3]
    3456:	2b00      	cmp	r3, #0
    3458:	d000      	beq.n	345c <usart_init+0x21c>
    345a:	e775      	b.n	3348 <usart_init+0x108>
    345c:	6a33      	ldr	r3, [r6, #32]
    345e:	001f      	movs	r7, r3
    3460:	b2c0      	uxtb	r0, r0
    3462:	4b40      	ldr	r3, [pc, #256]	; (3564 <usart_init+0x324>)
    3464:	4798      	blx	r3
    3466:	0001      	movs	r1, r0
    3468:	220e      	movs	r2, #14
    346a:	ab06      	add	r3, sp, #24
    346c:	469c      	mov	ip, r3
    346e:	4462      	add	r2, ip
    3470:	0038      	movs	r0, r7
    3472:	4b3d      	ldr	r3, [pc, #244]	; (3568 <usart_init+0x328>)
    3474:	4798      	blx	r3
    3476:	e012      	b.n	349e <usart_init+0x25e>
    3478:	2308      	movs	r3, #8
    347a:	9306      	str	r3, [sp, #24]
    347c:	2300      	movs	r3, #0
    347e:	9307      	str	r3, [sp, #28]
    3480:	2327      	movs	r3, #39	; 0x27
    3482:	5cf3      	ldrb	r3, [r6, r3]
    3484:	2b00      	cmp	r3, #0
    3486:	d00e      	beq.n	34a6 <usart_init+0x266>
    3488:	9b06      	ldr	r3, [sp, #24]
    348a:	9300      	str	r3, [sp, #0]
    348c:	9b07      	ldr	r3, [sp, #28]
    348e:	220e      	movs	r2, #14
    3490:	a906      	add	r1, sp, #24
    3492:	468c      	mov	ip, r1
    3494:	4462      	add	r2, ip
    3496:	6ab1      	ldr	r1, [r6, #40]	; 0x28
    3498:	6a30      	ldr	r0, [r6, #32]
    349a:	4f34      	ldr	r7, [pc, #208]	; (356c <usart_init+0x32c>)
    349c:	47b8      	blx	r7
    349e:	2800      	cmp	r0, #0
    34a0:	d000      	beq.n	34a4 <usart_init+0x264>
    34a2:	e6e0      	b.n	3266 <usart_init+0x26>
    34a4:	e750      	b.n	3348 <usart_init+0x108>
    34a6:	6a33      	ldr	r3, [r6, #32]
    34a8:	001f      	movs	r7, r3
    34aa:	b2c0      	uxtb	r0, r0
    34ac:	4b2d      	ldr	r3, [pc, #180]	; (3564 <usart_init+0x324>)
    34ae:	4798      	blx	r3
    34b0:	0001      	movs	r1, r0
    34b2:	9b06      	ldr	r3, [sp, #24]
    34b4:	9300      	str	r3, [sp, #0]
    34b6:	9b07      	ldr	r3, [sp, #28]
    34b8:	220e      	movs	r2, #14
    34ba:	a806      	add	r0, sp, #24
    34bc:	4684      	mov	ip, r0
    34be:	4462      	add	r2, ip
    34c0:	0038      	movs	r0, r7
    34c2:	4f2a      	ldr	r7, [pc, #168]	; (356c <usart_init+0x32c>)
    34c4:	47b8      	blx	r7
    34c6:	e7ea      	b.n	349e <usart_init+0x25e>
    34c8:	7ef3      	ldrb	r3, [r6, #27]
    34ca:	2b00      	cmp	r3, #0
    34cc:	d100      	bne.n	34d0 <usart_init+0x290>
    34ce:	e77d      	b.n	33cc <usart_init+0x18c>
    34d0:	2380      	movs	r3, #128	; 0x80
    34d2:	04db      	lsls	r3, r3, #19
    34d4:	431f      	orrs	r7, r3
    34d6:	e779      	b.n	33cc <usart_init+0x18c>
    34d8:	0020      	movs	r0, r4
    34da:	4b25      	ldr	r3, [pc, #148]	; (3570 <usart_init+0x330>)
    34dc:	4798      	blx	r3
    34de:	e007      	b.n	34f0 <usart_init+0x2b0>
    34e0:	3701      	adds	r7, #1
    34e2:	2f04      	cmp	r7, #4
    34e4:	d00d      	beq.n	3502 <usart_init+0x2c2>
    34e6:	b2f9      	uxtb	r1, r7
    34e8:	00bb      	lsls	r3, r7, #2
    34ea:	5998      	ldr	r0, [r3, r6]
    34ec:	2800      	cmp	r0, #0
    34ee:	d0f3      	beq.n	34d8 <usart_init+0x298>
    34f0:	1c43      	adds	r3, r0, #1
    34f2:	d0f5      	beq.n	34e0 <usart_init+0x2a0>
    34f4:	a90e      	add	r1, sp, #56	; 0x38
    34f6:	7008      	strb	r0, [r1, #0]
    34f8:	0c00      	lsrs	r0, r0, #16
    34fa:	b2c0      	uxtb	r0, r0
    34fc:	4b1d      	ldr	r3, [pc, #116]	; (3574 <usart_init+0x334>)
    34fe:	4798      	blx	r3
    3500:	e7ee      	b.n	34e0 <usart_init+0x2a0>
    3502:	2300      	movs	r3, #0
    3504:	60eb      	str	r3, [r5, #12]
    3506:	612b      	str	r3, [r5, #16]
    3508:	616b      	str	r3, [r5, #20]
    350a:	61ab      	str	r3, [r5, #24]
    350c:	61eb      	str	r3, [r5, #28]
    350e:	622b      	str	r3, [r5, #32]
    3510:	62ab      	str	r3, [r5, #40]	; 0x28
    3512:	626b      	str	r3, [r5, #36]	; 0x24
    3514:	2200      	movs	r2, #0
    3516:	85eb      	strh	r3, [r5, #46]	; 0x2e
    3518:	85ab      	strh	r3, [r5, #44]	; 0x2c
    351a:	3330      	adds	r3, #48	; 0x30
    351c:	54ea      	strb	r2, [r5, r3]
    351e:	3301      	adds	r3, #1
    3520:	54ea      	strb	r2, [r5, r3]
    3522:	3301      	adds	r3, #1
    3524:	54ea      	strb	r2, [r5, r3]
    3526:	3301      	adds	r3, #1
    3528:	54ea      	strb	r2, [r5, r3]
    352a:	6828      	ldr	r0, [r5, #0]
    352c:	4b07      	ldr	r3, [pc, #28]	; (354c <usart_init+0x30c>)
    352e:	4798      	blx	r3
    3530:	0004      	movs	r4, r0
    3532:	4911      	ldr	r1, [pc, #68]	; (3578 <usart_init+0x338>)
    3534:	4b11      	ldr	r3, [pc, #68]	; (357c <usart_init+0x33c>)
    3536:	4798      	blx	r3
    3538:	00a4      	lsls	r4, r4, #2
    353a:	4b11      	ldr	r3, [pc, #68]	; (3580 <usart_init+0x340>)
    353c:	50e5      	str	r5, [r4, r3]
    353e:	2000      	movs	r0, #0
    3540:	e691      	b.n	3266 <usart_init+0x26>
    3542:	2310      	movs	r3, #16
    3544:	9306      	str	r3, [sp, #24]
    3546:	2300      	movs	r3, #0
    3548:	9307      	str	r3, [sp, #28]
    354a:	e6e8      	b.n	331e <usart_init+0xde>
    354c:	00004651 	.word	0x00004651
    3550:	40000400 	.word	0x40000400
    3554:	00005225 	.word	0x00005225
    3558:	00005199 	.word	0x00005199
    355c:	0000448d 	.word	0x0000448d
    3560:	41002000 	.word	0x41002000
    3564:	00005241 	.word	0x00005241
    3568:	000043cf 	.word	0x000043cf
    356c:	000043f9 	.word	0x000043f9
    3570:	000044d9 	.word	0x000044d9
    3574:	0000531d 	.word	0x0000531d
    3578:	000036b9 	.word	0x000036b9
    357c:	0000468d 	.word	0x0000468d
    3580:	20000b64 	.word	0x20000b64

00003584 <usart_write_wait>:
    3584:	79c2      	ldrb	r2, [r0, #7]
    3586:	231c      	movs	r3, #28
    3588:	2a00      	cmp	r2, #0
    358a:	d101      	bne.n	3590 <usart_write_wait+0xc>
    358c:	0018      	movs	r0, r3
    358e:	4770      	bx	lr
    3590:	8dc2      	ldrh	r2, [r0, #46]	; 0x2e
    3592:	b292      	uxth	r2, r2
    3594:	3b17      	subs	r3, #23
    3596:	2a00      	cmp	r2, #0
    3598:	d1f8      	bne.n	358c <usart_write_wait+0x8>
    359a:	6803      	ldr	r3, [r0, #0]
    359c:	69da      	ldr	r2, [r3, #28]
    359e:	2a00      	cmp	r2, #0
    35a0:	d1fc      	bne.n	359c <usart_write_wait+0x18>
    35a2:	8519      	strh	r1, [r3, #40]	; 0x28
    35a4:	2102      	movs	r1, #2
    35a6:	7e1a      	ldrb	r2, [r3, #24]
    35a8:	420a      	tst	r2, r1
    35aa:	d0fc      	beq.n	35a6 <usart_write_wait+0x22>
    35ac:	2300      	movs	r3, #0
    35ae:	e7ed      	b.n	358c <usart_write_wait+0x8>

000035b0 <usart_read_wait>:
    35b0:	7982      	ldrb	r2, [r0, #6]
    35b2:	231c      	movs	r3, #28
    35b4:	2a00      	cmp	r2, #0
    35b6:	d101      	bne.n	35bc <usart_read_wait+0xc>
    35b8:	0018      	movs	r0, r3
    35ba:	4770      	bx	lr
    35bc:	8d82      	ldrh	r2, [r0, #44]	; 0x2c
    35be:	b292      	uxth	r2, r2
    35c0:	3b17      	subs	r3, #23
    35c2:	2a00      	cmp	r2, #0
    35c4:	d1f8      	bne.n	35b8 <usart_read_wait+0x8>
    35c6:	6802      	ldr	r2, [r0, #0]
    35c8:	7e10      	ldrb	r0, [r2, #24]
    35ca:	0740      	lsls	r0, r0, #29
    35cc:	d5f4      	bpl.n	35b8 <usart_read_wait+0x8>
    35ce:	69d3      	ldr	r3, [r2, #28]
    35d0:	2b00      	cmp	r3, #0
    35d2:	d1fc      	bne.n	35ce <usart_read_wait+0x1e>
    35d4:	8b53      	ldrh	r3, [r2, #26]
    35d6:	b2db      	uxtb	r3, r3
    35d8:	0698      	lsls	r0, r3, #26
    35da:	d01d      	beq.n	3618 <usart_read_wait+0x68>
    35dc:	0798      	lsls	r0, r3, #30
    35de:	d503      	bpl.n	35e8 <usart_read_wait+0x38>
    35e0:	2302      	movs	r3, #2
    35e2:	8353      	strh	r3, [r2, #26]
    35e4:	3318      	adds	r3, #24
    35e6:	e7e7      	b.n	35b8 <usart_read_wait+0x8>
    35e8:	0758      	lsls	r0, r3, #29
    35ea:	d503      	bpl.n	35f4 <usart_read_wait+0x44>
    35ec:	2304      	movs	r3, #4
    35ee:	8353      	strh	r3, [r2, #26]
    35f0:	331a      	adds	r3, #26
    35f2:	e7e1      	b.n	35b8 <usart_read_wait+0x8>
    35f4:	07d8      	lsls	r0, r3, #31
    35f6:	d503      	bpl.n	3600 <usart_read_wait+0x50>
    35f8:	2301      	movs	r3, #1
    35fa:	8353      	strh	r3, [r2, #26]
    35fc:	3312      	adds	r3, #18
    35fe:	e7db      	b.n	35b8 <usart_read_wait+0x8>
    3600:	06d8      	lsls	r0, r3, #27
    3602:	d503      	bpl.n	360c <usart_read_wait+0x5c>
    3604:	2310      	movs	r3, #16
    3606:	8353      	strh	r3, [r2, #26]
    3608:	3332      	adds	r3, #50	; 0x32
    360a:	e7d5      	b.n	35b8 <usart_read_wait+0x8>
    360c:	069b      	lsls	r3, r3, #26
    360e:	d503      	bpl.n	3618 <usart_read_wait+0x68>
    3610:	2320      	movs	r3, #32
    3612:	8353      	strh	r3, [r2, #26]
    3614:	3321      	adds	r3, #33	; 0x21
    3616:	e7cf      	b.n	35b8 <usart_read_wait+0x8>
    3618:	8d13      	ldrh	r3, [r2, #40]	; 0x28
    361a:	800b      	strh	r3, [r1, #0]
    361c:	2300      	movs	r3, #0
    361e:	e7cb      	b.n	35b8 <usart_read_wait+0x8>

00003620 <usart_read_buffer_wait>:
    3620:	b5f0      	push	{r4, r5, r6, r7, lr}
    3622:	46d6      	mov	lr, sl
    3624:	b500      	push	{lr}
    3626:	b084      	sub	sp, #16
    3628:	0004      	movs	r4, r0
    362a:	9101      	str	r1, [sp, #4]
    362c:	2017      	movs	r0, #23
    362e:	2a00      	cmp	r2, #0
    3630:	d103      	bne.n	363a <usart_read_buffer_wait+0x1a>
    3632:	b004      	add	sp, #16
    3634:	bc04      	pop	{r2}
    3636:	4692      	mov	sl, r2
    3638:	bdf0      	pop	{r4, r5, r6, r7, pc}
    363a:	79a3      	ldrb	r3, [r4, #6]
    363c:	3005      	adds	r0, #5
    363e:	2b00      	cmp	r3, #0
    3640:	d0f7      	beq.n	3632 <usart_read_buffer_wait+0x12>
    3642:	6826      	ldr	r6, [r4, #0]
    3644:	3a01      	subs	r2, #1
    3646:	b293      	uxth	r3, r2
    3648:	469a      	mov	sl, r3
    364a:	2500      	movs	r5, #0
    364c:	2704      	movs	r7, #4
    364e:	e019      	b.n	3684 <usart_read_buffer_wait+0x64>
    3650:	2300      	movs	r3, #0
    3652:	aa02      	add	r2, sp, #8
    3654:	80d3      	strh	r3, [r2, #6]
    3656:	1d91      	adds	r1, r2, #6
    3658:	0020      	movs	r0, r4
    365a:	4b15      	ldr	r3, [pc, #84]	; (36b0 <usart_read_buffer_wait+0x90>)
    365c:	4798      	blx	r3
    365e:	2800      	cmp	r0, #0
    3660:	d1e7      	bne.n	3632 <usart_read_buffer_wait+0x12>
    3662:	1c69      	adds	r1, r5, #1
    3664:	b289      	uxth	r1, r1
    3666:	ab02      	add	r3, sp, #8
    3668:	88db      	ldrh	r3, [r3, #6]
    366a:	9a01      	ldr	r2, [sp, #4]
    366c:	5553      	strb	r3, [r2, r5]
    366e:	7962      	ldrb	r2, [r4, #5]
    3670:	2a01      	cmp	r2, #1
    3672:	d014      	beq.n	369e <usart_read_buffer_wait+0x7e>
    3674:	000d      	movs	r5, r1
    3676:	4653      	mov	r3, sl
    3678:	3b01      	subs	r3, #1
    367a:	b29b      	uxth	r3, r3
    367c:	469a      	mov	sl, r3
    367e:	4b0d      	ldr	r3, [pc, #52]	; (36b4 <usart_read_buffer_wait+0x94>)
    3680:	459a      	cmp	sl, r3
    3682:	d0d6      	beq.n	3632 <usart_read_buffer_wait+0x12>
    3684:	7e33      	ldrb	r3, [r6, #24]
    3686:	423b      	tst	r3, r7
    3688:	d1e2      	bne.n	3650 <usart_read_buffer_wait+0x30>
    368a:	4b0a      	ldr	r3, [pc, #40]	; (36b4 <usart_read_buffer_wait+0x94>)
    368c:	7e32      	ldrb	r2, [r6, #24]
    368e:	423a      	tst	r2, r7
    3690:	d1de      	bne.n	3650 <usart_read_buffer_wait+0x30>
    3692:	2b01      	cmp	r3, #1
    3694:	d009      	beq.n	36aa <usart_read_buffer_wait+0x8a>
    3696:	3b01      	subs	r3, #1
    3698:	2b00      	cmp	r3, #0
    369a:	d1f7      	bne.n	368c <usart_read_buffer_wait+0x6c>
    369c:	e7d8      	b.n	3650 <usart_read_buffer_wait+0x30>
    369e:	3502      	adds	r5, #2
    36a0:	b2ad      	uxth	r5, r5
    36a2:	0a1b      	lsrs	r3, r3, #8
    36a4:	9a01      	ldr	r2, [sp, #4]
    36a6:	5453      	strb	r3, [r2, r1]
    36a8:	e7e5      	b.n	3676 <usart_read_buffer_wait+0x56>
    36aa:	2012      	movs	r0, #18
    36ac:	e7c1      	b.n	3632 <usart_read_buffer_wait+0x12>
    36ae:	46c0      	nop			; (mov r8, r8)
    36b0:	000035b1 	.word	0x000035b1
    36b4:	0000ffff 	.word	0x0000ffff

000036b8 <_usart_interrupt_handler>:
    36b8:	b5f8      	push	{r3, r4, r5, r6, r7, lr}
    36ba:	0080      	lsls	r0, r0, #2
    36bc:	4b62      	ldr	r3, [pc, #392]	; (3848 <_usart_interrupt_handler+0x190>)
    36be:	58c5      	ldr	r5, [r0, r3]
    36c0:	682c      	ldr	r4, [r5, #0]
    36c2:	69e3      	ldr	r3, [r4, #28]
    36c4:	2b00      	cmp	r3, #0
    36c6:	d1fc      	bne.n	36c2 <_usart_interrupt_handler+0xa>
    36c8:	7e23      	ldrb	r3, [r4, #24]
    36ca:	7da6      	ldrb	r6, [r4, #22]
    36cc:	401e      	ands	r6, r3
    36ce:	2330      	movs	r3, #48	; 0x30
    36d0:	5ceb      	ldrb	r3, [r5, r3]
    36d2:	2231      	movs	r2, #49	; 0x31
    36d4:	5caf      	ldrb	r7, [r5, r2]
    36d6:	401f      	ands	r7, r3
    36d8:	07f3      	lsls	r3, r6, #31
    36da:	d522      	bpl.n	3722 <_usart_interrupt_handler+0x6a>
    36dc:	8deb      	ldrh	r3, [r5, #46]	; 0x2e
    36de:	b29b      	uxth	r3, r3
    36e0:	2b00      	cmp	r3, #0
    36e2:	d01c      	beq.n	371e <_usart_interrupt_handler+0x66>
    36e4:	6aaa      	ldr	r2, [r5, #40]	; 0x28
    36e6:	7813      	ldrb	r3, [r2, #0]
    36e8:	b2db      	uxtb	r3, r3
    36ea:	1c51      	adds	r1, r2, #1
    36ec:	62a9      	str	r1, [r5, #40]	; 0x28
    36ee:	7969      	ldrb	r1, [r5, #5]
    36f0:	2901      	cmp	r1, #1
    36f2:	d00e      	beq.n	3712 <_usart_interrupt_handler+0x5a>
    36f4:	b29b      	uxth	r3, r3
    36f6:	05db      	lsls	r3, r3, #23
    36f8:	0ddb      	lsrs	r3, r3, #23
    36fa:	8523      	strh	r3, [r4, #40]	; 0x28
    36fc:	8deb      	ldrh	r3, [r5, #46]	; 0x2e
    36fe:	3b01      	subs	r3, #1
    3700:	b29b      	uxth	r3, r3
    3702:	85eb      	strh	r3, [r5, #46]	; 0x2e
    3704:	2b00      	cmp	r3, #0
    3706:	d10c      	bne.n	3722 <_usart_interrupt_handler+0x6a>
    3708:	3301      	adds	r3, #1
    370a:	7523      	strb	r3, [r4, #20]
    370c:	3301      	adds	r3, #1
    370e:	75a3      	strb	r3, [r4, #22]
    3710:	e007      	b.n	3722 <_usart_interrupt_handler+0x6a>
    3712:	7851      	ldrb	r1, [r2, #1]
    3714:	0209      	lsls	r1, r1, #8
    3716:	430b      	orrs	r3, r1
    3718:	3202      	adds	r2, #2
    371a:	62aa      	str	r2, [r5, #40]	; 0x28
    371c:	e7eb      	b.n	36f6 <_usart_interrupt_handler+0x3e>
    371e:	2301      	movs	r3, #1
    3720:	7523      	strb	r3, [r4, #20]
    3722:	07b3      	lsls	r3, r6, #30
    3724:	d506      	bpl.n	3734 <_usart_interrupt_handler+0x7c>
    3726:	2302      	movs	r3, #2
    3728:	7523      	strb	r3, [r4, #20]
    372a:	2200      	movs	r2, #0
    372c:	3331      	adds	r3, #49	; 0x31
    372e:	54ea      	strb	r2, [r5, r3]
    3730:	07fb      	lsls	r3, r7, #31
    3732:	d41a      	bmi.n	376a <_usart_interrupt_handler+0xb2>
    3734:	0773      	lsls	r3, r6, #29
    3736:	d565      	bpl.n	3804 <_usart_interrupt_handler+0x14c>
    3738:	8dab      	ldrh	r3, [r5, #44]	; 0x2c
    373a:	b29b      	uxth	r3, r3
    373c:	2b00      	cmp	r3, #0
    373e:	d05f      	beq.n	3800 <_usart_interrupt_handler+0x148>
    3740:	8b63      	ldrh	r3, [r4, #26]
    3742:	b2db      	uxtb	r3, r3
    3744:	071a      	lsls	r2, r3, #28
    3746:	d414      	bmi.n	3772 <_usart_interrupt_handler+0xba>
    3748:	223f      	movs	r2, #63	; 0x3f
    374a:	4013      	ands	r3, r2
    374c:	2b00      	cmp	r3, #0
    374e:	d034      	beq.n	37ba <_usart_interrupt_handler+0x102>
    3750:	079a      	lsls	r2, r3, #30
    3752:	d511      	bpl.n	3778 <_usart_interrupt_handler+0xc0>
    3754:	221a      	movs	r2, #26
    3756:	2332      	movs	r3, #50	; 0x32
    3758:	54ea      	strb	r2, [r5, r3]
    375a:	3b30      	subs	r3, #48	; 0x30
    375c:	8363      	strh	r3, [r4, #26]
    375e:	077b      	lsls	r3, r7, #29
    3760:	d550      	bpl.n	3804 <_usart_interrupt_handler+0x14c>
    3762:	0028      	movs	r0, r5
    3764:	696b      	ldr	r3, [r5, #20]
    3766:	4798      	blx	r3
    3768:	e04c      	b.n	3804 <_usart_interrupt_handler+0x14c>
    376a:	0028      	movs	r0, r5
    376c:	68eb      	ldr	r3, [r5, #12]
    376e:	4798      	blx	r3
    3770:	e7e0      	b.n	3734 <_usart_interrupt_handler+0x7c>
    3772:	2237      	movs	r2, #55	; 0x37
    3774:	4013      	ands	r3, r2
    3776:	e7e9      	b.n	374c <_usart_interrupt_handler+0x94>
    3778:	075a      	lsls	r2, r3, #29
    377a:	d505      	bpl.n	3788 <_usart_interrupt_handler+0xd0>
    377c:	221e      	movs	r2, #30
    377e:	2332      	movs	r3, #50	; 0x32
    3780:	54ea      	strb	r2, [r5, r3]
    3782:	3b2e      	subs	r3, #46	; 0x2e
    3784:	8363      	strh	r3, [r4, #26]
    3786:	e7ea      	b.n	375e <_usart_interrupt_handler+0xa6>
    3788:	07da      	lsls	r2, r3, #31
    378a:	d505      	bpl.n	3798 <_usart_interrupt_handler+0xe0>
    378c:	2213      	movs	r2, #19
    378e:	2332      	movs	r3, #50	; 0x32
    3790:	54ea      	strb	r2, [r5, r3]
    3792:	3b31      	subs	r3, #49	; 0x31
    3794:	8363      	strh	r3, [r4, #26]
    3796:	e7e2      	b.n	375e <_usart_interrupt_handler+0xa6>
    3798:	06da      	lsls	r2, r3, #27
    379a:	d505      	bpl.n	37a8 <_usart_interrupt_handler+0xf0>
    379c:	2242      	movs	r2, #66	; 0x42
    379e:	2332      	movs	r3, #50	; 0x32
    37a0:	54ea      	strb	r2, [r5, r3]
    37a2:	3b22      	subs	r3, #34	; 0x22
    37a4:	8363      	strh	r3, [r4, #26]
    37a6:	e7da      	b.n	375e <_usart_interrupt_handler+0xa6>
    37a8:	2220      	movs	r2, #32
    37aa:	421a      	tst	r2, r3
    37ac:	d0d7      	beq.n	375e <_usart_interrupt_handler+0xa6>
    37ae:	3221      	adds	r2, #33	; 0x21
    37b0:	2332      	movs	r3, #50	; 0x32
    37b2:	54ea      	strb	r2, [r5, r3]
    37b4:	3b12      	subs	r3, #18
    37b6:	8363      	strh	r3, [r4, #26]
    37b8:	e7d1      	b.n	375e <_usart_interrupt_handler+0xa6>
    37ba:	8d23      	ldrh	r3, [r4, #40]	; 0x28
    37bc:	05db      	lsls	r3, r3, #23
    37be:	0ddb      	lsrs	r3, r3, #23
    37c0:	b2da      	uxtb	r2, r3
    37c2:	6a69      	ldr	r1, [r5, #36]	; 0x24
    37c4:	700a      	strb	r2, [r1, #0]
    37c6:	6a6a      	ldr	r2, [r5, #36]	; 0x24
    37c8:	1c51      	adds	r1, r2, #1
    37ca:	6269      	str	r1, [r5, #36]	; 0x24
    37cc:	7969      	ldrb	r1, [r5, #5]
    37ce:	2901      	cmp	r1, #1
    37d0:	d010      	beq.n	37f4 <_usart_interrupt_handler+0x13c>
    37d2:	8dab      	ldrh	r3, [r5, #44]	; 0x2c
    37d4:	3b01      	subs	r3, #1
    37d6:	b29b      	uxth	r3, r3
    37d8:	85ab      	strh	r3, [r5, #44]	; 0x2c
    37da:	2b00      	cmp	r3, #0
    37dc:	d112      	bne.n	3804 <_usart_interrupt_handler+0x14c>
    37de:	3304      	adds	r3, #4
    37e0:	7523      	strb	r3, [r4, #20]
    37e2:	2200      	movs	r2, #0
    37e4:	332e      	adds	r3, #46	; 0x2e
    37e6:	54ea      	strb	r2, [r5, r3]
    37e8:	07bb      	lsls	r3, r7, #30
    37ea:	d50b      	bpl.n	3804 <_usart_interrupt_handler+0x14c>
    37ec:	0028      	movs	r0, r5
    37ee:	692b      	ldr	r3, [r5, #16]
    37f0:	4798      	blx	r3
    37f2:	e007      	b.n	3804 <_usart_interrupt_handler+0x14c>
    37f4:	0a1b      	lsrs	r3, r3, #8
    37f6:	7053      	strb	r3, [r2, #1]
    37f8:	6a6b      	ldr	r3, [r5, #36]	; 0x24
    37fa:	3301      	adds	r3, #1
    37fc:	626b      	str	r3, [r5, #36]	; 0x24
    37fe:	e7e8      	b.n	37d2 <_usart_interrupt_handler+0x11a>
    3800:	2304      	movs	r3, #4
    3802:	7523      	strb	r3, [r4, #20]
    3804:	06f3      	lsls	r3, r6, #27
    3806:	d504      	bpl.n	3812 <_usart_interrupt_handler+0x15a>
    3808:	2310      	movs	r3, #16
    380a:	7523      	strb	r3, [r4, #20]
    380c:	7623      	strb	r3, [r4, #24]
    380e:	06fb      	lsls	r3, r7, #27
    3810:	d40e      	bmi.n	3830 <_usart_interrupt_handler+0x178>
    3812:	06b3      	lsls	r3, r6, #26
    3814:	d504      	bpl.n	3820 <_usart_interrupt_handler+0x168>
    3816:	2320      	movs	r3, #32
    3818:	7523      	strb	r3, [r4, #20]
    381a:	7623      	strb	r3, [r4, #24]
    381c:	073b      	lsls	r3, r7, #28
    381e:	d40b      	bmi.n	3838 <_usart_interrupt_handler+0x180>
    3820:	0733      	lsls	r3, r6, #28
    3822:	d504      	bpl.n	382e <_usart_interrupt_handler+0x176>
    3824:	2308      	movs	r3, #8
    3826:	7523      	strb	r3, [r4, #20]
    3828:	7623      	strb	r3, [r4, #24]
    382a:	06bb      	lsls	r3, r7, #26
    382c:	d408      	bmi.n	3840 <_usart_interrupt_handler+0x188>
    382e:	bdf8      	pop	{r3, r4, r5, r6, r7, pc}
    3830:	0028      	movs	r0, r5
    3832:	69eb      	ldr	r3, [r5, #28]
    3834:	4798      	blx	r3
    3836:	e7ec      	b.n	3812 <_usart_interrupt_handler+0x15a>
    3838:	0028      	movs	r0, r5
    383a:	69ab      	ldr	r3, [r5, #24]
    383c:	4798      	blx	r3
    383e:	e7ef      	b.n	3820 <_usart_interrupt_handler+0x168>
    3840:	6a2b      	ldr	r3, [r5, #32]
    3842:	0028      	movs	r0, r5
    3844:	4798      	blx	r3
    3846:	e7f2      	b.n	382e <_usart_interrupt_handler+0x176>
    3848:	20000b64 	.word	0x20000b64

0000384c <_tcc_interrupt_handler>:
    384c:	b5f0      	push	{r4, r5, r6, r7, lr}
    384e:	46c6      	mov	lr, r8
    3850:	b500      	push	{lr}
    3852:	0080      	lsls	r0, r0, #2
    3854:	4b0e      	ldr	r3, [pc, #56]	; (3890 <_tcc_interrupt_handler+0x44>)
    3856:	58c7      	ldr	r7, [r0, r3]
    3858:	683b      	ldr	r3, [r7, #0]
    385a:	6ade      	ldr	r6, [r3, #44]	; 0x2c
    385c:	6bbb      	ldr	r3, [r7, #56]	; 0x38
    385e:	6b7a      	ldr	r2, [r7, #52]	; 0x34
    3860:	4013      	ands	r3, r2
    3862:	401e      	ands	r6, r3
    3864:	2400      	movs	r4, #0
    3866:	4b0b      	ldr	r3, [pc, #44]	; (3894 <_tcc_interrupt_handler+0x48>)
    3868:	4698      	mov	r8, r3
    386a:	e002      	b.n	3872 <_tcc_interrupt_handler+0x26>
    386c:	3404      	adds	r4, #4
    386e:	2c30      	cmp	r4, #48	; 0x30
    3870:	d00a      	beq.n	3888 <_tcc_interrupt_handler+0x3c>
    3872:	4643      	mov	r3, r8
    3874:	58e5      	ldr	r5, [r4, r3]
    3876:	4235      	tst	r5, r6
    3878:	d0f8      	beq.n	386c <_tcc_interrupt_handler+0x20>
    387a:	193b      	adds	r3, r7, r4
    387c:	685b      	ldr	r3, [r3, #4]
    387e:	0038      	movs	r0, r7
    3880:	4798      	blx	r3
    3882:	683b      	ldr	r3, [r7, #0]
    3884:	62dd      	str	r5, [r3, #44]	; 0x2c
    3886:	e7f1      	b.n	386c <_tcc_interrupt_handler+0x20>
    3888:	bc04      	pop	{r2}
    388a:	4690      	mov	r8, r2
    388c:	bdf0      	pop	{r4, r5, r6, r7, pc}
    388e:	46c0      	nop			; (mov r8, r8)
    3890:	20000b04 	.word	0x20000b04
    3894:	0000abec 	.word	0x0000abec

00003898 <TCC0_Handler>:
    3898:	b510      	push	{r4, lr}
    389a:	2000      	movs	r0, #0
    389c:	4b01      	ldr	r3, [pc, #4]	; (38a4 <TCC0_Handler+0xc>)
    389e:	4798      	blx	r3
    38a0:	bd10      	pop	{r4, pc}
    38a2:	46c0      	nop			; (mov r8, r8)
    38a4:	0000384d 	.word	0x0000384d

000038a8 <TCC1_Handler>:
    38a8:	b510      	push	{r4, lr}
    38aa:	2001      	movs	r0, #1
    38ac:	4b01      	ldr	r3, [pc, #4]	; (38b4 <TCC1_Handler+0xc>)
    38ae:	4798      	blx	r3
    38b0:	bd10      	pop	{r4, pc}
    38b2:	46c0      	nop			; (mov r8, r8)
    38b4:	0000384d 	.word	0x0000384d

000038b8 <TCC2_Handler>:
    38b8:	b510      	push	{r4, lr}
    38ba:	2002      	movs	r0, #2
    38bc:	4b01      	ldr	r3, [pc, #4]	; (38c4 <TCC2_Handler+0xc>)
    38be:	4798      	blx	r3
    38c0:	bd10      	pop	{r4, pc}
    38c2:	46c0      	nop			; (mov r8, r8)
    38c4:	0000384d 	.word	0x0000384d

000038c8 <_read>:
    38c8:	b5f0      	push	{r4, r5, r6, r7, lr}
    38ca:	46c6      	mov	lr, r8
    38cc:	b500      	push	{lr}
    38ce:	000c      	movs	r4, r1
    38d0:	4690      	mov	r8, r2
    38d2:	2800      	cmp	r0, #0
    38d4:	d10f      	bne.n	38f6 <_read+0x2e>
    38d6:	2a00      	cmp	r2, #0
    38d8:	dd11      	ble.n	38fe <_read+0x36>
    38da:	188f      	adds	r7, r1, r2
    38dc:	4e09      	ldr	r6, [pc, #36]	; (3904 <_read+0x3c>)
    38de:	4d0a      	ldr	r5, [pc, #40]	; (3908 <_read+0x40>)
    38e0:	6830      	ldr	r0, [r6, #0]
    38e2:	0021      	movs	r1, r4
    38e4:	682b      	ldr	r3, [r5, #0]
    38e6:	4798      	blx	r3
    38e8:	3401      	adds	r4, #1
    38ea:	42bc      	cmp	r4, r7
    38ec:	d1f8      	bne.n	38e0 <_read+0x18>
    38ee:	4640      	mov	r0, r8
    38f0:	bc04      	pop	{r2}
    38f2:	4690      	mov	r8, r2
    38f4:	bdf0      	pop	{r4, r5, r6, r7, pc}
    38f6:	2301      	movs	r3, #1
    38f8:	425b      	negs	r3, r3
    38fa:	4698      	mov	r8, r3
    38fc:	e7f7      	b.n	38ee <_read+0x26>
    38fe:	4680      	mov	r8, r0
    3900:	e7f5      	b.n	38ee <_read+0x26>
    3902:	46c0      	nop			; (mov r8, r8)
    3904:	20000b18 	.word	0x20000b18
    3908:	20000b10 	.word	0x20000b10

0000390c <_write>:
    390c:	b5f0      	push	{r4, r5, r6, r7, lr}
    390e:	46c6      	mov	lr, r8
    3910:	b500      	push	{lr}
    3912:	000e      	movs	r6, r1
    3914:	0015      	movs	r5, r2
    3916:	3801      	subs	r0, #1
    3918:	2802      	cmp	r0, #2
    391a:	d810      	bhi.n	393e <_write+0x32>
    391c:	2a00      	cmp	r2, #0
    391e:	d011      	beq.n	3944 <_write+0x38>
    3920:	2400      	movs	r4, #0
    3922:	4b0c      	ldr	r3, [pc, #48]	; (3954 <_write+0x48>)
    3924:	4698      	mov	r8, r3
    3926:	4f0c      	ldr	r7, [pc, #48]	; (3958 <_write+0x4c>)
    3928:	4643      	mov	r3, r8
    392a:	6818      	ldr	r0, [r3, #0]
    392c:	5d31      	ldrb	r1, [r6, r4]
    392e:	683b      	ldr	r3, [r7, #0]
    3930:	4798      	blx	r3
    3932:	2800      	cmp	r0, #0
    3934:	db08      	blt.n	3948 <_write+0x3c>
    3936:	3401      	adds	r4, #1
    3938:	42a5      	cmp	r5, r4
    393a:	d1f5      	bne.n	3928 <_write+0x1c>
    393c:	e006      	b.n	394c <_write+0x40>
    393e:	2401      	movs	r4, #1
    3940:	4264      	negs	r4, r4
    3942:	e003      	b.n	394c <_write+0x40>
    3944:	0014      	movs	r4, r2
    3946:	e001      	b.n	394c <_write+0x40>
    3948:	2401      	movs	r4, #1
    394a:	4264      	negs	r4, r4
    394c:	0020      	movs	r0, r4
    394e:	bc04      	pop	{r2}
    3950:	4690      	mov	r8, r2
    3952:	bdf0      	pop	{r4, r5, r6, r7, pc}
    3954:	20000b18 	.word	0x20000b18
    3958:	20000b14 	.word	0x20000b14

0000395c <usart_serial_getchar>:
    395c:	b570      	push	{r4, r5, r6, lr}
    395e:	b082      	sub	sp, #8
    3960:	0005      	movs	r5, r0
    3962:	000e      	movs	r6, r1
    3964:	2200      	movs	r2, #0
    3966:	466b      	mov	r3, sp
    3968:	80da      	strh	r2, [r3, #6]
    396a:	4c06      	ldr	r4, [pc, #24]	; (3984 <usart_serial_getchar+0x28>)
    396c:	466b      	mov	r3, sp
    396e:	1d99      	adds	r1, r3, #6
    3970:	0028      	movs	r0, r5
    3972:	47a0      	blx	r4
    3974:	2800      	cmp	r0, #0
    3976:	d1f9      	bne.n	396c <usart_serial_getchar+0x10>
    3978:	466b      	mov	r3, sp
    397a:	3306      	adds	r3, #6
    397c:	881b      	ldrh	r3, [r3, #0]
    397e:	7033      	strb	r3, [r6, #0]
    3980:	b002      	add	sp, #8
    3982:	bd70      	pop	{r4, r5, r6, pc}
    3984:	000035b1 	.word	0x000035b1

00003988 <usart_serial_putchar>:
    3988:	b570      	push	{r4, r5, r6, lr}
    398a:	0005      	movs	r5, r0
    398c:	b28c      	uxth	r4, r1
    398e:	4e03      	ldr	r6, [pc, #12]	; (399c <usart_serial_putchar+0x14>)
    3990:	0021      	movs	r1, r4
    3992:	0028      	movs	r0, r5
    3994:	47b0      	blx	r6
    3996:	2800      	cmp	r0, #0
    3998:	d1fa      	bne.n	3990 <usart_serial_putchar+0x8>
    399a:	bd70      	pop	{r4, r5, r6, pc}
    399c:	00003585 	.word	0x00003585

000039a0 <USART_HOST_ISR_VECT>:
    39a0:	b510      	push	{r4, lr}
    39a2:	b082      	sub	sp, #8
    39a4:	466b      	mov	r3, sp
    39a6:	1ddc      	adds	r4, r3, #7
    39a8:	2201      	movs	r2, #1
    39aa:	0021      	movs	r1, r4
    39ac:	480f      	ldr	r0, [pc, #60]	; (39ec <USART_HOST_ISR_VECT+0x4c>)
    39ae:	4b10      	ldr	r3, [pc, #64]	; (39f0 <USART_HOST_ISR_VECT+0x50>)
    39b0:	4798      	blx	r3
    39b2:	b672      	cpsid	i
    39b4:	f3bf 8f5f 	dmb	sy
    39b8:	2200      	movs	r2, #0
    39ba:	4b0e      	ldr	r3, [pc, #56]	; (39f4 <USART_HOST_ISR_VECT+0x54>)
    39bc:	701a      	strb	r2, [r3, #0]
    39be:	4b0e      	ldr	r3, [pc, #56]	; (39f8 <USART_HOST_ISR_VECT+0x58>)
    39c0:	781b      	ldrb	r3, [r3, #0]
    39c2:	7821      	ldrb	r1, [r4, #0]
    39c4:	4a0d      	ldr	r2, [pc, #52]	; (39fc <USART_HOST_ISR_VECT+0x5c>)
    39c6:	54d1      	strb	r1, [r2, r3]
    39c8:	2b9b      	cmp	r3, #155	; 0x9b
    39ca:	d00a      	beq.n	39e2 <USART_HOST_ISR_VECT+0x42>
    39cc:	3301      	adds	r3, #1
    39ce:	4a0a      	ldr	r2, [pc, #40]	; (39f8 <USART_HOST_ISR_VECT+0x58>)
    39d0:	7013      	strb	r3, [r2, #0]
    39d2:	2201      	movs	r2, #1
    39d4:	4b07      	ldr	r3, [pc, #28]	; (39f4 <USART_HOST_ISR_VECT+0x54>)
    39d6:	701a      	strb	r2, [r3, #0]
    39d8:	f3bf 8f5f 	dmb	sy
    39dc:	b662      	cpsie	i
    39de:	b002      	add	sp, #8
    39e0:	bd10      	pop	{r4, pc}
    39e2:	2200      	movs	r2, #0
    39e4:	4b04      	ldr	r3, [pc, #16]	; (39f8 <USART_HOST_ISR_VECT+0x58>)
    39e6:	701a      	strb	r2, [r3, #0]
    39e8:	e7f3      	b.n	39d2 <USART_HOST_ISR_VECT+0x32>
    39ea:	46c0      	nop			; (mov r8, r8)
    39ec:	200000c8 	.word	0x200000c8
    39f0:	00003621 	.word	0x00003621
    39f4:	2000000c 	.word	0x2000000c
    39f8:	2000019c 	.word	0x2000019c
    39fc:	20000100 	.word	0x20000100

00003a00 <sio2host_init>:
    3a00:	b5f0      	push	{r4, r5, r6, r7, lr}
    3a02:	b091      	sub	sp, #68	; 0x44
    3a04:	2380      	movs	r3, #128	; 0x80
    3a06:	05db      	lsls	r3, r3, #23
    3a08:	9300      	str	r3, [sp, #0]
    3a0a:	2300      	movs	r3, #0
    3a0c:	9301      	str	r3, [sp, #4]
    3a0e:	22ff      	movs	r2, #255	; 0xff
    3a10:	4669      	mov	r1, sp
    3a12:	810a      	strh	r2, [r1, #8]
    3a14:	2200      	movs	r2, #0
    3a16:	728b      	strb	r3, [r1, #10]
    3a18:	72cb      	strb	r3, [r1, #11]
    3a1a:	2401      	movs	r4, #1
    3a1c:	2124      	movs	r1, #36	; 0x24
    3a1e:	4668      	mov	r0, sp
    3a20:	5444      	strb	r4, [r0, r1]
    3a22:	3101      	adds	r1, #1
    3a24:	5444      	strb	r4, [r0, r1]
    3a26:	3101      	adds	r1, #1
    3a28:	5443      	strb	r3, [r0, r1]
    3a2a:	3101      	adds	r1, #1
    3a2c:	5443      	strb	r3, [r0, r1]
    3a2e:	930a      	str	r3, [sp, #40]	; 0x28
    3a30:	3105      	adds	r1, #5
    3a32:	5443      	strb	r3, [r0, r1]
    3a34:	3101      	adds	r1, #1
    3a36:	5443      	strb	r3, [r0, r1]
    3a38:	9305      	str	r3, [sp, #20]
    3a3a:	8203      	strh	r3, [r0, #16]
    3a3c:	76c3      	strb	r3, [r0, #27]
    3a3e:	7602      	strb	r2, [r0, #24]
    3a40:	7702      	strb	r2, [r0, #28]
    3a42:	7642      	strb	r2, [r0, #25]
    3a44:	2313      	movs	r3, #19
    3a46:	7683      	strb	r3, [r0, #26]
    3a48:	7742      	strb	r2, [r0, #29]
    3a4a:	23c4      	movs	r3, #196	; 0xc4
    3a4c:	039b      	lsls	r3, r3, #14
    3a4e:	9303      	str	r3, [sp, #12]
    3a50:	2301      	movs	r3, #1
    3a52:	425b      	negs	r3, r3
    3a54:	930c      	str	r3, [sp, #48]	; 0x30
    3a56:	930d      	str	r3, [sp, #52]	; 0x34
    3a58:	4b2d      	ldr	r3, [pc, #180]	; (3b10 <sio2host_init+0x110>)
    3a5a:	930e      	str	r3, [sp, #56]	; 0x38
    3a5c:	4b2d      	ldr	r3, [pc, #180]	; (3b14 <sio2host_init+0x114>)
    3a5e:	930f      	str	r3, [sp, #60]	; 0x3c
    3a60:	23e1      	movs	r3, #225	; 0xe1
    3a62:	025b      	lsls	r3, r3, #9
    3a64:	9308      	str	r3, [sp, #32]
    3a66:	4d2c      	ldr	r5, [pc, #176]	; (3b18 <sio2host_init+0x118>)
    3a68:	4b2c      	ldr	r3, [pc, #176]	; (3b1c <sio2host_init+0x11c>)
    3a6a:	601d      	str	r5, [r3, #0]
    3a6c:	4a2c      	ldr	r2, [pc, #176]	; (3b20 <sio2host_init+0x120>)
    3a6e:	4b2d      	ldr	r3, [pc, #180]	; (3b24 <sio2host_init+0x124>)
    3a70:	601a      	str	r2, [r3, #0]
    3a72:	4a2d      	ldr	r2, [pc, #180]	; (3b28 <sio2host_init+0x128>)
    3a74:	4b2d      	ldr	r3, [pc, #180]	; (3b2c <sio2host_init+0x12c>)
    3a76:	601a      	str	r2, [r3, #0]
    3a78:	466a      	mov	r2, sp
    3a7a:	492d      	ldr	r1, [pc, #180]	; (3b30 <sio2host_init+0x130>)
    3a7c:	0028      	movs	r0, r5
    3a7e:	4b2d      	ldr	r3, [pc, #180]	; (3b34 <sio2host_init+0x134>)
    3a80:	4798      	blx	r3
    3a82:	4f2d      	ldr	r7, [pc, #180]	; (3b38 <sio2host_init+0x138>)
    3a84:	683b      	ldr	r3, [r7, #0]
    3a86:	6898      	ldr	r0, [r3, #8]
    3a88:	2100      	movs	r1, #0
    3a8a:	4e2c      	ldr	r6, [pc, #176]	; (3b3c <sio2host_init+0x13c>)
    3a8c:	47b0      	blx	r6
    3a8e:	683b      	ldr	r3, [r7, #0]
    3a90:	6858      	ldr	r0, [r3, #4]
    3a92:	2100      	movs	r1, #0
    3a94:	47b0      	blx	r6
    3a96:	682e      	ldr	r6, [r5, #0]
    3a98:	0030      	movs	r0, r6
    3a9a:	4b29      	ldr	r3, [pc, #164]	; (3b40 <sio2host_init+0x140>)
    3a9c:	4798      	blx	r3
    3a9e:	231f      	movs	r3, #31
    3aa0:	4018      	ands	r0, r3
    3aa2:	4084      	lsls	r4, r0
    3aa4:	4b27      	ldr	r3, [pc, #156]	; (3b44 <sio2host_init+0x144>)
    3aa6:	601c      	str	r4, [r3, #0]
    3aa8:	682a      	ldr	r2, [r5, #0]
    3aaa:	69d3      	ldr	r3, [r2, #28]
    3aac:	2b00      	cmp	r3, #0
    3aae:	d1fc      	bne.n	3aaa <sio2host_init+0xaa>
    3ab0:	6833      	ldr	r3, [r6, #0]
    3ab2:	2202      	movs	r2, #2
    3ab4:	4313      	orrs	r3, r2
    3ab6:	6033      	str	r3, [r6, #0]
    3ab8:	4b17      	ldr	r3, [pc, #92]	; (3b18 <sio2host_init+0x118>)
    3aba:	681b      	ldr	r3, [r3, #0]
    3abc:	69da      	ldr	r2, [r3, #28]
    3abe:	2a00      	cmp	r2, #0
    3ac0:	d1fc      	bne.n	3abc <sio2host_init+0xbc>
    3ac2:	6859      	ldr	r1, [r3, #4]
    3ac4:	2280      	movs	r2, #128	; 0x80
    3ac6:	0252      	lsls	r2, r2, #9
    3ac8:	430a      	orrs	r2, r1
    3aca:	605a      	str	r2, [r3, #4]
    3acc:	2101      	movs	r1, #1
    3ace:	4a12      	ldr	r2, [pc, #72]	; (3b18 <sio2host_init+0x118>)
    3ad0:	71d1      	strb	r1, [r2, #7]
    3ad2:	69da      	ldr	r2, [r3, #28]
    3ad4:	2a00      	cmp	r2, #0
    3ad6:	d1fc      	bne.n	3ad2 <sio2host_init+0xd2>
    3ad8:	69da      	ldr	r2, [r3, #28]
    3ada:	2a00      	cmp	r2, #0
    3adc:	d1fc      	bne.n	3ad8 <sio2host_init+0xd8>
    3ade:	6859      	ldr	r1, [r3, #4]
    3ae0:	2280      	movs	r2, #128	; 0x80
    3ae2:	0292      	lsls	r2, r2, #10
    3ae4:	430a      	orrs	r2, r1
    3ae6:	605a      	str	r2, [r3, #4]
    3ae8:	2101      	movs	r1, #1
    3aea:	4a0b      	ldr	r2, [pc, #44]	; (3b18 <sio2host_init+0x118>)
    3aec:	7191      	strb	r1, [r2, #6]
    3aee:	69da      	ldr	r2, [r3, #28]
    3af0:	2a00      	cmp	r2, #0
    3af2:	d1fc      	bne.n	3aee <sio2host_init+0xee>
    3af4:	4914      	ldr	r1, [pc, #80]	; (3b48 <sio2host_init+0x148>)
    3af6:	2000      	movs	r0, #0
    3af8:	4b14      	ldr	r3, [pc, #80]	; (3b4c <sio2host_init+0x14c>)
    3afa:	4798      	blx	r3
    3afc:	2204      	movs	r2, #4
    3afe:	4b0c      	ldr	r3, [pc, #48]	; (3b30 <sio2host_init+0x130>)
    3b00:	759a      	strb	r2, [r3, #22]
    3b02:	32fd      	adds	r2, #253	; 0xfd
    3b04:	32ff      	adds	r2, #255	; 0xff
    3b06:	4b0f      	ldr	r3, [pc, #60]	; (3b44 <sio2host_init+0x144>)
    3b08:	601a      	str	r2, [r3, #0]
    3b0a:	b011      	add	sp, #68	; 0x44
    3b0c:	bdf0      	pop	{r4, r5, r6, r7, pc}
    3b0e:	46c0      	nop			; (mov r8, r8)
    3b10:	00360003 	.word	0x00360003
    3b14:	00370003 	.word	0x00370003
    3b18:	200000c8 	.word	0x200000c8
    3b1c:	20000b18 	.word	0x20000b18
    3b20:	00003989 	.word	0x00003989
    3b24:	20000b14 	.word	0x20000b14
    3b28:	0000395d 	.word	0x0000395d
    3b2c:	20000b10 	.word	0x20000b10
    3b30:	42001c00 	.word	0x42001c00
    3b34:	00003241 	.word	0x00003241
    3b38:	20000030 	.word	0x20000030
    3b3c:	00008dd9 	.word	0x00008dd9
    3b40:	000046c9 	.word	0x000046c9
    3b44:	e000e100 	.word	0xe000e100
    3b48:	000039a1 	.word	0x000039a1
    3b4c:	0000468d 	.word	0x0000468d

00003b50 <sio2host_tx>:
    3b50:	b570      	push	{r4, r5, r6, lr}
    3b52:	000c      	movs	r4, r1
    3b54:	2200      	movs	r2, #0
    3b56:	4bcb      	ldr	r3, [pc, #812]	; (3e84 <sio2host_tx+0x334>)
    3b58:	601a      	str	r2, [r3, #0]
    3b5a:	2900      	cmp	r1, #0
    3b5c:	d008      	beq.n	3b70 <sio2host_tx+0x20>
    3b5e:	2300      	movs	r3, #0
    3b60:	4ec9      	ldr	r6, [pc, #804]	; (3e88 <sio2host_tx+0x338>)
    3b62:	4dc8      	ldr	r5, [pc, #800]	; (3e84 <sio2host_tx+0x334>)
    3b64:	5cc2      	ldrb	r2, [r0, r3]
    3b66:	559a      	strb	r2, [r3, r6]
    3b68:	3301      	adds	r3, #1
    3b6a:	602b      	str	r3, [r5, #0]
    3b6c:	428b      	cmp	r3, r1
    3b6e:	d3f9      	bcc.n	3b64 <sio2host_tx+0x14>
    3b70:	49c6      	ldr	r1, [pc, #792]	; (3e8c <sio2host_tx+0x33c>)
    3b72:	48c5      	ldr	r0, [pc, #788]	; (3e88 <sio2host_tx+0x338>)
    3b74:	4bc6      	ldr	r3, [pc, #792]	; (3e90 <sio2host_tx+0x340>)
    3b76:	4798      	blx	r3
    3b78:	2800      	cmp	r0, #0
    3b7a:	d04f      	beq.n	3c1c <sio2host_tx+0xcc>
    3b7c:	49c5      	ldr	r1, [pc, #788]	; (3e94 <sio2host_tx+0x344>)
    3b7e:	48c2      	ldr	r0, [pc, #776]	; (3e88 <sio2host_tx+0x338>)
    3b80:	4bc3      	ldr	r3, [pc, #780]	; (3e90 <sio2host_tx+0x340>)
    3b82:	4798      	blx	r3
    3b84:	2800      	cmp	r0, #0
    3b86:	d054      	beq.n	3c32 <sio2host_tx+0xe2>
    3b88:	49c3      	ldr	r1, [pc, #780]	; (3e98 <sio2host_tx+0x348>)
    3b8a:	48bf      	ldr	r0, [pc, #764]	; (3e88 <sio2host_tx+0x338>)
    3b8c:	4bc0      	ldr	r3, [pc, #768]	; (3e90 <sio2host_tx+0x340>)
    3b8e:	4798      	blx	r3
    3b90:	2800      	cmp	r0, #0
    3b92:	d057      	beq.n	3c44 <sio2host_tx+0xf4>
    3b94:	49c1      	ldr	r1, [pc, #772]	; (3e9c <sio2host_tx+0x34c>)
    3b96:	48bc      	ldr	r0, [pc, #752]	; (3e88 <sio2host_tx+0x338>)
    3b98:	4bbd      	ldr	r3, [pc, #756]	; (3e90 <sio2host_tx+0x340>)
    3b9a:	4798      	blx	r3
    3b9c:	2800      	cmp	r0, #0
    3b9e:	d05b      	beq.n	3c58 <sio2host_tx+0x108>
    3ba0:	49bf      	ldr	r1, [pc, #764]	; (3ea0 <sio2host_tx+0x350>)
    3ba2:	48b9      	ldr	r0, [pc, #740]	; (3e88 <sio2host_tx+0x338>)
    3ba4:	4bba      	ldr	r3, [pc, #744]	; (3e90 <sio2host_tx+0x340>)
    3ba6:	4798      	blx	r3
    3ba8:	2800      	cmp	r0, #0
    3baa:	d05e      	beq.n	3c6a <sio2host_tx+0x11a>
    3bac:	49bd      	ldr	r1, [pc, #756]	; (3ea4 <sio2host_tx+0x354>)
    3bae:	48b6      	ldr	r0, [pc, #728]	; (3e88 <sio2host_tx+0x338>)
    3bb0:	4bb7      	ldr	r3, [pc, #732]	; (3e90 <sio2host_tx+0x340>)
    3bb2:	4798      	blx	r3
    3bb4:	2800      	cmp	r0, #0
    3bb6:	d062      	beq.n	3c7e <sio2host_tx+0x12e>
    3bb8:	49bb      	ldr	r1, [pc, #748]	; (3ea8 <sio2host_tx+0x358>)
    3bba:	48b3      	ldr	r0, [pc, #716]	; (3e88 <sio2host_tx+0x338>)
    3bbc:	4bb4      	ldr	r3, [pc, #720]	; (3e90 <sio2host_tx+0x340>)
    3bbe:	4798      	blx	r3
    3bc0:	2800      	cmp	r0, #0
    3bc2:	d066      	beq.n	3c92 <sio2host_tx+0x142>
    3bc4:	49b9      	ldr	r1, [pc, #740]	; (3eac <sio2host_tx+0x35c>)
    3bc6:	48b0      	ldr	r0, [pc, #704]	; (3e88 <sio2host_tx+0x338>)
    3bc8:	4bb1      	ldr	r3, [pc, #708]	; (3e90 <sio2host_tx+0x340>)
    3bca:	4798      	blx	r3
    3bcc:	2800      	cmp	r0, #0
    3bce:	d06a      	beq.n	3ca6 <sio2host_tx+0x156>
    3bd0:	49b7      	ldr	r1, [pc, #732]	; (3eb0 <sio2host_tx+0x360>)
    3bd2:	48ad      	ldr	r0, [pc, #692]	; (3e88 <sio2host_tx+0x338>)
    3bd4:	4bae      	ldr	r3, [pc, #696]	; (3e90 <sio2host_tx+0x340>)
    3bd6:	4798      	blx	r3
    3bd8:	2800      	cmp	r0, #0
    3bda:	d100      	bne.n	3bde <sio2host_tx+0x8e>
    3bdc:	e06d      	b.n	3cba <sio2host_tx+0x16a>
    3bde:	49b5      	ldr	r1, [pc, #724]	; (3eb4 <sio2host_tx+0x364>)
    3be0:	48a9      	ldr	r0, [pc, #676]	; (3e88 <sio2host_tx+0x338>)
    3be2:	4bab      	ldr	r3, [pc, #684]	; (3e90 <sio2host_tx+0x340>)
    3be4:	4798      	blx	r3
    3be6:	2800      	cmp	r0, #0
    3be8:	d100      	bne.n	3bec <sio2host_tx+0x9c>
    3bea:	e070      	b.n	3cce <sio2host_tx+0x17e>
    3bec:	49b2      	ldr	r1, [pc, #712]	; (3eb8 <sio2host_tx+0x368>)
    3bee:	48a6      	ldr	r0, [pc, #664]	; (3e88 <sio2host_tx+0x338>)
    3bf0:	4ba7      	ldr	r3, [pc, #668]	; (3e90 <sio2host_tx+0x340>)
    3bf2:	4798      	blx	r3
    3bf4:	2800      	cmp	r0, #0
    3bf6:	d100      	bne.n	3bfa <sio2host_tx+0xaa>
    3bf8:	e073      	b.n	3ce2 <sio2host_tx+0x192>
    3bfa:	49b0      	ldr	r1, [pc, #704]	; (3ebc <sio2host_tx+0x36c>)
    3bfc:	48a2      	ldr	r0, [pc, #648]	; (3e88 <sio2host_tx+0x338>)
    3bfe:	4ba4      	ldr	r3, [pc, #656]	; (3e90 <sio2host_tx+0x340>)
    3c00:	4798      	blx	r3
    3c02:	2800      	cmp	r0, #0
    3c04:	d000      	beq.n	3c08 <sio2host_tx+0xb8>
    3c06:	e076      	b.n	3cf6 <sio2host_tx+0x1a6>
    3c08:	4bad      	ldr	r3, [pc, #692]	; (3ec0 <sio2host_tx+0x370>)
    3c0a:	2223      	movs	r2, #35	; 0x23
    3c0c:	701a      	strb	r2, [r3, #0]
    3c0e:	3210      	adds	r2, #16
    3c10:	705a      	strb	r2, [r3, #1]
    3c12:	321f      	adds	r2, #31
    3c14:	709a      	strb	r2, [r3, #2]
    3c16:	3a21      	subs	r2, #33	; 0x21
    3c18:	70da      	strb	r2, [r3, #3]
    3c1a:	e008      	b.n	3c2e <sio2host_tx+0xde>
    3c1c:	4ba8      	ldr	r3, [pc, #672]	; (3ec0 <sio2host_tx+0x370>)
    3c1e:	2223      	movs	r2, #35	; 0x23
    3c20:	701a      	strb	r2, [r3, #0]
    3c22:	320e      	adds	r2, #14
    3c24:	705a      	strb	r2, [r3, #1]
    3c26:	3215      	adds	r2, #21
    3c28:	709a      	strb	r2, [r3, #2]
    3c2a:	3a16      	subs	r2, #22
    3c2c:	70da      	strb	r2, [r3, #3]
    3c2e:	0020      	movs	r0, r4
    3c30:	bd70      	pop	{r4, r5, r6, pc}
    3c32:	4ba3      	ldr	r3, [pc, #652]	; (3ec0 <sio2host_tx+0x370>)
    3c34:	2223      	movs	r2, #35	; 0x23
    3c36:	701a      	strb	r2, [r3, #0]
    3c38:	320e      	adds	r2, #14
    3c3a:	705a      	strb	r2, [r3, #1]
    3c3c:	2146      	movs	r1, #70	; 0x46
    3c3e:	7099      	strb	r1, [r3, #2]
    3c40:	70da      	strb	r2, [r3, #3]
    3c42:	e7f4      	b.n	3c2e <sio2host_tx+0xde>
    3c44:	4b9e      	ldr	r3, [pc, #632]	; (3ec0 <sio2host_tx+0x370>)
    3c46:	2223      	movs	r2, #35	; 0x23
    3c48:	701a      	strb	r2, [r3, #0]
    3c4a:	320e      	adds	r2, #14
    3c4c:	705a      	strb	r2, [r3, #1]
    3c4e:	3221      	adds	r2, #33	; 0x21
    3c50:	709a      	strb	r2, [r3, #2]
    3c52:	3a22      	subs	r2, #34	; 0x22
    3c54:	70da      	strb	r2, [r3, #3]
    3c56:	e7ea      	b.n	3c2e <sio2host_tx+0xde>
    3c58:	4b99      	ldr	r3, [pc, #612]	; (3ec0 <sio2host_tx+0x370>)
    3c5a:	2223      	movs	r2, #35	; 0x23
    3c5c:	701a      	strb	r2, [r3, #0]
    3c5e:	320e      	adds	r2, #14
    3c60:	705a      	strb	r2, [r3, #1]
    3c62:	2152      	movs	r1, #82	; 0x52
    3c64:	7099      	strb	r1, [r3, #2]
    3c66:	70da      	strb	r2, [r3, #3]
    3c68:	e7e1      	b.n	3c2e <sio2host_tx+0xde>
    3c6a:	4b95      	ldr	r3, [pc, #596]	; (3ec0 <sio2host_tx+0x370>)
    3c6c:	2223      	movs	r2, #35	; 0x23
    3c6e:	701a      	strb	r2, [r3, #0]
    3c70:	320f      	adds	r2, #15
    3c72:	705a      	strb	r2, [r3, #1]
    3c74:	3214      	adds	r2, #20
    3c76:	709a      	strb	r2, [r3, #2]
    3c78:	3a16      	subs	r2, #22
    3c7a:	70da      	strb	r2, [r3, #3]
    3c7c:	e7d7      	b.n	3c2e <sio2host_tx+0xde>
    3c7e:	4b90      	ldr	r3, [pc, #576]	; (3ec0 <sio2host_tx+0x370>)
    3c80:	2223      	movs	r2, #35	; 0x23
    3c82:	701a      	strb	r2, [r3, #0]
    3c84:	320f      	adds	r2, #15
    3c86:	705a      	strb	r2, [r3, #1]
    3c88:	3214      	adds	r2, #20
    3c8a:	709a      	strb	r2, [r3, #2]
    3c8c:	3a15      	subs	r2, #21
    3c8e:	70da      	strb	r2, [r3, #3]
    3c90:	e7cd      	b.n	3c2e <sio2host_tx+0xde>
    3c92:	4b8b      	ldr	r3, [pc, #556]	; (3ec0 <sio2host_tx+0x370>)
    3c94:	2223      	movs	r2, #35	; 0x23
    3c96:	701a      	strb	r2, [r3, #0]
    3c98:	320f      	adds	r2, #15
    3c9a:	705a      	strb	r2, [r3, #1]
    3c9c:	3220      	adds	r2, #32
    3c9e:	709a      	strb	r2, [r3, #2]
    3ca0:	3a22      	subs	r2, #34	; 0x22
    3ca2:	70da      	strb	r2, [r3, #3]
    3ca4:	e7c3      	b.n	3c2e <sio2host_tx+0xde>
    3ca6:	4b86      	ldr	r3, [pc, #536]	; (3ec0 <sio2host_tx+0x370>)
    3ca8:	2223      	movs	r2, #35	; 0x23
    3caa:	701a      	strb	r2, [r3, #0]
    3cac:	320f      	adds	r2, #15
    3cae:	705a      	strb	r2, [r3, #1]
    3cb0:	3220      	adds	r2, #32
    3cb2:	709a      	strb	r2, [r3, #2]
    3cb4:	3a21      	subs	r2, #33	; 0x21
    3cb6:	70da      	strb	r2, [r3, #3]
    3cb8:	e7b9      	b.n	3c2e <sio2host_tx+0xde>
    3cba:	4b81      	ldr	r3, [pc, #516]	; (3ec0 <sio2host_tx+0x370>)
    3cbc:	2223      	movs	r2, #35	; 0x23
    3cbe:	701a      	strb	r2, [r3, #0]
    3cc0:	3210      	adds	r2, #16
    3cc2:	705a      	strb	r2, [r3, #1]
    3cc4:	3213      	adds	r2, #19
    3cc6:	709a      	strb	r2, [r3, #2]
    3cc8:	3a16      	subs	r2, #22
    3cca:	70da      	strb	r2, [r3, #3]
    3ccc:	e7af      	b.n	3c2e <sio2host_tx+0xde>
    3cce:	4b7c      	ldr	r3, [pc, #496]	; (3ec0 <sio2host_tx+0x370>)
    3cd0:	2223      	movs	r2, #35	; 0x23
    3cd2:	701a      	strb	r2, [r3, #0]
    3cd4:	3210      	adds	r2, #16
    3cd6:	705a      	strb	r2, [r3, #1]
    3cd8:	3213      	adds	r2, #19
    3cda:	709a      	strb	r2, [r3, #2]
    3cdc:	3a15      	subs	r2, #21
    3cde:	70da      	strb	r2, [r3, #3]
    3ce0:	e7a5      	b.n	3c2e <sio2host_tx+0xde>
    3ce2:	4b77      	ldr	r3, [pc, #476]	; (3ec0 <sio2host_tx+0x370>)
    3ce4:	2223      	movs	r2, #35	; 0x23
    3ce6:	701a      	strb	r2, [r3, #0]
    3ce8:	3210      	adds	r2, #16
    3cea:	705a      	strb	r2, [r3, #1]
    3cec:	321f      	adds	r2, #31
    3cee:	709a      	strb	r2, [r3, #2]
    3cf0:	3a22      	subs	r2, #34	; 0x22
    3cf2:	70da      	strb	r2, [r3, #3]
    3cf4:	e79b      	b.n	3c2e <sio2host_tx+0xde>
    3cf6:	4973      	ldr	r1, [pc, #460]	; (3ec4 <sio2host_tx+0x374>)
    3cf8:	4863      	ldr	r0, [pc, #396]	; (3e88 <sio2host_tx+0x338>)
    3cfa:	4b65      	ldr	r3, [pc, #404]	; (3e90 <sio2host_tx+0x340>)
    3cfc:	4798      	blx	r3
    3cfe:	2800      	cmp	r0, #0
    3d00:	d109      	bne.n	3d16 <sio2host_tx+0x1c6>
    3d02:	4b6f      	ldr	r3, [pc, #444]	; (3ec0 <sio2host_tx+0x370>)
    3d04:	2223      	movs	r2, #35	; 0x23
    3d06:	701a      	strb	r2, [r3, #0]
    3d08:	3211      	adds	r2, #17
    3d0a:	705a      	strb	r2, [r3, #1]
    3d0c:	3212      	adds	r2, #18
    3d0e:	709a      	strb	r2, [r3, #2]
    3d10:	3a16      	subs	r2, #22
    3d12:	70da      	strb	r2, [r3, #3]
    3d14:	e78b      	b.n	3c2e <sio2host_tx+0xde>
    3d16:	496c      	ldr	r1, [pc, #432]	; (3ec8 <sio2host_tx+0x378>)
    3d18:	485b      	ldr	r0, [pc, #364]	; (3e88 <sio2host_tx+0x338>)
    3d1a:	4b5d      	ldr	r3, [pc, #372]	; (3e90 <sio2host_tx+0x340>)
    3d1c:	4798      	blx	r3
    3d1e:	2800      	cmp	r0, #0
    3d20:	d01b      	beq.n	3d5a <sio2host_tx+0x20a>
    3d22:	496a      	ldr	r1, [pc, #424]	; (3ecc <sio2host_tx+0x37c>)
    3d24:	4858      	ldr	r0, [pc, #352]	; (3e88 <sio2host_tx+0x338>)
    3d26:	4b5a      	ldr	r3, [pc, #360]	; (3e90 <sio2host_tx+0x340>)
    3d28:	4798      	blx	r3
    3d2a:	2800      	cmp	r0, #0
    3d2c:	d01f      	beq.n	3d6e <sio2host_tx+0x21e>
    3d2e:	4968      	ldr	r1, [pc, #416]	; (3ed0 <sio2host_tx+0x380>)
    3d30:	4855      	ldr	r0, [pc, #340]	; (3e88 <sio2host_tx+0x338>)
    3d32:	4b57      	ldr	r3, [pc, #348]	; (3e90 <sio2host_tx+0x340>)
    3d34:	4798      	blx	r3
    3d36:	2800      	cmp	r0, #0
    3d38:	d023      	beq.n	3d82 <sio2host_tx+0x232>
    3d3a:	4966      	ldr	r1, [pc, #408]	; (3ed4 <sio2host_tx+0x384>)
    3d3c:	4852      	ldr	r0, [pc, #328]	; (3e88 <sio2host_tx+0x338>)
    3d3e:	4b54      	ldr	r3, [pc, #336]	; (3e90 <sio2host_tx+0x340>)
    3d40:	4798      	blx	r3
    3d42:	2800      	cmp	r0, #0
    3d44:	d127      	bne.n	3d96 <sio2host_tx+0x246>
    3d46:	4b5e      	ldr	r3, [pc, #376]	; (3ec0 <sio2host_tx+0x370>)
    3d48:	2223      	movs	r2, #35	; 0x23
    3d4a:	701a      	strb	r2, [r3, #0]
    3d4c:	3212      	adds	r2, #18
    3d4e:	705a      	strb	r2, [r3, #1]
    3d50:	3211      	adds	r2, #17
    3d52:	709a      	strb	r2, [r3, #2]
    3d54:	3a16      	subs	r2, #22
    3d56:	70da      	strb	r2, [r3, #3]
    3d58:	e769      	b.n	3c2e <sio2host_tx+0xde>
    3d5a:	4b59      	ldr	r3, [pc, #356]	; (3ec0 <sio2host_tx+0x370>)
    3d5c:	2223      	movs	r2, #35	; 0x23
    3d5e:	701a      	strb	r2, [r3, #0]
    3d60:	3211      	adds	r2, #17
    3d62:	705a      	strb	r2, [r3, #1]
    3d64:	3212      	adds	r2, #18
    3d66:	709a      	strb	r2, [r3, #2]
    3d68:	3a15      	subs	r2, #21
    3d6a:	70da      	strb	r2, [r3, #3]
    3d6c:	e75f      	b.n	3c2e <sio2host_tx+0xde>
    3d6e:	4b54      	ldr	r3, [pc, #336]	; (3ec0 <sio2host_tx+0x370>)
    3d70:	2223      	movs	r2, #35	; 0x23
    3d72:	701a      	strb	r2, [r3, #0]
    3d74:	3211      	adds	r2, #17
    3d76:	705a      	strb	r2, [r3, #1]
    3d78:	321e      	adds	r2, #30
    3d7a:	709a      	strb	r2, [r3, #2]
    3d7c:	3a22      	subs	r2, #34	; 0x22
    3d7e:	70da      	strb	r2, [r3, #3]
    3d80:	e755      	b.n	3c2e <sio2host_tx+0xde>
    3d82:	4b4f      	ldr	r3, [pc, #316]	; (3ec0 <sio2host_tx+0x370>)
    3d84:	2223      	movs	r2, #35	; 0x23
    3d86:	701a      	strb	r2, [r3, #0]
    3d88:	3211      	adds	r2, #17
    3d8a:	705a      	strb	r2, [r3, #1]
    3d8c:	321e      	adds	r2, #30
    3d8e:	709a      	strb	r2, [r3, #2]
    3d90:	3a21      	subs	r2, #33	; 0x21
    3d92:	70da      	strb	r2, [r3, #3]
    3d94:	e74b      	b.n	3c2e <sio2host_tx+0xde>
    3d96:	4950      	ldr	r1, [pc, #320]	; (3ed8 <sio2host_tx+0x388>)
    3d98:	483b      	ldr	r0, [pc, #236]	; (3e88 <sio2host_tx+0x338>)
    3d9a:	4b3d      	ldr	r3, [pc, #244]	; (3e90 <sio2host_tx+0x340>)
    3d9c:	4798      	blx	r3
    3d9e:	2800      	cmp	r0, #0
    3da0:	d109      	bne.n	3db6 <sio2host_tx+0x266>
    3da2:	4b47      	ldr	r3, [pc, #284]	; (3ec0 <sio2host_tx+0x370>)
    3da4:	2223      	movs	r2, #35	; 0x23
    3da6:	701a      	strb	r2, [r3, #0]
    3da8:	3212      	adds	r2, #18
    3daa:	705a      	strb	r2, [r3, #1]
    3dac:	3211      	adds	r2, #17
    3dae:	709a      	strb	r2, [r3, #2]
    3db0:	3a15      	subs	r2, #21
    3db2:	70da      	strb	r2, [r3, #3]
    3db4:	e73b      	b.n	3c2e <sio2host_tx+0xde>
    3db6:	4949      	ldr	r1, [pc, #292]	; (3edc <sio2host_tx+0x38c>)
    3db8:	4833      	ldr	r0, [pc, #204]	; (3e88 <sio2host_tx+0x338>)
    3dba:	4b35      	ldr	r3, [pc, #212]	; (3e90 <sio2host_tx+0x340>)
    3dbc:	4798      	blx	r3
    3dbe:	2800      	cmp	r0, #0
    3dc0:	d109      	bne.n	3dd6 <sio2host_tx+0x286>
    3dc2:	4b3f      	ldr	r3, [pc, #252]	; (3ec0 <sio2host_tx+0x370>)
    3dc4:	2223      	movs	r2, #35	; 0x23
    3dc6:	701a      	strb	r2, [r3, #0]
    3dc8:	3212      	adds	r2, #18
    3dca:	705a      	strb	r2, [r3, #1]
    3dcc:	321d      	adds	r2, #29
    3dce:	709a      	strb	r2, [r3, #2]
    3dd0:	3a22      	subs	r2, #34	; 0x22
    3dd2:	70da      	strb	r2, [r3, #3]
    3dd4:	e72b      	b.n	3c2e <sio2host_tx+0xde>
    3dd6:	4942      	ldr	r1, [pc, #264]	; (3ee0 <sio2host_tx+0x390>)
    3dd8:	482b      	ldr	r0, [pc, #172]	; (3e88 <sio2host_tx+0x338>)
    3dda:	4b2d      	ldr	r3, [pc, #180]	; (3e90 <sio2host_tx+0x340>)
    3ddc:	4798      	blx	r3
    3dde:	2800      	cmp	r0, #0
    3de0:	d109      	bne.n	3df6 <sio2host_tx+0x2a6>
    3de2:	4b37      	ldr	r3, [pc, #220]	; (3ec0 <sio2host_tx+0x370>)
    3de4:	2223      	movs	r2, #35	; 0x23
    3de6:	701a      	strb	r2, [r3, #0]
    3de8:	3212      	adds	r2, #18
    3dea:	705a      	strb	r2, [r3, #1]
    3dec:	321d      	adds	r2, #29
    3dee:	709a      	strb	r2, [r3, #2]
    3df0:	3a21      	subs	r2, #33	; 0x21
    3df2:	70da      	strb	r2, [r3, #3]
    3df4:	e71b      	b.n	3c2e <sio2host_tx+0xde>
    3df6:	493b      	ldr	r1, [pc, #236]	; (3ee4 <sio2host_tx+0x394>)
    3df8:	4823      	ldr	r0, [pc, #140]	; (3e88 <sio2host_tx+0x338>)
    3dfa:	4b25      	ldr	r3, [pc, #148]	; (3e90 <sio2host_tx+0x340>)
    3dfc:	4798      	blx	r3
    3dfe:	2800      	cmp	r0, #0
    3e00:	d109      	bne.n	3e16 <sio2host_tx+0x2c6>
    3e02:	4b2f      	ldr	r3, [pc, #188]	; (3ec0 <sio2host_tx+0x370>)
    3e04:	2223      	movs	r2, #35	; 0x23
    3e06:	701a      	strb	r2, [r3, #0]
    3e08:	3213      	adds	r2, #19
    3e0a:	705a      	strb	r2, [r3, #1]
    3e0c:	3210      	adds	r2, #16
    3e0e:	709a      	strb	r2, [r3, #2]
    3e10:	3a16      	subs	r2, #22
    3e12:	70da      	strb	r2, [r3, #3]
    3e14:	e70b      	b.n	3c2e <sio2host_tx+0xde>
    3e16:	4934      	ldr	r1, [pc, #208]	; (3ee8 <sio2host_tx+0x398>)
    3e18:	481b      	ldr	r0, [pc, #108]	; (3e88 <sio2host_tx+0x338>)
    3e1a:	4b1d      	ldr	r3, [pc, #116]	; (3e90 <sio2host_tx+0x340>)
    3e1c:	4798      	blx	r3
    3e1e:	2800      	cmp	r0, #0
    3e20:	d109      	bne.n	3e36 <sio2host_tx+0x2e6>
    3e22:	4b27      	ldr	r3, [pc, #156]	; (3ec0 <sio2host_tx+0x370>)
    3e24:	2223      	movs	r2, #35	; 0x23
    3e26:	701a      	strb	r2, [r3, #0]
    3e28:	3213      	adds	r2, #19
    3e2a:	705a      	strb	r2, [r3, #1]
    3e2c:	3210      	adds	r2, #16
    3e2e:	709a      	strb	r2, [r3, #2]
    3e30:	3a15      	subs	r2, #21
    3e32:	70da      	strb	r2, [r3, #3]
    3e34:	e6fb      	b.n	3c2e <sio2host_tx+0xde>
    3e36:	492d      	ldr	r1, [pc, #180]	; (3eec <sio2host_tx+0x39c>)
    3e38:	4813      	ldr	r0, [pc, #76]	; (3e88 <sio2host_tx+0x338>)
    3e3a:	4b15      	ldr	r3, [pc, #84]	; (3e90 <sio2host_tx+0x340>)
    3e3c:	4798      	blx	r3
    3e3e:	2800      	cmp	r0, #0
    3e40:	d109      	bne.n	3e56 <sio2host_tx+0x306>
    3e42:	4b1f      	ldr	r3, [pc, #124]	; (3ec0 <sio2host_tx+0x370>)
    3e44:	2223      	movs	r2, #35	; 0x23
    3e46:	701a      	strb	r2, [r3, #0]
    3e48:	3213      	adds	r2, #19
    3e4a:	705a      	strb	r2, [r3, #1]
    3e4c:	321c      	adds	r2, #28
    3e4e:	709a      	strb	r2, [r3, #2]
    3e50:	3a22      	subs	r2, #34	; 0x22
    3e52:	70da      	strb	r2, [r3, #3]
    3e54:	e6eb      	b.n	3c2e <sio2host_tx+0xde>
    3e56:	4926      	ldr	r1, [pc, #152]	; (3ef0 <sio2host_tx+0x3a0>)
    3e58:	480b      	ldr	r0, [pc, #44]	; (3e88 <sio2host_tx+0x338>)
    3e5a:	4b0d      	ldr	r3, [pc, #52]	; (3e90 <sio2host_tx+0x340>)
    3e5c:	4798      	blx	r3
    3e5e:	2800      	cmp	r0, #0
    3e60:	d109      	bne.n	3e76 <sio2host_tx+0x326>
    3e62:	4b17      	ldr	r3, [pc, #92]	; (3ec0 <sio2host_tx+0x370>)
    3e64:	2223      	movs	r2, #35	; 0x23
    3e66:	701a      	strb	r2, [r3, #0]
    3e68:	3213      	adds	r2, #19
    3e6a:	705a      	strb	r2, [r3, #1]
    3e6c:	321c      	adds	r2, #28
    3e6e:	709a      	strb	r2, [r3, #2]
    3e70:	3a21      	subs	r2, #33	; 0x21
    3e72:	70da      	strb	r2, [r3, #3]
    3e74:	e6db      	b.n	3c2e <sio2host_tx+0xde>
    3e76:	4b12      	ldr	r3, [pc, #72]	; (3ec0 <sio2host_tx+0x370>)
    3e78:	2223      	movs	r2, #35	; 0x23
    3e7a:	701a      	strb	r2, [r3, #0]
    3e7c:	705a      	strb	r2, [r3, #1]
    3e7e:	709a      	strb	r2, [r3, #2]
    3e80:	70da      	strb	r2, [r3, #3]
    3e82:	e6d4      	b.n	3c2e <sio2host_tx+0xde>
    3e84:	20000b1c 	.word	0x20000b1c
    3e88:	200000fc 	.word	0x200000fc
    3e8c:	0000ac1c 	.word	0x0000ac1c
    3e90:	00008f45 	.word	0x00008f45
    3e94:	0000ac24 	.word	0x0000ac24
    3e98:	0000ac2c 	.word	0x0000ac2c
    3e9c:	0000ac34 	.word	0x0000ac34
    3ea0:	0000ac3c 	.word	0x0000ac3c
    3ea4:	0000ac44 	.word	0x0000ac44
    3ea8:	0000ac4c 	.word	0x0000ac4c
    3eac:	0000ac54 	.word	0x0000ac54
    3eb0:	0000ac5c 	.word	0x0000ac5c
    3eb4:	0000ac64 	.word	0x0000ac64
    3eb8:	0000ac6c 	.word	0x0000ac6c
    3ebc:	0000ac74 	.word	0x0000ac74
    3ec0:	200003dc 	.word	0x200003dc
    3ec4:	0000ac7c 	.word	0x0000ac7c
    3ec8:	0000ac84 	.word	0x0000ac84
    3ecc:	0000ac8c 	.word	0x0000ac8c
    3ed0:	0000ac94 	.word	0x0000ac94
    3ed4:	0000ac9c 	.word	0x0000ac9c
    3ed8:	0000aca4 	.word	0x0000aca4
    3edc:	0000acac 	.word	0x0000acac
    3ee0:	0000acb4 	.word	0x0000acb4
    3ee4:	0000acbc 	.word	0x0000acbc
    3ee8:	0000acc4 	.word	0x0000acc4
    3eec:	0000accc 	.word	0x0000accc
    3ef0:	0000acd4 	.word	0x0000acd4

00003ef4 <usr_frame_received_cb>:
    3ef4:	b510      	push	{r4, lr}
    3ef6:	7a42      	ldrb	r2, [r0, #9]
    3ef8:	7a83      	ldrb	r3, [r0, #10]
    3efa:	021b      	lsls	r3, r3, #8
    3efc:	431a      	orrs	r2, r3
    3efe:	7ac3      	ldrb	r3, [r0, #11]
    3f00:	041b      	lsls	r3, r3, #16
    3f02:	4313      	orrs	r3, r2
    3f04:	7b00      	ldrb	r0, [r0, #12]
    3f06:	0600      	lsls	r0, r0, #24
    3f08:	4318      	orrs	r0, r3
    3f0a:	7801      	ldrb	r1, [r0, #0]
    3f0c:	390b      	subs	r1, #11
    3f0e:	b2c9      	uxtb	r1, r1
    3f10:	300a      	adds	r0, #10
    3f12:	4b01      	ldr	r3, [pc, #4]	; (3f18 <usr_frame_received_cb+0x24>)
    3f14:	4798      	blx	r3
    3f16:	bd10      	pop	{r4, pc}
    3f18:	00003b51 	.word	0x00003b51

00003f1c <usr_frame_transmitted_cb>:
    3f1c:	4770      	bx	lr
	...

00003f20 <wireless_init>:
    3f20:	b5f0      	push	{r4, r5, r6, r7, lr}
    3f22:	b083      	sub	sp, #12
    3f24:	4b12      	ldr	r3, [pc, #72]	; (3f70 <wireless_init+0x50>)
    3f26:	4798      	blx	r3
    3f28:	4b12      	ldr	r3, [pc, #72]	; (3f74 <wireless_init+0x54>)
    3f2a:	4798      	blx	r3
    3f2c:	4b12      	ldr	r3, [pc, #72]	; (3f78 <wireless_init+0x58>)
    3f2e:	4798      	blx	r3
    3f30:	2800      	cmp	r0, #0
    3f32:	d11c      	bne.n	3f6e <wireless_init+0x4e>
    3f34:	466b      	mov	r3, sp
    3f36:	1d99      	adds	r1, r3, #6
    3f38:	2302      	movs	r3, #2
    3f3a:	800b      	strh	r3, [r1, #0]
    3f3c:	af01      	add	r7, sp, #4
    3f3e:	4b0f      	ldr	r3, [pc, #60]	; (3f7c <wireless_init+0x5c>)
    3f40:	803b      	strh	r3, [r7, #0]
    3f42:	466b      	mov	r3, sp
    3f44:	1cde      	adds	r6, r3, #3
    3f46:	230b      	movs	r3, #11
    3f48:	7033      	strb	r3, [r6, #0]
    3f4a:	466b      	mov	r3, sp
    3f4c:	1c9d      	adds	r5, r3, #2
    3f4e:	2300      	movs	r3, #0
    3f50:	702b      	strb	r3, [r5, #0]
    3f52:	2053      	movs	r0, #83	; 0x53
    3f54:	4c0a      	ldr	r4, [pc, #40]	; (3f80 <wireless_init+0x60>)
    3f56:	47a0      	blx	r4
    3f58:	0039      	movs	r1, r7
    3f5a:	2050      	movs	r0, #80	; 0x50
    3f5c:	47a0      	blx	r4
    3f5e:	0031      	movs	r1, r6
    3f60:	2000      	movs	r0, #0
    3f62:	47a0      	blx	r4
    3f64:	0029      	movs	r1, r5
    3f66:	2004      	movs	r0, #4
    3f68:	47a0      	blx	r4
    3f6a:	b003      	add	sp, #12
    3f6c:	bdf0      	pop	{r4, r5, r6, r7, pc}
    3f6e:	e7fe      	b.n	3f6e <wireless_init+0x4e>
    3f70:	00003f95 	.word	0x00003f95
    3f74:	00004019 	.word	0x00004019
    3f78:	00006329 	.word	0x00006329
    3f7c:	00001234 	.word	0x00001234
    3f80:	00006619 	.word	0x00006619

00003f84 <init_data_reception>:
    3f84:	b510      	push	{r4, lr}
    3f86:	2006      	movs	r0, #6
    3f88:	4b01      	ldr	r3, [pc, #4]	; (3f90 <init_data_reception+0xc>)
    3f8a:	4798      	blx	r3
    3f8c:	bd10      	pop	{r4, pc}
    3f8e:	46c0      	nop			; (mov r8, r8)
    3f90:	00006971 	.word	0x00006971

00003f94 <system_board_init>:
    3f94:	b5f0      	push	{r4, r5, r6, r7, lr}
    3f96:	b083      	sub	sp, #12
    3f98:	ac01      	add	r4, sp, #4
    3f9a:	2600      	movs	r6, #0
    3f9c:	7026      	strb	r6, [r4, #0]
    3f9e:	2701      	movs	r7, #1
    3fa0:	7067      	strb	r7, [r4, #1]
    3fa2:	70a6      	strb	r6, [r4, #2]
    3fa4:	0021      	movs	r1, r4
    3fa6:	2005      	movs	r0, #5
    3fa8:	4d14      	ldr	r5, [pc, #80]	; (3ffc <system_board_init+0x68>)
    3faa:	47a8      	blx	r5
    3fac:	7027      	strb	r7, [r4, #0]
    3fae:	0021      	movs	r1, r4
    3fb0:	2052      	movs	r0, #82	; 0x52
    3fb2:	47a8      	blx	r5
    3fb4:	0021      	movs	r1, r4
    3fb6:	203e      	movs	r0, #62	; 0x3e
    3fb8:	47a8      	blx	r5
    3fba:	0021      	movs	r1, r4
    3fbc:	203f      	movs	r0, #63	; 0x3f
    3fbe:	47a8      	blx	r5
    3fc0:	0021      	movs	r1, r4
    3fc2:	202f      	movs	r0, #47	; 0x2f
    3fc4:	47a8      	blx	r5
    3fc6:	0021      	movs	r1, r4
    3fc8:	2014      	movs	r0, #20
    3fca:	47a8      	blx	r5
    3fcc:	2280      	movs	r2, #128	; 0x80
    3fce:	02d2      	lsls	r2, r2, #11
    3fd0:	4b0b      	ldr	r3, [pc, #44]	; (4000 <system_board_init+0x6c>)
    3fd2:	619a      	str	r2, [r3, #24]
    3fd4:	4b0b      	ldr	r3, [pc, #44]	; (4004 <system_board_init+0x70>)
    3fd6:	2280      	movs	r2, #128	; 0x80
    3fd8:	05d2      	lsls	r2, r2, #23
    3fda:	619a      	str	r2, [r3, #24]
    3fdc:	2280      	movs	r2, #128	; 0x80
    3fde:	0612      	lsls	r2, r2, #24
    3fe0:	619a      	str	r2, [r3, #24]
    3fe2:	2280      	movs	r2, #128	; 0x80
    3fe4:	0212      	lsls	r2, r2, #8
    3fe6:	619a      	str	r2, [r3, #24]
    3fe8:	2280      	movs	r2, #128	; 0x80
    3fea:	0352      	lsls	r2, r2, #13
    3fec:	4b06      	ldr	r3, [pc, #24]	; (4008 <system_board_init+0x74>)
    3fee:	619a      	str	r2, [r3, #24]
    3ff0:	7026      	strb	r6, [r4, #0]
    3ff2:	0021      	movs	r1, r4
    3ff4:	2053      	movs	r0, #83	; 0x53
    3ff6:	47a8      	blx	r5
    3ff8:	b003      	add	sp, #12
    3ffa:	bdf0      	pop	{r4, r5, r6, r7, pc}
    3ffc:	000042f1 	.word	0x000042f1
    4000:	41004500 	.word	0x41004500
    4004:	41004480 	.word	0x41004480
    4008:	41004400 	.word	0x41004400

0000400c <modules_init>:
    400c:	b510      	push	{r4, lr}
    400e:	4b01      	ldr	r3, [pc, #4]	; (4014 <modules_init+0x8>)
    4010:	4798      	blx	r3
    4012:	bd10      	pop	{r4, pc}
    4014:	00003a01 	.word	0x00003a01

00004018 <delay_init>:
    4018:	b570      	push	{r4, r5, r6, lr}
    401a:	2000      	movs	r0, #0
    401c:	4b08      	ldr	r3, [pc, #32]	; (4040 <delay_init+0x28>)
    401e:	4798      	blx	r3
    4020:	0005      	movs	r5, r0
    4022:	4c08      	ldr	r4, [pc, #32]	; (4044 <delay_init+0x2c>)
    4024:	21fa      	movs	r1, #250	; 0xfa
    4026:	0089      	lsls	r1, r1, #2
    4028:	47a0      	blx	r4
    402a:	4b07      	ldr	r3, [pc, #28]	; (4048 <delay_init+0x30>)
    402c:	6018      	str	r0, [r3, #0]
    402e:	4907      	ldr	r1, [pc, #28]	; (404c <delay_init+0x34>)
    4030:	0028      	movs	r0, r5
    4032:	47a0      	blx	r4
    4034:	4b06      	ldr	r3, [pc, #24]	; (4050 <delay_init+0x38>)
    4036:	6018      	str	r0, [r3, #0]
    4038:	2205      	movs	r2, #5
    403a:	4b06      	ldr	r3, [pc, #24]	; (4054 <delay_init+0x3c>)
    403c:	601a      	str	r2, [r3, #0]
    403e:	bd70      	pop	{r4, r5, r6, pc}
    4040:	0000510d 	.word	0x0000510d
    4044:	00008829 	.word	0x00008829
    4048:	20000004 	.word	0x20000004
    404c:	000f4240 	.word	0x000f4240
    4050:	20000008 	.word	0x20000008
    4054:	e000e010 	.word	0xe000e010

00004058 <delay_cycles_us>:
    4058:	b530      	push	{r4, r5, lr}
    405a:	4b08      	ldr	r3, [pc, #32]	; (407c <delay_cycles_us+0x24>)
    405c:	681c      	ldr	r4, [r3, #0]
    405e:	4a08      	ldr	r2, [pc, #32]	; (4080 <delay_cycles_us+0x28>)
    4060:	2500      	movs	r5, #0
    4062:	2180      	movs	r1, #128	; 0x80
    4064:	0249      	lsls	r1, r1, #9
    4066:	3801      	subs	r0, #1
    4068:	d307      	bcc.n	407a <delay_cycles_us+0x22>
    406a:	2c00      	cmp	r4, #0
    406c:	d0fb      	beq.n	4066 <delay_cycles_us+0xe>
    406e:	6054      	str	r4, [r2, #4]
    4070:	6095      	str	r5, [r2, #8]
    4072:	6813      	ldr	r3, [r2, #0]
    4074:	420b      	tst	r3, r1
    4076:	d0fc      	beq.n	4072 <delay_cycles_us+0x1a>
    4078:	e7f5      	b.n	4066 <delay_cycles_us+0xe>
    407a:	bd30      	pop	{r4, r5, pc}
    407c:	20000008 	.word	0x20000008
    4080:	e000e010 	.word	0xe000e010

00004084 <delay_cycles_ms>:
    4084:	b530      	push	{r4, r5, lr}
    4086:	4b08      	ldr	r3, [pc, #32]	; (40a8 <delay_cycles_ms+0x24>)
    4088:	681c      	ldr	r4, [r3, #0]
    408a:	4a08      	ldr	r2, [pc, #32]	; (40ac <delay_cycles_ms+0x28>)
    408c:	2500      	movs	r5, #0
    408e:	2180      	movs	r1, #128	; 0x80
    4090:	0249      	lsls	r1, r1, #9
    4092:	3801      	subs	r0, #1
    4094:	d307      	bcc.n	40a6 <delay_cycles_ms+0x22>
    4096:	2c00      	cmp	r4, #0
    4098:	d0fb      	beq.n	4092 <delay_cycles_ms+0xe>
    409a:	6054      	str	r4, [r2, #4]
    409c:	6095      	str	r5, [r2, #8]
    409e:	6813      	ldr	r3, [r2, #0]
    40a0:	420b      	tst	r3, r1
    40a2:	d0fc      	beq.n	409e <delay_cycles_ms+0x1a>
    40a4:	e7f5      	b.n	4092 <delay_cycles_ms+0xe>
    40a6:	bd30      	pop	{r4, r5, pc}
    40a8:	20000004 	.word	0x20000004
    40ac:	e000e010 	.word	0xe000e010

000040b0 <cpu_irq_enter_critical>:
    40b0:	4b0c      	ldr	r3, [pc, #48]	; (40e4 <cpu_irq_enter_critical+0x34>)
    40b2:	681b      	ldr	r3, [r3, #0]
    40b4:	2b00      	cmp	r3, #0
    40b6:	d106      	bne.n	40c6 <cpu_irq_enter_critical+0x16>
    40b8:	f3ef 8310 	mrs	r3, PRIMASK
    40bc:	2b00      	cmp	r3, #0
    40be:	d007      	beq.n	40d0 <cpu_irq_enter_critical+0x20>
    40c0:	2200      	movs	r2, #0
    40c2:	4b09      	ldr	r3, [pc, #36]	; (40e8 <cpu_irq_enter_critical+0x38>)
    40c4:	701a      	strb	r2, [r3, #0]
    40c6:	4a07      	ldr	r2, [pc, #28]	; (40e4 <cpu_irq_enter_critical+0x34>)
    40c8:	6813      	ldr	r3, [r2, #0]
    40ca:	3301      	adds	r3, #1
    40cc:	6013      	str	r3, [r2, #0]
    40ce:	4770      	bx	lr
    40d0:	b672      	cpsid	i
    40d2:	f3bf 8f5f 	dmb	sy
    40d6:	2200      	movs	r2, #0
    40d8:	4b04      	ldr	r3, [pc, #16]	; (40ec <cpu_irq_enter_critical+0x3c>)
    40da:	701a      	strb	r2, [r3, #0]
    40dc:	3201      	adds	r2, #1
    40de:	4b02      	ldr	r3, [pc, #8]	; (40e8 <cpu_irq_enter_critical+0x38>)
    40e0:	701a      	strb	r2, [r3, #0]
    40e2:	e7f0      	b.n	40c6 <cpu_irq_enter_critical+0x16>
    40e4:	200001a0 	.word	0x200001a0
    40e8:	200001a4 	.word	0x200001a4
    40ec:	2000000c 	.word	0x2000000c

000040f0 <cpu_irq_leave_critical>:
    40f0:	4b08      	ldr	r3, [pc, #32]	; (4114 <cpu_irq_leave_critical+0x24>)
    40f2:	681a      	ldr	r2, [r3, #0]
    40f4:	3a01      	subs	r2, #1
    40f6:	601a      	str	r2, [r3, #0]
    40f8:	681b      	ldr	r3, [r3, #0]
    40fa:	2b00      	cmp	r3, #0
    40fc:	d109      	bne.n	4112 <cpu_irq_leave_critical+0x22>
    40fe:	4b06      	ldr	r3, [pc, #24]	; (4118 <cpu_irq_leave_critical+0x28>)
    4100:	781b      	ldrb	r3, [r3, #0]
    4102:	2b00      	cmp	r3, #0
    4104:	d005      	beq.n	4112 <cpu_irq_leave_critical+0x22>
    4106:	2201      	movs	r2, #1
    4108:	4b04      	ldr	r3, [pc, #16]	; (411c <cpu_irq_leave_critical+0x2c>)
    410a:	701a      	strb	r2, [r3, #0]
    410c:	f3bf 8f5f 	dmb	sy
    4110:	b662      	cpsie	i
    4112:	4770      	bx	lr
    4114:	200001a0 	.word	0x200001a0
    4118:	200001a4 	.word	0x200001a4
    411c:	2000000c 	.word	0x2000000c

00004120 <extint_register_callback>:
    4120:	2317      	movs	r3, #23
    4122:	2a00      	cmp	r2, #0
    4124:	d001      	beq.n	412a <extint_register_callback+0xa>
    4126:	0018      	movs	r0, r3
    4128:	4770      	bx	lr
    412a:	008b      	lsls	r3, r1, #2
    412c:	4a06      	ldr	r2, [pc, #24]	; (4148 <extint_register_callback+0x28>)
    412e:	589b      	ldr	r3, [r3, r2]
    4130:	2b00      	cmp	r3, #0
    4132:	d003      	beq.n	413c <extint_register_callback+0x1c>
    4134:	4283      	cmp	r3, r0
    4136:	d005      	beq.n	4144 <extint_register_callback+0x24>
    4138:	231d      	movs	r3, #29
    413a:	e7f4      	b.n	4126 <extint_register_callback+0x6>
    413c:	0089      	lsls	r1, r1, #2
    413e:	5088      	str	r0, [r1, r2]
    4140:	2300      	movs	r3, #0
    4142:	e7f0      	b.n	4126 <extint_register_callback+0x6>
    4144:	2300      	movs	r3, #0
    4146:	e7ee      	b.n	4126 <extint_register_callback+0x6>
    4148:	20000b24 	.word	0x20000b24

0000414c <extint_chan_enable_callback>:
    414c:	2317      	movs	r3, #23
    414e:	2900      	cmp	r1, #0
    4150:	d001      	beq.n	4156 <extint_chan_enable_callback+0xa>
    4152:	0018      	movs	r0, r3
    4154:	4770      	bx	lr
    4156:	2200      	movs	r2, #0
    4158:	281f      	cmp	r0, #31
    415a:	d800      	bhi.n	415e <extint_chan_enable_callback+0x12>
    415c:	4a02      	ldr	r2, [pc, #8]	; (4168 <extint_chan_enable_callback+0x1c>)
    415e:	2301      	movs	r3, #1
    4160:	4083      	lsls	r3, r0
    4162:	60d3      	str	r3, [r2, #12]
    4164:	2300      	movs	r3, #0
    4166:	e7f4      	b.n	4152 <extint_chan_enable_callback+0x6>
    4168:	40001800 	.word	0x40001800

0000416c <extint_chan_disable_callback>:
    416c:	2317      	movs	r3, #23
    416e:	2900      	cmp	r1, #0
    4170:	d001      	beq.n	4176 <extint_chan_disable_callback+0xa>
    4172:	0018      	movs	r0, r3
    4174:	4770      	bx	lr
    4176:	2200      	movs	r2, #0
    4178:	281f      	cmp	r0, #31
    417a:	d800      	bhi.n	417e <extint_chan_disable_callback+0x12>
    417c:	4a02      	ldr	r2, [pc, #8]	; (4188 <extint_chan_disable_callback+0x1c>)
    417e:	2301      	movs	r3, #1
    4180:	4083      	lsls	r3, r0
    4182:	6093      	str	r3, [r2, #8]
    4184:	2300      	movs	r3, #0
    4186:	e7f4      	b.n	4172 <extint_chan_disable_callback+0x6>
    4188:	40001800 	.word	0x40001800

0000418c <EIC_Handler>:
    418c:	b570      	push	{r4, r5, r6, lr}
    418e:	2200      	movs	r2, #0
    4190:	4b10      	ldr	r3, [pc, #64]	; (41d4 <EIC_Handler+0x48>)
    4192:	701a      	strb	r2, [r3, #0]
    4194:	2300      	movs	r3, #0
    4196:	4910      	ldr	r1, [pc, #64]	; (41d8 <EIC_Handler+0x4c>)
    4198:	251f      	movs	r5, #31
    419a:	4e10      	ldr	r6, [pc, #64]	; (41dc <EIC_Handler+0x50>)
    419c:	4c0d      	ldr	r4, [pc, #52]	; (41d4 <EIC_Handler+0x48>)
    419e:	e00a      	b.n	41b6 <EIC_Handler+0x2a>
    41a0:	490d      	ldr	r1, [pc, #52]	; (41d8 <EIC_Handler+0x4c>)
    41a2:	e008      	b.n	41b6 <EIC_Handler+0x2a>
    41a4:	7823      	ldrb	r3, [r4, #0]
    41a6:	3301      	adds	r3, #1
    41a8:	b2db      	uxtb	r3, r3
    41aa:	7023      	strb	r3, [r4, #0]
    41ac:	2b0f      	cmp	r3, #15
    41ae:	d810      	bhi.n	41d2 <EIC_Handler+0x46>
    41b0:	2100      	movs	r1, #0
    41b2:	2b1f      	cmp	r3, #31
    41b4:	d9f4      	bls.n	41a0 <EIC_Handler+0x14>
    41b6:	0028      	movs	r0, r5
    41b8:	4018      	ands	r0, r3
    41ba:	2201      	movs	r2, #1
    41bc:	4082      	lsls	r2, r0
    41be:	6908      	ldr	r0, [r1, #16]
    41c0:	4210      	tst	r0, r2
    41c2:	d0ef      	beq.n	41a4 <EIC_Handler+0x18>
    41c4:	610a      	str	r2, [r1, #16]
    41c6:	009b      	lsls	r3, r3, #2
    41c8:	599b      	ldr	r3, [r3, r6]
    41ca:	2b00      	cmp	r3, #0
    41cc:	d0ea      	beq.n	41a4 <EIC_Handler+0x18>
    41ce:	4798      	blx	r3
    41d0:	e7e8      	b.n	41a4 <EIC_Handler+0x18>
    41d2:	bd70      	pop	{r4, r5, r6, pc}
    41d4:	20000b20 	.word	0x20000b20
    41d8:	40001800 	.word	0x40001800
    41dc:	20000b24 	.word	0x20000b24

000041e0 <_extint_enable>:
    41e0:	4a04      	ldr	r2, [pc, #16]	; (41f4 <_extint_enable+0x14>)
    41e2:	7813      	ldrb	r3, [r2, #0]
    41e4:	2102      	movs	r1, #2
    41e6:	430b      	orrs	r3, r1
    41e8:	7013      	strb	r3, [r2, #0]
    41ea:	7853      	ldrb	r3, [r2, #1]
    41ec:	b25b      	sxtb	r3, r3
    41ee:	2b00      	cmp	r3, #0
    41f0:	dbfb      	blt.n	41ea <_extint_enable+0xa>
    41f2:	4770      	bx	lr
    41f4:	40001800 	.word	0x40001800

000041f8 <_system_extint_init>:
    41f8:	b500      	push	{lr}
    41fa:	b083      	sub	sp, #12
    41fc:	4a12      	ldr	r2, [pc, #72]	; (4248 <_system_extint_init+0x50>)
    41fe:	6993      	ldr	r3, [r2, #24]
    4200:	2140      	movs	r1, #64	; 0x40
    4202:	430b      	orrs	r3, r1
    4204:	6193      	str	r3, [r2, #24]
    4206:	a901      	add	r1, sp, #4
    4208:	2300      	movs	r3, #0
    420a:	700b      	strb	r3, [r1, #0]
    420c:	2005      	movs	r0, #5
    420e:	4b0f      	ldr	r3, [pc, #60]	; (424c <_system_extint_init+0x54>)
    4210:	4798      	blx	r3
    4212:	2005      	movs	r0, #5
    4214:	4b0e      	ldr	r3, [pc, #56]	; (4250 <_system_extint_init+0x58>)
    4216:	4798      	blx	r3
    4218:	4a0e      	ldr	r2, [pc, #56]	; (4254 <_system_extint_init+0x5c>)
    421a:	7813      	ldrb	r3, [r2, #0]
    421c:	2101      	movs	r1, #1
    421e:	430b      	orrs	r3, r1
    4220:	7013      	strb	r3, [r2, #0]
    4222:	7853      	ldrb	r3, [r2, #1]
    4224:	b25b      	sxtb	r3, r3
    4226:	2b00      	cmp	r3, #0
    4228:	dbfb      	blt.n	4222 <_system_extint_init+0x2a>
    422a:	4b0b      	ldr	r3, [pc, #44]	; (4258 <_system_extint_init+0x60>)
    422c:	0019      	movs	r1, r3
    422e:	3140      	adds	r1, #64	; 0x40
    4230:	2200      	movs	r2, #0
    4232:	c304      	stmia	r3!, {r2}
    4234:	4299      	cmp	r1, r3
    4236:	d1fc      	bne.n	4232 <_system_extint_init+0x3a>
    4238:	2210      	movs	r2, #16
    423a:	4b08      	ldr	r3, [pc, #32]	; (425c <_system_extint_init+0x64>)
    423c:	601a      	str	r2, [r3, #0]
    423e:	4b08      	ldr	r3, [pc, #32]	; (4260 <_system_extint_init+0x68>)
    4240:	4798      	blx	r3
    4242:	b003      	add	sp, #12
    4244:	bd00      	pop	{pc}
    4246:	46c0      	nop			; (mov r8, r8)
    4248:	40000400 	.word	0x40000400
    424c:	00005225 	.word	0x00005225
    4250:	00005199 	.word	0x00005199
    4254:	40001800 	.word	0x40001800
    4258:	20000b24 	.word	0x20000b24
    425c:	e000e100 	.word	0xe000e100
    4260:	000041e1 	.word	0x000041e1

00004264 <extint_chan_get_config_defaults>:
    4264:	2300      	movs	r3, #0
    4266:	6003      	str	r3, [r0, #0]
    4268:	6043      	str	r3, [r0, #4]
    426a:	2201      	movs	r2, #1
    426c:	7202      	strb	r2, [r0, #8]
    426e:	7242      	strb	r2, [r0, #9]
    4270:	7283      	strb	r3, [r0, #10]
    4272:	3302      	adds	r3, #2
    4274:	72c3      	strb	r3, [r0, #11]
    4276:	4770      	bx	lr

00004278 <extint_chan_set_config>:
    4278:	b5f0      	push	{r4, r5, r6, r7, lr}
    427a:	b083      	sub	sp, #12
    427c:	0005      	movs	r5, r0
    427e:	000c      	movs	r4, r1
    4280:	a901      	add	r1, sp, #4
    4282:	2300      	movs	r3, #0
    4284:	704b      	strb	r3, [r1, #1]
    4286:	70cb      	strb	r3, [r1, #3]
    4288:	7923      	ldrb	r3, [r4, #4]
    428a:	700b      	strb	r3, [r1, #0]
    428c:	7a23      	ldrb	r3, [r4, #8]
    428e:	708b      	strb	r3, [r1, #2]
    4290:	7820      	ldrb	r0, [r4, #0]
    4292:	4b15      	ldr	r3, [pc, #84]	; (42e8 <extint_chan_set_config+0x70>)
    4294:	4798      	blx	r3
    4296:	2000      	movs	r0, #0
    4298:	2d1f      	cmp	r5, #31
    429a:	d800      	bhi.n	429e <extint_chan_set_config+0x26>
    429c:	4813      	ldr	r0, [pc, #76]	; (42ec <extint_chan_set_config+0x74>)
    429e:	2207      	movs	r2, #7
    42a0:	402a      	ands	r2, r5
    42a2:	0092      	lsls	r2, r2, #2
    42a4:	7ae7      	ldrb	r7, [r4, #11]
    42a6:	7aa3      	ldrb	r3, [r4, #10]
    42a8:	2b00      	cmp	r3, #0
    42aa:	d001      	beq.n	42b0 <extint_chan_set_config+0x38>
    42ac:	2308      	movs	r3, #8
    42ae:	431f      	orrs	r7, r3
    42b0:	08eb      	lsrs	r3, r5, #3
    42b2:	009b      	lsls	r3, r3, #2
    42b4:	18c3      	adds	r3, r0, r3
    42b6:	6999      	ldr	r1, [r3, #24]
    42b8:	260f      	movs	r6, #15
    42ba:	4096      	lsls	r6, r2
    42bc:	43b1      	bics	r1, r6
    42be:	4097      	lsls	r7, r2
    42c0:	003a      	movs	r2, r7
    42c2:	430a      	orrs	r2, r1
    42c4:	619a      	str	r2, [r3, #24]
    42c6:	7a63      	ldrb	r3, [r4, #9]
    42c8:	2b00      	cmp	r3, #0
    42ca:	d106      	bne.n	42da <extint_chan_set_config+0x62>
    42cc:	6943      	ldr	r3, [r0, #20]
    42ce:	2201      	movs	r2, #1
    42d0:	40aa      	lsls	r2, r5
    42d2:	4393      	bics	r3, r2
    42d4:	6143      	str	r3, [r0, #20]
    42d6:	b003      	add	sp, #12
    42d8:	bdf0      	pop	{r4, r5, r6, r7, pc}
    42da:	6942      	ldr	r2, [r0, #20]
    42dc:	2301      	movs	r3, #1
    42de:	40ab      	lsls	r3, r5
    42e0:	4313      	orrs	r3, r2
    42e2:	6143      	str	r3, [r0, #20]
    42e4:	e7f7      	b.n	42d6 <extint_chan_set_config+0x5e>
    42e6:	46c0      	nop			; (mov r8, r8)
    42e8:	0000531d 	.word	0x0000531d
    42ec:	40001800 	.word	0x40001800

000042f0 <port_pin_set_config>:
    42f0:	b500      	push	{lr}
    42f2:	b083      	sub	sp, #12
    42f4:	ab01      	add	r3, sp, #4
    42f6:	2280      	movs	r2, #128	; 0x80
    42f8:	701a      	strb	r2, [r3, #0]
    42fa:	780a      	ldrb	r2, [r1, #0]
    42fc:	705a      	strb	r2, [r3, #1]
    42fe:	784a      	ldrb	r2, [r1, #1]
    4300:	709a      	strb	r2, [r3, #2]
    4302:	788a      	ldrb	r2, [r1, #2]
    4304:	70da      	strb	r2, [r3, #3]
    4306:	0019      	movs	r1, r3
    4308:	4b01      	ldr	r3, [pc, #4]	; (4310 <port_pin_set_config+0x20>)
    430a:	4798      	blx	r3
    430c:	b003      	add	sp, #12
    430e:	bd00      	pop	{pc}
    4310:	0000531d 	.word	0x0000531d

00004314 <long_division>:
    4314:	b5f0      	push	{r4, r5, r6, r7, lr}
    4316:	46de      	mov	lr, fp
    4318:	4657      	mov	r7, sl
    431a:	464e      	mov	r6, r9
    431c:	4645      	mov	r5, r8
    431e:	b5e0      	push	{r5, r6, r7, lr}
    4320:	b087      	sub	sp, #28
    4322:	4680      	mov	r8, r0
    4324:	9104      	str	r1, [sp, #16]
    4326:	0016      	movs	r6, r2
    4328:	001f      	movs	r7, r3
    432a:	2200      	movs	r2, #0
    432c:	2300      	movs	r3, #0
    432e:	2100      	movs	r1, #0
    4330:	468b      	mov	fp, r1
    4332:	243f      	movs	r4, #63	; 0x3f
    4334:	2001      	movs	r0, #1
    4336:	0021      	movs	r1, r4
    4338:	9600      	str	r6, [sp, #0]
    433a:	9701      	str	r7, [sp, #4]
    433c:	465c      	mov	r4, fp
    433e:	9403      	str	r4, [sp, #12]
    4340:	4644      	mov	r4, r8
    4342:	9405      	str	r4, [sp, #20]
    4344:	e013      	b.n	436e <long_division+0x5a>
    4346:	2420      	movs	r4, #32
    4348:	1a64      	subs	r4, r4, r1
    434a:	0005      	movs	r5, r0
    434c:	40e5      	lsrs	r5, r4
    434e:	46a8      	mov	r8, r5
    4350:	e014      	b.n	437c <long_division+0x68>
    4352:	9c00      	ldr	r4, [sp, #0]
    4354:	9d01      	ldr	r5, [sp, #4]
    4356:	1b12      	subs	r2, r2, r4
    4358:	41ab      	sbcs	r3, r5
    435a:	465c      	mov	r4, fp
    435c:	464d      	mov	r5, r9
    435e:	432c      	orrs	r4, r5
    4360:	46a3      	mov	fp, r4
    4362:	9c03      	ldr	r4, [sp, #12]
    4364:	4645      	mov	r5, r8
    4366:	432c      	orrs	r4, r5
    4368:	9403      	str	r4, [sp, #12]
    436a:	3901      	subs	r1, #1
    436c:	d325      	bcc.n	43ba <long_division+0xa6>
    436e:	2420      	movs	r4, #32
    4370:	4264      	negs	r4, r4
    4372:	190c      	adds	r4, r1, r4
    4374:	d4e7      	bmi.n	4346 <long_division+0x32>
    4376:	0005      	movs	r5, r0
    4378:	40a5      	lsls	r5, r4
    437a:	46a8      	mov	r8, r5
    437c:	0004      	movs	r4, r0
    437e:	408c      	lsls	r4, r1
    4380:	46a1      	mov	r9, r4
    4382:	1892      	adds	r2, r2, r2
    4384:	415b      	adcs	r3, r3
    4386:	0014      	movs	r4, r2
    4388:	001d      	movs	r5, r3
    438a:	9e05      	ldr	r6, [sp, #20]
    438c:	464f      	mov	r7, r9
    438e:	403e      	ands	r6, r7
    4390:	46b4      	mov	ip, r6
    4392:	9e04      	ldr	r6, [sp, #16]
    4394:	4647      	mov	r7, r8
    4396:	403e      	ands	r6, r7
    4398:	46b2      	mov	sl, r6
    439a:	4666      	mov	r6, ip
    439c:	4657      	mov	r7, sl
    439e:	433e      	orrs	r6, r7
    43a0:	d003      	beq.n	43aa <long_division+0x96>
    43a2:	0006      	movs	r6, r0
    43a4:	4326      	orrs	r6, r4
    43a6:	0032      	movs	r2, r6
    43a8:	002b      	movs	r3, r5
    43aa:	9c00      	ldr	r4, [sp, #0]
    43ac:	9d01      	ldr	r5, [sp, #4]
    43ae:	429d      	cmp	r5, r3
    43b0:	d8db      	bhi.n	436a <long_division+0x56>
    43b2:	d1ce      	bne.n	4352 <long_division+0x3e>
    43b4:	4294      	cmp	r4, r2
    43b6:	d8d8      	bhi.n	436a <long_division+0x56>
    43b8:	e7cb      	b.n	4352 <long_division+0x3e>
    43ba:	9b03      	ldr	r3, [sp, #12]
    43bc:	4658      	mov	r0, fp
    43be:	0019      	movs	r1, r3
    43c0:	b007      	add	sp, #28
    43c2:	bc3c      	pop	{r2, r3, r4, r5}
    43c4:	4690      	mov	r8, r2
    43c6:	4699      	mov	r9, r3
    43c8:	46a2      	mov	sl, r4
    43ca:	46ab      	mov	fp, r5
    43cc:	bdf0      	pop	{r4, r5, r6, r7, pc}

000043ce <_sercom_get_sync_baud_val>:
    43ce:	b510      	push	{r4, lr}
    43d0:	0849      	lsrs	r1, r1, #1
    43d2:	2340      	movs	r3, #64	; 0x40
    43d4:	2400      	movs	r4, #0
    43d6:	4281      	cmp	r1, r0
    43d8:	d202      	bcs.n	43e0 <_sercom_get_sync_baud_val+0x12>
    43da:	0018      	movs	r0, r3
    43dc:	bd10      	pop	{r4, pc}
    43de:	001c      	movs	r4, r3
    43e0:	1a09      	subs	r1, r1, r0
    43e2:	1c63      	adds	r3, r4, #1
    43e4:	b29b      	uxth	r3, r3
    43e6:	4288      	cmp	r0, r1
    43e8:	d9f9      	bls.n	43de <_sercom_get_sync_baud_val+0x10>
    43ea:	2340      	movs	r3, #64	; 0x40
    43ec:	2cff      	cmp	r4, #255	; 0xff
    43ee:	d8f4      	bhi.n	43da <_sercom_get_sync_baud_val+0xc>
    43f0:	8014      	strh	r4, [r2, #0]
    43f2:	2300      	movs	r3, #0
    43f4:	e7f1      	b.n	43da <_sercom_get_sync_baud_val+0xc>
	...

000043f8 <_sercom_get_async_baud_val>:
    43f8:	b5f0      	push	{r4, r5, r6, r7, lr}
    43fa:	b083      	sub	sp, #12
    43fc:	000f      	movs	r7, r1
    43fe:	0016      	movs	r6, r2
    4400:	aa08      	add	r2, sp, #32
    4402:	7811      	ldrb	r1, [r2, #0]
    4404:	0004      	movs	r4, r0
    4406:	434c      	muls	r4, r1
    4408:	2240      	movs	r2, #64	; 0x40
    440a:	42bc      	cmp	r4, r7
    440c:	d902      	bls.n	4414 <_sercom_get_async_baud_val+0x1c>
    440e:	0010      	movs	r0, r2
    4410:	b003      	add	sp, #12
    4412:	bdf0      	pop	{r4, r5, r6, r7, pc}
    4414:	2b00      	cmp	r3, #0
    4416:	d114      	bne.n	4442 <_sercom_get_async_baud_val+0x4a>
    4418:	0002      	movs	r2, r0
    441a:	0008      	movs	r0, r1
    441c:	2100      	movs	r1, #0
    441e:	4c19      	ldr	r4, [pc, #100]	; (4484 <_sercom_get_async_baud_val+0x8c>)
    4420:	47a0      	blx	r4
    4422:	0001      	movs	r1, r0
    4424:	003a      	movs	r2, r7
    4426:	2300      	movs	r3, #0
    4428:	2000      	movs	r0, #0
    442a:	4c17      	ldr	r4, [pc, #92]	; (4488 <_sercom_get_async_baud_val+0x90>)
    442c:	47a0      	blx	r4
    442e:	2200      	movs	r2, #0
    4430:	2301      	movs	r3, #1
    4432:	1a12      	subs	r2, r2, r0
    4434:	418b      	sbcs	r3, r1
    4436:	0c12      	lsrs	r2, r2, #16
    4438:	041b      	lsls	r3, r3, #16
    443a:	431a      	orrs	r2, r3
    443c:	8032      	strh	r2, [r6, #0]
    443e:	2200      	movs	r2, #0
    4440:	e7e5      	b.n	440e <_sercom_get_async_baud_val+0x16>
    4442:	2200      	movs	r2, #0
    4444:	2b01      	cmp	r3, #1
    4446:	d1f9      	bne.n	443c <_sercom_get_async_baud_val+0x44>
    4448:	000a      	movs	r2, r1
    444a:	2300      	movs	r3, #0
    444c:	2100      	movs	r1, #0
    444e:	4c0d      	ldr	r4, [pc, #52]	; (4484 <_sercom_get_async_baud_val+0x8c>)
    4450:	47a0      	blx	r4
    4452:	0002      	movs	r2, r0
    4454:	000b      	movs	r3, r1
    4456:	9200      	str	r2, [sp, #0]
    4458:	9301      	str	r3, [sp, #4]
    445a:	0038      	movs	r0, r7
    445c:	2100      	movs	r1, #0
    445e:	4c0a      	ldr	r4, [pc, #40]	; (4488 <_sercom_get_async_baud_val+0x90>)
    4460:	47a0      	blx	r4
    4462:	0005      	movs	r5, r0
    4464:	2380      	movs	r3, #128	; 0x80
    4466:	019b      	lsls	r3, r3, #6
    4468:	2240      	movs	r2, #64	; 0x40
    446a:	4298      	cmp	r0, r3
    446c:	d8cf      	bhi.n	440e <_sercom_get_async_baud_val+0x16>
    446e:	0f79      	lsrs	r1, r7, #29
    4470:	00f8      	lsls	r0, r7, #3
    4472:	9a00      	ldr	r2, [sp, #0]
    4474:	9b01      	ldr	r3, [sp, #4]
    4476:	47a0      	blx	r4
    4478:	00ea      	lsls	r2, r5, #3
    447a:	1a82      	subs	r2, r0, r2
    447c:	b2d2      	uxtb	r2, r2
    447e:	0352      	lsls	r2, r2, #13
    4480:	432a      	orrs	r2, r5
    4482:	e7db      	b.n	443c <_sercom_get_async_baud_val+0x44>
    4484:	00008b15 	.word	0x00008b15
    4488:	00004315 	.word	0x00004315

0000448c <sercom_set_gclk_generator>:
    448c:	b510      	push	{r4, lr}
    448e:	b082      	sub	sp, #8
    4490:	0004      	movs	r4, r0
    4492:	4b0e      	ldr	r3, [pc, #56]	; (44cc <sercom_set_gclk_generator+0x40>)
    4494:	781b      	ldrb	r3, [r3, #0]
    4496:	2b00      	cmp	r3, #0
    4498:	d007      	beq.n	44aa <sercom_set_gclk_generator+0x1e>
    449a:	2900      	cmp	r1, #0
    449c:	d105      	bne.n	44aa <sercom_set_gclk_generator+0x1e>
    449e:	4b0b      	ldr	r3, [pc, #44]	; (44cc <sercom_set_gclk_generator+0x40>)
    44a0:	785b      	ldrb	r3, [r3, #1]
    44a2:	4283      	cmp	r3, r0
    44a4:	d010      	beq.n	44c8 <sercom_set_gclk_generator+0x3c>
    44a6:	201d      	movs	r0, #29
    44a8:	e00c      	b.n	44c4 <sercom_set_gclk_generator+0x38>
    44aa:	a901      	add	r1, sp, #4
    44ac:	700c      	strb	r4, [r1, #0]
    44ae:	2013      	movs	r0, #19
    44b0:	4b07      	ldr	r3, [pc, #28]	; (44d0 <sercom_set_gclk_generator+0x44>)
    44b2:	4798      	blx	r3
    44b4:	2013      	movs	r0, #19
    44b6:	4b07      	ldr	r3, [pc, #28]	; (44d4 <sercom_set_gclk_generator+0x48>)
    44b8:	4798      	blx	r3
    44ba:	4b04      	ldr	r3, [pc, #16]	; (44cc <sercom_set_gclk_generator+0x40>)
    44bc:	705c      	strb	r4, [r3, #1]
    44be:	2201      	movs	r2, #1
    44c0:	701a      	strb	r2, [r3, #0]
    44c2:	2000      	movs	r0, #0
    44c4:	b002      	add	sp, #8
    44c6:	bd10      	pop	{r4, pc}
    44c8:	2000      	movs	r0, #0
    44ca:	e7fb      	b.n	44c4 <sercom_set_gclk_generator+0x38>
    44cc:	200001a8 	.word	0x200001a8
    44d0:	00005225 	.word	0x00005225
    44d4:	00005199 	.word	0x00005199

000044d8 <_sercom_get_default_pad>:
    44d8:	4b40      	ldr	r3, [pc, #256]	; (45dc <_sercom_get_default_pad+0x104>)
    44da:	4298      	cmp	r0, r3
    44dc:	d031      	beq.n	4542 <_sercom_get_default_pad+0x6a>
    44de:	d90a      	bls.n	44f6 <_sercom_get_default_pad+0x1e>
    44e0:	4b3f      	ldr	r3, [pc, #252]	; (45e0 <_sercom_get_default_pad+0x108>)
    44e2:	4298      	cmp	r0, r3
    44e4:	d04d      	beq.n	4582 <_sercom_get_default_pad+0xaa>
    44e6:	4b3f      	ldr	r3, [pc, #252]	; (45e4 <_sercom_get_default_pad+0x10c>)
    44e8:	4298      	cmp	r0, r3
    44ea:	d05a      	beq.n	45a2 <_sercom_get_default_pad+0xca>
    44ec:	4b3e      	ldr	r3, [pc, #248]	; (45e8 <_sercom_get_default_pad+0x110>)
    44ee:	4298      	cmp	r0, r3
    44f0:	d037      	beq.n	4562 <_sercom_get_default_pad+0x8a>
    44f2:	2000      	movs	r0, #0
    44f4:	4770      	bx	lr
    44f6:	4b3d      	ldr	r3, [pc, #244]	; (45ec <_sercom_get_default_pad+0x114>)
    44f8:	4298      	cmp	r0, r3
    44fa:	d00c      	beq.n	4516 <_sercom_get_default_pad+0x3e>
    44fc:	4b3c      	ldr	r3, [pc, #240]	; (45f0 <_sercom_get_default_pad+0x118>)
    44fe:	4298      	cmp	r0, r3
    4500:	d1f7      	bne.n	44f2 <_sercom_get_default_pad+0x1a>
    4502:	2901      	cmp	r1, #1
    4504:	d017      	beq.n	4536 <_sercom_get_default_pad+0x5e>
    4506:	2900      	cmp	r1, #0
    4508:	d05d      	beq.n	45c6 <_sercom_get_default_pad+0xee>
    450a:	2902      	cmp	r1, #2
    450c:	d015      	beq.n	453a <_sercom_get_default_pad+0x62>
    450e:	2903      	cmp	r1, #3
    4510:	d015      	beq.n	453e <_sercom_get_default_pad+0x66>
    4512:	2000      	movs	r0, #0
    4514:	e7ee      	b.n	44f4 <_sercom_get_default_pad+0x1c>
    4516:	2901      	cmp	r1, #1
    4518:	d007      	beq.n	452a <_sercom_get_default_pad+0x52>
    451a:	2900      	cmp	r1, #0
    451c:	d051      	beq.n	45c2 <_sercom_get_default_pad+0xea>
    451e:	2902      	cmp	r1, #2
    4520:	d005      	beq.n	452e <_sercom_get_default_pad+0x56>
    4522:	2903      	cmp	r1, #3
    4524:	d005      	beq.n	4532 <_sercom_get_default_pad+0x5a>
    4526:	2000      	movs	r0, #0
    4528:	e7e4      	b.n	44f4 <_sercom_get_default_pad+0x1c>
    452a:	4832      	ldr	r0, [pc, #200]	; (45f4 <_sercom_get_default_pad+0x11c>)
    452c:	e7e2      	b.n	44f4 <_sercom_get_default_pad+0x1c>
    452e:	4832      	ldr	r0, [pc, #200]	; (45f8 <_sercom_get_default_pad+0x120>)
    4530:	e7e0      	b.n	44f4 <_sercom_get_default_pad+0x1c>
    4532:	4832      	ldr	r0, [pc, #200]	; (45fc <_sercom_get_default_pad+0x124>)
    4534:	e7de      	b.n	44f4 <_sercom_get_default_pad+0x1c>
    4536:	4832      	ldr	r0, [pc, #200]	; (4600 <_sercom_get_default_pad+0x128>)
    4538:	e7dc      	b.n	44f4 <_sercom_get_default_pad+0x1c>
    453a:	4832      	ldr	r0, [pc, #200]	; (4604 <_sercom_get_default_pad+0x12c>)
    453c:	e7da      	b.n	44f4 <_sercom_get_default_pad+0x1c>
    453e:	4832      	ldr	r0, [pc, #200]	; (4608 <_sercom_get_default_pad+0x130>)
    4540:	e7d8      	b.n	44f4 <_sercom_get_default_pad+0x1c>
    4542:	2901      	cmp	r1, #1
    4544:	d007      	beq.n	4556 <_sercom_get_default_pad+0x7e>
    4546:	2900      	cmp	r1, #0
    4548:	d03f      	beq.n	45ca <_sercom_get_default_pad+0xf2>
    454a:	2902      	cmp	r1, #2
    454c:	d005      	beq.n	455a <_sercom_get_default_pad+0x82>
    454e:	2903      	cmp	r1, #3
    4550:	d005      	beq.n	455e <_sercom_get_default_pad+0x86>
    4552:	2000      	movs	r0, #0
    4554:	e7ce      	b.n	44f4 <_sercom_get_default_pad+0x1c>
    4556:	482d      	ldr	r0, [pc, #180]	; (460c <_sercom_get_default_pad+0x134>)
    4558:	e7cc      	b.n	44f4 <_sercom_get_default_pad+0x1c>
    455a:	482d      	ldr	r0, [pc, #180]	; (4610 <_sercom_get_default_pad+0x138>)
    455c:	e7ca      	b.n	44f4 <_sercom_get_default_pad+0x1c>
    455e:	482d      	ldr	r0, [pc, #180]	; (4614 <_sercom_get_default_pad+0x13c>)
    4560:	e7c8      	b.n	44f4 <_sercom_get_default_pad+0x1c>
    4562:	2901      	cmp	r1, #1
    4564:	d007      	beq.n	4576 <_sercom_get_default_pad+0x9e>
    4566:	2900      	cmp	r1, #0
    4568:	d031      	beq.n	45ce <_sercom_get_default_pad+0xf6>
    456a:	2902      	cmp	r1, #2
    456c:	d005      	beq.n	457a <_sercom_get_default_pad+0xa2>
    456e:	2903      	cmp	r1, #3
    4570:	d005      	beq.n	457e <_sercom_get_default_pad+0xa6>
    4572:	2000      	movs	r0, #0
    4574:	e7be      	b.n	44f4 <_sercom_get_default_pad+0x1c>
    4576:	4828      	ldr	r0, [pc, #160]	; (4618 <_sercom_get_default_pad+0x140>)
    4578:	e7bc      	b.n	44f4 <_sercom_get_default_pad+0x1c>
    457a:	4828      	ldr	r0, [pc, #160]	; (461c <_sercom_get_default_pad+0x144>)
    457c:	e7ba      	b.n	44f4 <_sercom_get_default_pad+0x1c>
    457e:	4828      	ldr	r0, [pc, #160]	; (4620 <_sercom_get_default_pad+0x148>)
    4580:	e7b8      	b.n	44f4 <_sercom_get_default_pad+0x1c>
    4582:	2901      	cmp	r1, #1
    4584:	d007      	beq.n	4596 <_sercom_get_default_pad+0xbe>
    4586:	2900      	cmp	r1, #0
    4588:	d023      	beq.n	45d2 <_sercom_get_default_pad+0xfa>
    458a:	2902      	cmp	r1, #2
    458c:	d005      	beq.n	459a <_sercom_get_default_pad+0xc2>
    458e:	2903      	cmp	r1, #3
    4590:	d005      	beq.n	459e <_sercom_get_default_pad+0xc6>
    4592:	2000      	movs	r0, #0
    4594:	e7ae      	b.n	44f4 <_sercom_get_default_pad+0x1c>
    4596:	4823      	ldr	r0, [pc, #140]	; (4624 <_sercom_get_default_pad+0x14c>)
    4598:	e7ac      	b.n	44f4 <_sercom_get_default_pad+0x1c>
    459a:	4823      	ldr	r0, [pc, #140]	; (4628 <_sercom_get_default_pad+0x150>)
    459c:	e7aa      	b.n	44f4 <_sercom_get_default_pad+0x1c>
    459e:	4823      	ldr	r0, [pc, #140]	; (462c <_sercom_get_default_pad+0x154>)
    45a0:	e7a8      	b.n	44f4 <_sercom_get_default_pad+0x1c>
    45a2:	2901      	cmp	r1, #1
    45a4:	d007      	beq.n	45b6 <_sercom_get_default_pad+0xde>
    45a6:	2900      	cmp	r1, #0
    45a8:	d015      	beq.n	45d6 <_sercom_get_default_pad+0xfe>
    45aa:	2902      	cmp	r1, #2
    45ac:	d005      	beq.n	45ba <_sercom_get_default_pad+0xe2>
    45ae:	2903      	cmp	r1, #3
    45b0:	d005      	beq.n	45be <_sercom_get_default_pad+0xe6>
    45b2:	2000      	movs	r0, #0
    45b4:	e79e      	b.n	44f4 <_sercom_get_default_pad+0x1c>
    45b6:	481e      	ldr	r0, [pc, #120]	; (4630 <_sercom_get_default_pad+0x158>)
    45b8:	e79c      	b.n	44f4 <_sercom_get_default_pad+0x1c>
    45ba:	481e      	ldr	r0, [pc, #120]	; (4634 <_sercom_get_default_pad+0x15c>)
    45bc:	e79a      	b.n	44f4 <_sercom_get_default_pad+0x1c>
    45be:	481e      	ldr	r0, [pc, #120]	; (4638 <_sercom_get_default_pad+0x160>)
    45c0:	e798      	b.n	44f4 <_sercom_get_default_pad+0x1c>
    45c2:	481e      	ldr	r0, [pc, #120]	; (463c <_sercom_get_default_pad+0x164>)
    45c4:	e796      	b.n	44f4 <_sercom_get_default_pad+0x1c>
    45c6:	2003      	movs	r0, #3
    45c8:	e794      	b.n	44f4 <_sercom_get_default_pad+0x1c>
    45ca:	481d      	ldr	r0, [pc, #116]	; (4640 <_sercom_get_default_pad+0x168>)
    45cc:	e792      	b.n	44f4 <_sercom_get_default_pad+0x1c>
    45ce:	481d      	ldr	r0, [pc, #116]	; (4644 <_sercom_get_default_pad+0x16c>)
    45d0:	e790      	b.n	44f4 <_sercom_get_default_pad+0x1c>
    45d2:	481d      	ldr	r0, [pc, #116]	; (4648 <_sercom_get_default_pad+0x170>)
    45d4:	e78e      	b.n	44f4 <_sercom_get_default_pad+0x1c>
    45d6:	481d      	ldr	r0, [pc, #116]	; (464c <_sercom_get_default_pad+0x174>)
    45d8:	e78c      	b.n	44f4 <_sercom_get_default_pad+0x1c>
    45da:	46c0      	nop			; (mov r8, r8)
    45dc:	42001000 	.word	0x42001000
    45e0:	42001800 	.word	0x42001800
    45e4:	42001c00 	.word	0x42001c00
    45e8:	42001400 	.word	0x42001400
    45ec:	42000800 	.word	0x42000800
    45f0:	42000c00 	.word	0x42000c00
    45f4:	00050003 	.word	0x00050003
    45f8:	00060003 	.word	0x00060003
    45fc:	00070003 	.word	0x00070003
    4600:	00010003 	.word	0x00010003
    4604:	001e0003 	.word	0x001e0003
    4608:	001f0003 	.word	0x001f0003
    460c:	000d0002 	.word	0x000d0002
    4610:	000e0002 	.word	0x000e0002
    4614:	000f0002 	.word	0x000f0002
    4618:	00110003 	.word	0x00110003
    461c:	00120003 	.word	0x00120003
    4620:	00130003 	.word	0x00130003
    4624:	003f0005 	.word	0x003f0005
    4628:	003e0005 	.word	0x003e0005
    462c:	00520005 	.word	0x00520005
    4630:	00170003 	.word	0x00170003
    4634:	00180003 	.word	0x00180003
    4638:	00190003 	.word	0x00190003
    463c:	00040003 	.word	0x00040003
    4640:	000c0002 	.word	0x000c0002
    4644:	00100003 	.word	0x00100003
    4648:	00530005 	.word	0x00530005
    464c:	00160003 	.word	0x00160003

00004650 <_sercom_get_sercom_inst_index>:
    4650:	b530      	push	{r4, r5, lr}
    4652:	b087      	sub	sp, #28
    4654:	4b0b      	ldr	r3, [pc, #44]	; (4684 <_sercom_get_sercom_inst_index+0x34>)
    4656:	466a      	mov	r2, sp
    4658:	cb32      	ldmia	r3!, {r1, r4, r5}
    465a:	c232      	stmia	r2!, {r1, r4, r5}
    465c:	cb32      	ldmia	r3!, {r1, r4, r5}
    465e:	c232      	stmia	r2!, {r1, r4, r5}
    4660:	9b00      	ldr	r3, [sp, #0]
    4662:	4283      	cmp	r3, r0
    4664:	d00b      	beq.n	467e <_sercom_get_sercom_inst_index+0x2e>
    4666:	2301      	movs	r3, #1
    4668:	009a      	lsls	r2, r3, #2
    466a:	4669      	mov	r1, sp
    466c:	5852      	ldr	r2, [r2, r1]
    466e:	4282      	cmp	r2, r0
    4670:	d006      	beq.n	4680 <_sercom_get_sercom_inst_index+0x30>
    4672:	3301      	adds	r3, #1
    4674:	2b06      	cmp	r3, #6
    4676:	d1f7      	bne.n	4668 <_sercom_get_sercom_inst_index+0x18>
    4678:	2000      	movs	r0, #0
    467a:	b007      	add	sp, #28
    467c:	bd30      	pop	{r4, r5, pc}
    467e:	2300      	movs	r3, #0
    4680:	b2d8      	uxtb	r0, r3
    4682:	e7fa      	b.n	467a <_sercom_get_sercom_inst_index+0x2a>
    4684:	0000acdc 	.word	0x0000acdc

00004688 <_sercom_default_handler>:
    4688:	4770      	bx	lr
	...

0000468c <_sercom_set_handler>:
    468c:	b5f0      	push	{r4, r5, r6, r7, lr}
    468e:	4b0a      	ldr	r3, [pc, #40]	; (46b8 <_sercom_set_handler+0x2c>)
    4690:	781b      	ldrb	r3, [r3, #0]
    4692:	2b00      	cmp	r3, #0
    4694:	d10c      	bne.n	46b0 <_sercom_set_handler+0x24>
    4696:	4f09      	ldr	r7, [pc, #36]	; (46bc <_sercom_set_handler+0x30>)
    4698:	4e09      	ldr	r6, [pc, #36]	; (46c0 <_sercom_set_handler+0x34>)
    469a:	4d0a      	ldr	r5, [pc, #40]	; (46c4 <_sercom_set_handler+0x38>)
    469c:	2400      	movs	r4, #0
    469e:	51de      	str	r6, [r3, r7]
    46a0:	195a      	adds	r2, r3, r5
    46a2:	6014      	str	r4, [r2, #0]
    46a4:	3304      	adds	r3, #4
    46a6:	2b18      	cmp	r3, #24
    46a8:	d1f9      	bne.n	469e <_sercom_set_handler+0x12>
    46aa:	2201      	movs	r2, #1
    46ac:	4b02      	ldr	r3, [pc, #8]	; (46b8 <_sercom_set_handler+0x2c>)
    46ae:	701a      	strb	r2, [r3, #0]
    46b0:	0080      	lsls	r0, r0, #2
    46b2:	4b02      	ldr	r3, [pc, #8]	; (46bc <_sercom_set_handler+0x30>)
    46b4:	50c1      	str	r1, [r0, r3]
    46b6:	bdf0      	pop	{r4, r5, r6, r7, pc}
    46b8:	200001aa 	.word	0x200001aa
    46bc:	200001ac 	.word	0x200001ac
    46c0:	00004689 	.word	0x00004689
    46c4:	20000b64 	.word	0x20000b64

000046c8 <_sercom_get_interrupt_vector>:
    46c8:	b500      	push	{lr}
    46ca:	b083      	sub	sp, #12
    46cc:	2309      	movs	r3, #9
    46ce:	466a      	mov	r2, sp
    46d0:	7013      	strb	r3, [r2, #0]
    46d2:	3301      	adds	r3, #1
    46d4:	7053      	strb	r3, [r2, #1]
    46d6:	3301      	adds	r3, #1
    46d8:	7093      	strb	r3, [r2, #2]
    46da:	3301      	adds	r3, #1
    46dc:	70d3      	strb	r3, [r2, #3]
    46de:	3301      	adds	r3, #1
    46e0:	7113      	strb	r3, [r2, #4]
    46e2:	3301      	adds	r3, #1
    46e4:	7153      	strb	r3, [r2, #5]
    46e6:	4b03      	ldr	r3, [pc, #12]	; (46f4 <_sercom_get_interrupt_vector+0x2c>)
    46e8:	4798      	blx	r3
    46ea:	466b      	mov	r3, sp
    46ec:	5618      	ldrsb	r0, [r3, r0]
    46ee:	b003      	add	sp, #12
    46f0:	bd00      	pop	{pc}
    46f2:	46c0      	nop			; (mov r8, r8)
    46f4:	00004651 	.word	0x00004651

000046f8 <SERCOM0_Handler>:
    46f8:	b510      	push	{r4, lr}
    46fa:	4b02      	ldr	r3, [pc, #8]	; (4704 <SERCOM0_Handler+0xc>)
    46fc:	681b      	ldr	r3, [r3, #0]
    46fe:	2000      	movs	r0, #0
    4700:	4798      	blx	r3
    4702:	bd10      	pop	{r4, pc}
    4704:	200001ac 	.word	0x200001ac

00004708 <SERCOM1_Handler>:
    4708:	b510      	push	{r4, lr}
    470a:	4b02      	ldr	r3, [pc, #8]	; (4714 <SERCOM1_Handler+0xc>)
    470c:	685b      	ldr	r3, [r3, #4]
    470e:	2001      	movs	r0, #1
    4710:	4798      	blx	r3
    4712:	bd10      	pop	{r4, pc}
    4714:	200001ac 	.word	0x200001ac

00004718 <SERCOM2_Handler>:
    4718:	b510      	push	{r4, lr}
    471a:	4b02      	ldr	r3, [pc, #8]	; (4724 <SERCOM2_Handler+0xc>)
    471c:	689b      	ldr	r3, [r3, #8]
    471e:	2002      	movs	r0, #2
    4720:	4798      	blx	r3
    4722:	bd10      	pop	{r4, pc}
    4724:	200001ac 	.word	0x200001ac

00004728 <SERCOM3_Handler>:
    4728:	b510      	push	{r4, lr}
    472a:	4b02      	ldr	r3, [pc, #8]	; (4734 <SERCOM3_Handler+0xc>)
    472c:	68db      	ldr	r3, [r3, #12]
    472e:	2003      	movs	r0, #3
    4730:	4798      	blx	r3
    4732:	bd10      	pop	{r4, pc}
    4734:	200001ac 	.word	0x200001ac

00004738 <SERCOM4_Handler>:
    4738:	b510      	push	{r4, lr}
    473a:	4b02      	ldr	r3, [pc, #8]	; (4744 <SERCOM4_Handler+0xc>)
    473c:	691b      	ldr	r3, [r3, #16]
    473e:	2004      	movs	r0, #4
    4740:	4798      	blx	r3
    4742:	bd10      	pop	{r4, pc}
    4744:	200001ac 	.word	0x200001ac

00004748 <SERCOM5_Handler>:
    4748:	b510      	push	{r4, lr}
    474a:	4b02      	ldr	r3, [pc, #8]	; (4754 <SERCOM5_Handler+0xc>)
    474c:	695b      	ldr	r3, [r3, #20]
    474e:	2005      	movs	r0, #5
    4750:	4798      	blx	r3
    4752:	bd10      	pop	{r4, pc}
    4754:	200001ac 	.word	0x200001ac

00004758 <spi_init>:
    4758:	b5f0      	push	{r4, r5, r6, r7, lr}
    475a:	b08b      	sub	sp, #44	; 0x2c
    475c:	0005      	movs	r5, r0
    475e:	000c      	movs	r4, r1
    4760:	0016      	movs	r6, r2
    4762:	6029      	str	r1, [r5, #0]
    4764:	680b      	ldr	r3, [r1, #0]
    4766:	201c      	movs	r0, #28
    4768:	079b      	lsls	r3, r3, #30
    476a:	d501      	bpl.n	4770 <spi_init+0x18>
    476c:	b00b      	add	sp, #44	; 0x2c
    476e:	bdf0      	pop	{r4, r5, r6, r7, pc}
    4770:	680b      	ldr	r3, [r1, #0]
    4772:	3817      	subs	r0, #23
    4774:	07db      	lsls	r3, r3, #31
    4776:	d4f9      	bmi.n	476c <spi_init+0x14>
    4778:	0008      	movs	r0, r1
    477a:	4b60      	ldr	r3, [pc, #384]	; (48fc <spi_init+0x1a4>)
    477c:	4798      	blx	r3
    477e:	4a60      	ldr	r2, [pc, #384]	; (4900 <spi_init+0x1a8>)
    4780:	6a11      	ldr	r1, [r2, #32]
    4782:	1c87      	adds	r7, r0, #2
    4784:	2301      	movs	r3, #1
    4786:	40bb      	lsls	r3, r7
    4788:	430b      	orrs	r3, r1
    478a:	6213      	str	r3, [r2, #32]
    478c:	a909      	add	r1, sp, #36	; 0x24
    478e:	2724      	movs	r7, #36	; 0x24
    4790:	5df3      	ldrb	r3, [r6, r7]
    4792:	700b      	strb	r3, [r1, #0]
    4794:	3014      	adds	r0, #20
    4796:	b2c3      	uxtb	r3, r0
    4798:	9301      	str	r3, [sp, #4]
    479a:	0018      	movs	r0, r3
    479c:	4b59      	ldr	r3, [pc, #356]	; (4904 <spi_init+0x1ac>)
    479e:	4798      	blx	r3
    47a0:	9801      	ldr	r0, [sp, #4]
    47a2:	4b59      	ldr	r3, [pc, #356]	; (4908 <spi_init+0x1b0>)
    47a4:	4798      	blx	r3
    47a6:	5df0      	ldrb	r0, [r6, r7]
    47a8:	2100      	movs	r1, #0
    47aa:	4b58      	ldr	r3, [pc, #352]	; (490c <spi_init+0x1b4>)
    47ac:	4798      	blx	r3
    47ae:	7833      	ldrb	r3, [r6, #0]
    47b0:	2b01      	cmp	r3, #1
    47b2:	d038      	beq.n	4826 <spi_init+0xce>
    47b4:	002b      	movs	r3, r5
    47b6:	330c      	adds	r3, #12
    47b8:	0029      	movs	r1, r5
    47ba:	3128      	adds	r1, #40	; 0x28
    47bc:	2200      	movs	r2, #0
    47be:	c304      	stmia	r3!, {r2}
    47c0:	428b      	cmp	r3, r1
    47c2:	d1fc      	bne.n	47be <spi_init+0x66>
    47c4:	2300      	movs	r3, #0
    47c6:	62eb      	str	r3, [r5, #44]	; 0x2c
    47c8:	62ab      	str	r3, [r5, #40]	; 0x28
    47ca:	2400      	movs	r4, #0
    47cc:	86ab      	strh	r3, [r5, #52]	; 0x34
    47ce:	862b      	strh	r3, [r5, #48]	; 0x30
    47d0:	3336      	adds	r3, #54	; 0x36
    47d2:	54ec      	strb	r4, [r5, r3]
    47d4:	3301      	adds	r3, #1
    47d6:	54ec      	strb	r4, [r5, r3]
    47d8:	3301      	adds	r3, #1
    47da:	54ec      	strb	r4, [r5, r3]
    47dc:	3b35      	subs	r3, #53	; 0x35
    47de:	726b      	strb	r3, [r5, #9]
    47e0:	712c      	strb	r4, [r5, #4]
    47e2:	6828      	ldr	r0, [r5, #0]
    47e4:	4b45      	ldr	r3, [pc, #276]	; (48fc <spi_init+0x1a4>)
    47e6:	4798      	blx	r3
    47e8:	0007      	movs	r7, r0
    47ea:	4949      	ldr	r1, [pc, #292]	; (4910 <spi_init+0x1b8>)
    47ec:	4b49      	ldr	r3, [pc, #292]	; (4914 <spi_init+0x1bc>)
    47ee:	4798      	blx	r3
    47f0:	00bf      	lsls	r7, r7, #2
    47f2:	4b49      	ldr	r3, [pc, #292]	; (4918 <spi_init+0x1c0>)
    47f4:	50fd      	str	r5, [r7, r3]
    47f6:	682f      	ldr	r7, [r5, #0]
    47f8:	ab04      	add	r3, sp, #16
    47fa:	2280      	movs	r2, #128	; 0x80
    47fc:	701a      	strb	r2, [r3, #0]
    47fe:	705c      	strb	r4, [r3, #1]
    4800:	3a7f      	subs	r2, #127	; 0x7f
    4802:	709a      	strb	r2, [r3, #2]
    4804:	70dc      	strb	r4, [r3, #3]
    4806:	7833      	ldrb	r3, [r6, #0]
    4808:	2b00      	cmp	r3, #0
    480a:	d102      	bne.n	4812 <spi_init+0xba>
    480c:	2200      	movs	r2, #0
    480e:	ab04      	add	r3, sp, #16
    4810:	709a      	strb	r2, [r3, #2]
    4812:	6ab3      	ldr	r3, [r6, #40]	; 0x28
    4814:	9305      	str	r3, [sp, #20]
    4816:	6af3      	ldr	r3, [r6, #44]	; 0x2c
    4818:	9306      	str	r3, [sp, #24]
    481a:	6b33      	ldr	r3, [r6, #48]	; 0x30
    481c:	9307      	str	r3, [sp, #28]
    481e:	6b73      	ldr	r3, [r6, #52]	; 0x34
    4820:	9308      	str	r3, [sp, #32]
    4822:	2400      	movs	r4, #0
    4824:	e00b      	b.n	483e <spi_init+0xe6>
    4826:	6823      	ldr	r3, [r4, #0]
    4828:	220c      	movs	r2, #12
    482a:	4313      	orrs	r3, r2
    482c:	6023      	str	r3, [r4, #0]
    482e:	e7c1      	b.n	47b4 <spi_init+0x5c>
    4830:	0038      	movs	r0, r7
    4832:	4b3a      	ldr	r3, [pc, #232]	; (491c <spi_init+0x1c4>)
    4834:	4798      	blx	r3
    4836:	e00a      	b.n	484e <spi_init+0xf6>
    4838:	3401      	adds	r4, #1
    483a:	2c04      	cmp	r4, #4
    483c:	d010      	beq.n	4860 <spi_init+0x108>
    483e:	b2e1      	uxtb	r1, r4
    4840:	00a3      	lsls	r3, r4, #2
    4842:	aa02      	add	r2, sp, #8
    4844:	200c      	movs	r0, #12
    4846:	1812      	adds	r2, r2, r0
    4848:	58d0      	ldr	r0, [r2, r3]
    484a:	2800      	cmp	r0, #0
    484c:	d0f0      	beq.n	4830 <spi_init+0xd8>
    484e:	1c43      	adds	r3, r0, #1
    4850:	d0f2      	beq.n	4838 <spi_init+0xe0>
    4852:	a904      	add	r1, sp, #16
    4854:	7008      	strb	r0, [r1, #0]
    4856:	0c00      	lsrs	r0, r0, #16
    4858:	b2c0      	uxtb	r0, r0
    485a:	4b31      	ldr	r3, [pc, #196]	; (4920 <spi_init+0x1c8>)
    485c:	4798      	blx	r3
    485e:	e7eb      	b.n	4838 <spi_init+0xe0>
    4860:	7833      	ldrb	r3, [r6, #0]
    4862:	716b      	strb	r3, [r5, #5]
    4864:	7c33      	ldrb	r3, [r6, #16]
    4866:	71ab      	strb	r3, [r5, #6]
    4868:	7cb3      	ldrb	r3, [r6, #18]
    486a:	71eb      	strb	r3, [r5, #7]
    486c:	7d33      	ldrb	r3, [r6, #20]
    486e:	722b      	strb	r3, [r5, #8]
    4870:	2200      	movs	r2, #0
    4872:	ab02      	add	r3, sp, #8
    4874:	80da      	strh	r2, [r3, #6]
    4876:	7833      	ldrb	r3, [r6, #0]
    4878:	2b01      	cmp	r3, #1
    487a:	d028      	beq.n	48ce <spi_init+0x176>
    487c:	6873      	ldr	r3, [r6, #4]
    487e:	68b2      	ldr	r2, [r6, #8]
    4880:	4313      	orrs	r3, r2
    4882:	68f2      	ldr	r2, [r6, #12]
    4884:	4313      	orrs	r3, r2
    4886:	7c31      	ldrb	r1, [r6, #16]
    4888:	7c72      	ldrb	r2, [r6, #17]
    488a:	2a00      	cmp	r2, #0
    488c:	d103      	bne.n	4896 <spi_init+0x13e>
    488e:	4a25      	ldr	r2, [pc, #148]	; (4924 <spi_init+0x1cc>)
    4890:	7892      	ldrb	r2, [r2, #2]
    4892:	0792      	lsls	r2, r2, #30
    4894:	d501      	bpl.n	489a <spi_init+0x142>
    4896:	2280      	movs	r2, #128	; 0x80
    4898:	4313      	orrs	r3, r2
    489a:	7cb2      	ldrb	r2, [r6, #18]
    489c:	2a00      	cmp	r2, #0
    489e:	d002      	beq.n	48a6 <spi_init+0x14e>
    48a0:	2280      	movs	r2, #128	; 0x80
    48a2:	0292      	lsls	r2, r2, #10
    48a4:	4311      	orrs	r1, r2
    48a6:	7cf2      	ldrb	r2, [r6, #19]
    48a8:	2a00      	cmp	r2, #0
    48aa:	d002      	beq.n	48b2 <spi_init+0x15a>
    48ac:	2280      	movs	r2, #128	; 0x80
    48ae:	0092      	lsls	r2, r2, #2
    48b0:	4311      	orrs	r1, r2
    48b2:	7d32      	ldrb	r2, [r6, #20]
    48b4:	2a00      	cmp	r2, #0
    48b6:	d002      	beq.n	48be <spi_init+0x166>
    48b8:	2280      	movs	r2, #128	; 0x80
    48ba:	0192      	lsls	r2, r2, #6
    48bc:	4311      	orrs	r1, r2
    48be:	683a      	ldr	r2, [r7, #0]
    48c0:	4313      	orrs	r3, r2
    48c2:	603b      	str	r3, [r7, #0]
    48c4:	687b      	ldr	r3, [r7, #4]
    48c6:	430b      	orrs	r3, r1
    48c8:	607b      	str	r3, [r7, #4]
    48ca:	2000      	movs	r0, #0
    48cc:	e74e      	b.n	476c <spi_init+0x14>
    48ce:	6828      	ldr	r0, [r5, #0]
    48d0:	4b0a      	ldr	r3, [pc, #40]	; (48fc <spi_init+0x1a4>)
    48d2:	4798      	blx	r3
    48d4:	3014      	adds	r0, #20
    48d6:	b2c0      	uxtb	r0, r0
    48d8:	4b13      	ldr	r3, [pc, #76]	; (4928 <spi_init+0x1d0>)
    48da:	4798      	blx	r3
    48dc:	0001      	movs	r1, r0
    48de:	ab02      	add	r3, sp, #8
    48e0:	1d9a      	adds	r2, r3, #6
    48e2:	69b0      	ldr	r0, [r6, #24]
    48e4:	4b11      	ldr	r3, [pc, #68]	; (492c <spi_init+0x1d4>)
    48e6:	4798      	blx	r3
    48e8:	0003      	movs	r3, r0
    48ea:	2017      	movs	r0, #23
    48ec:	2b00      	cmp	r3, #0
    48ee:	d000      	beq.n	48f2 <spi_init+0x19a>
    48f0:	e73c      	b.n	476c <spi_init+0x14>
    48f2:	ab02      	add	r3, sp, #8
    48f4:	3306      	adds	r3, #6
    48f6:	781b      	ldrb	r3, [r3, #0]
    48f8:	733b      	strb	r3, [r7, #12]
    48fa:	e7bf      	b.n	487c <spi_init+0x124>
    48fc:	00004651 	.word	0x00004651
    4900:	40000400 	.word	0x40000400
    4904:	00005225 	.word	0x00005225
    4908:	00005199 	.word	0x00005199
    490c:	0000448d 	.word	0x0000448d
    4910:	00004a25 	.word	0x00004a25
    4914:	0000468d 	.word	0x0000468d
    4918:	20000b64 	.word	0x20000b64
    491c:	000044d9 	.word	0x000044d9
    4920:	0000531d 	.word	0x0000531d
    4924:	41002000 	.word	0x41002000
    4928:	00005241 	.word	0x00005241
    492c:	000043cf 	.word	0x000043cf

00004930 <spi_select_slave>:
    4930:	b510      	push	{r4, lr}
    4932:	7944      	ldrb	r4, [r0, #5]
    4934:	2315      	movs	r3, #21
    4936:	2c01      	cmp	r4, #1
    4938:	d001      	beq.n	493e <spi_select_slave+0xe>
    493a:	0018      	movs	r0, r3
    493c:	bd10      	pop	{r4, pc}
    493e:	7a04      	ldrb	r4, [r0, #8]
    4940:	2300      	movs	r3, #0
    4942:	2c00      	cmp	r4, #0
    4944:	d1f9      	bne.n	493a <spi_select_slave+0xa>
    4946:	2a00      	cmp	r2, #0
    4948:	d058      	beq.n	49fc <spi_select_slave+0xcc>
    494a:	784b      	ldrb	r3, [r1, #1]
    494c:	2b00      	cmp	r3, #0
    494e:	d044      	beq.n	49da <spi_select_slave+0xaa>
    4950:	6803      	ldr	r3, [r0, #0]
    4952:	7e1b      	ldrb	r3, [r3, #24]
    4954:	07db      	lsls	r3, r3, #31
    4956:	d410      	bmi.n	497a <spi_select_slave+0x4a>
    4958:	780a      	ldrb	r2, [r1, #0]
    495a:	09d1      	lsrs	r1, r2, #7
    495c:	2300      	movs	r3, #0
    495e:	2900      	cmp	r1, #0
    4960:	d104      	bne.n	496c <spi_select_slave+0x3c>
    4962:	0953      	lsrs	r3, r2, #5
    4964:	01db      	lsls	r3, r3, #7
    4966:	492e      	ldr	r1, [pc, #184]	; (4a20 <spi_select_slave+0xf0>)
    4968:	468c      	mov	ip, r1
    496a:	4463      	add	r3, ip
    496c:	211f      	movs	r1, #31
    496e:	4011      	ands	r1, r2
    4970:	2201      	movs	r2, #1
    4972:	408a      	lsls	r2, r1
    4974:	619a      	str	r2, [r3, #24]
    4976:	2305      	movs	r3, #5
    4978:	e7df      	b.n	493a <spi_select_slave+0xa>
    497a:	780a      	ldrb	r2, [r1, #0]
    497c:	09d4      	lsrs	r4, r2, #7
    497e:	2300      	movs	r3, #0
    4980:	2c00      	cmp	r4, #0
    4982:	d104      	bne.n	498e <spi_select_slave+0x5e>
    4984:	0953      	lsrs	r3, r2, #5
    4986:	01db      	lsls	r3, r3, #7
    4988:	4c25      	ldr	r4, [pc, #148]	; (4a20 <spi_select_slave+0xf0>)
    498a:	46a4      	mov	ip, r4
    498c:	4463      	add	r3, ip
    498e:	241f      	movs	r4, #31
    4990:	4014      	ands	r4, r2
    4992:	2201      	movs	r2, #1
    4994:	40a2      	lsls	r2, r4
    4996:	615a      	str	r2, [r3, #20]
    4998:	6803      	ldr	r3, [r0, #0]
    499a:	7e1a      	ldrb	r2, [r3, #24]
    499c:	07d2      	lsls	r2, r2, #31
    499e:	d501      	bpl.n	49a4 <spi_select_slave+0x74>
    49a0:	788a      	ldrb	r2, [r1, #2]
    49a2:	629a      	str	r2, [r3, #40]	; 0x28
    49a4:	79c2      	ldrb	r2, [r0, #7]
    49a6:	2300      	movs	r3, #0
    49a8:	2a00      	cmp	r2, #0
    49aa:	d1c6      	bne.n	493a <spi_select_slave+0xa>
    49ac:	6802      	ldr	r2, [r0, #0]
    49ae:	2104      	movs	r1, #4
    49b0:	7e13      	ldrb	r3, [r2, #24]
    49b2:	420b      	tst	r3, r1
    49b4:	d0fc      	beq.n	49b0 <spi_select_slave+0x80>
    49b6:	7e11      	ldrb	r1, [r2, #24]
    49b8:	2300      	movs	r3, #0
    49ba:	0749      	lsls	r1, r1, #29
    49bc:	d5bd      	bpl.n	493a <spi_select_slave+0xa>
    49be:	8b53      	ldrh	r3, [r2, #26]
    49c0:	075b      	lsls	r3, r3, #29
    49c2:	d501      	bpl.n	49c8 <spi_select_slave+0x98>
    49c4:	2304      	movs	r3, #4
    49c6:	8353      	strh	r3, [r2, #26]
    49c8:	7983      	ldrb	r3, [r0, #6]
    49ca:	2b01      	cmp	r3, #1
    49cc:	d002      	beq.n	49d4 <spi_select_slave+0xa4>
    49ce:	6a93      	ldr	r3, [r2, #40]	; 0x28
    49d0:	2300      	movs	r3, #0
    49d2:	e7b2      	b.n	493a <spi_select_slave+0xa>
    49d4:	6a93      	ldr	r3, [r2, #40]	; 0x28
    49d6:	2300      	movs	r3, #0
    49d8:	e7af      	b.n	493a <spi_select_slave+0xa>
    49da:	780a      	ldrb	r2, [r1, #0]
    49dc:	09d1      	lsrs	r1, r2, #7
    49de:	2300      	movs	r3, #0
    49e0:	2900      	cmp	r1, #0
    49e2:	d104      	bne.n	49ee <spi_select_slave+0xbe>
    49e4:	0953      	lsrs	r3, r2, #5
    49e6:	01db      	lsls	r3, r3, #7
    49e8:	490d      	ldr	r1, [pc, #52]	; (4a20 <spi_select_slave+0xf0>)
    49ea:	468c      	mov	ip, r1
    49ec:	4463      	add	r3, ip
    49ee:	211f      	movs	r1, #31
    49f0:	4011      	ands	r1, r2
    49f2:	2201      	movs	r2, #1
    49f4:	408a      	lsls	r2, r1
    49f6:	615a      	str	r2, [r3, #20]
    49f8:	2300      	movs	r3, #0
    49fa:	e79e      	b.n	493a <spi_select_slave+0xa>
    49fc:	780a      	ldrb	r2, [r1, #0]
    49fe:	09d1      	lsrs	r1, r2, #7
    4a00:	2300      	movs	r3, #0
    4a02:	2900      	cmp	r1, #0
    4a04:	d104      	bne.n	4a10 <spi_select_slave+0xe0>
    4a06:	0953      	lsrs	r3, r2, #5
    4a08:	01db      	lsls	r3, r3, #7
    4a0a:	4905      	ldr	r1, [pc, #20]	; (4a20 <spi_select_slave+0xf0>)
    4a0c:	468c      	mov	ip, r1
    4a0e:	4463      	add	r3, ip
    4a10:	211f      	movs	r1, #31
    4a12:	4011      	ands	r1, r2
    4a14:	2201      	movs	r2, #1
    4a16:	408a      	lsls	r2, r1
    4a18:	619a      	str	r2, [r3, #24]
    4a1a:	2300      	movs	r3, #0
    4a1c:	e78d      	b.n	493a <spi_select_slave+0xa>
    4a1e:	46c0      	nop			; (mov r8, r8)
    4a20:	41004400 	.word	0x41004400

00004a24 <_spi_interrupt_handler>:
    4a24:	b5f8      	push	{r3, r4, r5, r6, r7, lr}
    4a26:	0080      	lsls	r0, r0, #2
    4a28:	4b70      	ldr	r3, [pc, #448]	; (4bec <_spi_interrupt_handler+0x1c8>)
    4a2a:	58c4      	ldr	r4, [r0, r3]
    4a2c:	6826      	ldr	r6, [r4, #0]
    4a2e:	2337      	movs	r3, #55	; 0x37
    4a30:	5ce7      	ldrb	r7, [r4, r3]
    4a32:	2236      	movs	r2, #54	; 0x36
    4a34:	5ca2      	ldrb	r2, [r4, r2]
    4a36:	4017      	ands	r7, r2
    4a38:	7e33      	ldrb	r3, [r6, #24]
    4a3a:	7db5      	ldrb	r5, [r6, #22]
    4a3c:	401d      	ands	r5, r3
    4a3e:	07eb      	lsls	r3, r5, #31
    4a40:	d502      	bpl.n	4a48 <_spi_interrupt_handler+0x24>
    4a42:	7963      	ldrb	r3, [r4, #5]
    4a44:	2b01      	cmp	r3, #1
    4a46:	d01e      	beq.n	4a86 <_spi_interrupt_handler+0x62>
    4a48:	076b      	lsls	r3, r5, #29
    4a4a:	d511      	bpl.n	4a70 <_spi_interrupt_handler+0x4c>
    4a4c:	8b73      	ldrh	r3, [r6, #26]
    4a4e:	075b      	lsls	r3, r3, #29
    4a50:	d55a      	bpl.n	4b08 <_spi_interrupt_handler+0xe4>
    4a52:	7a63      	ldrb	r3, [r4, #9]
    4a54:	2b01      	cmp	r3, #1
    4a56:	d008      	beq.n	4a6a <_spi_interrupt_handler+0x46>
    4a58:	221e      	movs	r2, #30
    4a5a:	2338      	movs	r3, #56	; 0x38
    4a5c:	54e2      	strb	r2, [r4, r3]
    4a5e:	3b35      	subs	r3, #53	; 0x35
    4a60:	7263      	strb	r3, [r4, #9]
    4a62:	3302      	adds	r3, #2
    4a64:	7533      	strb	r3, [r6, #20]
    4a66:	073b      	lsls	r3, r7, #28
    4a68:	d44a      	bmi.n	4b00 <_spi_interrupt_handler+0xdc>
    4a6a:	6ab3      	ldr	r3, [r6, #40]	; 0x28
    4a6c:	2304      	movs	r3, #4
    4a6e:	8373      	strh	r3, [r6, #26]
    4a70:	07ab      	lsls	r3, r5, #30
    4a72:	d503      	bpl.n	4a7c <_spi_interrupt_handler+0x58>
    4a74:	7963      	ldrb	r3, [r4, #5]
    4a76:	2b01      	cmp	r3, #1
    4a78:	d100      	bne.n	4a7c <_spi_interrupt_handler+0x58>
    4a7a:	e097      	b.n	4bac <_spi_interrupt_handler+0x188>
    4a7c:	b26d      	sxtb	r5, r5
    4a7e:	2d00      	cmp	r5, #0
    4a80:	da00      	bge.n	4a84 <_spi_interrupt_handler+0x60>
    4a82:	e0a9      	b.n	4bd8 <_spi_interrupt_handler+0x1b4>
    4a84:	bdf8      	pop	{r3, r4, r5, r6, r7, pc}
    4a86:	7a63      	ldrb	r3, [r4, #9]
    4a88:	2b00      	cmp	r3, #0
    4a8a:	d022      	beq.n	4ad2 <_spi_interrupt_handler+0xae>
    4a8c:	7a63      	ldrb	r3, [r4, #9]
    4a8e:	2b00      	cmp	r3, #0
    4a90:	d0da      	beq.n	4a48 <_spi_interrupt_handler+0x24>
    4a92:	6821      	ldr	r1, [r4, #0]
    4a94:	6ae2      	ldr	r2, [r4, #44]	; 0x2c
    4a96:	7813      	ldrb	r3, [r2, #0]
    4a98:	b2db      	uxtb	r3, r3
    4a9a:	1c50      	adds	r0, r2, #1
    4a9c:	62e0      	str	r0, [r4, #44]	; 0x2c
    4a9e:	79a0      	ldrb	r0, [r4, #6]
    4aa0:	2801      	cmp	r0, #1
    4aa2:	d027      	beq.n	4af4 <_spi_interrupt_handler+0xd0>
    4aa4:	b29b      	uxth	r3, r3
    4aa6:	05db      	lsls	r3, r3, #23
    4aa8:	0ddb      	lsrs	r3, r3, #23
    4aaa:	628b      	str	r3, [r1, #40]	; 0x28
    4aac:	8ea3      	ldrh	r3, [r4, #52]	; 0x34
    4aae:	3b01      	subs	r3, #1
    4ab0:	b29b      	uxth	r3, r3
    4ab2:	86a3      	strh	r3, [r4, #52]	; 0x34
    4ab4:	8ea3      	ldrh	r3, [r4, #52]	; 0x34
    4ab6:	b29b      	uxth	r3, r3
    4ab8:	2b00      	cmp	r3, #0
    4aba:	d1c5      	bne.n	4a48 <_spi_interrupt_handler+0x24>
    4abc:	3301      	adds	r3, #1
    4abe:	7533      	strb	r3, [r6, #20]
    4ac0:	7a63      	ldrb	r3, [r4, #9]
    4ac2:	2b01      	cmp	r3, #1
    4ac4:	d1c0      	bne.n	4a48 <_spi_interrupt_handler+0x24>
    4ac6:	79e3      	ldrb	r3, [r4, #7]
    4ac8:	2b00      	cmp	r3, #0
    4aca:	d1bd      	bne.n	4a48 <_spi_interrupt_handler+0x24>
    4acc:	3302      	adds	r3, #2
    4ace:	75b3      	strb	r3, [r6, #22]
    4ad0:	e7ba      	b.n	4a48 <_spi_interrupt_handler+0x24>
    4ad2:	4b47      	ldr	r3, [pc, #284]	; (4bf0 <_spi_interrupt_handler+0x1cc>)
    4ad4:	881b      	ldrh	r3, [r3, #0]
    4ad6:	62b3      	str	r3, [r6, #40]	; 0x28
    4ad8:	8e63      	ldrh	r3, [r4, #50]	; 0x32
    4ada:	3b01      	subs	r3, #1
    4adc:	b29b      	uxth	r3, r3
    4ade:	8663      	strh	r3, [r4, #50]	; 0x32
    4ae0:	8e63      	ldrh	r3, [r4, #50]	; 0x32
    4ae2:	b29b      	uxth	r3, r3
    4ae4:	2b00      	cmp	r3, #0
    4ae6:	d101      	bne.n	4aec <_spi_interrupt_handler+0xc8>
    4ae8:	3301      	adds	r3, #1
    4aea:	7533      	strb	r3, [r6, #20]
    4aec:	7963      	ldrb	r3, [r4, #5]
    4aee:	2b01      	cmp	r3, #1
    4af0:	d0cc      	beq.n	4a8c <_spi_interrupt_handler+0x68>
    4af2:	e7a9      	b.n	4a48 <_spi_interrupt_handler+0x24>
    4af4:	7850      	ldrb	r0, [r2, #1]
    4af6:	0200      	lsls	r0, r0, #8
    4af8:	4303      	orrs	r3, r0
    4afa:	3202      	adds	r2, #2
    4afc:	62e2      	str	r2, [r4, #44]	; 0x2c
    4afe:	e7d2      	b.n	4aa6 <_spi_interrupt_handler+0x82>
    4b00:	0020      	movs	r0, r4
    4b02:	69a3      	ldr	r3, [r4, #24]
    4b04:	4798      	blx	r3
    4b06:	e7b0      	b.n	4a6a <_spi_interrupt_handler+0x46>
    4b08:	7a63      	ldrb	r3, [r4, #9]
    4b0a:	2b01      	cmp	r3, #1
    4b0c:	d028      	beq.n	4b60 <_spi_interrupt_handler+0x13c>
    4b0e:	6823      	ldr	r3, [r4, #0]
    4b10:	6a9b      	ldr	r3, [r3, #40]	; 0x28
    4b12:	05db      	lsls	r3, r3, #23
    4b14:	0ddb      	lsrs	r3, r3, #23
    4b16:	b2da      	uxtb	r2, r3
    4b18:	6aa1      	ldr	r1, [r4, #40]	; 0x28
    4b1a:	700a      	strb	r2, [r1, #0]
    4b1c:	6aa2      	ldr	r2, [r4, #40]	; 0x28
    4b1e:	1c51      	adds	r1, r2, #1
    4b20:	62a1      	str	r1, [r4, #40]	; 0x28
    4b22:	79a1      	ldrb	r1, [r4, #6]
    4b24:	2901      	cmp	r1, #1
    4b26:	d034      	beq.n	4b92 <_spi_interrupt_handler+0x16e>
    4b28:	8e23      	ldrh	r3, [r4, #48]	; 0x30
    4b2a:	3b01      	subs	r3, #1
    4b2c:	b29b      	uxth	r3, r3
    4b2e:	8623      	strh	r3, [r4, #48]	; 0x30
    4b30:	8e23      	ldrh	r3, [r4, #48]	; 0x30
    4b32:	b29b      	uxth	r3, r3
    4b34:	2b00      	cmp	r3, #0
    4b36:	d000      	beq.n	4b3a <_spi_interrupt_handler+0x116>
    4b38:	e79a      	b.n	4a70 <_spi_interrupt_handler+0x4c>
    4b3a:	2200      	movs	r2, #0
    4b3c:	3338      	adds	r3, #56	; 0x38
    4b3e:	54e2      	strb	r2, [r4, r3]
    4b40:	3b34      	subs	r3, #52	; 0x34
    4b42:	7533      	strb	r3, [r6, #20]
    4b44:	7a63      	ldrb	r3, [r4, #9]
    4b46:	2b02      	cmp	r3, #2
    4b48:	d029      	beq.n	4b9e <_spi_interrupt_handler+0x17a>
    4b4a:	7a63      	ldrb	r3, [r4, #9]
    4b4c:	2b00      	cmp	r3, #0
    4b4e:	d000      	beq.n	4b52 <_spi_interrupt_handler+0x12e>
    4b50:	e78e      	b.n	4a70 <_spi_interrupt_handler+0x4c>
    4b52:	07bb      	lsls	r3, r7, #30
    4b54:	d400      	bmi.n	4b58 <_spi_interrupt_handler+0x134>
    4b56:	e78b      	b.n	4a70 <_spi_interrupt_handler+0x4c>
    4b58:	0020      	movs	r0, r4
    4b5a:	6923      	ldr	r3, [r4, #16]
    4b5c:	4798      	blx	r3
    4b5e:	e787      	b.n	4a70 <_spi_interrupt_handler+0x4c>
    4b60:	6823      	ldr	r3, [r4, #0]
    4b62:	6a9b      	ldr	r3, [r3, #40]	; 0x28
    4b64:	8e63      	ldrh	r3, [r4, #50]	; 0x32
    4b66:	3b01      	subs	r3, #1
    4b68:	b29b      	uxth	r3, r3
    4b6a:	8663      	strh	r3, [r4, #50]	; 0x32
    4b6c:	8e63      	ldrh	r3, [r4, #50]	; 0x32
    4b6e:	b29b      	uxth	r3, r3
    4b70:	2b00      	cmp	r3, #0
    4b72:	d000      	beq.n	4b76 <_spi_interrupt_handler+0x152>
    4b74:	e77c      	b.n	4a70 <_spi_interrupt_handler+0x4c>
    4b76:	3304      	adds	r3, #4
    4b78:	7533      	strb	r3, [r6, #20]
    4b7a:	2200      	movs	r2, #0
    4b7c:	3334      	adds	r3, #52	; 0x34
    4b7e:	54e2      	strb	r2, [r4, r3]
    4b80:	3b35      	subs	r3, #53	; 0x35
    4b82:	7263      	strb	r3, [r4, #9]
    4b84:	07fb      	lsls	r3, r7, #31
    4b86:	d400      	bmi.n	4b8a <_spi_interrupt_handler+0x166>
    4b88:	e772      	b.n	4a70 <_spi_interrupt_handler+0x4c>
    4b8a:	0020      	movs	r0, r4
    4b8c:	68e3      	ldr	r3, [r4, #12]
    4b8e:	4798      	blx	r3
    4b90:	e76e      	b.n	4a70 <_spi_interrupt_handler+0x4c>
    4b92:	0a1b      	lsrs	r3, r3, #8
    4b94:	7053      	strb	r3, [r2, #1]
    4b96:	6aa3      	ldr	r3, [r4, #40]	; 0x28
    4b98:	3301      	adds	r3, #1
    4b9a:	62a3      	str	r3, [r4, #40]	; 0x28
    4b9c:	e7c4      	b.n	4b28 <_spi_interrupt_handler+0x104>
    4b9e:	077b      	lsls	r3, r7, #29
    4ba0:	d400      	bmi.n	4ba4 <_spi_interrupt_handler+0x180>
    4ba2:	e765      	b.n	4a70 <_spi_interrupt_handler+0x4c>
    4ba4:	0020      	movs	r0, r4
    4ba6:	6963      	ldr	r3, [r4, #20]
    4ba8:	4798      	blx	r3
    4baa:	e761      	b.n	4a70 <_spi_interrupt_handler+0x4c>
    4bac:	7a63      	ldrb	r3, [r4, #9]
    4bae:	2b01      	cmp	r3, #1
    4bb0:	d000      	beq.n	4bb4 <_spi_interrupt_handler+0x190>
    4bb2:	e763      	b.n	4a7c <_spi_interrupt_handler+0x58>
    4bb4:	79e3      	ldrb	r3, [r4, #7]
    4bb6:	2b00      	cmp	r3, #0
    4bb8:	d000      	beq.n	4bbc <_spi_interrupt_handler+0x198>
    4bba:	e75f      	b.n	4a7c <_spi_interrupt_handler+0x58>
    4bbc:	3302      	adds	r3, #2
    4bbe:	7533      	strb	r3, [r6, #20]
    4bc0:	3301      	adds	r3, #1
    4bc2:	7263      	strb	r3, [r4, #9]
    4bc4:	2200      	movs	r2, #0
    4bc6:	3335      	adds	r3, #53	; 0x35
    4bc8:	54e2      	strb	r2, [r4, r3]
    4bca:	07fb      	lsls	r3, r7, #31
    4bcc:	d400      	bmi.n	4bd0 <_spi_interrupt_handler+0x1ac>
    4bce:	e755      	b.n	4a7c <_spi_interrupt_handler+0x58>
    4bd0:	0020      	movs	r0, r4
    4bd2:	68e3      	ldr	r3, [r4, #12]
    4bd4:	4798      	blx	r3
    4bd6:	e751      	b.n	4a7c <_spi_interrupt_handler+0x58>
    4bd8:	2380      	movs	r3, #128	; 0x80
    4bda:	7533      	strb	r3, [r6, #20]
    4bdc:	7633      	strb	r3, [r6, #24]
    4bde:	067b      	lsls	r3, r7, #25
    4be0:	d400      	bmi.n	4be4 <_spi_interrupt_handler+0x1c0>
    4be2:	e74f      	b.n	4a84 <_spi_interrupt_handler+0x60>
    4be4:	6a63      	ldr	r3, [r4, #36]	; 0x24
    4be6:	0020      	movs	r0, r4
    4be8:	4798      	blx	r3
    4bea:	e74b      	b.n	4a84 <_spi_interrupt_handler+0x60>
    4bec:	20000b64 	.word	0x20000b64
    4bf0:	20000b7c 	.word	0x20000b7c

00004bf4 <system_clock_source_get_hz>:
    4bf4:	b510      	push	{r4, lr}
    4bf6:	2808      	cmp	r0, #8
    4bf8:	d803      	bhi.n	4c02 <system_clock_source_get_hz+0xe>
    4bfa:	0080      	lsls	r0, r0, #2
    4bfc:	4b1b      	ldr	r3, [pc, #108]	; (4c6c <system_clock_source_get_hz+0x78>)
    4bfe:	581b      	ldr	r3, [r3, r0]
    4c00:	469f      	mov	pc, r3
    4c02:	2000      	movs	r0, #0
    4c04:	e030      	b.n	4c68 <system_clock_source_get_hz+0x74>
    4c06:	4b1a      	ldr	r3, [pc, #104]	; (4c70 <system_clock_source_get_hz+0x7c>)
    4c08:	6918      	ldr	r0, [r3, #16]
    4c0a:	e02d      	b.n	4c68 <system_clock_source_get_hz+0x74>
    4c0c:	4b19      	ldr	r3, [pc, #100]	; (4c74 <system_clock_source_get_hz+0x80>)
    4c0e:	6a1b      	ldr	r3, [r3, #32]
    4c10:	059b      	lsls	r3, r3, #22
    4c12:	0f9b      	lsrs	r3, r3, #30
    4c14:	4818      	ldr	r0, [pc, #96]	; (4c78 <system_clock_source_get_hz+0x84>)
    4c16:	40d8      	lsrs	r0, r3
    4c18:	e026      	b.n	4c68 <system_clock_source_get_hz+0x74>
    4c1a:	4b15      	ldr	r3, [pc, #84]	; (4c70 <system_clock_source_get_hz+0x7c>)
    4c1c:	6958      	ldr	r0, [r3, #20]
    4c1e:	e023      	b.n	4c68 <system_clock_source_get_hz+0x74>
    4c20:	4b13      	ldr	r3, [pc, #76]	; (4c70 <system_clock_source_get_hz+0x7c>)
    4c22:	681b      	ldr	r3, [r3, #0]
    4c24:	2000      	movs	r0, #0
    4c26:	079b      	lsls	r3, r3, #30
    4c28:	d51e      	bpl.n	4c68 <system_clock_source_get_hz+0x74>
    4c2a:	4912      	ldr	r1, [pc, #72]	; (4c74 <system_clock_source_get_hz+0x80>)
    4c2c:	2210      	movs	r2, #16
    4c2e:	68cb      	ldr	r3, [r1, #12]
    4c30:	421a      	tst	r2, r3
    4c32:	d0fc      	beq.n	4c2e <system_clock_source_get_hz+0x3a>
    4c34:	4b0e      	ldr	r3, [pc, #56]	; (4c70 <system_clock_source_get_hz+0x7c>)
    4c36:	681b      	ldr	r3, [r3, #0]
    4c38:	075b      	lsls	r3, r3, #29
    4c3a:	d401      	bmi.n	4c40 <system_clock_source_get_hz+0x4c>
    4c3c:	480f      	ldr	r0, [pc, #60]	; (4c7c <system_clock_source_get_hz+0x88>)
    4c3e:	e013      	b.n	4c68 <system_clock_source_get_hz+0x74>
    4c40:	2000      	movs	r0, #0
    4c42:	4b0f      	ldr	r3, [pc, #60]	; (4c80 <system_clock_source_get_hz+0x8c>)
    4c44:	4798      	blx	r3
    4c46:	4b0a      	ldr	r3, [pc, #40]	; (4c70 <system_clock_source_get_hz+0x7c>)
    4c48:	689b      	ldr	r3, [r3, #8]
    4c4a:	041b      	lsls	r3, r3, #16
    4c4c:	0c1b      	lsrs	r3, r3, #16
    4c4e:	4358      	muls	r0, r3
    4c50:	e00a      	b.n	4c68 <system_clock_source_get_hz+0x74>
    4c52:	2350      	movs	r3, #80	; 0x50
    4c54:	4a07      	ldr	r2, [pc, #28]	; (4c74 <system_clock_source_get_hz+0x80>)
    4c56:	5cd3      	ldrb	r3, [r2, r3]
    4c58:	2000      	movs	r0, #0
    4c5a:	075b      	lsls	r3, r3, #29
    4c5c:	d504      	bpl.n	4c68 <system_clock_source_get_hz+0x74>
    4c5e:	4b04      	ldr	r3, [pc, #16]	; (4c70 <system_clock_source_get_hz+0x7c>)
    4c60:	68d8      	ldr	r0, [r3, #12]
    4c62:	e001      	b.n	4c68 <system_clock_source_get_hz+0x74>
    4c64:	2080      	movs	r0, #128	; 0x80
    4c66:	0200      	lsls	r0, r0, #8
    4c68:	bd10      	pop	{r4, pc}
    4c6a:	46c0      	nop			; (mov r8, r8)
    4c6c:	0000acf4 	.word	0x0000acf4
    4c70:	200001c4 	.word	0x200001c4
    4c74:	40000800 	.word	0x40000800
    4c78:	007a1200 	.word	0x007a1200
    4c7c:	02dc6c00 	.word	0x02dc6c00
    4c80:	00005241 	.word	0x00005241

00004c84 <system_clock_source_osc8m_set_config>:
    4c84:	b570      	push	{r4, r5, r6, lr}
    4c86:	490c      	ldr	r1, [pc, #48]	; (4cb8 <system_clock_source_osc8m_set_config+0x34>)
    4c88:	6a0b      	ldr	r3, [r1, #32]
    4c8a:	7804      	ldrb	r4, [r0, #0]
    4c8c:	7885      	ldrb	r5, [r0, #2]
    4c8e:	7840      	ldrb	r0, [r0, #1]
    4c90:	2201      	movs	r2, #1
    4c92:	4010      	ands	r0, r2
    4c94:	0180      	lsls	r0, r0, #6
    4c96:	2640      	movs	r6, #64	; 0x40
    4c98:	43b3      	bics	r3, r6
    4c9a:	4303      	orrs	r3, r0
    4c9c:	402a      	ands	r2, r5
    4c9e:	01d2      	lsls	r2, r2, #7
    4ca0:	2080      	movs	r0, #128	; 0x80
    4ca2:	4383      	bics	r3, r0
    4ca4:	4313      	orrs	r3, r2
    4ca6:	2203      	movs	r2, #3
    4ca8:	4022      	ands	r2, r4
    4caa:	0212      	lsls	r2, r2, #8
    4cac:	4803      	ldr	r0, [pc, #12]	; (4cbc <system_clock_source_osc8m_set_config+0x38>)
    4cae:	4003      	ands	r3, r0
    4cb0:	4313      	orrs	r3, r2
    4cb2:	620b      	str	r3, [r1, #32]
    4cb4:	bd70      	pop	{r4, r5, r6, pc}
    4cb6:	46c0      	nop			; (mov r8, r8)
    4cb8:	40000800 	.word	0x40000800
    4cbc:	fffffcff 	.word	0xfffffcff

00004cc0 <system_clock_source_osc32k_set_config>:
    4cc0:	b5f0      	push	{r4, r5, r6, r7, lr}
    4cc2:	46ce      	mov	lr, r9
    4cc4:	4647      	mov	r7, r8
    4cc6:	b580      	push	{r7, lr}
    4cc8:	4b19      	ldr	r3, [pc, #100]	; (4d30 <system_clock_source_osc32k_set_config+0x70>)
    4cca:	4699      	mov	r9, r3
    4ccc:	699b      	ldr	r3, [r3, #24]
    4cce:	7841      	ldrb	r1, [r0, #1]
    4cd0:	468c      	mov	ip, r1
    4cd2:	7805      	ldrb	r5, [r0, #0]
    4cd4:	7906      	ldrb	r6, [r0, #4]
    4cd6:	78c7      	ldrb	r7, [r0, #3]
    4cd8:	7944      	ldrb	r4, [r0, #5]
    4cda:	7880      	ldrb	r0, [r0, #2]
    4cdc:	2101      	movs	r1, #1
    4cde:	4008      	ands	r0, r1
    4ce0:	0080      	lsls	r0, r0, #2
    4ce2:	2204      	movs	r2, #4
    4ce4:	4393      	bics	r3, r2
    4ce6:	4303      	orrs	r3, r0
    4ce8:	4660      	mov	r0, ip
    4cea:	4008      	ands	r0, r1
    4cec:	00c0      	lsls	r0, r0, #3
    4cee:	3204      	adds	r2, #4
    4cf0:	4393      	bics	r3, r2
    4cf2:	4303      	orrs	r3, r0
    4cf4:	0038      	movs	r0, r7
    4cf6:	4008      	ands	r0, r1
    4cf8:	0180      	lsls	r0, r0, #6
    4cfa:	2740      	movs	r7, #64	; 0x40
    4cfc:	43bb      	bics	r3, r7
    4cfe:	4303      	orrs	r3, r0
    4d00:	0030      	movs	r0, r6
    4d02:	4008      	ands	r0, r1
    4d04:	01c0      	lsls	r0, r0, #7
    4d06:	2680      	movs	r6, #128	; 0x80
    4d08:	43b3      	bics	r3, r6
    4d0a:	4303      	orrs	r3, r0
    4d0c:	2007      	movs	r0, #7
    4d0e:	4005      	ands	r5, r0
    4d10:	022d      	lsls	r5, r5, #8
    4d12:	4808      	ldr	r0, [pc, #32]	; (4d34 <system_clock_source_osc32k_set_config+0x74>)
    4d14:	4003      	ands	r3, r0
    4d16:	432b      	orrs	r3, r5
    4d18:	4021      	ands	r1, r4
    4d1a:	0309      	lsls	r1, r1, #12
    4d1c:	4806      	ldr	r0, [pc, #24]	; (4d38 <system_clock_source_osc32k_set_config+0x78>)
    4d1e:	4003      	ands	r3, r0
    4d20:	430b      	orrs	r3, r1
    4d22:	464a      	mov	r2, r9
    4d24:	6193      	str	r3, [r2, #24]
    4d26:	bc0c      	pop	{r2, r3}
    4d28:	4690      	mov	r8, r2
    4d2a:	4699      	mov	r9, r3
    4d2c:	bdf0      	pop	{r4, r5, r6, r7, pc}
    4d2e:	46c0      	nop			; (mov r8, r8)
    4d30:	40000800 	.word	0x40000800
    4d34:	fffff8ff 	.word	0xfffff8ff
    4d38:	ffffefff 	.word	0xffffefff

00004d3c <system_clock_source_dfll_set_config>:
    4d3c:	b510      	push	{r4, lr}
    4d3e:	7a03      	ldrb	r3, [r0, #8]
    4d40:	069b      	lsls	r3, r3, #26
    4d42:	0c1b      	lsrs	r3, r3, #16
    4d44:	8942      	ldrh	r2, [r0, #10]
    4d46:	0592      	lsls	r2, r2, #22
    4d48:	0d92      	lsrs	r2, r2, #22
    4d4a:	4313      	orrs	r3, r2
    4d4c:	4918      	ldr	r1, [pc, #96]	; (4db0 <system_clock_source_dfll_set_config+0x74>)
    4d4e:	604b      	str	r3, [r1, #4]
    4d50:	7983      	ldrb	r3, [r0, #6]
    4d52:	79c2      	ldrb	r2, [r0, #7]
    4d54:	4313      	orrs	r3, r2
    4d56:	8842      	ldrh	r2, [r0, #2]
    4d58:	8884      	ldrh	r4, [r0, #4]
    4d5a:	4322      	orrs	r2, r4
    4d5c:	4313      	orrs	r3, r2
    4d5e:	7842      	ldrb	r2, [r0, #1]
    4d60:	01d2      	lsls	r2, r2, #7
    4d62:	4313      	orrs	r3, r2
    4d64:	600b      	str	r3, [r1, #0]
    4d66:	7803      	ldrb	r3, [r0, #0]
    4d68:	2b04      	cmp	r3, #4
    4d6a:	d011      	beq.n	4d90 <system_clock_source_dfll_set_config+0x54>
    4d6c:	2b20      	cmp	r3, #32
    4d6e:	d10e      	bne.n	4d8e <system_clock_source_dfll_set_config+0x52>
    4d70:	7b03      	ldrb	r3, [r0, #12]
    4d72:	069b      	lsls	r3, r3, #26
    4d74:	8a02      	ldrh	r2, [r0, #16]
    4d76:	4313      	orrs	r3, r2
    4d78:	89c2      	ldrh	r2, [r0, #14]
    4d7a:	0412      	lsls	r2, r2, #16
    4d7c:	490d      	ldr	r1, [pc, #52]	; (4db4 <system_clock_source_dfll_set_config+0x78>)
    4d7e:	400a      	ands	r2, r1
    4d80:	4313      	orrs	r3, r2
    4d82:	4a0b      	ldr	r2, [pc, #44]	; (4db0 <system_clock_source_dfll_set_config+0x74>)
    4d84:	6093      	str	r3, [r2, #8]
    4d86:	6811      	ldr	r1, [r2, #0]
    4d88:	4b0b      	ldr	r3, [pc, #44]	; (4db8 <system_clock_source_dfll_set_config+0x7c>)
    4d8a:	430b      	orrs	r3, r1
    4d8c:	6013      	str	r3, [r2, #0]
    4d8e:	bd10      	pop	{r4, pc}
    4d90:	7b03      	ldrb	r3, [r0, #12]
    4d92:	069b      	lsls	r3, r3, #26
    4d94:	8a02      	ldrh	r2, [r0, #16]
    4d96:	4313      	orrs	r3, r2
    4d98:	89c2      	ldrh	r2, [r0, #14]
    4d9a:	0412      	lsls	r2, r2, #16
    4d9c:	4905      	ldr	r1, [pc, #20]	; (4db4 <system_clock_source_dfll_set_config+0x78>)
    4d9e:	400a      	ands	r2, r1
    4da0:	4313      	orrs	r3, r2
    4da2:	4a03      	ldr	r2, [pc, #12]	; (4db0 <system_clock_source_dfll_set_config+0x74>)
    4da4:	6093      	str	r3, [r2, #8]
    4da6:	6813      	ldr	r3, [r2, #0]
    4da8:	2104      	movs	r1, #4
    4daa:	430b      	orrs	r3, r1
    4dac:	6013      	str	r3, [r2, #0]
    4dae:	e7ee      	b.n	4d8e <system_clock_source_dfll_set_config+0x52>
    4db0:	200001c4 	.word	0x200001c4
    4db4:	03ff0000 	.word	0x03ff0000
    4db8:	00000424 	.word	0x00000424

00004dbc <system_clock_source_enable>:
    4dbc:	2808      	cmp	r0, #8
    4dbe:	d803      	bhi.n	4dc8 <system_clock_source_enable+0xc>
    4dc0:	0080      	lsls	r0, r0, #2
    4dc2:	4b25      	ldr	r3, [pc, #148]	; (4e58 <system_clock_source_enable+0x9c>)
    4dc4:	581b      	ldr	r3, [r3, r0]
    4dc6:	469f      	mov	pc, r3
    4dc8:	2017      	movs	r0, #23
    4dca:	e044      	b.n	4e56 <system_clock_source_enable+0x9a>
    4dcc:	4a23      	ldr	r2, [pc, #140]	; (4e5c <system_clock_source_enable+0xa0>)
    4dce:	6a13      	ldr	r3, [r2, #32]
    4dd0:	2102      	movs	r1, #2
    4dd2:	430b      	orrs	r3, r1
    4dd4:	6213      	str	r3, [r2, #32]
    4dd6:	2000      	movs	r0, #0
    4dd8:	e03d      	b.n	4e56 <system_clock_source_enable+0x9a>
    4dda:	4a20      	ldr	r2, [pc, #128]	; (4e5c <system_clock_source_enable+0xa0>)
    4ddc:	6993      	ldr	r3, [r2, #24]
    4dde:	2102      	movs	r1, #2
    4de0:	430b      	orrs	r3, r1
    4de2:	6193      	str	r3, [r2, #24]
    4de4:	2000      	movs	r0, #0
    4de6:	e036      	b.n	4e56 <system_clock_source_enable+0x9a>
    4de8:	4a1c      	ldr	r2, [pc, #112]	; (4e5c <system_clock_source_enable+0xa0>)
    4dea:	8a13      	ldrh	r3, [r2, #16]
    4dec:	2102      	movs	r1, #2
    4dee:	430b      	orrs	r3, r1
    4df0:	8213      	strh	r3, [r2, #16]
    4df2:	2000      	movs	r0, #0
    4df4:	e02f      	b.n	4e56 <system_clock_source_enable+0x9a>
    4df6:	4a19      	ldr	r2, [pc, #100]	; (4e5c <system_clock_source_enable+0xa0>)
    4df8:	8a93      	ldrh	r3, [r2, #20]
    4dfa:	2102      	movs	r1, #2
    4dfc:	430b      	orrs	r3, r1
    4dfe:	8293      	strh	r3, [r2, #20]
    4e00:	2000      	movs	r0, #0
    4e02:	e028      	b.n	4e56 <system_clock_source_enable+0x9a>
    4e04:	4916      	ldr	r1, [pc, #88]	; (4e60 <system_clock_source_enable+0xa4>)
    4e06:	680b      	ldr	r3, [r1, #0]
    4e08:	2202      	movs	r2, #2
    4e0a:	4313      	orrs	r3, r2
    4e0c:	600b      	str	r3, [r1, #0]
    4e0e:	4b13      	ldr	r3, [pc, #76]	; (4e5c <system_clock_source_enable+0xa0>)
    4e10:	849a      	strh	r2, [r3, #36]	; 0x24
    4e12:	0019      	movs	r1, r3
    4e14:	320e      	adds	r2, #14
    4e16:	68cb      	ldr	r3, [r1, #12]
    4e18:	421a      	tst	r2, r3
    4e1a:	d0fc      	beq.n	4e16 <system_clock_source_enable+0x5a>
    4e1c:	4a10      	ldr	r2, [pc, #64]	; (4e60 <system_clock_source_enable+0xa4>)
    4e1e:	6891      	ldr	r1, [r2, #8]
    4e20:	4b0e      	ldr	r3, [pc, #56]	; (4e5c <system_clock_source_enable+0xa0>)
    4e22:	62d9      	str	r1, [r3, #44]	; 0x2c
    4e24:	6852      	ldr	r2, [r2, #4]
    4e26:	629a      	str	r2, [r3, #40]	; 0x28
    4e28:	2200      	movs	r2, #0
    4e2a:	849a      	strh	r2, [r3, #36]	; 0x24
    4e2c:	0019      	movs	r1, r3
    4e2e:	3210      	adds	r2, #16
    4e30:	68cb      	ldr	r3, [r1, #12]
    4e32:	421a      	tst	r2, r3
    4e34:	d0fc      	beq.n	4e30 <system_clock_source_enable+0x74>
    4e36:	4b0a      	ldr	r3, [pc, #40]	; (4e60 <system_clock_source_enable+0xa4>)
    4e38:	681b      	ldr	r3, [r3, #0]
    4e3a:	b29b      	uxth	r3, r3
    4e3c:	4a07      	ldr	r2, [pc, #28]	; (4e5c <system_clock_source_enable+0xa0>)
    4e3e:	8493      	strh	r3, [r2, #36]	; 0x24
    4e40:	2000      	movs	r0, #0
    4e42:	e008      	b.n	4e56 <system_clock_source_enable+0x9a>
    4e44:	4905      	ldr	r1, [pc, #20]	; (4e5c <system_clock_source_enable+0xa0>)
    4e46:	2244      	movs	r2, #68	; 0x44
    4e48:	5c8b      	ldrb	r3, [r1, r2]
    4e4a:	2002      	movs	r0, #2
    4e4c:	4303      	orrs	r3, r0
    4e4e:	548b      	strb	r3, [r1, r2]
    4e50:	2000      	movs	r0, #0
    4e52:	e000      	b.n	4e56 <system_clock_source_enable+0x9a>
    4e54:	2000      	movs	r0, #0
    4e56:	4770      	bx	lr
    4e58:	0000ad18 	.word	0x0000ad18
    4e5c:	40000800 	.word	0x40000800
    4e60:	200001c4 	.word	0x200001c4

00004e64 <system_clock_init>:
    4e64:	b5f0      	push	{r4, r5, r6, r7, lr}
    4e66:	46ce      	mov	lr, r9
    4e68:	4647      	mov	r7, r8
    4e6a:	b580      	push	{r7, lr}
    4e6c:	b08d      	sub	sp, #52	; 0x34
    4e6e:	22c2      	movs	r2, #194	; 0xc2
    4e70:	00d2      	lsls	r2, r2, #3
    4e72:	4b50      	ldr	r3, [pc, #320]	; (4fb4 <system_clock_init+0x150>)
    4e74:	609a      	str	r2, [r3, #8]
    4e76:	4a50      	ldr	r2, [pc, #320]	; (4fb8 <system_clock_init+0x154>)
    4e78:	6853      	ldr	r3, [r2, #4]
    4e7a:	211e      	movs	r1, #30
    4e7c:	438b      	bics	r3, r1
    4e7e:	391a      	subs	r1, #26
    4e80:	430b      	orrs	r3, r1
    4e82:	6053      	str	r3, [r2, #4]
    4e84:	2203      	movs	r2, #3
    4e86:	ab01      	add	r3, sp, #4
    4e88:	701a      	strb	r2, [r3, #0]
    4e8a:	2400      	movs	r4, #0
    4e8c:	4d4b      	ldr	r5, [pc, #300]	; (4fbc <system_clock_init+0x158>)
    4e8e:	b2e0      	uxtb	r0, r4
    4e90:	a901      	add	r1, sp, #4
    4e92:	47a8      	blx	r5
    4e94:	3401      	adds	r4, #1
    4e96:	2c25      	cmp	r4, #37	; 0x25
    4e98:	d1f9      	bne.n	4e8e <system_clock_init+0x2a>
    4e9a:	4d49      	ldr	r5, [pc, #292]	; (4fc0 <system_clock_init+0x15c>)
    4e9c:	682b      	ldr	r3, [r5, #0]
    4e9e:	04db      	lsls	r3, r3, #19
    4ea0:	4944      	ldr	r1, [pc, #272]	; (4fb4 <system_clock_init+0x150>)
    4ea2:	698a      	ldr	r2, [r1, #24]
    4ea4:	0e5b      	lsrs	r3, r3, #25
    4ea6:	041b      	lsls	r3, r3, #16
    4ea8:	4846      	ldr	r0, [pc, #280]	; (4fc4 <system_clock_init+0x160>)
    4eaa:	4002      	ands	r2, r0
    4eac:	4313      	orrs	r3, r2
    4eae:	618b      	str	r3, [r1, #24]
    4eb0:	a80a      	add	r0, sp, #40	; 0x28
    4eb2:	2301      	movs	r3, #1
    4eb4:	7083      	strb	r3, [r0, #2]
    4eb6:	2207      	movs	r2, #7
    4eb8:	7002      	strb	r2, [r0, #0]
    4eba:	2400      	movs	r4, #0
    4ebc:	7144      	strb	r4, [r0, #5]
    4ebe:	7044      	strb	r4, [r0, #1]
    4ec0:	7104      	strb	r4, [r0, #4]
    4ec2:	70c3      	strb	r3, [r0, #3]
    4ec4:	4b40      	ldr	r3, [pc, #256]	; (4fc8 <system_clock_init+0x164>)
    4ec6:	4798      	blx	r3
    4ec8:	2004      	movs	r0, #4
    4eca:	4b40      	ldr	r3, [pc, #256]	; (4fcc <system_clock_init+0x168>)
    4ecc:	4798      	blx	r3
    4ece:	ab05      	add	r3, sp, #20
    4ed0:	2200      	movs	r2, #0
    4ed2:	805c      	strh	r4, [r3, #2]
    4ed4:	809c      	strh	r4, [r3, #4]
    4ed6:	719a      	strb	r2, [r3, #6]
    4ed8:	71da      	strb	r2, [r3, #7]
    4eda:	213f      	movs	r1, #63	; 0x3f
    4edc:	8159      	strh	r1, [r3, #10]
    4ede:	393b      	subs	r1, #59	; 0x3b
    4ee0:	7019      	strb	r1, [r3, #0]
    4ee2:	705a      	strb	r2, [r3, #1]
    4ee4:	682b      	ldr	r3, [r5, #0]
    4ee6:	0e9b      	lsrs	r3, r3, #26
    4ee8:	2b3f      	cmp	r3, #63	; 0x3f
    4eea:	d060      	beq.n	4fae <system_clock_init+0x14a>
    4eec:	a805      	add	r0, sp, #20
    4eee:	7203      	strb	r3, [r0, #8]
    4ef0:	2304      	movs	r3, #4
    4ef2:	8203      	strh	r3, [r0, #16]
    4ef4:	3303      	adds	r3, #3
    4ef6:	7303      	strb	r3, [r0, #12]
    4ef8:	3338      	adds	r3, #56	; 0x38
    4efa:	81c3      	strh	r3, [r0, #14]
    4efc:	4b34      	ldr	r3, [pc, #208]	; (4fd0 <system_clock_init+0x16c>)
    4efe:	4798      	blx	r3
    4f00:	a804      	add	r0, sp, #16
    4f02:	2500      	movs	r5, #0
    4f04:	7045      	strb	r5, [r0, #1]
    4f06:	7005      	strb	r5, [r0, #0]
    4f08:	7085      	strb	r5, [r0, #2]
    4f0a:	4b32      	ldr	r3, [pc, #200]	; (4fd4 <system_clock_init+0x170>)
    4f0c:	4798      	blx	r3
    4f0e:	2006      	movs	r0, #6
    4f10:	4f2e      	ldr	r7, [pc, #184]	; (4fcc <system_clock_init+0x168>)
    4f12:	47b8      	blx	r7
    4f14:	4b30      	ldr	r3, [pc, #192]	; (4fd8 <system_clock_init+0x174>)
    4f16:	4798      	blx	r3
    4f18:	ac01      	add	r4, sp, #4
    4f1a:	2601      	movs	r6, #1
    4f1c:	9602      	str	r6, [sp, #8]
    4f1e:	7065      	strb	r5, [r4, #1]
    4f20:	2306      	movs	r3, #6
    4f22:	7023      	strb	r3, [r4, #0]
    4f24:	7225      	strb	r5, [r4, #8]
    4f26:	7265      	strb	r5, [r4, #9]
    4f28:	0021      	movs	r1, r4
    4f2a:	2001      	movs	r0, #1
    4f2c:	4b2b      	ldr	r3, [pc, #172]	; (4fdc <system_clock_init+0x178>)
    4f2e:	4699      	mov	r9, r3
    4f30:	4798      	blx	r3
    4f32:	2001      	movs	r0, #1
    4f34:	4b2a      	ldr	r3, [pc, #168]	; (4fe0 <system_clock_init+0x17c>)
    4f36:	4698      	mov	r8, r3
    4f38:	4798      	blx	r3
    4f3a:	7065      	strb	r5, [r4, #1]
    4f3c:	7265      	strb	r5, [r4, #9]
    4f3e:	2304      	movs	r3, #4
    4f40:	7023      	strb	r3, [r4, #0]
    4f42:	2320      	movs	r3, #32
    4f44:	6063      	str	r3, [r4, #4]
    4f46:	7226      	strb	r6, [r4, #8]
    4f48:	0021      	movs	r1, r4
    4f4a:	2002      	movs	r0, #2
    4f4c:	47c8      	blx	r9
    4f4e:	2002      	movs	r0, #2
    4f50:	47c0      	blx	r8
    4f52:	7026      	strb	r6, [r4, #0]
    4f54:	0021      	movs	r1, r4
    4f56:	2000      	movs	r0, #0
    4f58:	4b18      	ldr	r3, [pc, #96]	; (4fbc <system_clock_init+0x158>)
    4f5a:	4798      	blx	r3
    4f5c:	2000      	movs	r0, #0
    4f5e:	4b21      	ldr	r3, [pc, #132]	; (4fe4 <system_clock_init+0x180>)
    4f60:	4798      	blx	r3
    4f62:	2007      	movs	r0, #7
    4f64:	47b8      	blx	r7
    4f66:	4913      	ldr	r1, [pc, #76]	; (4fb4 <system_clock_init+0x150>)
    4f68:	22d0      	movs	r2, #208	; 0xd0
    4f6a:	68cb      	ldr	r3, [r1, #12]
    4f6c:	4013      	ands	r3, r2
    4f6e:	2bd0      	cmp	r3, #208	; 0xd0
    4f70:	d1fb      	bne.n	4f6a <system_clock_init+0x106>
    4f72:	4a10      	ldr	r2, [pc, #64]	; (4fb4 <system_clock_init+0x150>)
    4f74:	8c93      	ldrh	r3, [r2, #36]	; 0x24
    4f76:	2180      	movs	r1, #128	; 0x80
    4f78:	430b      	orrs	r3, r1
    4f7a:	8493      	strh	r3, [r2, #36]	; 0x24
    4f7c:	4a1a      	ldr	r2, [pc, #104]	; (4fe8 <system_clock_init+0x184>)
    4f7e:	2300      	movs	r3, #0
    4f80:	7213      	strb	r3, [r2, #8]
    4f82:	7253      	strb	r3, [r2, #9]
    4f84:	7293      	strb	r3, [r2, #10]
    4f86:	72d3      	strb	r3, [r2, #11]
    4f88:	a901      	add	r1, sp, #4
    4f8a:	2201      	movs	r2, #1
    4f8c:	604a      	str	r2, [r1, #4]
    4f8e:	704b      	strb	r3, [r1, #1]
    4f90:	720b      	strb	r3, [r1, #8]
    4f92:	724b      	strb	r3, [r1, #9]
    4f94:	3307      	adds	r3, #7
    4f96:	700b      	strb	r3, [r1, #0]
    4f98:	2000      	movs	r0, #0
    4f9a:	4b10      	ldr	r3, [pc, #64]	; (4fdc <system_clock_init+0x178>)
    4f9c:	4798      	blx	r3
    4f9e:	2000      	movs	r0, #0
    4fa0:	4b0f      	ldr	r3, [pc, #60]	; (4fe0 <system_clock_init+0x17c>)
    4fa2:	4798      	blx	r3
    4fa4:	b00d      	add	sp, #52	; 0x34
    4fa6:	bc0c      	pop	{r2, r3}
    4fa8:	4690      	mov	r8, r2
    4faa:	4699      	mov	r9, r3
    4fac:	bdf0      	pop	{r4, r5, r6, r7, pc}
    4fae:	3b20      	subs	r3, #32
    4fb0:	e79c      	b.n	4eec <system_clock_init+0x88>
    4fb2:	46c0      	nop			; (mov r8, r8)
    4fb4:	40000800 	.word	0x40000800
    4fb8:	41004000 	.word	0x41004000
    4fbc:	00005225 	.word	0x00005225
    4fc0:	00806024 	.word	0x00806024
    4fc4:	ff80ffff 	.word	0xff80ffff
    4fc8:	00004cc1 	.word	0x00004cc1
    4fcc:	00004dbd 	.word	0x00004dbd
    4fd0:	00004d3d 	.word	0x00004d3d
    4fd4:	00004c85 	.word	0x00004c85
    4fd8:	00004fed 	.word	0x00004fed
    4fdc:	00005011 	.word	0x00005011
    4fe0:	000050c9 	.word	0x000050c9
    4fe4:	00005199 	.word	0x00005199
    4fe8:	40000400 	.word	0x40000400

00004fec <system_gclk_init>:
    4fec:	4a06      	ldr	r2, [pc, #24]	; (5008 <system_gclk_init+0x1c>)
    4fee:	6993      	ldr	r3, [r2, #24]
    4ff0:	2108      	movs	r1, #8
    4ff2:	430b      	orrs	r3, r1
    4ff4:	6193      	str	r3, [r2, #24]
    4ff6:	2201      	movs	r2, #1
    4ff8:	4b04      	ldr	r3, [pc, #16]	; (500c <system_gclk_init+0x20>)
    4ffa:	701a      	strb	r2, [r3, #0]
    4ffc:	0019      	movs	r1, r3
    4ffe:	780b      	ldrb	r3, [r1, #0]
    5000:	4213      	tst	r3, r2
    5002:	d1fc      	bne.n	4ffe <system_gclk_init+0x12>
    5004:	4770      	bx	lr
    5006:	46c0      	nop			; (mov r8, r8)
    5008:	40000400 	.word	0x40000400
    500c:	40000c00 	.word	0x40000c00

00005010 <system_gclk_gen_set_config>:
    5010:	b570      	push	{r4, r5, r6, lr}
    5012:	0006      	movs	r6, r0
    5014:	0004      	movs	r4, r0
    5016:	780d      	ldrb	r5, [r1, #0]
    5018:	022d      	lsls	r5, r5, #8
    501a:	4305      	orrs	r5, r0
    501c:	784b      	ldrb	r3, [r1, #1]
    501e:	2b00      	cmp	r3, #0
    5020:	d002      	beq.n	5028 <system_gclk_gen_set_config+0x18>
    5022:	2380      	movs	r3, #128	; 0x80
    5024:	02db      	lsls	r3, r3, #11
    5026:	431d      	orrs	r5, r3
    5028:	7a4b      	ldrb	r3, [r1, #9]
    502a:	2b00      	cmp	r3, #0
    502c:	d002      	beq.n	5034 <system_gclk_gen_set_config+0x24>
    502e:	2380      	movs	r3, #128	; 0x80
    5030:	031b      	lsls	r3, r3, #12
    5032:	431d      	orrs	r5, r3
    5034:	6848      	ldr	r0, [r1, #4]
    5036:	2801      	cmp	r0, #1
    5038:	d910      	bls.n	505c <system_gclk_gen_set_config+0x4c>
    503a:	1e43      	subs	r3, r0, #1
    503c:	4218      	tst	r0, r3
    503e:	d134      	bne.n	50aa <system_gclk_gen_set_config+0x9a>
    5040:	2802      	cmp	r0, #2
    5042:	d930      	bls.n	50a6 <system_gclk_gen_set_config+0x96>
    5044:	2302      	movs	r3, #2
    5046:	2200      	movs	r2, #0
    5048:	3201      	adds	r2, #1
    504a:	005b      	lsls	r3, r3, #1
    504c:	4298      	cmp	r0, r3
    504e:	d8fb      	bhi.n	5048 <system_gclk_gen_set_config+0x38>
    5050:	0212      	lsls	r2, r2, #8
    5052:	4332      	orrs	r2, r6
    5054:	0014      	movs	r4, r2
    5056:	2380      	movs	r3, #128	; 0x80
    5058:	035b      	lsls	r3, r3, #13
    505a:	431d      	orrs	r5, r3
    505c:	7a0b      	ldrb	r3, [r1, #8]
    505e:	2b00      	cmp	r3, #0
    5060:	d002      	beq.n	5068 <system_gclk_gen_set_config+0x58>
    5062:	2380      	movs	r3, #128	; 0x80
    5064:	039b      	lsls	r3, r3, #14
    5066:	431d      	orrs	r5, r3
    5068:	4a13      	ldr	r2, [pc, #76]	; (50b8 <system_gclk_gen_set_config+0xa8>)
    506a:	7853      	ldrb	r3, [r2, #1]
    506c:	b25b      	sxtb	r3, r3
    506e:	2b00      	cmp	r3, #0
    5070:	dbfb      	blt.n	506a <system_gclk_gen_set_config+0x5a>
    5072:	4b12      	ldr	r3, [pc, #72]	; (50bc <system_gclk_gen_set_config+0xac>)
    5074:	4798      	blx	r3
    5076:	4b12      	ldr	r3, [pc, #72]	; (50c0 <system_gclk_gen_set_config+0xb0>)
    5078:	701e      	strb	r6, [r3, #0]
    507a:	4a0f      	ldr	r2, [pc, #60]	; (50b8 <system_gclk_gen_set_config+0xa8>)
    507c:	7853      	ldrb	r3, [r2, #1]
    507e:	b25b      	sxtb	r3, r3
    5080:	2b00      	cmp	r3, #0
    5082:	dbfb      	blt.n	507c <system_gclk_gen_set_config+0x6c>
    5084:	4b0c      	ldr	r3, [pc, #48]	; (50b8 <system_gclk_gen_set_config+0xa8>)
    5086:	609c      	str	r4, [r3, #8]
    5088:	001a      	movs	r2, r3
    508a:	7853      	ldrb	r3, [r2, #1]
    508c:	b25b      	sxtb	r3, r3
    508e:	2b00      	cmp	r3, #0
    5090:	dbfb      	blt.n	508a <system_gclk_gen_set_config+0x7a>
    5092:	4a09      	ldr	r2, [pc, #36]	; (50b8 <system_gclk_gen_set_config+0xa8>)
    5094:	6853      	ldr	r3, [r2, #4]
    5096:	2180      	movs	r1, #128	; 0x80
    5098:	0249      	lsls	r1, r1, #9
    509a:	400b      	ands	r3, r1
    509c:	431d      	orrs	r5, r3
    509e:	6055      	str	r5, [r2, #4]
    50a0:	4b08      	ldr	r3, [pc, #32]	; (50c4 <system_gclk_gen_set_config+0xb4>)
    50a2:	4798      	blx	r3
    50a4:	bd70      	pop	{r4, r5, r6, pc}
    50a6:	2200      	movs	r2, #0
    50a8:	e7d2      	b.n	5050 <system_gclk_gen_set_config+0x40>
    50aa:	0204      	lsls	r4, r0, #8
    50ac:	4334      	orrs	r4, r6
    50ae:	2380      	movs	r3, #128	; 0x80
    50b0:	029b      	lsls	r3, r3, #10
    50b2:	431d      	orrs	r5, r3
    50b4:	e7d2      	b.n	505c <system_gclk_gen_set_config+0x4c>
    50b6:	46c0      	nop			; (mov r8, r8)
    50b8:	40000c00 	.word	0x40000c00
    50bc:	000040b1 	.word	0x000040b1
    50c0:	40000c08 	.word	0x40000c08
    50c4:	000040f1 	.word	0x000040f1

000050c8 <system_gclk_gen_enable>:
    50c8:	b510      	push	{r4, lr}
    50ca:	0004      	movs	r4, r0
    50cc:	4a0b      	ldr	r2, [pc, #44]	; (50fc <system_gclk_gen_enable+0x34>)
    50ce:	7853      	ldrb	r3, [r2, #1]
    50d0:	b25b      	sxtb	r3, r3
    50d2:	2b00      	cmp	r3, #0
    50d4:	dbfb      	blt.n	50ce <system_gclk_gen_enable+0x6>
    50d6:	4b0a      	ldr	r3, [pc, #40]	; (5100 <system_gclk_gen_enable+0x38>)
    50d8:	4798      	blx	r3
    50da:	4b0a      	ldr	r3, [pc, #40]	; (5104 <system_gclk_gen_enable+0x3c>)
    50dc:	701c      	strb	r4, [r3, #0]
    50de:	4a07      	ldr	r2, [pc, #28]	; (50fc <system_gclk_gen_enable+0x34>)
    50e0:	7853      	ldrb	r3, [r2, #1]
    50e2:	b25b      	sxtb	r3, r3
    50e4:	2b00      	cmp	r3, #0
    50e6:	dbfb      	blt.n	50e0 <system_gclk_gen_enable+0x18>
    50e8:	4a04      	ldr	r2, [pc, #16]	; (50fc <system_gclk_gen_enable+0x34>)
    50ea:	6851      	ldr	r1, [r2, #4]
    50ec:	2380      	movs	r3, #128	; 0x80
    50ee:	025b      	lsls	r3, r3, #9
    50f0:	430b      	orrs	r3, r1
    50f2:	6053      	str	r3, [r2, #4]
    50f4:	4b04      	ldr	r3, [pc, #16]	; (5108 <system_gclk_gen_enable+0x40>)
    50f6:	4798      	blx	r3
    50f8:	bd10      	pop	{r4, pc}
    50fa:	46c0      	nop			; (mov r8, r8)
    50fc:	40000c00 	.word	0x40000c00
    5100:	000040b1 	.word	0x000040b1
    5104:	40000c04 	.word	0x40000c04
    5108:	000040f1 	.word	0x000040f1

0000510c <system_gclk_gen_get_hz>:
    510c:	b570      	push	{r4, r5, r6, lr}
    510e:	0004      	movs	r4, r0
    5110:	4a1a      	ldr	r2, [pc, #104]	; (517c <system_gclk_gen_get_hz+0x70>)
    5112:	7853      	ldrb	r3, [r2, #1]
    5114:	b25b      	sxtb	r3, r3
    5116:	2b00      	cmp	r3, #0
    5118:	dbfb      	blt.n	5112 <system_gclk_gen_get_hz+0x6>
    511a:	4b19      	ldr	r3, [pc, #100]	; (5180 <system_gclk_gen_get_hz+0x74>)
    511c:	4798      	blx	r3
    511e:	4b19      	ldr	r3, [pc, #100]	; (5184 <system_gclk_gen_get_hz+0x78>)
    5120:	701c      	strb	r4, [r3, #0]
    5122:	4a16      	ldr	r2, [pc, #88]	; (517c <system_gclk_gen_get_hz+0x70>)
    5124:	7853      	ldrb	r3, [r2, #1]
    5126:	b25b      	sxtb	r3, r3
    5128:	2b00      	cmp	r3, #0
    512a:	dbfb      	blt.n	5124 <system_gclk_gen_get_hz+0x18>
    512c:	4e13      	ldr	r6, [pc, #76]	; (517c <system_gclk_gen_get_hz+0x70>)
    512e:	6870      	ldr	r0, [r6, #4]
    5130:	04c0      	lsls	r0, r0, #19
    5132:	0ec0      	lsrs	r0, r0, #27
    5134:	4b14      	ldr	r3, [pc, #80]	; (5188 <system_gclk_gen_get_hz+0x7c>)
    5136:	4798      	blx	r3
    5138:	0005      	movs	r5, r0
    513a:	4b12      	ldr	r3, [pc, #72]	; (5184 <system_gclk_gen_get_hz+0x78>)
    513c:	701c      	strb	r4, [r3, #0]
    513e:	6876      	ldr	r6, [r6, #4]
    5140:	02f6      	lsls	r6, r6, #11
    5142:	0ff6      	lsrs	r6, r6, #31
    5144:	4b11      	ldr	r3, [pc, #68]	; (518c <system_gclk_gen_get_hz+0x80>)
    5146:	701c      	strb	r4, [r3, #0]
    5148:	4a0c      	ldr	r2, [pc, #48]	; (517c <system_gclk_gen_get_hz+0x70>)
    514a:	7853      	ldrb	r3, [r2, #1]
    514c:	b25b      	sxtb	r3, r3
    514e:	2b00      	cmp	r3, #0
    5150:	dbfb      	blt.n	514a <system_gclk_gen_get_hz+0x3e>
    5152:	4b0a      	ldr	r3, [pc, #40]	; (517c <system_gclk_gen_get_hz+0x70>)
    5154:	689c      	ldr	r4, [r3, #8]
    5156:	0224      	lsls	r4, r4, #8
    5158:	0c24      	lsrs	r4, r4, #16
    515a:	4b0d      	ldr	r3, [pc, #52]	; (5190 <system_gclk_gen_get_hz+0x84>)
    515c:	4798      	blx	r3
    515e:	2e00      	cmp	r6, #0
    5160:	d107      	bne.n	5172 <system_gclk_gen_get_hz+0x66>
    5162:	2c01      	cmp	r4, #1
    5164:	d907      	bls.n	5176 <system_gclk_gen_get_hz+0x6a>
    5166:	0021      	movs	r1, r4
    5168:	0028      	movs	r0, r5
    516a:	4b0a      	ldr	r3, [pc, #40]	; (5194 <system_gclk_gen_get_hz+0x88>)
    516c:	4798      	blx	r3
    516e:	0005      	movs	r5, r0
    5170:	e001      	b.n	5176 <system_gclk_gen_get_hz+0x6a>
    5172:	3401      	adds	r4, #1
    5174:	40e5      	lsrs	r5, r4
    5176:	0028      	movs	r0, r5
    5178:	bd70      	pop	{r4, r5, r6, pc}
    517a:	46c0      	nop			; (mov r8, r8)
    517c:	40000c00 	.word	0x40000c00
    5180:	000040b1 	.word	0x000040b1
    5184:	40000c04 	.word	0x40000c04
    5188:	00004bf5 	.word	0x00004bf5
    518c:	40000c08 	.word	0x40000c08
    5190:	000040f1 	.word	0x000040f1
    5194:	00008829 	.word	0x00008829

00005198 <system_gclk_chan_enable>:
    5198:	b510      	push	{r4, lr}
    519a:	0004      	movs	r4, r0
    519c:	4b06      	ldr	r3, [pc, #24]	; (51b8 <system_gclk_chan_enable+0x20>)
    519e:	4798      	blx	r3
    51a0:	4b06      	ldr	r3, [pc, #24]	; (51bc <system_gclk_chan_enable+0x24>)
    51a2:	701c      	strb	r4, [r3, #0]
    51a4:	4a06      	ldr	r2, [pc, #24]	; (51c0 <system_gclk_chan_enable+0x28>)
    51a6:	8853      	ldrh	r3, [r2, #2]
    51a8:	2180      	movs	r1, #128	; 0x80
    51aa:	01c9      	lsls	r1, r1, #7
    51ac:	430b      	orrs	r3, r1
    51ae:	8053      	strh	r3, [r2, #2]
    51b0:	4b04      	ldr	r3, [pc, #16]	; (51c4 <system_gclk_chan_enable+0x2c>)
    51b2:	4798      	blx	r3
    51b4:	bd10      	pop	{r4, pc}
    51b6:	46c0      	nop			; (mov r8, r8)
    51b8:	000040b1 	.word	0x000040b1
    51bc:	40000c02 	.word	0x40000c02
    51c0:	40000c00 	.word	0x40000c00
    51c4:	000040f1 	.word	0x000040f1

000051c8 <system_gclk_chan_disable>:
    51c8:	b510      	push	{r4, lr}
    51ca:	0004      	movs	r4, r0
    51cc:	4b0f      	ldr	r3, [pc, #60]	; (520c <system_gclk_chan_disable+0x44>)
    51ce:	4798      	blx	r3
    51d0:	4b0f      	ldr	r3, [pc, #60]	; (5210 <system_gclk_chan_disable+0x48>)
    51d2:	701c      	strb	r4, [r3, #0]
    51d4:	4a0f      	ldr	r2, [pc, #60]	; (5214 <system_gclk_chan_disable+0x4c>)
    51d6:	8853      	ldrh	r3, [r2, #2]
    51d8:	051b      	lsls	r3, r3, #20
    51da:	0f18      	lsrs	r0, r3, #28
    51dc:	8853      	ldrh	r3, [r2, #2]
    51de:	490e      	ldr	r1, [pc, #56]	; (5218 <system_gclk_chan_disable+0x50>)
    51e0:	400b      	ands	r3, r1
    51e2:	8053      	strh	r3, [r2, #2]
    51e4:	8853      	ldrh	r3, [r2, #2]
    51e6:	490d      	ldr	r1, [pc, #52]	; (521c <system_gclk_chan_disable+0x54>)
    51e8:	400b      	ands	r3, r1
    51ea:	8053      	strh	r3, [r2, #2]
    51ec:	0011      	movs	r1, r2
    51ee:	2280      	movs	r2, #128	; 0x80
    51f0:	01d2      	lsls	r2, r2, #7
    51f2:	884b      	ldrh	r3, [r1, #2]
    51f4:	4213      	tst	r3, r2
    51f6:	d1fc      	bne.n	51f2 <system_gclk_chan_disable+0x2a>
    51f8:	4906      	ldr	r1, [pc, #24]	; (5214 <system_gclk_chan_disable+0x4c>)
    51fa:	884a      	ldrh	r2, [r1, #2]
    51fc:	0203      	lsls	r3, r0, #8
    51fe:	4806      	ldr	r0, [pc, #24]	; (5218 <system_gclk_chan_disable+0x50>)
    5200:	4002      	ands	r2, r0
    5202:	4313      	orrs	r3, r2
    5204:	804b      	strh	r3, [r1, #2]
    5206:	4b06      	ldr	r3, [pc, #24]	; (5220 <system_gclk_chan_disable+0x58>)
    5208:	4798      	blx	r3
    520a:	bd10      	pop	{r4, pc}
    520c:	000040b1 	.word	0x000040b1
    5210:	40000c02 	.word	0x40000c02
    5214:	40000c00 	.word	0x40000c00
    5218:	fffff0ff 	.word	0xfffff0ff
    521c:	ffffbfff 	.word	0xffffbfff
    5220:	000040f1 	.word	0x000040f1

00005224 <system_gclk_chan_set_config>:
    5224:	b510      	push	{r4, lr}
    5226:	780c      	ldrb	r4, [r1, #0]
    5228:	0224      	lsls	r4, r4, #8
    522a:	4304      	orrs	r4, r0
    522c:	4b02      	ldr	r3, [pc, #8]	; (5238 <system_gclk_chan_set_config+0x14>)
    522e:	4798      	blx	r3
    5230:	b2a4      	uxth	r4, r4
    5232:	4b02      	ldr	r3, [pc, #8]	; (523c <system_gclk_chan_set_config+0x18>)
    5234:	805c      	strh	r4, [r3, #2]
    5236:	bd10      	pop	{r4, pc}
    5238:	000051c9 	.word	0x000051c9
    523c:	40000c00 	.word	0x40000c00

00005240 <system_gclk_chan_get_hz>:
    5240:	b510      	push	{r4, lr}
    5242:	0004      	movs	r4, r0
    5244:	4b06      	ldr	r3, [pc, #24]	; (5260 <system_gclk_chan_get_hz+0x20>)
    5246:	4798      	blx	r3
    5248:	4b06      	ldr	r3, [pc, #24]	; (5264 <system_gclk_chan_get_hz+0x24>)
    524a:	701c      	strb	r4, [r3, #0]
    524c:	4b06      	ldr	r3, [pc, #24]	; (5268 <system_gclk_chan_get_hz+0x28>)
    524e:	885c      	ldrh	r4, [r3, #2]
    5250:	0524      	lsls	r4, r4, #20
    5252:	0f24      	lsrs	r4, r4, #28
    5254:	4b05      	ldr	r3, [pc, #20]	; (526c <system_gclk_chan_get_hz+0x2c>)
    5256:	4798      	blx	r3
    5258:	0020      	movs	r0, r4
    525a:	4b05      	ldr	r3, [pc, #20]	; (5270 <system_gclk_chan_get_hz+0x30>)
    525c:	4798      	blx	r3
    525e:	bd10      	pop	{r4, pc}
    5260:	000040b1 	.word	0x000040b1
    5264:	40000c02 	.word	0x40000c02
    5268:	40000c00 	.word	0x40000c00
    526c:	000040f1 	.word	0x000040f1
    5270:	0000510d 	.word	0x0000510d

00005274 <_system_pinmux_config>:
    5274:	b530      	push	{r4, r5, lr}
    5276:	78d3      	ldrb	r3, [r2, #3]
    5278:	2b00      	cmp	r3, #0
    527a:	d135      	bne.n	52e8 <_system_pinmux_config+0x74>
    527c:	7813      	ldrb	r3, [r2, #0]
    527e:	2b80      	cmp	r3, #128	; 0x80
    5280:	d029      	beq.n	52d6 <_system_pinmux_config+0x62>
    5282:	061b      	lsls	r3, r3, #24
    5284:	2480      	movs	r4, #128	; 0x80
    5286:	0264      	lsls	r4, r4, #9
    5288:	4323      	orrs	r3, r4
    528a:	7854      	ldrb	r4, [r2, #1]
    528c:	2502      	movs	r5, #2
    528e:	43ac      	bics	r4, r5
    5290:	d106      	bne.n	52a0 <_system_pinmux_config+0x2c>
    5292:	7894      	ldrb	r4, [r2, #2]
    5294:	2c00      	cmp	r4, #0
    5296:	d120      	bne.n	52da <_system_pinmux_config+0x66>
    5298:	2480      	movs	r4, #128	; 0x80
    529a:	02a4      	lsls	r4, r4, #10
    529c:	4323      	orrs	r3, r4
    529e:	6041      	str	r1, [r0, #4]
    52a0:	7854      	ldrb	r4, [r2, #1]
    52a2:	3c01      	subs	r4, #1
    52a4:	2c01      	cmp	r4, #1
    52a6:	d91c      	bls.n	52e2 <_system_pinmux_config+0x6e>
    52a8:	040d      	lsls	r5, r1, #16
    52aa:	0c2d      	lsrs	r5, r5, #16
    52ac:	24a0      	movs	r4, #160	; 0xa0
    52ae:	05e4      	lsls	r4, r4, #23
    52b0:	432c      	orrs	r4, r5
    52b2:	431c      	orrs	r4, r3
    52b4:	6284      	str	r4, [r0, #40]	; 0x28
    52b6:	0c0d      	lsrs	r5, r1, #16
    52b8:	24d0      	movs	r4, #208	; 0xd0
    52ba:	0624      	lsls	r4, r4, #24
    52bc:	432c      	orrs	r4, r5
    52be:	431c      	orrs	r4, r3
    52c0:	6284      	str	r4, [r0, #40]	; 0x28
    52c2:	78d4      	ldrb	r4, [r2, #3]
    52c4:	2c00      	cmp	r4, #0
    52c6:	d122      	bne.n	530e <_system_pinmux_config+0x9a>
    52c8:	035b      	lsls	r3, r3, #13
    52ca:	d51c      	bpl.n	5306 <_system_pinmux_config+0x92>
    52cc:	7893      	ldrb	r3, [r2, #2]
    52ce:	2b01      	cmp	r3, #1
    52d0:	d01e      	beq.n	5310 <_system_pinmux_config+0x9c>
    52d2:	6141      	str	r1, [r0, #20]
    52d4:	e017      	b.n	5306 <_system_pinmux_config+0x92>
    52d6:	2300      	movs	r3, #0
    52d8:	e7d7      	b.n	528a <_system_pinmux_config+0x16>
    52da:	24c0      	movs	r4, #192	; 0xc0
    52dc:	02e4      	lsls	r4, r4, #11
    52de:	4323      	orrs	r3, r4
    52e0:	e7dd      	b.n	529e <_system_pinmux_config+0x2a>
    52e2:	4c0d      	ldr	r4, [pc, #52]	; (5318 <_system_pinmux_config+0xa4>)
    52e4:	4023      	ands	r3, r4
    52e6:	e7df      	b.n	52a8 <_system_pinmux_config+0x34>
    52e8:	6041      	str	r1, [r0, #4]
    52ea:	040c      	lsls	r4, r1, #16
    52ec:	0c24      	lsrs	r4, r4, #16
    52ee:	23a0      	movs	r3, #160	; 0xa0
    52f0:	05db      	lsls	r3, r3, #23
    52f2:	4323      	orrs	r3, r4
    52f4:	6283      	str	r3, [r0, #40]	; 0x28
    52f6:	0c0c      	lsrs	r4, r1, #16
    52f8:	23d0      	movs	r3, #208	; 0xd0
    52fa:	061b      	lsls	r3, r3, #24
    52fc:	4323      	orrs	r3, r4
    52fe:	6283      	str	r3, [r0, #40]	; 0x28
    5300:	78d3      	ldrb	r3, [r2, #3]
    5302:	2b00      	cmp	r3, #0
    5304:	d103      	bne.n	530e <_system_pinmux_config+0x9a>
    5306:	7853      	ldrb	r3, [r2, #1]
    5308:	3b01      	subs	r3, #1
    530a:	2b01      	cmp	r3, #1
    530c:	d902      	bls.n	5314 <_system_pinmux_config+0xa0>
    530e:	bd30      	pop	{r4, r5, pc}
    5310:	6181      	str	r1, [r0, #24]
    5312:	e7f8      	b.n	5306 <_system_pinmux_config+0x92>
    5314:	6081      	str	r1, [r0, #8]
    5316:	e7fa      	b.n	530e <_system_pinmux_config+0x9a>
    5318:	fffbffff 	.word	0xfffbffff

0000531c <system_pinmux_pin_set_config>:
    531c:	b510      	push	{r4, lr}
    531e:	000a      	movs	r2, r1
    5320:	09c1      	lsrs	r1, r0, #7
    5322:	2300      	movs	r3, #0
    5324:	2900      	cmp	r1, #0
    5326:	d104      	bne.n	5332 <system_pinmux_pin_set_config+0x16>
    5328:	0943      	lsrs	r3, r0, #5
    532a:	01db      	lsls	r3, r3, #7
    532c:	4905      	ldr	r1, [pc, #20]	; (5344 <system_pinmux_pin_set_config+0x28>)
    532e:	468c      	mov	ip, r1
    5330:	4463      	add	r3, ip
    5332:	241f      	movs	r4, #31
    5334:	4020      	ands	r0, r4
    5336:	2101      	movs	r1, #1
    5338:	4081      	lsls	r1, r0
    533a:	0018      	movs	r0, r3
    533c:	4b02      	ldr	r3, [pc, #8]	; (5348 <system_pinmux_pin_set_config+0x2c>)
    533e:	4798      	blx	r3
    5340:	bd10      	pop	{r4, pc}
    5342:	46c0      	nop			; (mov r8, r8)
    5344:	41004400 	.word	0x41004400
    5348:	00005275 	.word	0x00005275

0000534c <_system_dummy_init>:
    534c:	4770      	bx	lr
	...

00005350 <system_init>:
    5350:	b510      	push	{r4, lr}
    5352:	4b04      	ldr	r3, [pc, #16]	; (5364 <system_init+0x14>)
    5354:	4798      	blx	r3
    5356:	4b04      	ldr	r3, [pc, #16]	; (5368 <system_init+0x18>)
    5358:	4798      	blx	r3
    535a:	4b04      	ldr	r3, [pc, #16]	; (536c <system_init+0x1c>)
    535c:	4798      	blx	r3
    535e:	4b04      	ldr	r3, [pc, #16]	; (5370 <system_init+0x20>)
    5360:	4798      	blx	r3
    5362:	bd10      	pop	{r4, pc}
    5364:	00004e65 	.word	0x00004e65
    5368:	0000534d 	.word	0x0000534d
    536c:	000041f9 	.word	0x000041f9
    5370:	0000534d 	.word	0x0000534d

00005374 <tc_register_callback>:
    5374:	1c93      	adds	r3, r2, #2
    5376:	009b      	lsls	r3, r3, #2
    5378:	5019      	str	r1, [r3, r0]
    537a:	2a02      	cmp	r2, #2
    537c:	d009      	beq.n	5392 <tc_register_callback+0x1e>
    537e:	2a03      	cmp	r2, #3
    5380:	d00c      	beq.n	539c <tc_register_callback+0x28>
    5382:	2301      	movs	r3, #1
    5384:	4093      	lsls	r3, r2
    5386:	001a      	movs	r2, r3
    5388:	7e03      	ldrb	r3, [r0, #24]
    538a:	4313      	orrs	r3, r2
    538c:	7603      	strb	r3, [r0, #24]
    538e:	2000      	movs	r0, #0
    5390:	4770      	bx	lr
    5392:	7e03      	ldrb	r3, [r0, #24]
    5394:	2210      	movs	r2, #16
    5396:	4313      	orrs	r3, r2
    5398:	7603      	strb	r3, [r0, #24]
    539a:	e7f8      	b.n	538e <tc_register_callback+0x1a>
    539c:	7e03      	ldrb	r3, [r0, #24]
    539e:	2220      	movs	r2, #32
    53a0:	4313      	orrs	r3, r2
    53a2:	7603      	strb	r3, [r0, #24]
    53a4:	e7f3      	b.n	538e <tc_register_callback+0x1a>
	...

000053a8 <_tc_interrupt_handler>:
    53a8:	b570      	push	{r4, r5, r6, lr}
    53aa:	0080      	lsls	r0, r0, #2
    53ac:	4b16      	ldr	r3, [pc, #88]	; (5408 <_tc_interrupt_handler+0x60>)
    53ae:	58c4      	ldr	r4, [r0, r3]
    53b0:	6823      	ldr	r3, [r4, #0]
    53b2:	7b9d      	ldrb	r5, [r3, #14]
    53b4:	7e22      	ldrb	r2, [r4, #24]
    53b6:	7e63      	ldrb	r3, [r4, #25]
    53b8:	4013      	ands	r3, r2
    53ba:	401d      	ands	r5, r3
    53bc:	07eb      	lsls	r3, r5, #31
    53be:	d406      	bmi.n	53ce <_tc_interrupt_handler+0x26>
    53c0:	07ab      	lsls	r3, r5, #30
    53c2:	d40b      	bmi.n	53dc <_tc_interrupt_handler+0x34>
    53c4:	06eb      	lsls	r3, r5, #27
    53c6:	d410      	bmi.n	53ea <_tc_interrupt_handler+0x42>
    53c8:	06ab      	lsls	r3, r5, #26
    53ca:	d415      	bmi.n	53f8 <_tc_interrupt_handler+0x50>
    53cc:	bd70      	pop	{r4, r5, r6, pc}
    53ce:	0020      	movs	r0, r4
    53d0:	68a3      	ldr	r3, [r4, #8]
    53d2:	4798      	blx	r3
    53d4:	2301      	movs	r3, #1
    53d6:	6822      	ldr	r2, [r4, #0]
    53d8:	7393      	strb	r3, [r2, #14]
    53da:	e7f1      	b.n	53c0 <_tc_interrupt_handler+0x18>
    53dc:	0020      	movs	r0, r4
    53de:	68e3      	ldr	r3, [r4, #12]
    53e0:	4798      	blx	r3
    53e2:	2302      	movs	r3, #2
    53e4:	6822      	ldr	r2, [r4, #0]
    53e6:	7393      	strb	r3, [r2, #14]
    53e8:	e7ec      	b.n	53c4 <_tc_interrupt_handler+0x1c>
    53ea:	0020      	movs	r0, r4
    53ec:	6923      	ldr	r3, [r4, #16]
    53ee:	4798      	blx	r3
    53f0:	2310      	movs	r3, #16
    53f2:	6822      	ldr	r2, [r4, #0]
    53f4:	7393      	strb	r3, [r2, #14]
    53f6:	e7e7      	b.n	53c8 <_tc_interrupt_handler+0x20>
    53f8:	0020      	movs	r0, r4
    53fa:	6963      	ldr	r3, [r4, #20]
    53fc:	4798      	blx	r3
    53fe:	6823      	ldr	r3, [r4, #0]
    5400:	2220      	movs	r2, #32
    5402:	739a      	strb	r2, [r3, #14]
    5404:	e7e2      	b.n	53cc <_tc_interrupt_handler+0x24>
    5406:	46c0      	nop			; (mov r8, r8)
    5408:	20000b80 	.word	0x20000b80

0000540c <TC3_Handler>:
    540c:	b510      	push	{r4, lr}
    540e:	2000      	movs	r0, #0
    5410:	4b01      	ldr	r3, [pc, #4]	; (5418 <TC3_Handler+0xc>)
    5412:	4798      	blx	r3
    5414:	bd10      	pop	{r4, pc}
    5416:	46c0      	nop			; (mov r8, r8)
    5418:	000053a9 	.word	0x000053a9

0000541c <TC4_Handler>:
    541c:	b510      	push	{r4, lr}
    541e:	2001      	movs	r0, #1
    5420:	4b01      	ldr	r3, [pc, #4]	; (5428 <TC4_Handler+0xc>)
    5422:	4798      	blx	r3
    5424:	bd10      	pop	{r4, pc}
    5426:	46c0      	nop			; (mov r8, r8)
    5428:	000053a9 	.word	0x000053a9

0000542c <TC5_Handler>:
    542c:	b510      	push	{r4, lr}
    542e:	2002      	movs	r0, #2
    5430:	4b01      	ldr	r3, [pc, #4]	; (5438 <TC5_Handler+0xc>)
    5432:	4798      	blx	r3
    5434:	bd10      	pop	{r4, pc}
    5436:	46c0      	nop			; (mov r8, r8)
    5438:	000053a9 	.word	0x000053a9

0000543c <_tc_get_inst_index>:
    543c:	b530      	push	{r4, r5, lr}
    543e:	b085      	sub	sp, #20
    5440:	aa01      	add	r2, sp, #4
    5442:	4b0b      	ldr	r3, [pc, #44]	; (5470 <_tc_get_inst_index+0x34>)
    5444:	cb32      	ldmia	r3!, {r1, r4, r5}
    5446:	c232      	stmia	r2!, {r1, r4, r5}
    5448:	9b01      	ldr	r3, [sp, #4]
    544a:	4298      	cmp	r0, r3
    544c:	d00d      	beq.n	546a <_tc_get_inst_index+0x2e>
    544e:	9b02      	ldr	r3, [sp, #8]
    5450:	4298      	cmp	r0, r3
    5452:	d008      	beq.n	5466 <_tc_get_inst_index+0x2a>
    5454:	2300      	movs	r3, #0
    5456:	9a03      	ldr	r2, [sp, #12]
    5458:	4282      	cmp	r2, r0
    545a:	d002      	beq.n	5462 <_tc_get_inst_index+0x26>
    545c:	0018      	movs	r0, r3
    545e:	b005      	add	sp, #20
    5460:	bd30      	pop	{r4, r5, pc}
    5462:	3302      	adds	r3, #2
    5464:	e002      	b.n	546c <_tc_get_inst_index+0x30>
    5466:	2301      	movs	r3, #1
    5468:	e000      	b.n	546c <_tc_get_inst_index+0x30>
    546a:	2300      	movs	r3, #0
    546c:	b2db      	uxtb	r3, r3
    546e:	e7f5      	b.n	545c <_tc_get_inst_index+0x20>
    5470:	0000ad3c 	.word	0x0000ad3c

00005474 <tc_init>:
    5474:	b5f0      	push	{r4, r5, r6, r7, lr}
    5476:	b087      	sub	sp, #28
    5478:	0004      	movs	r4, r0
    547a:	000d      	movs	r5, r1
    547c:	0016      	movs	r6, r2
    547e:	0008      	movs	r0, r1
    5480:	4b85      	ldr	r3, [pc, #532]	; (5698 <tc_init+0x224>)
    5482:	4798      	blx	r3
    5484:	0007      	movs	r7, r0
    5486:	ab05      	add	r3, sp, #20
    5488:	221b      	movs	r2, #27
    548a:	701a      	strb	r2, [r3, #0]
    548c:	3201      	adds	r2, #1
    548e:	705a      	strb	r2, [r3, #1]
    5490:	709a      	strb	r2, [r3, #2]
    5492:	ab03      	add	r3, sp, #12
    5494:	2280      	movs	r2, #128	; 0x80
    5496:	0112      	lsls	r2, r2, #4
    5498:	801a      	strh	r2, [r3, #0]
    549a:	2280      	movs	r2, #128	; 0x80
    549c:	0152      	lsls	r2, r2, #5
    549e:	805a      	strh	r2, [r3, #2]
    54a0:	2280      	movs	r2, #128	; 0x80
    54a2:	0192      	lsls	r2, r2, #6
    54a4:	809a      	strh	r2, [r3, #4]
    54a6:	2300      	movs	r3, #0
    54a8:	60a3      	str	r3, [r4, #8]
    54aa:	60e3      	str	r3, [r4, #12]
    54ac:	6123      	str	r3, [r4, #16]
    54ae:	6163      	str	r3, [r4, #20]
    54b0:	7623      	strb	r3, [r4, #24]
    54b2:	7663      	strb	r3, [r4, #25]
    54b4:	0082      	lsls	r2, r0, #2
    54b6:	4b79      	ldr	r3, [pc, #484]	; (569c <tc_init+0x228>)
    54b8:	50d4      	str	r4, [r2, r3]
    54ba:	6025      	str	r5, [r4, #0]
    54bc:	78b3      	ldrb	r3, [r6, #2]
    54be:	2b08      	cmp	r3, #8
    54c0:	d006      	beq.n	54d0 <tc_init+0x5c>
    54c2:	7123      	strb	r3, [r4, #4]
    54c4:	882b      	ldrh	r3, [r5, #0]
    54c6:	2005      	movs	r0, #5
    54c8:	07db      	lsls	r3, r3, #31
    54ca:	d505      	bpl.n	54d8 <tc_init+0x64>
    54cc:	b007      	add	sp, #28
    54ce:	bdf0      	pop	{r4, r5, r6, r7, pc}
    54d0:	2017      	movs	r0, #23
    54d2:	07fa      	lsls	r2, r7, #31
    54d4:	d5fa      	bpl.n	54cc <tc_init+0x58>
    54d6:	e7f4      	b.n	54c2 <tc_init+0x4e>
    54d8:	7beb      	ldrb	r3, [r5, #15]
    54da:	3017      	adds	r0, #23
    54dc:	06db      	lsls	r3, r3, #27
    54de:	d4f5      	bmi.n	54cc <tc_init+0x58>
    54e0:	882b      	ldrh	r3, [r5, #0]
    54e2:	079b      	lsls	r3, r3, #30
    54e4:	d4f2      	bmi.n	54cc <tc_init+0x58>
    54e6:	7c33      	ldrb	r3, [r6, #16]
    54e8:	2b00      	cmp	r3, #0
    54ea:	d179      	bne.n	55e0 <tc_init+0x16c>
    54ec:	7f33      	ldrb	r3, [r6, #28]
    54ee:	2b00      	cmp	r3, #0
    54f0:	d000      	beq.n	54f4 <tc_init+0x80>
    54f2:	e081      	b.n	55f8 <tc_init+0x184>
    54f4:	496a      	ldr	r1, [pc, #424]	; (56a0 <tc_init+0x22c>)
    54f6:	6a08      	ldr	r0, [r1, #32]
    54f8:	007a      	lsls	r2, r7, #1
    54fa:	ab03      	add	r3, sp, #12
    54fc:	5ad3      	ldrh	r3, [r2, r3]
    54fe:	4303      	orrs	r3, r0
    5500:	620b      	str	r3, [r1, #32]
    5502:	78b3      	ldrb	r3, [r6, #2]
    5504:	2b08      	cmp	r3, #8
    5506:	d100      	bne.n	550a <tc_init+0x96>
    5508:	e086      	b.n	5618 <tc_init+0x1a4>
    550a:	a901      	add	r1, sp, #4
    550c:	7833      	ldrb	r3, [r6, #0]
    550e:	700b      	strb	r3, [r1, #0]
    5510:	ab05      	add	r3, sp, #20
    5512:	5ddf      	ldrb	r7, [r3, r7]
    5514:	0038      	movs	r0, r7
    5516:	4b63      	ldr	r3, [pc, #396]	; (56a4 <tc_init+0x230>)
    5518:	4798      	blx	r3
    551a:	0038      	movs	r0, r7
    551c:	4b62      	ldr	r3, [pc, #392]	; (56a8 <tc_init+0x234>)
    551e:	4798      	blx	r3
    5520:	8931      	ldrh	r1, [r6, #8]
    5522:	88b3      	ldrh	r3, [r6, #4]
    5524:	430b      	orrs	r3, r1
    5526:	78b1      	ldrb	r1, [r6, #2]
    5528:	79b2      	ldrb	r2, [r6, #6]
    552a:	4311      	orrs	r1, r2
    552c:	4319      	orrs	r1, r3
    552e:	7873      	ldrb	r3, [r6, #1]
    5530:	2b00      	cmp	r3, #0
    5532:	d002      	beq.n	553a <tc_init+0xc6>
    5534:	2380      	movs	r3, #128	; 0x80
    5536:	011b      	lsls	r3, r3, #4
    5538:	4319      	orrs	r1, r3
    553a:	6822      	ldr	r2, [r4, #0]
    553c:	7bd3      	ldrb	r3, [r2, #15]
    553e:	b25b      	sxtb	r3, r3
    5540:	2b00      	cmp	r3, #0
    5542:	dbfb      	blt.n	553c <tc_init+0xc8>
    5544:	8029      	strh	r1, [r5, #0]
    5546:	7b71      	ldrb	r1, [r6, #13]
    5548:	1e4b      	subs	r3, r1, #1
    554a:	4199      	sbcs	r1, r3
    554c:	0089      	lsls	r1, r1, #2
    554e:	7bb3      	ldrb	r3, [r6, #14]
    5550:	2b00      	cmp	r3, #0
    5552:	d001      	beq.n	5558 <tc_init+0xe4>
    5554:	2301      	movs	r3, #1
    5556:	4319      	orrs	r1, r3
    5558:	6822      	ldr	r2, [r4, #0]
    555a:	7bd3      	ldrb	r3, [r2, #15]
    555c:	b25b      	sxtb	r3, r3
    555e:	2b00      	cmp	r3, #0
    5560:	dbfb      	blt.n	555a <tc_init+0xe6>
    5562:	23ff      	movs	r3, #255	; 0xff
    5564:	712b      	strb	r3, [r5, #4]
    5566:	2900      	cmp	r1, #0
    5568:	d005      	beq.n	5576 <tc_init+0x102>
    556a:	6822      	ldr	r2, [r4, #0]
    556c:	7bd3      	ldrb	r3, [r2, #15]
    556e:	b25b      	sxtb	r3, r3
    5570:	2b00      	cmp	r3, #0
    5572:	dbfb      	blt.n	556c <tc_init+0xf8>
    5574:	7169      	strb	r1, [r5, #5]
    5576:	7ab1      	ldrb	r1, [r6, #10]
    5578:	7af3      	ldrb	r3, [r6, #11]
    557a:	2b00      	cmp	r3, #0
    557c:	d001      	beq.n	5582 <tc_init+0x10e>
    557e:	2310      	movs	r3, #16
    5580:	4319      	orrs	r1, r3
    5582:	7b33      	ldrb	r3, [r6, #12]
    5584:	2b00      	cmp	r3, #0
    5586:	d001      	beq.n	558c <tc_init+0x118>
    5588:	2320      	movs	r3, #32
    558a:	4319      	orrs	r1, r3
    558c:	6822      	ldr	r2, [r4, #0]
    558e:	7bd3      	ldrb	r3, [r2, #15]
    5590:	b25b      	sxtb	r3, r3
    5592:	2b00      	cmp	r3, #0
    5594:	dbfb      	blt.n	558e <tc_init+0x11a>
    5596:	71a9      	strb	r1, [r5, #6]
    5598:	6822      	ldr	r2, [r4, #0]
    559a:	7bd3      	ldrb	r3, [r2, #15]
    559c:	b25b      	sxtb	r3, r3
    559e:	2b00      	cmp	r3, #0
    55a0:	dbfb      	blt.n	559a <tc_init+0x126>
    55a2:	7923      	ldrb	r3, [r4, #4]
    55a4:	2b04      	cmp	r3, #4
    55a6:	d03f      	beq.n	5628 <tc_init+0x1b4>
    55a8:	2b08      	cmp	r3, #8
    55aa:	d05e      	beq.n	566a <tc_init+0x1f6>
    55ac:	2017      	movs	r0, #23
    55ae:	2b00      	cmp	r3, #0
    55b0:	d000      	beq.n	55b4 <tc_init+0x140>
    55b2:	e78b      	b.n	54cc <tc_init+0x58>
    55b4:	7bd3      	ldrb	r3, [r2, #15]
    55b6:	b25b      	sxtb	r3, r3
    55b8:	2b00      	cmp	r3, #0
    55ba:	dbfb      	blt.n	55b4 <tc_init+0x140>
    55bc:	8d33      	ldrh	r3, [r6, #40]	; 0x28
    55be:	822b      	strh	r3, [r5, #16]
    55c0:	6822      	ldr	r2, [r4, #0]
    55c2:	7bd3      	ldrb	r3, [r2, #15]
    55c4:	b25b      	sxtb	r3, r3
    55c6:	2b00      	cmp	r3, #0
    55c8:	dbfb      	blt.n	55c2 <tc_init+0x14e>
    55ca:	8d73      	ldrh	r3, [r6, #42]	; 0x2a
    55cc:	832b      	strh	r3, [r5, #24]
    55ce:	6822      	ldr	r2, [r4, #0]
    55d0:	7bd3      	ldrb	r3, [r2, #15]
    55d2:	b25b      	sxtb	r3, r3
    55d4:	2b00      	cmp	r3, #0
    55d6:	dbfb      	blt.n	55d0 <tc_init+0x15c>
    55d8:	8db3      	ldrh	r3, [r6, #44]	; 0x2c
    55da:	836b      	strh	r3, [r5, #26]
    55dc:	2000      	movs	r0, #0
    55de:	e775      	b.n	54cc <tc_init+0x58>
    55e0:	a902      	add	r1, sp, #8
    55e2:	2301      	movs	r3, #1
    55e4:	708b      	strb	r3, [r1, #2]
    55e6:	2200      	movs	r2, #0
    55e8:	70ca      	strb	r2, [r1, #3]
    55ea:	7e32      	ldrb	r2, [r6, #24]
    55ec:	700a      	strb	r2, [r1, #0]
    55ee:	704b      	strb	r3, [r1, #1]
    55f0:	7d30      	ldrb	r0, [r6, #20]
    55f2:	4b2e      	ldr	r3, [pc, #184]	; (56ac <tc_init+0x238>)
    55f4:	4798      	blx	r3
    55f6:	e779      	b.n	54ec <tc_init+0x78>
    55f8:	a902      	add	r1, sp, #8
    55fa:	2301      	movs	r3, #1
    55fc:	708b      	strb	r3, [r1, #2]
    55fe:	2200      	movs	r2, #0
    5600:	70ca      	strb	r2, [r1, #3]
    5602:	3224      	adds	r2, #36	; 0x24
    5604:	18b2      	adds	r2, r6, r2
    5606:	7812      	ldrb	r2, [r2, #0]
    5608:	700a      	strb	r2, [r1, #0]
    560a:	704b      	strb	r3, [r1, #1]
    560c:	331f      	adds	r3, #31
    560e:	18f3      	adds	r3, r6, r3
    5610:	7818      	ldrb	r0, [r3, #0]
    5612:	4b26      	ldr	r3, [pc, #152]	; (56ac <tc_init+0x238>)
    5614:	4798      	blx	r3
    5616:	e76d      	b.n	54f4 <tc_init+0x80>
    5618:	6a08      	ldr	r0, [r1, #32]
    561a:	1c7a      	adds	r2, r7, #1
    561c:	0052      	lsls	r2, r2, #1
    561e:	ab03      	add	r3, sp, #12
    5620:	5ad3      	ldrh	r3, [r2, r3]
    5622:	4303      	orrs	r3, r0
    5624:	620b      	str	r3, [r1, #32]
    5626:	e770      	b.n	550a <tc_init+0x96>
    5628:	7bd3      	ldrb	r3, [r2, #15]
    562a:	b25b      	sxtb	r3, r3
    562c:	2b00      	cmp	r3, #0
    562e:	dbfb      	blt.n	5628 <tc_init+0x1b4>
    5630:	2328      	movs	r3, #40	; 0x28
    5632:	5cf3      	ldrb	r3, [r6, r3]
    5634:	742b      	strb	r3, [r5, #16]
    5636:	6822      	ldr	r2, [r4, #0]
    5638:	7bd3      	ldrb	r3, [r2, #15]
    563a:	b25b      	sxtb	r3, r3
    563c:	2b00      	cmp	r3, #0
    563e:	dbfb      	blt.n	5638 <tc_init+0x1c4>
    5640:	2329      	movs	r3, #41	; 0x29
    5642:	5cf3      	ldrb	r3, [r6, r3]
    5644:	752b      	strb	r3, [r5, #20]
    5646:	6822      	ldr	r2, [r4, #0]
    5648:	7bd3      	ldrb	r3, [r2, #15]
    564a:	b25b      	sxtb	r3, r3
    564c:	2b00      	cmp	r3, #0
    564e:	dbfb      	blt.n	5648 <tc_init+0x1d4>
    5650:	232a      	movs	r3, #42	; 0x2a
    5652:	5cf3      	ldrb	r3, [r6, r3]
    5654:	762b      	strb	r3, [r5, #24]
    5656:	6822      	ldr	r2, [r4, #0]
    5658:	7bd3      	ldrb	r3, [r2, #15]
    565a:	b25b      	sxtb	r3, r3
    565c:	2b00      	cmp	r3, #0
    565e:	dbfb      	blt.n	5658 <tc_init+0x1e4>
    5660:	232b      	movs	r3, #43	; 0x2b
    5662:	5cf3      	ldrb	r3, [r6, r3]
    5664:	766b      	strb	r3, [r5, #25]
    5666:	2000      	movs	r0, #0
    5668:	e730      	b.n	54cc <tc_init+0x58>
    566a:	7bd3      	ldrb	r3, [r2, #15]
    566c:	b25b      	sxtb	r3, r3
    566e:	2b00      	cmp	r3, #0
    5670:	dbfb      	blt.n	566a <tc_init+0x1f6>
    5672:	6ab3      	ldr	r3, [r6, #40]	; 0x28
    5674:	612b      	str	r3, [r5, #16]
    5676:	6822      	ldr	r2, [r4, #0]
    5678:	7bd3      	ldrb	r3, [r2, #15]
    567a:	b25b      	sxtb	r3, r3
    567c:	2b00      	cmp	r3, #0
    567e:	dbfb      	blt.n	5678 <tc_init+0x204>
    5680:	6af3      	ldr	r3, [r6, #44]	; 0x2c
    5682:	61ab      	str	r3, [r5, #24]
    5684:	6822      	ldr	r2, [r4, #0]
    5686:	7bd3      	ldrb	r3, [r2, #15]
    5688:	b25b      	sxtb	r3, r3
    568a:	2b00      	cmp	r3, #0
    568c:	dbfb      	blt.n	5686 <tc_init+0x212>
    568e:	6b33      	ldr	r3, [r6, #48]	; 0x30
    5690:	61eb      	str	r3, [r5, #28]
    5692:	2000      	movs	r0, #0
    5694:	e71a      	b.n	54cc <tc_init+0x58>
    5696:	46c0      	nop			; (mov r8, r8)
    5698:	0000543d 	.word	0x0000543d
    569c:	20000b80 	.word	0x20000b80
    56a0:	40000400 	.word	0x40000400
    56a4:	00005225 	.word	0x00005225
    56a8:	00005199 	.word	0x00005199
    56ac:	0000531d 	.word	0x0000531d

000056b0 <tc_get_count_value>:
    56b0:	6802      	ldr	r2, [r0, #0]
    56b2:	7bd3      	ldrb	r3, [r2, #15]
    56b4:	b25b      	sxtb	r3, r3
    56b6:	2b00      	cmp	r3, #0
    56b8:	dbfb      	blt.n	56b2 <tc_get_count_value+0x2>
    56ba:	7903      	ldrb	r3, [r0, #4]
    56bc:	2b04      	cmp	r3, #4
    56be:	d005      	beq.n	56cc <tc_get_count_value+0x1c>
    56c0:	2b08      	cmp	r3, #8
    56c2:	d009      	beq.n	56d8 <tc_get_count_value+0x28>
    56c4:	2000      	movs	r0, #0
    56c6:	2b00      	cmp	r3, #0
    56c8:	d003      	beq.n	56d2 <tc_get_count_value+0x22>
    56ca:	4770      	bx	lr
    56cc:	7c10      	ldrb	r0, [r2, #16]
    56ce:	b2c0      	uxtb	r0, r0
    56d0:	e7fb      	b.n	56ca <tc_get_count_value+0x1a>
    56d2:	8a10      	ldrh	r0, [r2, #16]
    56d4:	b280      	uxth	r0, r0
    56d6:	e7f8      	b.n	56ca <tc_get_count_value+0x1a>
    56d8:	6910      	ldr	r0, [r2, #16]
    56da:	e7f6      	b.n	56ca <tc_get_count_value+0x1a>

000056dc <tc_set_compare_value>:
    56dc:	b510      	push	{r4, lr}
    56de:	6804      	ldr	r4, [r0, #0]
    56e0:	7be3      	ldrb	r3, [r4, #15]
    56e2:	b25b      	sxtb	r3, r3
    56e4:	2b00      	cmp	r3, #0
    56e6:	dbfb      	blt.n	56e0 <tc_set_compare_value+0x4>
    56e8:	7903      	ldrb	r3, [r0, #4]
    56ea:	2b04      	cmp	r3, #4
    56ec:	d005      	beq.n	56fa <tc_set_compare_value+0x1e>
    56ee:	2b08      	cmp	r3, #8
    56f0:	d014      	beq.n	571c <tc_set_compare_value+0x40>
    56f2:	2017      	movs	r0, #23
    56f4:	2b00      	cmp	r3, #0
    56f6:	d008      	beq.n	570a <tc_set_compare_value+0x2e>
    56f8:	bd10      	pop	{r4, pc}
    56fa:	2017      	movs	r0, #23
    56fc:	2901      	cmp	r1, #1
    56fe:	d8fb      	bhi.n	56f8 <tc_set_compare_value+0x1c>
    5700:	b2d2      	uxtb	r2, r2
    5702:	1861      	adds	r1, r4, r1
    5704:	760a      	strb	r2, [r1, #24]
    5706:	2000      	movs	r0, #0
    5708:	e7f6      	b.n	56f8 <tc_set_compare_value+0x1c>
    570a:	2017      	movs	r0, #23
    570c:	2901      	cmp	r1, #1
    570e:	d8f3      	bhi.n	56f8 <tc_set_compare_value+0x1c>
    5710:	b292      	uxth	r2, r2
    5712:	310c      	adds	r1, #12
    5714:	0049      	lsls	r1, r1, #1
    5716:	530a      	strh	r2, [r1, r4]
    5718:	2000      	movs	r0, #0
    571a:	e7ed      	b.n	56f8 <tc_set_compare_value+0x1c>
    571c:	2017      	movs	r0, #23
    571e:	2901      	cmp	r1, #1
    5720:	d8ea      	bhi.n	56f8 <tc_set_compare_value+0x1c>
    5722:	3106      	adds	r1, #6
    5724:	0089      	lsls	r1, r1, #2
    5726:	510a      	str	r2, [r1, r4]
    5728:	2000      	movs	r0, #0
    572a:	e7e5      	b.n	56f8 <tc_set_compare_value+0x1c>

0000572c <Dummy_Handler>:
    572c:	e7fe      	b.n	572c <Dummy_Handler>
	...

00005730 <Reset_Handler>:
    5730:	b5f8      	push	{r3, r4, r5, r6, r7, lr}
    5732:	4a2a      	ldr	r2, [pc, #168]	; (57dc <Reset_Handler+0xac>)
    5734:	4b2a      	ldr	r3, [pc, #168]	; (57e0 <Reset_Handler+0xb0>)
    5736:	429a      	cmp	r2, r3
    5738:	d011      	beq.n	575e <Reset_Handler+0x2e>
    573a:	001a      	movs	r2, r3
    573c:	4b29      	ldr	r3, [pc, #164]	; (57e4 <Reset_Handler+0xb4>)
    573e:	429a      	cmp	r2, r3
    5740:	d20d      	bcs.n	575e <Reset_Handler+0x2e>
    5742:	4a29      	ldr	r2, [pc, #164]	; (57e8 <Reset_Handler+0xb8>)
    5744:	3303      	adds	r3, #3
    5746:	1a9b      	subs	r3, r3, r2
    5748:	089b      	lsrs	r3, r3, #2
    574a:	3301      	adds	r3, #1
    574c:	009b      	lsls	r3, r3, #2
    574e:	2200      	movs	r2, #0
    5750:	4823      	ldr	r0, [pc, #140]	; (57e0 <Reset_Handler+0xb0>)
    5752:	4922      	ldr	r1, [pc, #136]	; (57dc <Reset_Handler+0xac>)
    5754:	588c      	ldr	r4, [r1, r2]
    5756:	5084      	str	r4, [r0, r2]
    5758:	3204      	adds	r2, #4
    575a:	429a      	cmp	r2, r3
    575c:	d1fa      	bne.n	5754 <Reset_Handler+0x24>
    575e:	4a23      	ldr	r2, [pc, #140]	; (57ec <Reset_Handler+0xbc>)
    5760:	4b23      	ldr	r3, [pc, #140]	; (57f0 <Reset_Handler+0xc0>)
    5762:	429a      	cmp	r2, r3
    5764:	d20a      	bcs.n	577c <Reset_Handler+0x4c>
    5766:	43d3      	mvns	r3, r2
    5768:	4921      	ldr	r1, [pc, #132]	; (57f0 <Reset_Handler+0xc0>)
    576a:	185b      	adds	r3, r3, r1
    576c:	2103      	movs	r1, #3
    576e:	438b      	bics	r3, r1
    5770:	3304      	adds	r3, #4
    5772:	189b      	adds	r3, r3, r2
    5774:	2100      	movs	r1, #0
    5776:	c202      	stmia	r2!, {r1}
    5778:	4293      	cmp	r3, r2
    577a:	d1fc      	bne.n	5776 <Reset_Handler+0x46>
    577c:	4a1d      	ldr	r2, [pc, #116]	; (57f4 <Reset_Handler+0xc4>)
    577e:	21ff      	movs	r1, #255	; 0xff
    5780:	4b1d      	ldr	r3, [pc, #116]	; (57f8 <Reset_Handler+0xc8>)
    5782:	438b      	bics	r3, r1
    5784:	6093      	str	r3, [r2, #8]
    5786:	39fd      	subs	r1, #253	; 0xfd
    5788:	2390      	movs	r3, #144	; 0x90
    578a:	005b      	lsls	r3, r3, #1
    578c:	4a1b      	ldr	r2, [pc, #108]	; (57fc <Reset_Handler+0xcc>)
    578e:	50d1      	str	r1, [r2, r3]
    5790:	4a1b      	ldr	r2, [pc, #108]	; (5800 <Reset_Handler+0xd0>)
    5792:	78d3      	ldrb	r3, [r2, #3]
    5794:	2503      	movs	r5, #3
    5796:	43ab      	bics	r3, r5
    5798:	2402      	movs	r4, #2
    579a:	4323      	orrs	r3, r4
    579c:	70d3      	strb	r3, [r2, #3]
    579e:	78d3      	ldrb	r3, [r2, #3]
    57a0:	270c      	movs	r7, #12
    57a2:	43bb      	bics	r3, r7
    57a4:	2608      	movs	r6, #8
    57a6:	4333      	orrs	r3, r6
    57a8:	70d3      	strb	r3, [r2, #3]
    57aa:	4b16      	ldr	r3, [pc, #88]	; (5804 <Reset_Handler+0xd4>)
    57ac:	7b98      	ldrb	r0, [r3, #14]
    57ae:	2230      	movs	r2, #48	; 0x30
    57b0:	4390      	bics	r0, r2
    57b2:	2220      	movs	r2, #32
    57b4:	4310      	orrs	r0, r2
    57b6:	7398      	strb	r0, [r3, #14]
    57b8:	7b99      	ldrb	r1, [r3, #14]
    57ba:	43b9      	bics	r1, r7
    57bc:	4331      	orrs	r1, r6
    57be:	7399      	strb	r1, [r3, #14]
    57c0:	7b9a      	ldrb	r2, [r3, #14]
    57c2:	43aa      	bics	r2, r5
    57c4:	4322      	orrs	r2, r4
    57c6:	739a      	strb	r2, [r3, #14]
    57c8:	4a0f      	ldr	r2, [pc, #60]	; (5808 <Reset_Handler+0xd8>)
    57ca:	6853      	ldr	r3, [r2, #4]
    57cc:	2180      	movs	r1, #128	; 0x80
    57ce:	430b      	orrs	r3, r1
    57d0:	6053      	str	r3, [r2, #4]
    57d2:	4b0e      	ldr	r3, [pc, #56]	; (580c <Reset_Handler+0xdc>)
    57d4:	4798      	blx	r3
    57d6:	4b0e      	ldr	r3, [pc, #56]	; (5810 <Reset_Handler+0xe0>)
    57d8:	4798      	blx	r3
    57da:	e7fe      	b.n	57da <Reset_Handler+0xaa>
    57dc:	0000b1a4 	.word	0x0000b1a4
    57e0:	20000000 	.word	0x20000000
    57e4:	20000094 	.word	0x20000094
    57e8:	20000004 	.word	0x20000004
    57ec:	20000094 	.word	0x20000094
    57f0:	20000d5c 	.word	0x20000d5c
    57f4:	e000ed00 	.word	0xe000ed00
    57f8:	00000000 	.word	0x00000000
    57fc:	41007000 	.word	0x41007000
    5800:	41005000 	.word	0x41005000
    5804:	41004800 	.word	0x41004800
    5808:	41004000 	.word	0x41004000
    580c:	00008b69 	.word	0x00008b69
    5810:	00007b3d 	.word	0x00007b3d

00005814 <_sbrk>:
    5814:	0003      	movs	r3, r0
    5816:	4a06      	ldr	r2, [pc, #24]	; (5830 <_sbrk+0x1c>)
    5818:	6812      	ldr	r2, [r2, #0]
    581a:	2a00      	cmp	r2, #0
    581c:	d004      	beq.n	5828 <_sbrk+0x14>
    581e:	4a04      	ldr	r2, [pc, #16]	; (5830 <_sbrk+0x1c>)
    5820:	6810      	ldr	r0, [r2, #0]
    5822:	18c3      	adds	r3, r0, r3
    5824:	6013      	str	r3, [r2, #0]
    5826:	4770      	bx	lr
    5828:	4902      	ldr	r1, [pc, #8]	; (5834 <_sbrk+0x20>)
    582a:	4a01      	ldr	r2, [pc, #4]	; (5830 <_sbrk+0x1c>)
    582c:	6011      	str	r1, [r2, #0]
    582e:	e7f6      	b.n	581e <_sbrk+0xa>
    5830:	200001dc 	.word	0x200001dc
    5834:	20002d60 	.word	0x20002d60

00005838 <_close>:
    5838:	2001      	movs	r0, #1
    583a:	4240      	negs	r0, r0
    583c:	4770      	bx	lr

0000583e <_fstat>:
    583e:	2380      	movs	r3, #128	; 0x80
    5840:	019b      	lsls	r3, r3, #6
    5842:	604b      	str	r3, [r1, #4]
    5844:	2000      	movs	r0, #0
    5846:	4770      	bx	lr

00005848 <_isatty>:
    5848:	2001      	movs	r0, #1
    584a:	4770      	bx	lr

0000584c <_lseek>:
    584c:	2000      	movs	r0, #0
    584e:	4770      	bx	lr

00005850 <load_hw_timer>:
    5850:	b5f8      	push	{r3, r4, r5, r6, r7, lr}
    5852:	0006      	movs	r6, r0
    5854:	28ff      	cmp	r0, #255	; 0xff
    5856:	d027      	beq.n	58a8 <load_hw_timer+0x58>
    5858:	4d15      	ldr	r5, [pc, #84]	; (58b0 <load_hw_timer+0x60>)
    585a:	4f16      	ldr	r7, [pc, #88]	; (58b4 <load_hw_timer+0x64>)
    585c:	882c      	ldrh	r4, [r5, #0]
    585e:	b2a4      	uxth	r4, r4
    5860:	47b8      	blx	r7
    5862:	882b      	ldrh	r3, [r5, #0]
    5864:	b29b      	uxth	r3, r3
    5866:	429c      	cmp	r4, r3
    5868:	d1f8      	bne.n	585c <load_hw_timer+0xc>
    586a:	0424      	lsls	r4, r4, #16
    586c:	0133      	lsls	r3, r6, #4
    586e:	4320      	orrs	r0, r4
    5870:	4a11      	ldr	r2, [pc, #68]	; (58b8 <load_hw_timer+0x68>)
    5872:	589c      	ldr	r4, [r3, r2]
    5874:	1a20      	subs	r0, r4, r0
    5876:	4b11      	ldr	r3, [pc, #68]	; (58bc <load_hw_timer+0x6c>)
    5878:	4298      	cmp	r0, r3
    587a:	d811      	bhi.n	58a0 <load_hw_timer+0x50>
    587c:	0132      	lsls	r2, r6, #4
    587e:	4b0e      	ldr	r3, [pc, #56]	; (58b8 <load_hw_timer+0x68>)
    5880:	189b      	adds	r3, r3, r2
    5882:	7b5b      	ldrb	r3, [r3, #13]
    5884:	2b00      	cmp	r3, #0
    5886:	d10e      	bne.n	58a6 <load_hw_timer+0x56>
    5888:	4b0d      	ldr	r3, [pc, #52]	; (58c0 <load_hw_timer+0x70>)
    588a:	4298      	cmp	r0, r3
    588c:	d80b      	bhi.n	58a6 <load_hw_timer+0x56>
    588e:	b280      	uxth	r0, r0
    5890:	4b0c      	ldr	r3, [pc, #48]	; (58c4 <load_hw_timer+0x74>)
    5892:	4798      	blx	r3
    5894:	0136      	lsls	r6, r6, #4
    5896:	4b08      	ldr	r3, [pc, #32]	; (58b8 <load_hw_timer+0x68>)
    5898:	199e      	adds	r6, r3, r6
    589a:	2301      	movs	r3, #1
    589c:	7373      	strb	r3, [r6, #13]
    589e:	e002      	b.n	58a6 <load_hw_timer+0x56>
    58a0:	2201      	movs	r2, #1
    58a2:	4b09      	ldr	r3, [pc, #36]	; (58c8 <load_hw_timer+0x78>)
    58a4:	701a      	strb	r2, [r3, #0]
    58a6:	bdf8      	pop	{r3, r4, r5, r6, r7, pc}
    58a8:	4b08      	ldr	r3, [pc, #32]	; (58cc <load_hw_timer+0x7c>)
    58aa:	4798      	blx	r3
    58ac:	e7fb      	b.n	58a6 <load_hw_timer+0x56>
    58ae:	46c0      	nop			; (mov r8, r8)
    58b0:	20000b8c 	.word	0x20000b8c
    58b4:	00008749 	.word	0x00008749
    58b8:	20000b90 	.word	0x20000b90
    58bc:	7ffffffe 	.word	0x7ffffffe
    58c0:	0000ffff 	.word	0x0000ffff
    58c4:	000087bd 	.word	0x000087bd
    58c8:	20000be0 	.word	0x20000be0
    58cc:	00008795 	.word	0x00008795

000058d0 <internal_timer_handler>:
    58d0:	b510      	push	{r4, lr}
    58d2:	4b1d      	ldr	r3, [pc, #116]	; (5948 <internal_timer_handler+0x78>)
    58d4:	781b      	ldrb	r3, [r3, #0]
    58d6:	2b00      	cmp	r3, #0
    58d8:	d027      	beq.n	592a <internal_timer_handler+0x5a>
    58da:	2200      	movs	r2, #0
    58dc:	4b1a      	ldr	r3, [pc, #104]	; (5948 <internal_timer_handler+0x78>)
    58de:	701a      	strb	r2, [r3, #0]
    58e0:	4b1a      	ldr	r3, [pc, #104]	; (594c <internal_timer_handler+0x7c>)
    58e2:	781b      	ldrb	r3, [r3, #0]
    58e4:	2b00      	cmp	r3, #0
    58e6:	d020      	beq.n	592a <internal_timer_handler+0x5a>
    58e8:	4b19      	ldr	r3, [pc, #100]	; (5950 <internal_timer_handler+0x80>)
    58ea:	681b      	ldr	r3, [r3, #0]
    58ec:	2bff      	cmp	r3, #255	; 0xff
    58ee:	d01d      	beq.n	592c <internal_timer_handler+0x5c>
    58f0:	4b18      	ldr	r3, [pc, #96]	; (5954 <internal_timer_handler+0x84>)
    58f2:	6818      	ldr	r0, [r3, #0]
    58f4:	4918      	ldr	r1, [pc, #96]	; (5958 <internal_timer_handler+0x88>)
    58f6:	680b      	ldr	r3, [r1, #0]
    58f8:	011a      	lsls	r2, r3, #4
    58fa:	4b18      	ldr	r3, [pc, #96]	; (595c <internal_timer_handler+0x8c>)
    58fc:	189b      	adds	r3, r3, r2
    58fe:	7318      	strb	r0, [r3, #12]
    5900:	6008      	str	r0, [r1, #0]
    5902:	4a16      	ldr	r2, [pc, #88]	; (595c <internal_timer_handler+0x8c>)
    5904:	4913      	ldr	r1, [pc, #76]	; (5954 <internal_timer_handler+0x84>)
    5906:	680b      	ldr	r3, [r1, #0]
    5908:	011b      	lsls	r3, r3, #4
    590a:	18d3      	adds	r3, r2, r3
    590c:	7b18      	ldrb	r0, [r3, #12]
    590e:	6008      	str	r0, [r1, #0]
    5910:	4b11      	ldr	r3, [pc, #68]	; (5958 <internal_timer_handler+0x88>)
    5912:	681b      	ldr	r3, [r3, #0]
    5914:	011b      	lsls	r3, r3, #4
    5916:	18d2      	adds	r2, r2, r3
    5918:	23ff      	movs	r3, #255	; 0xff
    591a:	7313      	strb	r3, [r2, #12]
    591c:	4a0b      	ldr	r2, [pc, #44]	; (594c <internal_timer_handler+0x7c>)
    591e:	7813      	ldrb	r3, [r2, #0]
    5920:	3b01      	subs	r3, #1
    5922:	b2db      	uxtb	r3, r3
    5924:	7013      	strb	r3, [r2, #0]
    5926:	2b00      	cmp	r3, #0
    5928:	d10b      	bne.n	5942 <internal_timer_handler+0x72>
    592a:	bd10      	pop	{r4, pc}
    592c:	4b0a      	ldr	r3, [pc, #40]	; (5958 <internal_timer_handler+0x88>)
    592e:	681b      	ldr	r3, [r3, #0]
    5930:	2bff      	cmp	r3, #255	; 0xff
    5932:	d1dd      	bne.n	58f0 <internal_timer_handler+0x20>
    5934:	4b07      	ldr	r3, [pc, #28]	; (5954 <internal_timer_handler+0x84>)
    5936:	681b      	ldr	r3, [r3, #0]
    5938:	4a07      	ldr	r2, [pc, #28]	; (5958 <internal_timer_handler+0x88>)
    593a:	6013      	str	r3, [r2, #0]
    593c:	4a04      	ldr	r2, [pc, #16]	; (5950 <internal_timer_handler+0x80>)
    593e:	6013      	str	r3, [r2, #0]
    5940:	e7df      	b.n	5902 <internal_timer_handler+0x32>
    5942:	4b07      	ldr	r3, [pc, #28]	; (5960 <internal_timer_handler+0x90>)
    5944:	4798      	blx	r3
    5946:	e7f0      	b.n	592a <internal_timer_handler+0x5a>
    5948:	20000be0 	.word	0x20000be0
    594c:	200001ec 	.word	0x200001ec
    5950:	200001e0 	.word	0x200001e0
    5954:	200001e8 	.word	0x200001e8
    5958:	200001e4 	.word	0x200001e4
    595c:	20000b90 	.word	0x20000b90
    5960:	00005851 	.word	0x00005851

00005964 <sw_timer_get_time>:
    5964:	b570      	push	{r4, r5, r6, lr}
    5966:	4d06      	ldr	r5, [pc, #24]	; (5980 <sw_timer_get_time+0x1c>)
    5968:	4e06      	ldr	r6, [pc, #24]	; (5984 <sw_timer_get_time+0x20>)
    596a:	882c      	ldrh	r4, [r5, #0]
    596c:	b2a4      	uxth	r4, r4
    596e:	47b0      	blx	r6
    5970:	882b      	ldrh	r3, [r5, #0]
    5972:	b29b      	uxth	r3, r3
    5974:	429c      	cmp	r4, r3
    5976:	d1f8      	bne.n	596a <sw_timer_get_time+0x6>
    5978:	0424      	lsls	r4, r4, #16
    597a:	4320      	orrs	r0, r4
    597c:	bd70      	pop	{r4, r5, r6, pc}
    597e:	46c0      	nop			; (mov r8, r8)
    5980:	20000b8c 	.word	0x20000b8c
    5984:	00008749 	.word	0x00008749

00005988 <sw_timer_service>:
    5988:	b5f0      	push	{r4, r5, r6, r7, lr}
    598a:	46de      	mov	lr, fp
    598c:	4657      	mov	r7, sl
    598e:	464e      	mov	r6, r9
    5990:	4645      	mov	r5, r8
    5992:	b5e0      	push	{r5, r6, r7, lr}
    5994:	b083      	sub	sp, #12
    5996:	f3ef 8210 	mrs	r2, PRIMASK
    599a:	4253      	negs	r3, r2
    599c:	4153      	adcs	r3, r2
    599e:	9300      	str	r3, [sp, #0]
    59a0:	b672      	cpsid	i
    59a2:	f3bf 8f5f 	dmb	sy
    59a6:	2200      	movs	r2, #0
    59a8:	4b27      	ldr	r3, [pc, #156]	; (5a48 <sw_timer_service+0xc0>)
    59aa:	701a      	strb	r2, [r3, #0]
    59ac:	9c00      	ldr	r4, [sp, #0]
    59ae:	4b27      	ldr	r3, [pc, #156]	; (5a4c <sw_timer_service+0xc4>)
    59b0:	4798      	blx	r3
    59b2:	23ff      	movs	r3, #255	; 0xff
    59b4:	4223      	tst	r3, r4
    59b6:	d005      	beq.n	59c4 <sw_timer_service+0x3c>
    59b8:	2201      	movs	r2, #1
    59ba:	4b23      	ldr	r3, [pc, #140]	; (5a48 <sw_timer_service+0xc0>)
    59bc:	701a      	strb	r2, [r3, #0]
    59be:	f3bf 8f5f 	dmb	sy
    59c2:	b662      	cpsie	i
    59c4:	4b20      	ldr	r3, [pc, #128]	; (5a48 <sw_timer_service+0xc0>)
    59c6:	469a      	mov	sl, r3
    59c8:	4c21      	ldr	r4, [pc, #132]	; (5a50 <sw_timer_service+0xc8>)
    59ca:	4b22      	ldr	r3, [pc, #136]	; (5a54 <sw_timer_service+0xcc>)
    59cc:	4699      	mov	r9, r3
    59ce:	2200      	movs	r2, #0
    59d0:	20ff      	movs	r0, #255	; 0xff
    59d2:	4b21      	ldr	r3, [pc, #132]	; (5a58 <sw_timer_service+0xd0>)
    59d4:	4698      	mov	r8, r3
    59d6:	4b1c      	ldr	r3, [pc, #112]	; (5a48 <sw_timer_service+0xc0>)
    59d8:	469c      	mov	ip, r3
    59da:	e004      	b.n	59e6 <sw_timer_service+0x5e>
    59dc:	4643      	mov	r3, r8
    59de:	6018      	str	r0, [r3, #0]
    59e0:	e01e      	b.n	5a20 <sw_timer_service+0x98>
    59e2:	2e00      	cmp	r6, #0
    59e4:	d125      	bne.n	5a32 <sw_timer_service+0xaa>
    59e6:	4b1a      	ldr	r3, [pc, #104]	; (5a50 <sw_timer_service+0xc8>)
    59e8:	681b      	ldr	r3, [r3, #0]
    59ea:	2bff      	cmp	r3, #255	; 0xff
    59ec:	d024      	beq.n	5a38 <sw_timer_service+0xb0>
    59ee:	f3ef 8110 	mrs	r1, PRIMASK
    59f2:	424b      	negs	r3, r1
    59f4:	414b      	adcs	r3, r1
    59f6:	9301      	str	r3, [sp, #4]
    59f8:	b672      	cpsid	i
    59fa:	f3bf 8f5f 	dmb	sy
    59fe:	4653      	mov	r3, sl
    5a00:	701a      	strb	r2, [r3, #0]
    5a02:	9f01      	ldr	r7, [sp, #4]
    5a04:	6823      	ldr	r3, [r4, #0]
    5a06:	011b      	lsls	r3, r3, #4
    5a08:	444b      	add	r3, r9
    5a0a:	7b19      	ldrb	r1, [r3, #12]
    5a0c:	685e      	ldr	r6, [r3, #4]
    5a0e:	689d      	ldr	r5, [r3, #8]
    5a10:	46ab      	mov	fp, r5
    5a12:	7318      	strb	r0, [r3, #12]
    5a14:	605a      	str	r2, [r3, #4]
    5a16:	609a      	str	r2, [r3, #8]
    5a18:	735a      	strb	r2, [r3, #13]
    5a1a:	6021      	str	r1, [r4, #0]
    5a1c:	29ff      	cmp	r1, #255	; 0xff
    5a1e:	d0dd      	beq.n	59dc <sw_timer_service+0x54>
    5a20:	4238      	tst	r0, r7
    5a22:	d0de      	beq.n	59e2 <sw_timer_service+0x5a>
    5a24:	2301      	movs	r3, #1
    5a26:	4661      	mov	r1, ip
    5a28:	700b      	strb	r3, [r1, #0]
    5a2a:	f3bf 8f5f 	dmb	sy
    5a2e:	b662      	cpsie	i
    5a30:	e7d7      	b.n	59e2 <sw_timer_service+0x5a>
    5a32:	4658      	mov	r0, fp
    5a34:	47b0      	blx	r6
    5a36:	e7ca      	b.n	59ce <sw_timer_service+0x46>
    5a38:	b003      	add	sp, #12
    5a3a:	bc3c      	pop	{r2, r3, r4, r5}
    5a3c:	4690      	mov	r8, r2
    5a3e:	4699      	mov	r9, r3
    5a40:	46a2      	mov	sl, r4
    5a42:	46ab      	mov	fp, r5
    5a44:	bdf0      	pop	{r4, r5, r6, r7, pc}
    5a46:	46c0      	nop			; (mov r8, r8)
    5a48:	2000000c 	.word	0x2000000c
    5a4c:	000058d1 	.word	0x000058d1
    5a50:	200001e0 	.word	0x200001e0
    5a54:	20000b90 	.word	0x20000b90
    5a58:	200001e4 	.word	0x200001e4

00005a5c <pal_init>:
    5a5c:	b510      	push	{r4, lr}
    5a5e:	4b02      	ldr	r3, [pc, #8]	; (5a68 <pal_init+0xc>)
    5a60:	4798      	blx	r3
    5a62:	2000      	movs	r0, #0
    5a64:	bd10      	pop	{r4, pc}
    5a66:	46c0      	nop			; (mov r8, r8)
    5a68:	00006c01 	.word	0x00006c01

00005a6c <pal_task>:
    5a6c:	b510      	push	{r4, lr}
    5a6e:	4b01      	ldr	r3, [pc, #4]	; (5a74 <pal_task+0x8>)
    5a70:	4798      	blx	r3
    5a72:	bd10      	pop	{r4, pc}
    5a74:	00005989 	.word	0x00005989

00005a78 <pal_get_current_time>:
    5a78:	b510      	push	{r4, lr}
    5a7a:	b082      	sub	sp, #8
    5a7c:	0004      	movs	r4, r0
    5a7e:	4b05      	ldr	r3, [pc, #20]	; (5a94 <pal_get_current_time+0x1c>)
    5a80:	4798      	blx	r3
    5a82:	9001      	str	r0, [sp, #4]
    5a84:	2204      	movs	r2, #4
    5a86:	a901      	add	r1, sp, #4
    5a88:	0020      	movs	r0, r4
    5a8a:	4b03      	ldr	r3, [pc, #12]	; (5a98 <pal_get_current_time+0x20>)
    5a8c:	4798      	blx	r3
    5a8e:	b002      	add	sp, #8
    5a90:	bd10      	pop	{r4, pc}
    5a92:	46c0      	nop			; (mov r8, r8)
    5a94:	00005965 	.word	0x00005965
    5a98:	00008bb1 	.word	0x00008bb1

00005a9c <bmm_buffer_init>:
    5a9c:	b5f8      	push	{r3, r4, r5, r6, r7, lr}
    5a9e:	4e0d      	ldr	r6, [pc, #52]	; (5ad4 <bmm_buffer_init+0x38>)
    5aa0:	0030      	movs	r0, r6
    5aa2:	4b0d      	ldr	r3, [pc, #52]	; (5ad8 <bmm_buffer_init+0x3c>)
    5aa4:	4798      	blx	r3
    5aa6:	4c0d      	ldr	r4, [pc, #52]	; (5adc <bmm_buffer_init+0x40>)
    5aa8:	4d0d      	ldr	r5, [pc, #52]	; (5ae0 <bmm_buffer_init+0x44>)
    5aaa:	6025      	str	r5, [r4, #0]
    5aac:	0021      	movs	r1, r4
    5aae:	0030      	movs	r0, r6
    5ab0:	4f0c      	ldr	r7, [pc, #48]	; (5ae4 <bmm_buffer_init+0x48>)
    5ab2:	47b8      	blx	r7
    5ab4:	002b      	movs	r3, r5
    5ab6:	3390      	adds	r3, #144	; 0x90
    5ab8:	60a3      	str	r3, [r4, #8]
    5aba:	0021      	movs	r1, r4
    5abc:	3108      	adds	r1, #8
    5abe:	0030      	movs	r0, r6
    5ac0:	47b8      	blx	r7
    5ac2:	3521      	adds	r5, #33	; 0x21
    5ac4:	35ff      	adds	r5, #255	; 0xff
    5ac6:	6125      	str	r5, [r4, #16]
    5ac8:	0021      	movs	r1, r4
    5aca:	3110      	adds	r1, #16
    5acc:	0030      	movs	r0, r6
    5ace:	47b8      	blx	r7
    5ad0:	bdf8      	pop	{r3, r4, r5, r6, r7, pc}
    5ad2:	46c0      	nop			; (mov r8, r8)
    5ad4:	200003b8 	.word	0x200003b8
    5ad8:	00005ca9 	.word	0x00005ca9
    5adc:	200001f0 	.word	0x200001f0
    5ae0:	20000208 	.word	0x20000208
    5ae4:	00005cc1 	.word	0x00005cc1

00005ae8 <bmm_buffer_alloc>:
    5ae8:	b510      	push	{r4, lr}
    5aea:	2100      	movs	r1, #0
    5aec:	4801      	ldr	r0, [pc, #4]	; (5af4 <bmm_buffer_alloc+0xc>)
    5aee:	4b02      	ldr	r3, [pc, #8]	; (5af8 <bmm_buffer_alloc+0x10>)
    5af0:	4798      	blx	r3
    5af2:	bd10      	pop	{r4, pc}
    5af4:	200003b8 	.word	0x200003b8
    5af8:	00005d4d 	.word	0x00005d4d

00005afc <bmm_buffer_free>:
    5afc:	b510      	push	{r4, lr}
    5afe:	2800      	cmp	r0, #0
    5b00:	d003      	beq.n	5b0a <bmm_buffer_free+0xe>
    5b02:	0001      	movs	r1, r0
    5b04:	4801      	ldr	r0, [pc, #4]	; (5b0c <bmm_buffer_free+0x10>)
    5b06:	4b02      	ldr	r3, [pc, #8]	; (5b10 <bmm_buffer_free+0x14>)
    5b08:	4798      	blx	r3
    5b0a:	bd10      	pop	{r4, pc}
    5b0c:	200003b8 	.word	0x200003b8
    5b10:	00005cc1 	.word	0x00005cc1

00005b14 <queue_read_or_remove>:
    5b14:	b5f0      	push	{r4, r5, r6, r7, lr}
    5b16:	46ce      	mov	lr, r9
    5b18:	4647      	mov	r7, r8
    5b1a:	b580      	push	{r7, lr}
    5b1c:	b083      	sub	sp, #12
    5b1e:	0007      	movs	r7, r0
    5b20:	4689      	mov	r9, r1
    5b22:	0015      	movs	r5, r2
    5b24:	f3ef 8310 	mrs	r3, PRIMASK
    5b28:	425a      	negs	r2, r3
    5b2a:	4153      	adcs	r3, r2
    5b2c:	9301      	str	r3, [sp, #4]
    5b2e:	b672      	cpsid	i
    5b30:	f3bf 8f5f 	dmb	sy
    5b34:	2200      	movs	r2, #0
    5b36:	4b5b      	ldr	r3, [pc, #364]	; (5ca4 <queue_read_or_remove+0x190>)
    5b38:	701a      	strb	r2, [r3, #0]
    5b3a:	9b01      	ldr	r3, [sp, #4]
    5b3c:	4698      	mov	r8, r3
    5b3e:	7a03      	ldrb	r3, [r0, #8]
    5b40:	2b00      	cmp	r3, #0
    5b42:	d100      	bne.n	5b46 <queue_read_or_remove+0x32>
    5b44:	e0ab      	b.n	5c9e <queue_read_or_remove+0x18a>
    5b46:	7804      	ldrb	r4, [r0, #0]
    5b48:	7843      	ldrb	r3, [r0, #1]
    5b4a:	021b      	lsls	r3, r3, #8
    5b4c:	4323      	orrs	r3, r4
    5b4e:	7884      	ldrb	r4, [r0, #2]
    5b50:	0424      	lsls	r4, r4, #16
    5b52:	4323      	orrs	r3, r4
    5b54:	78c4      	ldrb	r4, [r0, #3]
    5b56:	0624      	lsls	r4, r4, #24
    5b58:	431c      	orrs	r4, r3
    5b5a:	2d00      	cmp	r5, #0
    5b5c:	d043      	beq.n	5be6 <queue_read_or_remove+0xd2>
    5b5e:	2c00      	cmp	r4, #0
    5b60:	d030      	beq.n	5bc4 <queue_read_or_remove+0xb0>
    5b62:	0026      	movs	r6, r4
    5b64:	e000      	b.n	5b68 <queue_read_or_remove+0x54>
    5b66:	001c      	movs	r4, r3
    5b68:	7929      	ldrb	r1, [r5, #4]
    5b6a:	796b      	ldrb	r3, [r5, #5]
    5b6c:	021b      	lsls	r3, r3, #8
    5b6e:	430b      	orrs	r3, r1
    5b70:	79a9      	ldrb	r1, [r5, #6]
    5b72:	0409      	lsls	r1, r1, #16
    5b74:	430b      	orrs	r3, r1
    5b76:	79e9      	ldrb	r1, [r5, #7]
    5b78:	0609      	lsls	r1, r1, #24
    5b7a:	4319      	orrs	r1, r3
    5b7c:	7820      	ldrb	r0, [r4, #0]
    5b7e:	7863      	ldrb	r3, [r4, #1]
    5b80:	021b      	lsls	r3, r3, #8
    5b82:	4303      	orrs	r3, r0
    5b84:	78a0      	ldrb	r0, [r4, #2]
    5b86:	0400      	lsls	r0, r0, #16
    5b88:	4303      	orrs	r3, r0
    5b8a:	78e0      	ldrb	r0, [r4, #3]
    5b8c:	0600      	lsls	r0, r0, #24
    5b8e:	4318      	orrs	r0, r3
    5b90:	782b      	ldrb	r3, [r5, #0]
    5b92:	786a      	ldrb	r2, [r5, #1]
    5b94:	0212      	lsls	r2, r2, #8
    5b96:	431a      	orrs	r2, r3
    5b98:	78ab      	ldrb	r3, [r5, #2]
    5b9a:	041b      	lsls	r3, r3, #16
    5b9c:	431a      	orrs	r2, r3
    5b9e:	78eb      	ldrb	r3, [r5, #3]
    5ba0:	061b      	lsls	r3, r3, #24
    5ba2:	4313      	orrs	r3, r2
    5ba4:	4798      	blx	r3
    5ba6:	2800      	cmp	r0, #0
    5ba8:	d11e      	bne.n	5be8 <queue_read_or_remove+0xd4>
    5baa:	7923      	ldrb	r3, [r4, #4]
    5bac:	7962      	ldrb	r2, [r4, #5]
    5bae:	0212      	lsls	r2, r2, #8
    5bb0:	431a      	orrs	r2, r3
    5bb2:	79a3      	ldrb	r3, [r4, #6]
    5bb4:	041b      	lsls	r3, r3, #16
    5bb6:	431a      	orrs	r2, r3
    5bb8:	79e3      	ldrb	r3, [r4, #7]
    5bba:	061b      	lsls	r3, r3, #24
    5bbc:	4313      	orrs	r3, r2
    5bbe:	0026      	movs	r6, r4
    5bc0:	2b00      	cmp	r3, #0
    5bc2:	d1d0      	bne.n	5b66 <queue_read_or_remove+0x52>
    5bc4:	2400      	movs	r4, #0
    5bc6:	23ff      	movs	r3, #255	; 0xff
    5bc8:	4642      	mov	r2, r8
    5bca:	4213      	tst	r3, r2
    5bcc:	d005      	beq.n	5bda <queue_read_or_remove+0xc6>
    5bce:	2201      	movs	r2, #1
    5bd0:	4b34      	ldr	r3, [pc, #208]	; (5ca4 <queue_read_or_remove+0x190>)
    5bd2:	701a      	strb	r2, [r3, #0]
    5bd4:	f3bf 8f5f 	dmb	sy
    5bd8:	b662      	cpsie	i
    5bda:	0020      	movs	r0, r4
    5bdc:	b003      	add	sp, #12
    5bde:	bc0c      	pop	{r2, r3}
    5be0:	4690      	mov	r8, r2
    5be2:	4699      	mov	r9, r3
    5be4:	bdf0      	pop	{r4, r5, r6, r7, pc}
    5be6:	0026      	movs	r6, r4
    5be8:	2c00      	cmp	r4, #0
    5bea:	d0ec      	beq.n	5bc6 <queue_read_or_remove+0xb2>
    5bec:	464b      	mov	r3, r9
    5bee:	2b00      	cmp	r3, #0
    5bf0:	d1e9      	bne.n	5bc6 <queue_read_or_remove+0xb2>
    5bf2:	783b      	ldrb	r3, [r7, #0]
    5bf4:	787a      	ldrb	r2, [r7, #1]
    5bf6:	0212      	lsls	r2, r2, #8
    5bf8:	431a      	orrs	r2, r3
    5bfa:	78bb      	ldrb	r3, [r7, #2]
    5bfc:	041b      	lsls	r3, r3, #16
    5bfe:	431a      	orrs	r2, r3
    5c00:	78fb      	ldrb	r3, [r7, #3]
    5c02:	061b      	lsls	r3, r3, #24
    5c04:	4313      	orrs	r3, r2
    5c06:	429c      	cmp	r4, r3
    5c08:	d02f      	beq.n	5c6a <queue_read_or_remove+0x156>
    5c0a:	7923      	ldrb	r3, [r4, #4]
    5c0c:	7962      	ldrb	r2, [r4, #5]
    5c0e:	0212      	lsls	r2, r2, #8
    5c10:	431a      	orrs	r2, r3
    5c12:	79a3      	ldrb	r3, [r4, #6]
    5c14:	041b      	lsls	r3, r3, #16
    5c16:	431a      	orrs	r2, r3
    5c18:	79e3      	ldrb	r3, [r4, #7]
    5c1a:	061b      	lsls	r3, r3, #24
    5c1c:	4313      	orrs	r3, r2
    5c1e:	7133      	strb	r3, [r6, #4]
    5c20:	0a1a      	lsrs	r2, r3, #8
    5c22:	7172      	strb	r2, [r6, #5]
    5c24:	0c1a      	lsrs	r2, r3, #16
    5c26:	71b2      	strb	r2, [r6, #6]
    5c28:	0e1b      	lsrs	r3, r3, #24
    5c2a:	71f3      	strb	r3, [r6, #7]
    5c2c:	793b      	ldrb	r3, [r7, #4]
    5c2e:	797a      	ldrb	r2, [r7, #5]
    5c30:	0212      	lsls	r2, r2, #8
    5c32:	431a      	orrs	r2, r3
    5c34:	79bb      	ldrb	r3, [r7, #6]
    5c36:	041b      	lsls	r3, r3, #16
    5c38:	431a      	orrs	r2, r3
    5c3a:	79fb      	ldrb	r3, [r7, #7]
    5c3c:	061b      	lsls	r3, r3, #24
    5c3e:	4313      	orrs	r3, r2
    5c40:	429c      	cmp	r4, r3
    5c42:	d024      	beq.n	5c8e <queue_read_or_remove+0x17a>
    5c44:	7a3b      	ldrb	r3, [r7, #8]
    5c46:	3b01      	subs	r3, #1
    5c48:	723b      	strb	r3, [r7, #8]
    5c4a:	783b      	ldrb	r3, [r7, #0]
    5c4c:	787a      	ldrb	r2, [r7, #1]
    5c4e:	0212      	lsls	r2, r2, #8
    5c50:	431a      	orrs	r2, r3
    5c52:	78bb      	ldrb	r3, [r7, #2]
    5c54:	041b      	lsls	r3, r3, #16
    5c56:	431a      	orrs	r2, r3
    5c58:	78fb      	ldrb	r3, [r7, #3]
    5c5a:	061b      	lsls	r3, r3, #24
    5c5c:	4313      	orrs	r3, r2
    5c5e:	d1b2      	bne.n	5bc6 <queue_read_or_remove+0xb2>
    5c60:	713b      	strb	r3, [r7, #4]
    5c62:	717b      	strb	r3, [r7, #5]
    5c64:	71bb      	strb	r3, [r7, #6]
    5c66:	71fb      	strb	r3, [r7, #7]
    5c68:	e7ad      	b.n	5bc6 <queue_read_or_remove+0xb2>
    5c6a:	7923      	ldrb	r3, [r4, #4]
    5c6c:	7962      	ldrb	r2, [r4, #5]
    5c6e:	0212      	lsls	r2, r2, #8
    5c70:	431a      	orrs	r2, r3
    5c72:	79a3      	ldrb	r3, [r4, #6]
    5c74:	041b      	lsls	r3, r3, #16
    5c76:	431a      	orrs	r2, r3
    5c78:	79e3      	ldrb	r3, [r4, #7]
    5c7a:	061b      	lsls	r3, r3, #24
    5c7c:	4313      	orrs	r3, r2
    5c7e:	703b      	strb	r3, [r7, #0]
    5c80:	0a1a      	lsrs	r2, r3, #8
    5c82:	707a      	strb	r2, [r7, #1]
    5c84:	0c1a      	lsrs	r2, r3, #16
    5c86:	70ba      	strb	r2, [r7, #2]
    5c88:	0e1b      	lsrs	r3, r3, #24
    5c8a:	70fb      	strb	r3, [r7, #3]
    5c8c:	e7ce      	b.n	5c2c <queue_read_or_remove+0x118>
    5c8e:	713e      	strb	r6, [r7, #4]
    5c90:	0a33      	lsrs	r3, r6, #8
    5c92:	717b      	strb	r3, [r7, #5]
    5c94:	0c33      	lsrs	r3, r6, #16
    5c96:	71bb      	strb	r3, [r7, #6]
    5c98:	0e36      	lsrs	r6, r6, #24
    5c9a:	71fe      	strb	r6, [r7, #7]
    5c9c:	e7d2      	b.n	5c44 <queue_read_or_remove+0x130>
    5c9e:	2400      	movs	r4, #0
    5ca0:	e791      	b.n	5bc6 <queue_read_or_remove+0xb2>
    5ca2:	46c0      	nop			; (mov r8, r8)
    5ca4:	2000000c 	.word	0x2000000c

00005ca8 <qmm_queue_init>:
    5ca8:	2300      	movs	r3, #0
    5caa:	7003      	strb	r3, [r0, #0]
    5cac:	7043      	strb	r3, [r0, #1]
    5cae:	7083      	strb	r3, [r0, #2]
    5cb0:	70c3      	strb	r3, [r0, #3]
    5cb2:	7103      	strb	r3, [r0, #4]
    5cb4:	7143      	strb	r3, [r0, #5]
    5cb6:	7183      	strb	r3, [r0, #6]
    5cb8:	71c3      	strb	r3, [r0, #7]
    5cba:	7203      	strb	r3, [r0, #8]
    5cbc:	4770      	bx	lr
	...

00005cc0 <qmm_queue_append>:
    5cc0:	b510      	push	{r4, lr}
    5cc2:	b082      	sub	sp, #8
    5cc4:	f3ef 8310 	mrs	r3, PRIMASK
    5cc8:	425a      	negs	r2, r3
    5cca:	4153      	adcs	r3, r2
    5ccc:	9301      	str	r3, [sp, #4]
    5cce:	b672      	cpsid	i
    5cd0:	f3bf 8f5f 	dmb	sy
    5cd4:	2200      	movs	r2, #0
    5cd6:	4b1c      	ldr	r3, [pc, #112]	; (5d48 <qmm_queue_append+0x88>)
    5cd8:	701a      	strb	r2, [r3, #0]
    5cda:	9c01      	ldr	r4, [sp, #4]
    5cdc:	7a03      	ldrb	r3, [r0, #8]
    5cde:	2b00      	cmp	r3, #0
    5ce0:	d120      	bne.n	5d24 <qmm_queue_append+0x64>
    5ce2:	7001      	strb	r1, [r0, #0]
    5ce4:	0a0b      	lsrs	r3, r1, #8
    5ce6:	7043      	strb	r3, [r0, #1]
    5ce8:	0c0b      	lsrs	r3, r1, #16
    5cea:	7083      	strb	r3, [r0, #2]
    5cec:	0e0b      	lsrs	r3, r1, #24
    5cee:	70c3      	strb	r3, [r0, #3]
    5cf0:	7101      	strb	r1, [r0, #4]
    5cf2:	0a0b      	lsrs	r3, r1, #8
    5cf4:	7143      	strb	r3, [r0, #5]
    5cf6:	0c0b      	lsrs	r3, r1, #16
    5cf8:	22ff      	movs	r2, #255	; 0xff
    5cfa:	7183      	strb	r3, [r0, #6]
    5cfc:	0e0b      	lsrs	r3, r1, #24
    5cfe:	71c3      	strb	r3, [r0, #7]
    5d00:	2300      	movs	r3, #0
    5d02:	710b      	strb	r3, [r1, #4]
    5d04:	714b      	strb	r3, [r1, #5]
    5d06:	718b      	strb	r3, [r1, #6]
    5d08:	71cb      	strb	r3, [r1, #7]
    5d0a:	7a03      	ldrb	r3, [r0, #8]
    5d0c:	3301      	adds	r3, #1
    5d0e:	7203      	strb	r3, [r0, #8]
    5d10:	4222      	tst	r2, r4
    5d12:	d005      	beq.n	5d20 <qmm_queue_append+0x60>
    5d14:	3afe      	subs	r2, #254	; 0xfe
    5d16:	4b0c      	ldr	r3, [pc, #48]	; (5d48 <qmm_queue_append+0x88>)
    5d18:	701a      	strb	r2, [r3, #0]
    5d1a:	f3bf 8f5f 	dmb	sy
    5d1e:	b662      	cpsie	i
    5d20:	b002      	add	sp, #8
    5d22:	bd10      	pop	{r4, pc}
    5d24:	7903      	ldrb	r3, [r0, #4]
    5d26:	7942      	ldrb	r2, [r0, #5]
    5d28:	0212      	lsls	r2, r2, #8
    5d2a:	431a      	orrs	r2, r3
    5d2c:	7983      	ldrb	r3, [r0, #6]
    5d2e:	041b      	lsls	r3, r3, #16
    5d30:	431a      	orrs	r2, r3
    5d32:	79c3      	ldrb	r3, [r0, #7]
    5d34:	061b      	lsls	r3, r3, #24
    5d36:	4313      	orrs	r3, r2
    5d38:	7119      	strb	r1, [r3, #4]
    5d3a:	0a0a      	lsrs	r2, r1, #8
    5d3c:	715a      	strb	r2, [r3, #5]
    5d3e:	0c0a      	lsrs	r2, r1, #16
    5d40:	719a      	strb	r2, [r3, #6]
    5d42:	0e0a      	lsrs	r2, r1, #24
    5d44:	71da      	strb	r2, [r3, #7]
    5d46:	e7d3      	b.n	5cf0 <qmm_queue_append+0x30>
    5d48:	2000000c 	.word	0x2000000c

00005d4c <qmm_queue_remove>:
    5d4c:	b510      	push	{r4, lr}
    5d4e:	000a      	movs	r2, r1
    5d50:	2100      	movs	r1, #0
    5d52:	4b01      	ldr	r3, [pc, #4]	; (5d58 <qmm_queue_remove+0xc>)
    5d54:	4798      	blx	r3
    5d56:	bd10      	pop	{r4, pc}
    5d58:	00005b15 	.word	0x00005b15

00005d5c <switch_pll_on>:
    5d5c:	b5f0      	push	{r4, r5, r6, r7, lr}
    5d5e:	b083      	sub	sp, #12
    5d60:	2200      	movs	r2, #0
    5d62:	211f      	movs	r1, #31
    5d64:	2001      	movs	r0, #1
    5d66:	4b24      	ldr	r3, [pc, #144]	; (5df8 <switch_pll_on+0x9c>)
    5d68:	4798      	blx	r3
    5d6a:	2808      	cmp	r0, #8
    5d6c:	d001      	beq.n	5d72 <switch_pll_on+0x16>
    5d6e:	b003      	add	sp, #12
    5d70:	bdf0      	pop	{r4, r5, r6, r7, pc}
    5d72:	3007      	adds	r0, #7
    5d74:	4c21      	ldr	r4, [pc, #132]	; (5dfc <switch_pll_on+0xa0>)
    5d76:	47a0      	blx	r4
    5d78:	200e      	movs	r0, #14
    5d7a:	47a0      	blx	r4
    5d7c:	0005      	movs	r5, r0
    5d7e:	2101      	movs	r1, #1
    5d80:	200e      	movs	r0, #14
    5d82:	4c1f      	ldr	r4, [pc, #124]	; (5e00 <switch_pll_on+0xa4>)
    5d84:	47a0      	blx	r4
    5d86:	2100      	movs	r1, #0
    5d88:	2000      	movs	r0, #0
    5d8a:	4b1e      	ldr	r3, [pc, #120]	; (5e04 <switch_pll_on+0xa8>)
    5d8c:	4798      	blx	r3
    5d8e:	2109      	movs	r1, #9
    5d90:	2002      	movs	r0, #2
    5d92:	47a0      	blx	r4
    5d94:	a801      	add	r0, sp, #4
    5d96:	4b1c      	ldr	r3, [pc, #112]	; (5e08 <switch_pll_on+0xac>)
    5d98:	4798      	blx	r3
    5d9a:	4e1c      	ldr	r6, [pc, #112]	; (5e0c <switch_pll_on+0xb0>)
    5d9c:	4f1a      	ldr	r7, [pc, #104]	; (5e08 <switch_pll_on+0xac>)
    5d9e:	2401      	movs	r4, #1
    5da0:	6a33      	ldr	r3, [r6, #32]
    5da2:	421c      	tst	r4, r3
    5da4:	d118      	bne.n	5dd8 <switch_pll_on+0x7c>
    5da6:	4668      	mov	r0, sp
    5da8:	47b8      	blx	r7
    5daa:	9b00      	ldr	r3, [sp, #0]
    5dac:	9a01      	ldr	r2, [sp, #4]
    5dae:	1a9b      	subs	r3, r3, r2
    5db0:	2bfa      	cmp	r3, #250	; 0xfa
    5db2:	d9f5      	bls.n	5da0 <switch_pll_on+0x44>
    5db4:	201a      	movs	r0, #26
    5db6:	4b11      	ldr	r3, [pc, #68]	; (5dfc <switch_pll_on+0xa0>)
    5db8:	4798      	blx	r3
    5dba:	07c3      	lsls	r3, r0, #31
    5dbc:	d508      	bpl.n	5dd0 <switch_pll_on+0x74>
    5dbe:	21fe      	movs	r1, #254	; 0xfe
    5dc0:	4001      	ands	r1, r0
    5dc2:	201a      	movs	r0, #26
    5dc4:	4b0e      	ldr	r3, [pc, #56]	; (5e00 <switch_pll_on+0xa4>)
    5dc6:	4798      	blx	r3
    5dc8:	a801      	add	r0, sp, #4
    5dca:	4b0f      	ldr	r3, [pc, #60]	; (5e08 <switch_pll_on+0xac>)
    5dcc:	4798      	blx	r3
    5dce:	e7e6      	b.n	5d9e <switch_pll_on+0x42>
    5dd0:	2101      	movs	r1, #1
    5dd2:	4301      	orrs	r1, r0
    5dd4:	b2c9      	uxtb	r1, r1
    5dd6:	e7f4      	b.n	5dc2 <switch_pll_on+0x66>
    5dd8:	200f      	movs	r0, #15
    5dda:	4b08      	ldr	r3, [pc, #32]	; (5dfc <switch_pll_on+0xa0>)
    5ddc:	4798      	blx	r3
    5dde:	2201      	movs	r2, #1
    5de0:	4b0b      	ldr	r3, [pc, #44]	; (5e10 <switch_pll_on+0xb4>)
    5de2:	611a      	str	r2, [r3, #16]
    5de4:	2100      	movs	r1, #0
    5de6:	2000      	movs	r0, #0
    5de8:	4b0a      	ldr	r3, [pc, #40]	; (5e14 <switch_pll_on+0xb8>)
    5dea:	4798      	blx	r3
    5dec:	0029      	movs	r1, r5
    5dee:	200e      	movs	r0, #14
    5df0:	4b03      	ldr	r3, [pc, #12]	; (5e00 <switch_pll_on+0xa4>)
    5df2:	4798      	blx	r3
    5df4:	e7bb      	b.n	5d6e <switch_pll_on+0x12>
    5df6:	46c0      	nop			; (mov r8, r8)
    5df8:	00006f3d 	.word	0x00006f3d
    5dfc:	00006d35 	.word	0x00006d35
    5e00:	00006e31 	.word	0x00006e31
    5e04:	0000416d 	.word	0x0000416d
    5e08:	00005a79 	.word	0x00005a79
    5e0c:	41004480 	.word	0x41004480
    5e10:	40001800 	.word	0x40001800
    5e14:	0000414d 	.word	0x0000414d

00005e18 <set_trx_state>:
    5e18:	b570      	push	{r4, r5, r6, lr}
    5e1a:	b082      	sub	sp, #8
    5e1c:	0004      	movs	r4, r0
    5e1e:	4b96      	ldr	r3, [pc, #600]	; (6078 <set_trx_state+0x260>)
    5e20:	7818      	ldrb	r0, [r3, #0]
    5e22:	280f      	cmp	r0, #15
    5e24:	d007      	beq.n	5e36 <set_trx_state+0x1e>
    5e26:	3c03      	subs	r4, #3
    5e28:	b2e3      	uxtb	r3, r4
    5e2a:	2b16      	cmp	r3, #22
    5e2c:	d87c      	bhi.n	5f28 <set_trx_state+0x110>
    5e2e:	009c      	lsls	r4, r3, #2
    5e30:	4b92      	ldr	r3, [pc, #584]	; (607c <set_trx_state+0x264>)
    5e32:	591b      	ldr	r3, [r3, r4]
    5e34:	469f      	mov	pc, r3
    5e36:	2c0f      	cmp	r4, #15
    5e38:	d100      	bne.n	5e3c <set_trx_state+0x24>
    5e3a:	e07e      	b.n	5f3a <set_trx_state+0x122>
    5e3c:	2600      	movs	r6, #0
    5e3e:	4b90      	ldr	r3, [pc, #576]	; (6080 <set_trx_state+0x268>)
    5e40:	701e      	strb	r6, [r3, #0]
    5e42:	4890      	ldr	r0, [pc, #576]	; (6084 <set_trx_state+0x26c>)
    5e44:	4b90      	ldr	r3, [pc, #576]	; (6088 <set_trx_state+0x270>)
    5e46:	4798      	blx	r3
    5e48:	2501      	movs	r5, #1
    5e4a:	4b90      	ldr	r3, [pc, #576]	; (608c <set_trx_state+0x274>)
    5e4c:	611d      	str	r5, [r3, #16]
    5e4e:	2100      	movs	r1, #0
    5e50:	2000      	movs	r0, #0
    5e52:	4b8f      	ldr	r3, [pc, #572]	; (6090 <set_trx_state+0x278>)
    5e54:	4798      	blx	r3
    5e56:	f3ef 8310 	mrs	r3, PRIMASK
    5e5a:	425a      	negs	r2, r3
    5e5c:	4153      	adcs	r3, r2
    5e5e:	9301      	str	r3, [sp, #4]
    5e60:	b672      	cpsid	i
    5e62:	f3bf 8f5f 	dmb	sy
    5e66:	4b8b      	ldr	r3, [pc, #556]	; (6094 <set_trx_state+0x27c>)
    5e68:	701e      	strb	r6, [r3, #0]
    5e6a:	9901      	ldr	r1, [sp, #4]
    5e6c:	701d      	strb	r5, [r3, #0]
    5e6e:	f3bf 8f5f 	dmb	sy
    5e72:	b662      	cpsie	i
    5e74:	2280      	movs	r2, #128	; 0x80
    5e76:	0352      	lsls	r2, r2, #13
    5e78:	4b87      	ldr	r3, [pc, #540]	; (6098 <set_trx_state+0x280>)
    5e7a:	615a      	str	r2, [r3, #20]
    5e7c:	4a80      	ldr	r2, [pc, #512]	; (6080 <set_trx_state+0x268>)
    5e7e:	7813      	ldrb	r3, [r2, #0]
    5e80:	2b00      	cmp	r3, #0
    5e82:	d0fc      	beq.n	5e7e <set_trx_state+0x66>
    5e84:	23ff      	movs	r3, #255	; 0xff
    5e86:	420b      	tst	r3, r1
    5e88:	d005      	beq.n	5e96 <set_trx_state+0x7e>
    5e8a:	2201      	movs	r2, #1
    5e8c:	4b81      	ldr	r3, [pc, #516]	; (6094 <set_trx_state+0x27c>)
    5e8e:	701a      	strb	r2, [r3, #0]
    5e90:	f3bf 8f5f 	dmb	sy
    5e94:	b662      	cpsie	i
    5e96:	200f      	movs	r0, #15
    5e98:	4b80      	ldr	r3, [pc, #512]	; (609c <set_trx_state+0x284>)
    5e9a:	4798      	blx	r3
    5e9c:	4880      	ldr	r0, [pc, #512]	; (60a0 <set_trx_state+0x288>)
    5e9e:	4b7a      	ldr	r3, [pc, #488]	; (6088 <set_trx_state+0x270>)
    5ea0:	4798      	blx	r3
    5ea2:	2108      	movs	r1, #8
    5ea4:	200e      	movs	r0, #14
    5ea6:	4b7f      	ldr	r3, [pc, #508]	; (60a4 <set_trx_state+0x28c>)
    5ea8:	4798      	blx	r3
    5eaa:	2301      	movs	r3, #1
    5eac:	2202      	movs	r2, #2
    5eae:	2104      	movs	r1, #4
    5eb0:	200d      	movs	r0, #13
    5eb2:	4d7d      	ldr	r5, [pc, #500]	; (60a8 <set_trx_state+0x290>)
    5eb4:	47a8      	blx	r5
    5eb6:	2208      	movs	r2, #8
    5eb8:	4b6f      	ldr	r3, [pc, #444]	; (6078 <set_trx_state+0x260>)
    5eba:	701a      	strb	r2, [r3, #0]
    5ebc:	2008      	movs	r0, #8
    5ebe:	2c08      	cmp	r4, #8
    5ec0:	d03b      	beq.n	5f3a <set_trx_state+0x122>
    5ec2:	2c03      	cmp	r4, #3
    5ec4:	d039      	beq.n	5f3a <set_trx_state+0x122>
    5ec6:	3c04      	subs	r4, #4
    5ec8:	b2e3      	uxtb	r3, r4
    5eca:	2b15      	cmp	r3, #21
    5ecc:	d82c      	bhi.n	5f28 <set_trx_state+0x110>
    5ece:	009c      	lsls	r4, r3, #2
    5ed0:	4b76      	ldr	r3, [pc, #472]	; (60ac <set_trx_state+0x294>)
    5ed2:	591b      	ldr	r3, [r3, r4]
    5ed4:	469f      	mov	pc, r3
    5ed6:	2103      	movs	r1, #3
    5ed8:	2002      	movs	r0, #2
    5eda:	4b72      	ldr	r3, [pc, #456]	; (60a4 <set_trx_state+0x28c>)
    5edc:	4798      	blx	r3
    5ede:	2300      	movs	r3, #0
    5ee0:	2202      	movs	r2, #2
    5ee2:	2104      	movs	r1, #4
    5ee4:	200d      	movs	r0, #13
    5ee6:	4c70      	ldr	r4, [pc, #448]	; (60a8 <set_trx_state+0x290>)
    5ee8:	47a0      	blx	r4
    5eea:	200f      	movs	r0, #15
    5eec:	4b6b      	ldr	r3, [pc, #428]	; (609c <set_trx_state+0x284>)
    5eee:	4798      	blx	r3
    5ef0:	2310      	movs	r3, #16
    5ef2:	2200      	movs	r2, #0
    5ef4:	21ff      	movs	r1, #255	; 0xff
    5ef6:	200e      	movs	r0, #14
    5ef8:	47a0      	blx	r4
    5efa:	2310      	movs	r3, #16
    5efc:	2200      	movs	r2, #0
    5efe:	21ff      	movs	r1, #255	; 0xff
    5f00:	200e      	movs	r0, #14
    5f02:	47a0      	blx	r4
    5f04:	4c5c      	ldr	r4, [pc, #368]	; (6078 <set_trx_state+0x260>)
    5f06:	230f      	movs	r3, #15
    5f08:	7023      	strb	r3, [r4, #0]
    5f0a:	2001      	movs	r0, #1
    5f0c:	4d68      	ldr	r5, [pc, #416]	; (60b0 <set_trx_state+0x298>)
    5f0e:	47a8      	blx	r5
    5f10:	2280      	movs	r2, #128	; 0x80
    5f12:	0352      	lsls	r2, r2, #13
    5f14:	4b60      	ldr	r3, [pc, #384]	; (6098 <set_trx_state+0x280>)
    5f16:	619a      	str	r2, [r3, #24]
    5f18:	2023      	movs	r0, #35	; 0x23
    5f1a:	47a8      	blx	r5
    5f1c:	7820      	ldrb	r0, [r4, #0]
    5f1e:	e00c      	b.n	5f3a <set_trx_state+0x122>
    5f20:	4b55      	ldr	r3, [pc, #340]	; (6078 <set_trx_state+0x260>)
    5f22:	781b      	ldrb	r3, [r3, #0]
    5f24:	2b08      	cmp	r3, #8
    5f26:	d10a      	bne.n	5f3e <set_trx_state+0x126>
    5f28:	4d62      	ldr	r5, [pc, #392]	; (60b4 <set_trx_state+0x29c>)
    5f2a:	4c53      	ldr	r4, [pc, #332]	; (6078 <set_trx_state+0x260>)
    5f2c:	2200      	movs	r2, #0
    5f2e:	211f      	movs	r1, #31
    5f30:	2001      	movs	r0, #1
    5f32:	47a8      	blx	r5
    5f34:	7020      	strb	r0, [r4, #0]
    5f36:	281f      	cmp	r0, #31
    5f38:	d0f8      	beq.n	5f2c <set_trx_state+0x114>
    5f3a:	b002      	add	sp, #8
    5f3c:	bd70      	pop	{r4, r5, r6, pc}
    5f3e:	2108      	movs	r1, #8
    5f40:	2002      	movs	r0, #2
    5f42:	4b58      	ldr	r3, [pc, #352]	; (60a4 <set_trx_state+0x28c>)
    5f44:	4798      	blx	r3
    5f46:	2001      	movs	r0, #1
    5f48:	4b59      	ldr	r3, [pc, #356]	; (60b0 <set_trx_state+0x298>)
    5f4a:	4798      	blx	r3
    5f4c:	e7ec      	b.n	5f28 <set_trx_state+0x110>
    5f4e:	2808      	cmp	r0, #8
    5f50:	d0ea      	beq.n	5f28 <set_trx_state+0x110>
    5f52:	2103      	movs	r1, #3
    5f54:	2002      	movs	r0, #2
    5f56:	4b53      	ldr	r3, [pc, #332]	; (60a4 <set_trx_state+0x28c>)
    5f58:	4798      	blx	r3
    5f5a:	2001      	movs	r0, #1
    5f5c:	4b54      	ldr	r3, [pc, #336]	; (60b0 <set_trx_state+0x298>)
    5f5e:	4798      	blx	r3
    5f60:	e7e2      	b.n	5f28 <set_trx_state+0x110>
    5f62:	4b45      	ldr	r3, [pc, #276]	; (6078 <set_trx_state+0x260>)
    5f64:	781b      	ldrb	r3, [r3, #0]
    5f66:	2b08      	cmp	r3, #8
    5f68:	d011      	beq.n	5f8e <set_trx_state+0x176>
    5f6a:	b2da      	uxtb	r2, r3
    5f6c:	2a08      	cmp	r2, #8
    5f6e:	d904      	bls.n	5f7a <set_trx_state+0x162>
    5f70:	2b16      	cmp	r3, #22
    5f72:	d004      	beq.n	5f7e <set_trx_state+0x166>
    5f74:	2b19      	cmp	r3, #25
    5f76:	d1d7      	bne.n	5f28 <set_trx_state+0x110>
    5f78:	e001      	b.n	5f7e <set_trx_state+0x166>
    5f7a:	2b06      	cmp	r3, #6
    5f7c:	d1d4      	bne.n	5f28 <set_trx_state+0x110>
    5f7e:	2109      	movs	r1, #9
    5f80:	2002      	movs	r0, #2
    5f82:	4b48      	ldr	r3, [pc, #288]	; (60a4 <set_trx_state+0x28c>)
    5f84:	4798      	blx	r3
    5f86:	2001      	movs	r0, #1
    5f88:	4b49      	ldr	r3, [pc, #292]	; (60b0 <set_trx_state+0x298>)
    5f8a:	4798      	blx	r3
    5f8c:	e7cc      	b.n	5f28 <set_trx_state+0x110>
    5f8e:	4b4a      	ldr	r3, [pc, #296]	; (60b8 <set_trx_state+0x2a0>)
    5f90:	4798      	blx	r3
    5f92:	e7c9      	b.n	5f28 <set_trx_state+0x110>
    5f94:	4b38      	ldr	r3, [pc, #224]	; (6078 <set_trx_state+0x260>)
    5f96:	781b      	ldrb	r3, [r3, #0]
    5f98:	2b08      	cmp	r3, #8
    5f9a:	d006      	beq.n	5faa <set_trx_state+0x192>
    5f9c:	2b09      	cmp	r3, #9
    5f9e:	d0c3      	beq.n	5f28 <set_trx_state+0x110>
    5fa0:	2104      	movs	r1, #4
    5fa2:	2002      	movs	r0, #2
    5fa4:	4b3f      	ldr	r3, [pc, #252]	; (60a4 <set_trx_state+0x28c>)
    5fa6:	4798      	blx	r3
    5fa8:	e7be      	b.n	5f28 <set_trx_state+0x110>
    5faa:	4b43      	ldr	r3, [pc, #268]	; (60b8 <set_trx_state+0x2a0>)
    5fac:	4798      	blx	r3
    5fae:	e7bb      	b.n	5f28 <set_trx_state+0x110>
    5fb0:	4b31      	ldr	r3, [pc, #196]	; (6078 <set_trx_state+0x260>)
    5fb2:	781b      	ldrb	r3, [r3, #0]
    5fb4:	2b09      	cmp	r3, #9
    5fb6:	d012      	beq.n	5fde <set_trx_state+0x1c6>
    5fb8:	b2da      	uxtb	r2, r3
    5fba:	2a09      	cmp	r2, #9
    5fbc:	d80b      	bhi.n	5fd6 <set_trx_state+0x1be>
    5fbe:	2b08      	cmp	r3, #8
    5fc0:	d1b2      	bne.n	5f28 <set_trx_state+0x110>
    5fc2:	4b3d      	ldr	r3, [pc, #244]	; (60b8 <set_trx_state+0x2a0>)
    5fc4:	4798      	blx	r3
    5fc6:	2106      	movs	r1, #6
    5fc8:	2002      	movs	r0, #2
    5fca:	4b36      	ldr	r3, [pc, #216]	; (60a4 <set_trx_state+0x28c>)
    5fcc:	4798      	blx	r3
    5fce:	2001      	movs	r0, #1
    5fd0:	4b37      	ldr	r3, [pc, #220]	; (60b0 <set_trx_state+0x298>)
    5fd2:	4798      	blx	r3
    5fd4:	e7a8      	b.n	5f28 <set_trx_state+0x110>
    5fd6:	2b16      	cmp	r3, #22
    5fd8:	d001      	beq.n	5fde <set_trx_state+0x1c6>
    5fda:	2b19      	cmp	r3, #25
    5fdc:	d1a4      	bne.n	5f28 <set_trx_state+0x110>
    5fde:	2106      	movs	r1, #6
    5fe0:	2002      	movs	r0, #2
    5fe2:	4b30      	ldr	r3, [pc, #192]	; (60a4 <set_trx_state+0x28c>)
    5fe4:	4798      	blx	r3
    5fe6:	2001      	movs	r0, #1
    5fe8:	4b31      	ldr	r3, [pc, #196]	; (60b0 <set_trx_state+0x298>)
    5fea:	4798      	blx	r3
    5fec:	e79c      	b.n	5f28 <set_trx_state+0x110>
    5fee:	4b22      	ldr	r3, [pc, #136]	; (6078 <set_trx_state+0x260>)
    5ff0:	781b      	ldrb	r3, [r3, #0]
    5ff2:	2b08      	cmp	r3, #8
    5ff4:	d013      	beq.n	601e <set_trx_state+0x206>
    5ff6:	b2da      	uxtb	r2, r3
    5ff8:	2a08      	cmp	r2, #8
    5ffa:	d905      	bls.n	6008 <set_trx_state+0x1f0>
    5ffc:	2b09      	cmp	r3, #9
    5ffe:	d006      	beq.n	600e <set_trx_state+0x1f6>
    6000:	2b19      	cmp	r3, #25
    6002:	d000      	beq.n	6006 <set_trx_state+0x1ee>
    6004:	e790      	b.n	5f28 <set_trx_state+0x110>
    6006:	e002      	b.n	600e <set_trx_state+0x1f6>
    6008:	2b06      	cmp	r3, #6
    600a:	d000      	beq.n	600e <set_trx_state+0x1f6>
    600c:	e78c      	b.n	5f28 <set_trx_state+0x110>
    600e:	2116      	movs	r1, #22
    6010:	2002      	movs	r0, #2
    6012:	4b24      	ldr	r3, [pc, #144]	; (60a4 <set_trx_state+0x28c>)
    6014:	4798      	blx	r3
    6016:	2001      	movs	r0, #1
    6018:	4b25      	ldr	r3, [pc, #148]	; (60b0 <set_trx_state+0x298>)
    601a:	4798      	blx	r3
    601c:	e784      	b.n	5f28 <set_trx_state+0x110>
    601e:	4b26      	ldr	r3, [pc, #152]	; (60b8 <set_trx_state+0x2a0>)
    6020:	4798      	blx	r3
    6022:	2116      	movs	r1, #22
    6024:	2002      	movs	r0, #2
    6026:	4b1f      	ldr	r3, [pc, #124]	; (60a4 <set_trx_state+0x28c>)
    6028:	4798      	blx	r3
    602a:	2001      	movs	r0, #1
    602c:	4b20      	ldr	r3, [pc, #128]	; (60b0 <set_trx_state+0x298>)
    602e:	4798      	blx	r3
    6030:	e77a      	b.n	5f28 <set_trx_state+0x110>
    6032:	4b11      	ldr	r3, [pc, #68]	; (6078 <set_trx_state+0x260>)
    6034:	781b      	ldrb	r3, [r3, #0]
    6036:	2b08      	cmp	r3, #8
    6038:	d013      	beq.n	6062 <set_trx_state+0x24a>
    603a:	b2da      	uxtb	r2, r3
    603c:	2a08      	cmp	r2, #8
    603e:	d905      	bls.n	604c <set_trx_state+0x234>
    6040:	2b09      	cmp	r3, #9
    6042:	d006      	beq.n	6052 <set_trx_state+0x23a>
    6044:	2b16      	cmp	r3, #22
    6046:	d000      	beq.n	604a <set_trx_state+0x232>
    6048:	e76e      	b.n	5f28 <set_trx_state+0x110>
    604a:	e002      	b.n	6052 <set_trx_state+0x23a>
    604c:	2b06      	cmp	r3, #6
    604e:	d000      	beq.n	6052 <set_trx_state+0x23a>
    6050:	e76a      	b.n	5f28 <set_trx_state+0x110>
    6052:	2119      	movs	r1, #25
    6054:	2002      	movs	r0, #2
    6056:	4b13      	ldr	r3, [pc, #76]	; (60a4 <set_trx_state+0x28c>)
    6058:	4798      	blx	r3
    605a:	2001      	movs	r0, #1
    605c:	4b14      	ldr	r3, [pc, #80]	; (60b0 <set_trx_state+0x298>)
    605e:	4798      	blx	r3
    6060:	e762      	b.n	5f28 <set_trx_state+0x110>
    6062:	4b15      	ldr	r3, [pc, #84]	; (60b8 <set_trx_state+0x2a0>)
    6064:	4798      	blx	r3
    6066:	2119      	movs	r1, #25
    6068:	2002      	movs	r0, #2
    606a:	4b0e      	ldr	r3, [pc, #56]	; (60a4 <set_trx_state+0x28c>)
    606c:	4798      	blx	r3
    606e:	2001      	movs	r0, #1
    6070:	4b0f      	ldr	r3, [pc, #60]	; (60b0 <set_trx_state+0x298>)
    6072:	4798      	blx	r3
    6074:	e758      	b.n	5f28 <set_trx_state+0x110>
    6076:	46c0      	nop			; (mov r8, r8)
    6078:	20000c17 	.word	0x20000c17
    607c:	0000ad48 	.word	0x0000ad48
    6080:	20000c20 	.word	0x20000c20
    6084:	000064d9 	.word	0x000064d9
    6088:	00006f31 	.word	0x00006f31
    608c:	40001800 	.word	0x40001800
    6090:	0000414d 	.word	0x0000414d
    6094:	2000000c 	.word	0x2000000c
    6098:	41004400 	.word	0x41004400
    609c:	00006d35 	.word	0x00006d35
    60a0:	00006499 	.word	0x00006499
    60a4:	00006e31 	.word	0x00006e31
    60a8:	00006f55 	.word	0x00006f55
    60ac:	0000ada4 	.word	0x0000ada4
    60b0:	00004059 	.word	0x00004059
    60b4:	00006f3d 	.word	0x00006f3d
    60b8:	00005d5d 	.word	0x00005d5d

000060bc <tal_task>:
    60bc:	b510      	push	{r4, lr}
    60be:	4b17      	ldr	r3, [pc, #92]	; (611c <tal_task+0x60>)
    60c0:	781b      	ldrb	r3, [r3, #0]
    60c2:	2b00      	cmp	r3, #0
    60c4:	d00d      	beq.n	60e2 <tal_task+0x26>
    60c6:	4b16      	ldr	r3, [pc, #88]	; (6120 <tal_task+0x64>)
    60c8:	781b      	ldrb	r3, [r3, #0]
    60ca:	2b00      	cmp	r3, #0
    60cc:	d109      	bne.n	60e2 <tal_task+0x26>
    60ce:	4b15      	ldr	r3, [pc, #84]	; (6124 <tal_task+0x68>)
    60d0:	681b      	ldr	r3, [r3, #0]
    60d2:	2b00      	cmp	r3, #0
    60d4:	d010      	beq.n	60f8 <tal_task+0x3c>
    60d6:	2200      	movs	r2, #0
    60d8:	4b10      	ldr	r3, [pc, #64]	; (611c <tal_task+0x60>)
    60da:	701a      	strb	r2, [r3, #0]
    60dc:	2016      	movs	r0, #22
    60de:	4b12      	ldr	r3, [pc, #72]	; (6128 <tal_task+0x6c>)
    60e0:	4798      	blx	r3
    60e2:	4b12      	ldr	r3, [pc, #72]	; (612c <tal_task+0x70>)
    60e4:	7a1b      	ldrb	r3, [r3, #8]
    60e6:	2b00      	cmp	r3, #0
    60e8:	d10e      	bne.n	6108 <tal_task+0x4c>
    60ea:	4b0d      	ldr	r3, [pc, #52]	; (6120 <tal_task+0x64>)
    60ec:	781b      	ldrb	r3, [r3, #0]
    60ee:	2b02      	cmp	r3, #2
    60f0:	d101      	bne.n	60f6 <tal_task+0x3a>
    60f2:	4b0f      	ldr	r3, [pc, #60]	; (6130 <tal_task+0x74>)
    60f4:	4798      	blx	r3
    60f6:	bd10      	pop	{r4, pc}
    60f8:	2090      	movs	r0, #144	; 0x90
    60fa:	4b0e      	ldr	r3, [pc, #56]	; (6134 <tal_task+0x78>)
    60fc:	4798      	blx	r3
    60fe:	4b09      	ldr	r3, [pc, #36]	; (6124 <tal_task+0x68>)
    6100:	6018      	str	r0, [r3, #0]
    6102:	2800      	cmp	r0, #0
    6104:	d0ed      	beq.n	60e2 <tal_task+0x26>
    6106:	e7e6      	b.n	60d6 <tal_task+0x1a>
    6108:	2100      	movs	r1, #0
    610a:	4808      	ldr	r0, [pc, #32]	; (612c <tal_task+0x70>)
    610c:	4b0a      	ldr	r3, [pc, #40]	; (6138 <tal_task+0x7c>)
    610e:	4798      	blx	r3
    6110:	2800      	cmp	r0, #0
    6112:	d0ea      	beq.n	60ea <tal_task+0x2e>
    6114:	4b09      	ldr	r3, [pc, #36]	; (613c <tal_task+0x80>)
    6116:	4798      	blx	r3
    6118:	e7e7      	b.n	60ea <tal_task+0x2e>
    611a:	46c0      	nop			; (mov r8, r8)
    611c:	20000be4 	.word	0x20000be4
    6120:	20000c21 	.word	0x20000c21
    6124:	200003c4 	.word	0x200003c4
    6128:	00005e19 	.word	0x00005e19
    612c:	20000be8 	.word	0x20000be8
    6130:	000069c1 	.word	0x000069c1
    6134:	00005ae9 	.word	0x00005ae9
    6138:	00005d4d 	.word	0x00005d4d
    613c:	000068ed 	.word	0x000068ed

00006140 <trx_config>:
    6140:	b570      	push	{r4, r5, r6, lr}
    6142:	2300      	movs	r3, #0
    6144:	2203      	movs	r2, #3
    6146:	2108      	movs	r1, #8
    6148:	2003      	movs	r0, #3
    614a:	4c1f      	ldr	r4, [pc, #124]	; (61c8 <trx_config+0x88>)
    614c:	47a0      	blx	r4
    614e:	2301      	movs	r3, #1
    6150:	2200      	movs	r2, #0
    6152:	2107      	movs	r1, #7
    6154:	2003      	movs	r0, #3
    6156:	47a0      	blx	r4
    6158:	4b1c      	ldr	r3, [pc, #112]	; (61cc <trx_config+0x8c>)
    615a:	4798      	blx	r3
    615c:	0005      	movs	r5, r0
    615e:	b2c1      	uxtb	r1, r0
    6160:	202d      	movs	r0, #45	; 0x2d
    6162:	4e1b      	ldr	r6, [pc, #108]	; (61d0 <trx_config+0x90>)
    6164:	47b0      	blx	r6
    6166:	b2ab      	uxth	r3, r5
    6168:	0a1b      	lsrs	r3, r3, #8
    616a:	2200      	movs	r2, #0
    616c:	2107      	movs	r1, #7
    616e:	202e      	movs	r0, #46	; 0x2e
    6170:	47a0      	blx	r4
    6172:	2301      	movs	r3, #1
    6174:	2206      	movs	r2, #6
    6176:	21c0      	movs	r1, #192	; 0xc0
    6178:	202e      	movs	r0, #46	; 0x2e
    617a:	47a0      	blx	r4
    617c:	2301      	movs	r3, #1
    617e:	2205      	movs	r2, #5
    6180:	2120      	movs	r1, #32
    6182:	202e      	movs	r0, #46	; 0x2e
    6184:	47a0      	blx	r4
    6186:	2301      	movs	r3, #1
    6188:	2207      	movs	r2, #7
    618a:	2180      	movs	r1, #128	; 0x80
    618c:	200c      	movs	r0, #12
    618e:	47a0      	blx	r4
    6190:	2108      	movs	r1, #8
    6192:	200e      	movs	r0, #14
    6194:	47b0      	blx	r6
    6196:	21ff      	movs	r1, #255	; 0xff
    6198:	2016      	movs	r0, #22
    619a:	47b0      	blx	r6
    619c:	2301      	movs	r3, #1
    619e:	2200      	movs	r2, #0
    61a0:	2103      	movs	r1, #3
    61a2:	200d      	movs	r0, #13
    61a4:	47a0      	blx	r4
    61a6:	2303      	movs	r3, #3
    61a8:	2200      	movs	r2, #0
    61aa:	210f      	movs	r1, #15
    61ac:	200a      	movs	r0, #10
    61ae:	47a0      	blx	r4
    61b0:	2301      	movs	r3, #1
    61b2:	2203      	movs	r2, #3
    61b4:	2108      	movs	r1, #8
    61b6:	200d      	movs	r0, #13
    61b8:	47a0      	blx	r4
    61ba:	2301      	movs	r3, #1
    61bc:	2202      	movs	r2, #2
    61be:	2104      	movs	r1, #4
    61c0:	200d      	movs	r0, #13
    61c2:	47a0      	blx	r4
    61c4:	bd70      	pop	{r4, r5, r6, pc}
    61c6:	46c0      	nop			; (mov r8, r8)
    61c8:	00006f55 	.word	0x00006f55
    61cc:	00008d61 	.word	0x00008d61
    61d0:	00006e31 	.word	0x00006e31

000061d4 <tal_generate_rand_seed>:
    61d4:	b5f0      	push	{r4, r5, r6, r7, lr}
    61d6:	b083      	sub	sp, #12
    61d8:	2016      	movs	r0, #22
    61da:	4b1f      	ldr	r3, [pc, #124]	; (6258 <tal_generate_rand_seed+0x84>)
    61dc:	4798      	blx	r3
    61de:	9001      	str	r0, [sp, #4]
    61e0:	21c1      	movs	r1, #193	; 0xc1
    61e2:	2016      	movs	r0, #22
    61e4:	4b1d      	ldr	r3, [pc, #116]	; (625c <tal_generate_rand_seed+0x88>)
    61e6:	4798      	blx	r3
    61e8:	2100      	movs	r1, #0
    61ea:	2000      	movs	r0, #0
    61ec:	4b1c      	ldr	r3, [pc, #112]	; (6260 <tal_generate_rand_seed+0x8c>)
    61ee:	4798      	blx	r3
    61f0:	4c1c      	ldr	r4, [pc, #112]	; (6264 <tal_generate_rand_seed+0x90>)
    61f2:	2006      	movs	r0, #6
    61f4:	47a0      	blx	r4
    61f6:	2806      	cmp	r0, #6
    61f8:	d1fb      	bne.n	61f2 <tal_generate_rand_seed+0x1e>
    61fa:	2300      	movs	r3, #0
    61fc:	2207      	movs	r2, #7
    61fe:	2180      	movs	r1, #128	; 0x80
    6200:	300f      	adds	r0, #15
    6202:	4c19      	ldr	r4, [pc, #100]	; (6268 <tal_generate_rand_seed+0x94>)
    6204:	47a0      	blx	r4
    6206:	2608      	movs	r6, #8
    6208:	2400      	movs	r4, #0
    620a:	4d18      	ldr	r5, [pc, #96]	; (626c <tal_generate_rand_seed+0x98>)
    620c:	4f18      	ldr	r7, [pc, #96]	; (6270 <tal_generate_rand_seed+0x9c>)
    620e:	2205      	movs	r2, #5
    6210:	2160      	movs	r1, #96	; 0x60
    6212:	2006      	movs	r0, #6
    6214:	47a8      	blx	r5
    6216:	00a4      	lsls	r4, r4, #2
    6218:	b2a4      	uxth	r4, r4
    621a:	4304      	orrs	r4, r0
    621c:	b2a4      	uxth	r4, r4
    621e:	2001      	movs	r0, #1
    6220:	47b8      	blx	r7
    6222:	3e01      	subs	r6, #1
    6224:	b2f6      	uxtb	r6, r6
    6226:	2e00      	cmp	r6, #0
    6228:	d1f1      	bne.n	620e <tal_generate_rand_seed+0x3a>
    622a:	2003      	movs	r0, #3
    622c:	4b0d      	ldr	r3, [pc, #52]	; (6264 <tal_generate_rand_seed+0x90>)
    622e:	4798      	blx	r3
    6230:	200f      	movs	r0, #15
    6232:	4b09      	ldr	r3, [pc, #36]	; (6258 <tal_generate_rand_seed+0x84>)
    6234:	4798      	blx	r3
    6236:	2201      	movs	r2, #1
    6238:	4b0e      	ldr	r3, [pc, #56]	; (6274 <tal_generate_rand_seed+0xa0>)
    623a:	611a      	str	r2, [r3, #16]
    623c:	2100      	movs	r1, #0
    623e:	2000      	movs	r0, #0
    6240:	4b0d      	ldr	r3, [pc, #52]	; (6278 <tal_generate_rand_seed+0xa4>)
    6242:	4798      	blx	r3
    6244:	0020      	movs	r0, r4
    6246:	4b0d      	ldr	r3, [pc, #52]	; (627c <tal_generate_rand_seed+0xa8>)
    6248:	4798      	blx	r3
    624a:	9901      	ldr	r1, [sp, #4]
    624c:	2016      	movs	r0, #22
    624e:	4b03      	ldr	r3, [pc, #12]	; (625c <tal_generate_rand_seed+0x88>)
    6250:	4798      	blx	r3
    6252:	b003      	add	sp, #12
    6254:	bdf0      	pop	{r4, r5, r6, r7, pc}
    6256:	46c0      	nop			; (mov r8, r8)
    6258:	00006d35 	.word	0x00006d35
    625c:	00006e31 	.word	0x00006e31
    6260:	0000416d 	.word	0x0000416d
    6264:	00005e19 	.word	0x00005e19
    6268:	00006f55 	.word	0x00006f55
    626c:	00006f3d 	.word	0x00006f3d
    6270:	00004059 	.word	0x00004059
    6274:	40001800 	.word	0x40001800
    6278:	0000414d 	.word	0x0000414d
    627c:	00008d05 	.word	0x00008d05

00006280 <internal_tal_reset>:
    6280:	b5f8      	push	{r3, r4, r5, r6, r7, lr}
    6282:	0005      	movs	r5, r0
    6284:	2280      	movs	r2, #128	; 0x80
    6286:	0352      	lsls	r2, r2, #13
    6288:	4b1c      	ldr	r3, [pc, #112]	; (62fc <internal_tal_reset+0x7c>)
    628a:	615a      	str	r2, [r3, #20]
    628c:	20d2      	movs	r0, #210	; 0xd2
    628e:	4c1c      	ldr	r4, [pc, #112]	; (6300 <internal_tal_reset+0x80>)
    6290:	47a0      	blx	r4
    6292:	4e1c      	ldr	r6, [pc, #112]	; (6304 <internal_tal_reset+0x84>)
    6294:	2780      	movs	r7, #128	; 0x80
    6296:	023f      	lsls	r7, r7, #8
    6298:	6177      	str	r7, [r6, #20]
    629a:	200a      	movs	r0, #10
    629c:	47a0      	blx	r4
    629e:	61b7      	str	r7, [r6, #24]
    62a0:	2064      	movs	r0, #100	; 0x64
    62a2:	47a0      	blx	r4
    62a4:	2200      	movs	r2, #0
    62a6:	211f      	movs	r1, #31
    62a8:	2001      	movs	r0, #1
    62aa:	4b17      	ldr	r3, [pc, #92]	; (6308 <internal_tal_reset+0x88>)
    62ac:	4798      	blx	r3
    62ae:	240a      	movs	r4, #10
    62b0:	4f13      	ldr	r7, [pc, #76]	; (6300 <internal_tal_reset+0x80>)
    62b2:	4e15      	ldr	r6, [pc, #84]	; (6308 <internal_tal_reset+0x88>)
    62b4:	2808      	cmp	r0, #8
    62b6:	d00b      	beq.n	62d0 <internal_tal_reset+0x50>
    62b8:	2064      	movs	r0, #100	; 0x64
    62ba:	47b8      	blx	r7
    62bc:	2200      	movs	r2, #0
    62be:	211f      	movs	r1, #31
    62c0:	2001      	movs	r0, #1
    62c2:	47b0      	blx	r6
    62c4:	3c01      	subs	r4, #1
    62c6:	b2e4      	uxtb	r4, r4
    62c8:	2c00      	cmp	r4, #0
    62ca:	d1f3      	bne.n	62b4 <internal_tal_reset+0x34>
    62cc:	2085      	movs	r0, #133	; 0x85
    62ce:	bdf8      	pop	{r3, r4, r5, r6, r7, pc}
    62d0:	2208      	movs	r2, #8
    62d2:	4b0e      	ldr	r3, [pc, #56]	; (630c <internal_tal_reset+0x8c>)
    62d4:	701a      	strb	r2, [r3, #0]
    62d6:	4b0e      	ldr	r3, [pc, #56]	; (6310 <internal_tal_reset+0x90>)
    62d8:	4798      	blx	r3
    62da:	4b0e      	ldr	r3, [pc, #56]	; (6314 <internal_tal_reset+0x94>)
    62dc:	4798      	blx	r3
    62de:	2d00      	cmp	r5, #0
    62e0:	d108      	bne.n	62f4 <internal_tal_reset+0x74>
    62e2:	4b0d      	ldr	r3, [pc, #52]	; (6318 <internal_tal_reset+0x98>)
    62e4:	4798      	blx	r3
    62e6:	2300      	movs	r3, #0
    62e8:	4a0c      	ldr	r2, [pc, #48]	; (631c <internal_tal_reset+0x9c>)
    62ea:	7013      	strb	r3, [r2, #0]
    62ec:	4a0c      	ldr	r2, [pc, #48]	; (6320 <internal_tal_reset+0xa0>)
    62ee:	7013      	strb	r3, [r2, #0]
    62f0:	2000      	movs	r0, #0
    62f2:	e7ec      	b.n	62ce <internal_tal_reset+0x4e>
    62f4:	4b0b      	ldr	r3, [pc, #44]	; (6324 <internal_tal_reset+0xa4>)
    62f6:	4798      	blx	r3
    62f8:	e7f3      	b.n	62e2 <internal_tal_reset+0x62>
    62fa:	46c0      	nop			; (mov r8, r8)
    62fc:	41004400 	.word	0x41004400
    6300:	00004059 	.word	0x00004059
    6304:	41004480 	.word	0x41004480
    6308:	00006f3d 	.word	0x00006f3d
    630c:	20000c17 	.word	0x20000c17
    6310:	000061d5 	.word	0x000061d5
    6314:	00006141 	.word	0x00006141
    6318:	0000658d 	.word	0x0000658d
    631c:	20000c21 	.word	0x20000c21
    6320:	20000be4 	.word	0x20000be4
    6324:	000064f5 	.word	0x000064f5

00006328 <tal_init>:
    6328:	b5f0      	push	{r4, r5, r6, r7, lr}
    632a:	46c6      	mov	lr, r8
    632c:	b500      	push	{lr}
    632e:	4b46      	ldr	r3, [pc, #280]	; (6448 <tal_init+0x120>)
    6330:	4798      	blx	r3
    6332:	2485      	movs	r4, #133	; 0x85
    6334:	2800      	cmp	r0, #0
    6336:	d003      	beq.n	6340 <tal_init+0x18>
    6338:	0020      	movs	r0, r4
    633a:	bc04      	pop	{r2}
    633c:	4690      	mov	r8, r2
    633e:	bdf0      	pop	{r4, r5, r6, r7, pc}
    6340:	4c42      	ldr	r4, [pc, #264]	; (644c <tal_init+0x124>)
    6342:	2580      	movs	r5, #128	; 0x80
    6344:	022d      	lsls	r5, r5, #8
    6346:	61a5      	str	r5, [r4, #24]
    6348:	2280      	movs	r2, #128	; 0x80
    634a:	0352      	lsls	r2, r2, #13
    634c:	4b40      	ldr	r3, [pc, #256]	; (6450 <tal_init+0x128>)
    634e:	615a      	str	r2, [r3, #20]
    6350:	304b      	adds	r0, #75	; 0x4b
    6352:	30ff      	adds	r0, #255	; 0xff
    6354:	4e3f      	ldr	r6, [pc, #252]	; (6454 <tal_init+0x12c>)
    6356:	47b0      	blx	r6
    6358:	6165      	str	r5, [r4, #20]
    635a:	200a      	movs	r0, #10
    635c:	47b0      	blx	r6
    635e:	61a5      	str	r5, [r4, #24]
    6360:	240a      	movs	r4, #10
    6362:	4e3c      	ldr	r6, [pc, #240]	; (6454 <tal_init+0x12c>)
    6364:	4d3c      	ldr	r5, [pc, #240]	; (6458 <tal_init+0x130>)
    6366:	2064      	movs	r0, #100	; 0x64
    6368:	47b0      	blx	r6
    636a:	201c      	movs	r0, #28
    636c:	47a8      	blx	r5
    636e:	280b      	cmp	r0, #11
    6370:	d005      	beq.n	637e <tal_init+0x56>
    6372:	3c01      	subs	r4, #1
    6374:	b2e4      	uxtb	r4, r4
    6376:	2c00      	cmp	r4, #0
    6378:	d1f5      	bne.n	6366 <tal_init+0x3e>
    637a:	2485      	movs	r4, #133	; 0x85
    637c:	e7dc      	b.n	6338 <tal_init+0x10>
    637e:	2108      	movs	r1, #8
    6380:	3809      	subs	r0, #9
    6382:	4b36      	ldr	r3, [pc, #216]	; (645c <tal_init+0x134>)
    6384:	4798      	blx	r3
    6386:	2064      	movs	r0, #100	; 0x64
    6388:	4b32      	ldr	r3, [pc, #200]	; (6454 <tal_init+0x12c>)
    638a:	4798      	blx	r3
    638c:	2200      	movs	r2, #0
    638e:	211f      	movs	r1, #31
    6390:	2001      	movs	r0, #1
    6392:	4b33      	ldr	r3, [pc, #204]	; (6460 <tal_init+0x138>)
    6394:	4798      	blx	r3
    6396:	240a      	movs	r4, #10
    6398:	4e2e      	ldr	r6, [pc, #184]	; (6454 <tal_init+0x12c>)
    639a:	4d31      	ldr	r5, [pc, #196]	; (6460 <tal_init+0x138>)
    639c:	2808      	cmp	r0, #8
    639e:	d00a      	beq.n	63b6 <tal_init+0x8e>
    63a0:	2064      	movs	r0, #100	; 0x64
    63a2:	47b0      	blx	r6
    63a4:	2200      	movs	r2, #0
    63a6:	211f      	movs	r1, #31
    63a8:	2001      	movs	r0, #1
    63aa:	47a8      	blx	r5
    63ac:	3c01      	subs	r4, #1
    63ae:	b2e4      	uxtb	r4, r4
    63b0:	2c00      	cmp	r4, #0
    63b2:	d1f3      	bne.n	639c <tal_init+0x74>
    63b4:	e7e1      	b.n	637a <tal_init+0x52>
    63b6:	2208      	movs	r2, #8
    63b8:	4b2a      	ldr	r3, [pc, #168]	; (6464 <tal_init+0x13c>)
    63ba:	701a      	strb	r2, [r3, #0]
    63bc:	3807      	subs	r0, #7
    63be:	4b2a      	ldr	r3, [pc, #168]	; (6468 <tal_init+0x140>)
    63c0:	4798      	blx	r3
    63c2:	1e04      	subs	r4, r0, #0
    63c4:	d001      	beq.n	63ca <tal_init+0xa2>
    63c6:	2485      	movs	r4, #133	; 0x85
    63c8:	e7b6      	b.n	6338 <tal_init+0x10>
    63ca:	4f28      	ldr	r7, [pc, #160]	; (646c <tal_init+0x144>)
    63cc:	4e28      	ldr	r6, [pc, #160]	; (6470 <tal_init+0x148>)
    63ce:	e008      	b.n	63e2 <tal_init+0xba>
    63d0:	4d26      	ldr	r5, [pc, #152]	; (646c <tal_init+0x144>)
    63d2:	2308      	movs	r3, #8
    63d4:	4698      	mov	r8, r3
    63d6:	44a8      	add	r8, r5
    63d8:	47b0      	blx	r6
    63da:	7028      	strb	r0, [r5, #0]
    63dc:	3501      	adds	r5, #1
    63de:	4545      	cmp	r5, r8
    63e0:	d1fa      	bne.n	63d8 <tal_init+0xb0>
    63e2:	7838      	ldrb	r0, [r7, #0]
    63e4:	7879      	ldrb	r1, [r7, #1]
    63e6:	0209      	lsls	r1, r1, #8
    63e8:	4308      	orrs	r0, r1
    63ea:	78b9      	ldrb	r1, [r7, #2]
    63ec:	0409      	lsls	r1, r1, #16
    63ee:	4301      	orrs	r1, r0
    63f0:	78f8      	ldrb	r0, [r7, #3]
    63f2:	0600      	lsls	r0, r0, #24
    63f4:	4308      	orrs	r0, r1
    63f6:	0002      	movs	r2, r0
    63f8:	7938      	ldrb	r0, [r7, #4]
    63fa:	7979      	ldrb	r1, [r7, #5]
    63fc:	0209      	lsls	r1, r1, #8
    63fe:	4308      	orrs	r0, r1
    6400:	79b9      	ldrb	r1, [r7, #6]
    6402:	0409      	lsls	r1, r1, #16
    6404:	4301      	orrs	r1, r0
    6406:	79f8      	ldrb	r0, [r7, #7]
    6408:	0600      	lsls	r0, r0, #24
    640a:	4308      	orrs	r0, r1
    640c:	0003      	movs	r3, r0
    640e:	2001      	movs	r0, #1
    6410:	4240      	negs	r0, r0
    6412:	17c1      	asrs	r1, r0, #31
    6414:	1812      	adds	r2, r2, r0
    6416:	414b      	adcs	r3, r1
    6418:	1c59      	adds	r1, r3, #1
    641a:	d101      	bne.n	6420 <tal_init+0xf8>
    641c:	1cd3      	adds	r3, r2, #3
    641e:	d8d7      	bhi.n	63d0 <tal_init+0xa8>
    6420:	4814      	ldr	r0, [pc, #80]	; (6474 <tal_init+0x14c>)
    6422:	4b15      	ldr	r3, [pc, #84]	; (6478 <tal_init+0x150>)
    6424:	4798      	blx	r3
    6426:	2100      	movs	r1, #0
    6428:	2000      	movs	r0, #0
    642a:	4b14      	ldr	r3, [pc, #80]	; (647c <tal_init+0x154>)
    642c:	4798      	blx	r3
    642e:	4b14      	ldr	r3, [pc, #80]	; (6480 <tal_init+0x158>)
    6430:	4798      	blx	r3
    6432:	2090      	movs	r0, #144	; 0x90
    6434:	4b13      	ldr	r3, [pc, #76]	; (6484 <tal_init+0x15c>)
    6436:	4798      	blx	r3
    6438:	4b13      	ldr	r3, [pc, #76]	; (6488 <tal_init+0x160>)
    643a:	6018      	str	r0, [r3, #0]
    643c:	4813      	ldr	r0, [pc, #76]	; (648c <tal_init+0x164>)
    643e:	4b14      	ldr	r3, [pc, #80]	; (6490 <tal_init+0x168>)
    6440:	4798      	blx	r3
    6442:	4b14      	ldr	r3, [pc, #80]	; (6494 <tal_init+0x16c>)
    6444:	4798      	blx	r3
    6446:	e777      	b.n	6338 <tal_init+0x10>
    6448:	00005a5d 	.word	0x00005a5d
    644c:	41004480 	.word	0x41004480
    6450:	41004400 	.word	0x41004400
    6454:	00004059 	.word	0x00004059
    6458:	00006d35 	.word	0x00006d35
    645c:	00006e31 	.word	0x00006e31
    6460:	00006f3d 	.word	0x00006f3d
    6464:	20000c17 	.word	0x20000c17
    6468:	00006281 	.word	0x00006281
    646c:	20000bf8 	.word	0x20000bf8
    6470:	00008d61 	.word	0x00008d61
    6474:	00006499 	.word	0x00006499
    6478:	00006f31 	.word	0x00006f31
    647c:	0000414d 	.word	0x0000414d
    6480:	00005a9d 	.word	0x00005a9d
    6484:	00005ae9 	.word	0x00005ae9
    6488:	200003c4 	.word	0x200003c4
    648c:	20000be8 	.word	0x20000be8
    6490:	00005ca9 	.word	0x00005ca9
    6494:	00006b11 	.word	0x00006b11

00006498 <trx_irq_handler_cb>:
    6498:	b510      	push	{r4, lr}
    649a:	200f      	movs	r0, #15
    649c:	4b0a      	ldr	r3, [pc, #40]	; (64c8 <trx_irq_handler_cb+0x30>)
    649e:	4798      	blx	r3
    64a0:	0703      	lsls	r3, r0, #28
    64a2:	d505      	bpl.n	64b0 <trx_irq_handler_cb+0x18>
    64a4:	4b09      	ldr	r3, [pc, #36]	; (64cc <trx_irq_handler_cb+0x34>)
    64a6:	781b      	ldrb	r3, [r3, #0]
    64a8:	2b01      	cmp	r3, #1
    64aa:	d002      	beq.n	64b2 <trx_irq_handler_cb+0x1a>
    64ac:	4b08      	ldr	r3, [pc, #32]	; (64d0 <trx_irq_handler_cb+0x38>)
    64ae:	4798      	blx	r3
    64b0:	bd10      	pop	{r4, pc}
    64b2:	0643      	lsls	r3, r0, #25
    64b4:	d503      	bpl.n	64be <trx_irq_handler_cb+0x26>
    64b6:	2001      	movs	r0, #1
    64b8:	4b06      	ldr	r3, [pc, #24]	; (64d4 <trx_irq_handler_cb+0x3c>)
    64ba:	4798      	blx	r3
    64bc:	e7f8      	b.n	64b0 <trx_irq_handler_cb+0x18>
    64be:	2000      	movs	r0, #0
    64c0:	4b04      	ldr	r3, [pc, #16]	; (64d4 <trx_irq_handler_cb+0x3c>)
    64c2:	4798      	blx	r3
    64c4:	e7f4      	b.n	64b0 <trx_irq_handler_cb+0x18>
    64c6:	46c0      	nop			; (mov r8, r8)
    64c8:	00006d35 	.word	0x00006d35
    64cc:	20000c21 	.word	0x20000c21
    64d0:	0000684d 	.word	0x0000684d
    64d4:	00006a0d 	.word	0x00006a0d

000064d8 <trx_irq_awake_handler_cb>:
    64d8:	b510      	push	{r4, lr}
    64da:	200f      	movs	r0, #15
    64dc:	4b03      	ldr	r3, [pc, #12]	; (64ec <trx_irq_awake_handler_cb+0x14>)
    64de:	4798      	blx	r3
    64e0:	06c3      	lsls	r3, r0, #27
    64e2:	d502      	bpl.n	64ea <trx_irq_awake_handler_cb+0x12>
    64e4:	2201      	movs	r2, #1
    64e6:	4b02      	ldr	r3, [pc, #8]	; (64f0 <trx_irq_awake_handler_cb+0x18>)
    64e8:	701a      	strb	r2, [r3, #0]
    64ea:	bd10      	pop	{r4, pc}
    64ec:	00006d35 	.word	0x00006d35
    64f0:	20000c20 	.word	0x20000c20

000064f4 <init_tal_pib>:
    64f4:	b510      	push	{r4, lr}
    64f6:	4b13      	ldr	r3, [pc, #76]	; (6544 <init_tal_pib+0x50>)
    64f8:	2204      	movs	r2, #4
    64fa:	751a      	strb	r2, [r3, #20]
    64fc:	2003      	movs	r0, #3
    64fe:	7558      	strb	r0, [r3, #21]
    6500:	3a05      	subs	r2, #5
    6502:	739a      	strb	r2, [r3, #14]
    6504:	73da      	strb	r2, [r3, #15]
    6506:	731a      	strb	r2, [r3, #12]
    6508:	735a      	strb	r2, [r3, #13]
    650a:	210b      	movs	r1, #11
    650c:	74d9      	strb	r1, [r3, #19]
    650e:	2100      	movs	r1, #0
    6510:	2400      	movs	r4, #0
    6512:	721c      	strb	r4, [r3, #8]
    6514:	3c08      	subs	r4, #8
    6516:	725c      	strb	r4, [r3, #9]
    6518:	729a      	strb	r2, [r3, #10]
    651a:	3208      	adds	r2, #8
    651c:	72da      	strb	r2, [r3, #11]
    651e:	7619      	strb	r1, [r3, #24]
    6520:	3203      	adds	r2, #3
    6522:	741a      	strb	r2, [r3, #16]
    6524:	3a09      	subs	r2, #9
    6526:	745a      	strb	r2, [r3, #17]
    6528:	3209      	adds	r2, #9
    652a:	765a      	strb	r2, [r3, #25]
    652c:	3a08      	subs	r2, #8
    652e:	769a      	strb	r2, [r3, #26]
    6530:	3203      	adds	r2, #3
    6532:	76da      	strb	r2, [r3, #27]
    6534:	7718      	strb	r0, [r3, #28]
    6536:	327f      	adds	r2, #127	; 0x7f
    6538:	75da      	strb	r2, [r3, #23]
    653a:	3a83      	subs	r2, #131	; 0x83
    653c:	749a      	strb	r2, [r3, #18]
    653e:	7599      	strb	r1, [r3, #22]
    6540:	bd10      	pop	{r4, pc}
    6542:	46c0      	nop			; (mov r8, r8)
    6544:	20000bf8 	.word	0x20000bf8

00006548 <convert_phyTransmitPower_to_reg_value>:
    6548:	0683      	lsls	r3, r0, #26
    654a:	d410      	bmi.n	656e <convert_phyTransmitPower_to_reg_value+0x26>
    654c:	213f      	movs	r1, #63	; 0x3f
    654e:	4001      	ands	r1, r0
    6550:	2903      	cmp	r1, #3
    6552:	dc12      	bgt.n	657a <convert_phyTransmitPower_to_reg_value+0x32>
    6554:	4b0c      	ldr	r3, [pc, #48]	; (6588 <convert_phyTransmitPower_to_reg_value+0x40>)
    6556:	2001      	movs	r0, #1
    6558:	2201      	movs	r2, #1
    655a:	569a      	ldrsb	r2, [r3, r2]
    655c:	4291      	cmp	r1, r2
    655e:	da0e      	bge.n	657e <convert_phyTransmitPower_to_reg_value+0x36>
    6560:	3001      	adds	r0, #1
    6562:	b2c0      	uxtb	r0, r0
    6564:	3301      	adds	r3, #1
    6566:	2810      	cmp	r0, #16
    6568:	d1f6      	bne.n	6558 <convert_phyTransmitPower_to_reg_value+0x10>
    656a:	2000      	movs	r0, #0
    656c:	4770      	bx	lr
    656e:	4240      	negs	r0, r0
    6570:	211f      	movs	r1, #31
    6572:	4001      	ands	r1, r0
    6574:	4249      	negs	r1, r1
    6576:	b249      	sxtb	r1, r1
    6578:	e7ea      	b.n	6550 <convert_phyTransmitPower_to_reg_value+0x8>
    657a:	2204      	movs	r2, #4
    657c:	2000      	movs	r0, #0
    657e:	4291      	cmp	r1, r2
    6580:	ddf4      	ble.n	656c <convert_phyTransmitPower_to_reg_value+0x24>
    6582:	3801      	subs	r0, #1
    6584:	b2c0      	uxtb	r0, r0
    6586:	e7f1      	b.n	656c <convert_phyTransmitPower_to_reg_value+0x24>
    6588:	0000adfc 	.word	0x0000adfc

0000658c <write_all_tal_pib_to_trx>:
    658c:	b570      	push	{r4, r5, r6, lr}
    658e:	4d1e      	ldr	r5, [pc, #120]	; (6608 <write_all_tal_pib_to_trx+0x7c>)
    6590:	7ba9      	ldrb	r1, [r5, #14]
    6592:	2022      	movs	r0, #34	; 0x22
    6594:	4c1d      	ldr	r4, [pc, #116]	; (660c <write_all_tal_pib_to_trx+0x80>)
    6596:	47a0      	blx	r4
    6598:	7be9      	ldrb	r1, [r5, #15]
    659a:	2023      	movs	r0, #35	; 0x23
    659c:	47a0      	blx	r4
    659e:	2424      	movs	r4, #36	; 0x24
    65a0:	4e1a      	ldr	r6, [pc, #104]	; (660c <write_all_tal_pib_to_trx+0x80>)
    65a2:	7829      	ldrb	r1, [r5, #0]
    65a4:	0020      	movs	r0, r4
    65a6:	47b0      	blx	r6
    65a8:	3501      	adds	r5, #1
    65aa:	3401      	adds	r4, #1
    65ac:	b2e4      	uxtb	r4, r4
    65ae:	2c2c      	cmp	r4, #44	; 0x2c
    65b0:	d1f7      	bne.n	65a2 <write_all_tal_pib_to_trx+0x16>
    65b2:	4c15      	ldr	r4, [pc, #84]	; (6608 <write_all_tal_pib_to_trx+0x7c>)
    65b4:	7b21      	ldrb	r1, [r4, #12]
    65b6:	2020      	movs	r0, #32
    65b8:	4d14      	ldr	r5, [pc, #80]	; (660c <write_all_tal_pib_to_trx+0x80>)
    65ba:	47a8      	blx	r5
    65bc:	7b61      	ldrb	r1, [r4, #13]
    65be:	2021      	movs	r0, #33	; 0x21
    65c0:	47a8      	blx	r5
    65c2:	7ca3      	ldrb	r3, [r4, #18]
    65c4:	2205      	movs	r2, #5
    65c6:	2160      	movs	r1, #96	; 0x60
    65c8:	2008      	movs	r0, #8
    65ca:	4d11      	ldr	r5, [pc, #68]	; (6610 <write_all_tal_pib_to_trx+0x84>)
    65cc:	47a8      	blx	r5
    65ce:	7d63      	ldrb	r3, [r4, #21]
    65d0:	2200      	movs	r2, #0
    65d2:	210f      	movs	r1, #15
    65d4:	202f      	movs	r0, #47	; 0x2f
    65d6:	47a8      	blx	r5
    65d8:	7da3      	ldrb	r3, [r4, #22]
    65da:	2203      	movs	r2, #3
    65dc:	2108      	movs	r1, #8
    65de:	202e      	movs	r0, #46	; 0x2e
    65e0:	47a8      	blx	r5
    65e2:	7ee3      	ldrb	r3, [r4, #27]
    65e4:	2204      	movs	r2, #4
    65e6:	21f0      	movs	r1, #240	; 0xf0
    65e8:	202f      	movs	r0, #47	; 0x2f
    65ea:	47a8      	blx	r5
    65ec:	7ce3      	ldrb	r3, [r4, #19]
    65ee:	2200      	movs	r2, #0
    65f0:	211f      	movs	r1, #31
    65f2:	2008      	movs	r0, #8
    65f4:	47a8      	blx	r5
    65f6:	7de0      	ldrb	r0, [r4, #23]
    65f8:	4b06      	ldr	r3, [pc, #24]	; (6614 <write_all_tal_pib_to_trx+0x88>)
    65fa:	4798      	blx	r3
    65fc:	0003      	movs	r3, r0
    65fe:	2200      	movs	r2, #0
    6600:	210f      	movs	r1, #15
    6602:	2005      	movs	r0, #5
    6604:	47a8      	blx	r5
    6606:	bd70      	pop	{r4, r5, r6, pc}
    6608:	20000bf8 	.word	0x20000bf8
    660c:	00006e31 	.word	0x00006e31
    6610:	00006f55 	.word	0x00006f55
    6614:	00006549 	.word	0x00006549

00006618 <tal_pib_set>:
    6618:	b570      	push	{r4, r5, r6, lr}
    661a:	000c      	movs	r4, r1
    661c:	284e      	cmp	r0, #78	; 0x4e
    661e:	d007      	beq.n	6630 <tal_pib_set+0x18>
    6620:	2859      	cmp	r0, #89	; 0x59
    6622:	d10a      	bne.n	663a <tal_pib_set+0x22>
    6624:	780a      	ldrb	r2, [r1, #0]
    6626:	4b81      	ldr	r3, [pc, #516]	; (682c <tal_pib_set+0x214>)
    6628:	771a      	strb	r2, [r3, #28]
    662a:	2200      	movs	r2, #0
    662c:	0010      	movs	r0, r2
    662e:	bd70      	pop	{r4, r5, r6, pc}
    6630:	780a      	ldrb	r2, [r1, #0]
    6632:	4b7e      	ldr	r3, [pc, #504]	; (682c <tal_pib_set+0x214>)
    6634:	751a      	strb	r2, [r3, #20]
    6636:	2200      	movs	r2, #0
    6638:	e7f8      	b.n	662c <tal_pib_set+0x14>
    663a:	4b7d      	ldr	r3, [pc, #500]	; (6830 <tal_pib_set+0x218>)
    663c:	7819      	ldrb	r1, [r3, #0]
    663e:	2281      	movs	r2, #129	; 0x81
    6640:	290f      	cmp	r1, #15
    6642:	d0f3      	beq.n	662c <tal_pib_set+0x14>
    6644:	280b      	cmp	r0, #11
    6646:	d100      	bne.n	664a <tal_pib_set+0x32>
    6648:	e0da      	b.n	6800 <tal_pib_set+0x1e8>
    664a:	d915      	bls.n	6678 <tal_pib_set+0x60>
    664c:	2853      	cmp	r0, #83	; 0x53
    664e:	d100      	bne.n	6652 <tal_pib_set+0x3a>
    6650:	e090      	b.n	6774 <tal_pib_set+0x15c>
    6652:	d84a      	bhi.n	66ea <tal_pib_set+0xd2>
    6654:	284f      	cmp	r0, #79	; 0x4f
    6656:	d07c      	beq.n	6752 <tal_pib_set+0x13a>
    6658:	2850      	cmp	r0, #80	; 0x50
    665a:	d000      	beq.n	665e <tal_pib_set+0x46>
    665c:	e0da      	b.n	6814 <tal_pib_set+0x1fc>
    665e:	7821      	ldrb	r1, [r4, #0]
    6660:	7863      	ldrb	r3, [r4, #1]
    6662:	4c72      	ldr	r4, [pc, #456]	; (682c <tal_pib_set+0x214>)
    6664:	73a1      	strb	r1, [r4, #14]
    6666:	73e3      	strb	r3, [r4, #15]
    6668:	2022      	movs	r0, #34	; 0x22
    666a:	4d72      	ldr	r5, [pc, #456]	; (6834 <tal_pib_set+0x21c>)
    666c:	47a8      	blx	r5
    666e:	7be1      	ldrb	r1, [r4, #15]
    6670:	2023      	movs	r0, #35	; 0x23
    6672:	47a8      	blx	r5
    6674:	2200      	movs	r2, #0
    6676:	e7d9      	b.n	662c <tal_pib_set+0x14>
    6678:	2802      	cmp	r0, #2
    667a:	d100      	bne.n	667e <tal_pib_set+0x66>
    667c:	e096      	b.n	67ac <tal_pib_set+0x194>
    667e:	d911      	bls.n	66a4 <tal_pib_set+0x8c>
    6680:	2803      	cmp	r0, #3
    6682:	d100      	bne.n	6686 <tal_pib_set+0x6e>
    6684:	e0b2      	b.n	67ec <tal_pib_set+0x1d4>
    6686:	2804      	cmp	r0, #4
    6688:	d000      	beq.n	668c <tal_pib_set+0x74>
    668a:	e0c3      	b.n	6814 <tal_pib_set+0x1fc>
    668c:	4b6a      	ldr	r3, [pc, #424]	; (6838 <tal_pib_set+0x220>)
    668e:	781b      	ldrb	r3, [r3, #0]
    6690:	2286      	movs	r2, #134	; 0x86
    6692:	2b00      	cmp	r3, #0
    6694:	d1ca      	bne.n	662c <tal_pib_set+0x14>
    6696:	7823      	ldrb	r3, [r4, #0]
    6698:	3262      	adds	r2, #98	; 0x62
    669a:	1e59      	subs	r1, r3, #1
    669c:	418b      	sbcs	r3, r1
    669e:	425b      	negs	r3, r3
    66a0:	401a      	ands	r2, r3
    66a2:	e7c3      	b.n	662c <tal_pib_set+0x14>
    66a4:	2800      	cmp	r0, #0
    66a6:	d000      	beq.n	66aa <tal_pib_set+0x92>
    66a8:	e0b4      	b.n	6814 <tal_pib_set+0x1fc>
    66aa:	4b63      	ldr	r3, [pc, #396]	; (6838 <tal_pib_set+0x220>)
    66ac:	781b      	ldrb	r3, [r3, #0]
    66ae:	2286      	movs	r2, #134	; 0x86
    66b0:	2b00      	cmp	r3, #0
    66b2:	d1bb      	bne.n	662c <tal_pib_set+0x14>
    66b4:	7823      	ldrb	r3, [r4, #0]
    66b6:	4861      	ldr	r0, [pc, #388]	; (683c <tal_pib_set+0x224>)
    66b8:	40d8      	lsrs	r0, r3
    66ba:	3262      	adds	r2, #98	; 0x62
    66bc:	07c0      	lsls	r0, r0, #31
    66be:	d5b5      	bpl.n	662c <tal_pib_set+0x14>
    66c0:	2908      	cmp	r1, #8
    66c2:	d100      	bne.n	66c6 <tal_pib_set+0xae>
    66c4:	e0a8      	b.n	6818 <tal_pib_set+0x200>
    66c6:	4d5e      	ldr	r5, [pc, #376]	; (6840 <tal_pib_set+0x228>)
    66c8:	2008      	movs	r0, #8
    66ca:	47a8      	blx	r5
    66cc:	2808      	cmp	r0, #8
    66ce:	d1fb      	bne.n	66c8 <tal_pib_set+0xb0>
    66d0:	7823      	ldrb	r3, [r4, #0]
    66d2:	4a56      	ldr	r2, [pc, #344]	; (682c <tal_pib_set+0x214>)
    66d4:	74d3      	strb	r3, [r2, #19]
    66d6:	2200      	movs	r2, #0
    66d8:	211f      	movs	r1, #31
    66da:	2008      	movs	r0, #8
    66dc:	4c59      	ldr	r4, [pc, #356]	; (6844 <tal_pib_set+0x22c>)
    66de:	47a0      	blx	r4
    66e0:	2016      	movs	r0, #22
    66e2:	4b57      	ldr	r3, [pc, #348]	; (6840 <tal_pib_set+0x228>)
    66e4:	4798      	blx	r3
    66e6:	2200      	movs	r2, #0
    66e8:	e7a0      	b.n	662c <tal_pib_set+0x14>
    66ea:	2857      	cmp	r0, #87	; 0x57
    66ec:	d04f      	beq.n	678e <tal_pib_set+0x176>
    66ee:	28f0      	cmp	r0, #240	; 0xf0
    66f0:	d000      	beq.n	66f4 <tal_pib_set+0xdc>
    66f2:	e08f      	b.n	6814 <tal_pib_set+0x1fc>
    66f4:	7822      	ldrb	r2, [r4, #0]
    66f6:	7863      	ldrb	r3, [r4, #1]
    66f8:	021b      	lsls	r3, r3, #8
    66fa:	4313      	orrs	r3, r2
    66fc:	78a2      	ldrb	r2, [r4, #2]
    66fe:	0412      	lsls	r2, r2, #16
    6700:	4313      	orrs	r3, r2
    6702:	78e2      	ldrb	r2, [r4, #3]
    6704:	0612      	lsls	r2, r2, #24
    6706:	431a      	orrs	r2, r3
    6708:	7923      	ldrb	r3, [r4, #4]
    670a:	7961      	ldrb	r1, [r4, #5]
    670c:	0209      	lsls	r1, r1, #8
    670e:	4319      	orrs	r1, r3
    6710:	79a3      	ldrb	r3, [r4, #6]
    6712:	041b      	lsls	r3, r3, #16
    6714:	4319      	orrs	r1, r3
    6716:	79e3      	ldrb	r3, [r4, #7]
    6718:	061b      	lsls	r3, r3, #24
    671a:	430b      	orrs	r3, r1
    671c:	4d43      	ldr	r5, [pc, #268]	; (682c <tal_pib_set+0x214>)
    671e:	702a      	strb	r2, [r5, #0]
    6720:	0a11      	lsrs	r1, r2, #8
    6722:	7069      	strb	r1, [r5, #1]
    6724:	0c11      	lsrs	r1, r2, #16
    6726:	70a9      	strb	r1, [r5, #2]
    6728:	0e12      	lsrs	r2, r2, #24
    672a:	70ea      	strb	r2, [r5, #3]
    672c:	712b      	strb	r3, [r5, #4]
    672e:	0a1a      	lsrs	r2, r3, #8
    6730:	716a      	strb	r2, [r5, #5]
    6732:	0c1a      	lsrs	r2, r3, #16
    6734:	71aa      	strb	r2, [r5, #6]
    6736:	0e1b      	lsrs	r3, r3, #24
    6738:	71eb      	strb	r3, [r5, #7]
    673a:	2424      	movs	r4, #36	; 0x24
    673c:	4e3d      	ldr	r6, [pc, #244]	; (6834 <tal_pib_set+0x21c>)
    673e:	7829      	ldrb	r1, [r5, #0]
    6740:	0020      	movs	r0, r4
    6742:	47b0      	blx	r6
    6744:	3501      	adds	r5, #1
    6746:	3401      	adds	r4, #1
    6748:	b2e4      	uxtb	r4, r4
    674a:	2c2c      	cmp	r4, #44	; 0x2c
    674c:	d1f7      	bne.n	673e <tal_pib_set+0x126>
    674e:	2200      	movs	r2, #0
    6750:	e76c      	b.n	662c <tal_pib_set+0x14>
    6752:	7823      	ldrb	r3, [r4, #0]
    6754:	4a35      	ldr	r2, [pc, #212]	; (682c <tal_pib_set+0x214>)
    6756:	7553      	strb	r3, [r2, #21]
    6758:	7ed2      	ldrb	r2, [r2, #27]
    675a:	4293      	cmp	r3, r2
    675c:	d901      	bls.n	6762 <tal_pib_set+0x14a>
    675e:	4b33      	ldr	r3, [pc, #204]	; (682c <tal_pib_set+0x214>)
    6760:	755a      	strb	r2, [r3, #21]
    6762:	4b32      	ldr	r3, [pc, #200]	; (682c <tal_pib_set+0x214>)
    6764:	7d5b      	ldrb	r3, [r3, #21]
    6766:	2200      	movs	r2, #0
    6768:	210f      	movs	r1, #15
    676a:	202f      	movs	r0, #47	; 0x2f
    676c:	4c35      	ldr	r4, [pc, #212]	; (6844 <tal_pib_set+0x22c>)
    676e:	47a0      	blx	r4
    6770:	2200      	movs	r2, #0
    6772:	e75b      	b.n	662c <tal_pib_set+0x14>
    6774:	7821      	ldrb	r1, [r4, #0]
    6776:	7863      	ldrb	r3, [r4, #1]
    6778:	4c2c      	ldr	r4, [pc, #176]	; (682c <tal_pib_set+0x214>)
    677a:	7321      	strb	r1, [r4, #12]
    677c:	7363      	strb	r3, [r4, #13]
    677e:	2020      	movs	r0, #32
    6780:	4d2c      	ldr	r5, [pc, #176]	; (6834 <tal_pib_set+0x21c>)
    6782:	47a8      	blx	r5
    6784:	7b61      	ldrb	r1, [r4, #13]
    6786:	2021      	movs	r0, #33	; 0x21
    6788:	47a8      	blx	r5
    678a:	2200      	movs	r2, #0
    678c:	e74e      	b.n	662c <tal_pib_set+0x14>
    678e:	7823      	ldrb	r3, [r4, #0]
    6790:	4a26      	ldr	r2, [pc, #152]	; (682c <tal_pib_set+0x214>)
    6792:	76d3      	strb	r3, [r2, #27]
    6794:	7d52      	ldrb	r2, [r2, #21]
    6796:	429a      	cmp	r2, r3
    6798:	d901      	bls.n	679e <tal_pib_set+0x186>
    679a:	4a24      	ldr	r2, [pc, #144]	; (682c <tal_pib_set+0x214>)
    679c:	7553      	strb	r3, [r2, #21]
    679e:	2204      	movs	r2, #4
    67a0:	21f0      	movs	r1, #240	; 0xf0
    67a2:	202f      	movs	r0, #47	; 0x2f
    67a4:	4c27      	ldr	r4, [pc, #156]	; (6844 <tal_pib_set+0x22c>)
    67a6:	47a0      	blx	r4
    67a8:	2200      	movs	r2, #0
    67aa:	e73f      	b.n	662c <tal_pib_set+0x14>
    67ac:	7820      	ldrb	r0, [r4, #0]
    67ae:	0683      	lsls	r3, r0, #26
    67b0:	d407      	bmi.n	67c2 <tal_pib_set+0x1aa>
    67b2:	233f      	movs	r3, #63	; 0x3f
    67b4:	4003      	ands	r3, r0
    67b6:	2b04      	cmp	r3, #4
    67b8:	dc09      	bgt.n	67ce <tal_pib_set+0x1b6>
    67ba:	3311      	adds	r3, #17
    67bc:	da08      	bge.n	67d0 <tal_pib_set+0x1b8>
    67be:	202f      	movs	r0, #47	; 0x2f
    67c0:	e006      	b.n	67d0 <tal_pib_set+0x1b8>
    67c2:	4242      	negs	r2, r0
    67c4:	231f      	movs	r3, #31
    67c6:	4013      	ands	r3, r2
    67c8:	425b      	negs	r3, r3
    67ca:	b25b      	sxtb	r3, r3
    67cc:	e7f3      	b.n	67b6 <tal_pib_set+0x19e>
    67ce:	2004      	movs	r0, #4
    67d0:	2380      	movs	r3, #128	; 0x80
    67d2:	4318      	orrs	r0, r3
    67d4:	4b15      	ldr	r3, [pc, #84]	; (682c <tal_pib_set+0x214>)
    67d6:	75d8      	strb	r0, [r3, #23]
    67d8:	4b1b      	ldr	r3, [pc, #108]	; (6848 <tal_pib_set+0x230>)
    67da:	4798      	blx	r3
    67dc:	0003      	movs	r3, r0
    67de:	2200      	movs	r2, #0
    67e0:	210f      	movs	r1, #15
    67e2:	2005      	movs	r0, #5
    67e4:	4c17      	ldr	r4, [pc, #92]	; (6844 <tal_pib_set+0x22c>)
    67e6:	47a0      	blx	r4
    67e8:	2200      	movs	r2, #0
    67ea:	e71f      	b.n	662c <tal_pib_set+0x14>
    67ec:	7823      	ldrb	r3, [r4, #0]
    67ee:	4a0f      	ldr	r2, [pc, #60]	; (682c <tal_pib_set+0x214>)
    67f0:	7493      	strb	r3, [r2, #18]
    67f2:	2205      	movs	r2, #5
    67f4:	2160      	movs	r1, #96	; 0x60
    67f6:	2008      	movs	r0, #8
    67f8:	4c12      	ldr	r4, [pc, #72]	; (6844 <tal_pib_set+0x22c>)
    67fa:	47a0      	blx	r4
    67fc:	2200      	movs	r2, #0
    67fe:	e715      	b.n	662c <tal_pib_set+0x14>
    6800:	7823      	ldrb	r3, [r4, #0]
    6802:	4a0a      	ldr	r2, [pc, #40]	; (682c <tal_pib_set+0x214>)
    6804:	7593      	strb	r3, [r2, #22]
    6806:	2203      	movs	r2, #3
    6808:	2108      	movs	r1, #8
    680a:	202e      	movs	r0, #46	; 0x2e
    680c:	4c0d      	ldr	r4, [pc, #52]	; (6844 <tal_pib_set+0x22c>)
    680e:	47a0      	blx	r4
    6810:	2200      	movs	r2, #0
    6812:	e70b      	b.n	662c <tal_pib_set+0x14>
    6814:	22f4      	movs	r2, #244	; 0xf4
    6816:	e709      	b.n	662c <tal_pib_set+0x14>
    6818:	4a04      	ldr	r2, [pc, #16]	; (682c <tal_pib_set+0x214>)
    681a:	74d3      	strb	r3, [r2, #19]
    681c:	2200      	movs	r2, #0
    681e:	211f      	movs	r1, #31
    6820:	2008      	movs	r0, #8
    6822:	4c08      	ldr	r4, [pc, #32]	; (6844 <tal_pib_set+0x22c>)
    6824:	47a0      	blx	r4
    6826:	2200      	movs	r2, #0
    6828:	e700      	b.n	662c <tal_pib_set+0x14>
    682a:	46c0      	nop			; (mov r8, r8)
    682c:	20000bf8 	.word	0x20000bf8
    6830:	20000c17 	.word	0x20000c17
    6834:	00006e31 	.word	0x00006e31
    6838:	20000c21 	.word	0x20000c21
    683c:	07fff800 	.word	0x07fff800
    6840:	00005e19 	.word	0x00005e19
    6844:	00006f55 	.word	0x00006f55
    6848:	00006549 	.word	0x00006549

0000684c <handle_received_frame_irq>:
    684c:	b530      	push	{r4, r5, lr}
    684e:	b083      	sub	sp, #12
    6850:	4b1f      	ldr	r3, [pc, #124]	; (68d0 <handle_received_frame_irq+0x84>)
    6852:	681b      	ldr	r3, [r3, #0]
    6854:	2b00      	cmp	r3, #0
    6856:	d02e      	beq.n	68b6 <handle_received_frame_irq+0x6a>
    6858:	781c      	ldrb	r4, [r3, #0]
    685a:	785a      	ldrb	r2, [r3, #1]
    685c:	0212      	lsls	r2, r2, #8
    685e:	4322      	orrs	r2, r4
    6860:	789c      	ldrb	r4, [r3, #2]
    6862:	0424      	lsls	r4, r4, #16
    6864:	4322      	orrs	r2, r4
    6866:	78dc      	ldrb	r4, [r3, #3]
    6868:	0624      	lsls	r4, r4, #24
    686a:	4314      	orrs	r4, r2
    686c:	466b      	mov	r3, sp
    686e:	1ddd      	adds	r5, r3, #7
    6870:	2101      	movs	r1, #1
    6872:	0028      	movs	r0, r5
    6874:	4b17      	ldr	r3, [pc, #92]	; (68d4 <handle_received_frame_irq+0x88>)
    6876:	4798      	blx	r3
    6878:	7829      	ldrb	r1, [r5, #0]
    687a:	b24b      	sxtb	r3, r1
    687c:	2b00      	cmp	r3, #0
    687e:	db18      	blt.n	68b2 <handle_received_frame_irq+0x66>
    6880:	3103      	adds	r1, #3
    6882:	b2c9      	uxtb	r1, r1
    6884:	1a65      	subs	r5, r4, r1
    6886:	3590      	adds	r5, #144	; 0x90
    6888:	0028      	movs	r0, r5
    688a:	4b12      	ldr	r3, [pc, #72]	; (68d4 <handle_received_frame_irq+0x88>)
    688c:	4798      	blx	r3
    688e:	7265      	strb	r5, [r4, #9]
    6890:	0a2a      	lsrs	r2, r5, #8
    6892:	72a2      	strb	r2, [r4, #10]
    6894:	0c2a      	lsrs	r2, r5, #16
    6896:	72e2      	strb	r2, [r4, #11]
    6898:	0e2d      	lsrs	r5, r5, #24
    689a:	7325      	strb	r5, [r4, #12]
    689c:	4c0c      	ldr	r4, [pc, #48]	; (68d0 <handle_received_frame_irq+0x84>)
    689e:	6821      	ldr	r1, [r4, #0]
    68a0:	480d      	ldr	r0, [pc, #52]	; (68d8 <handle_received_frame_irq+0x8c>)
    68a2:	4b0e      	ldr	r3, [pc, #56]	; (68dc <handle_received_frame_irq+0x90>)
    68a4:	4798      	blx	r3
    68a6:	2090      	movs	r0, #144	; 0x90
    68a8:	4b0d      	ldr	r3, [pc, #52]	; (68e0 <handle_received_frame_irq+0x94>)
    68aa:	4798      	blx	r3
    68ac:	6020      	str	r0, [r4, #0]
    68ae:	2800      	cmp	r0, #0
    68b0:	d007      	beq.n	68c2 <handle_received_frame_irq+0x76>
    68b2:	b003      	add	sp, #12
    68b4:	bd30      	pop	{r4, r5, pc}
    68b6:	2101      	movs	r1, #1
    68b8:	466b      	mov	r3, sp
    68ba:	1d98      	adds	r0, r3, #6
    68bc:	4b05      	ldr	r3, [pc, #20]	; (68d4 <handle_received_frame_irq+0x88>)
    68be:	4798      	blx	r3
    68c0:	e7f7      	b.n	68b2 <handle_received_frame_irq+0x66>
    68c2:	3009      	adds	r0, #9
    68c4:	4b07      	ldr	r3, [pc, #28]	; (68e4 <handle_received_frame_irq+0x98>)
    68c6:	4798      	blx	r3
    68c8:	2201      	movs	r2, #1
    68ca:	4b07      	ldr	r3, [pc, #28]	; (68e8 <handle_received_frame_irq+0x9c>)
    68cc:	701a      	strb	r2, [r3, #0]
    68ce:	e7f0      	b.n	68b2 <handle_received_frame_irq+0x66>
    68d0:	200003c4 	.word	0x200003c4
    68d4:	00006f7d 	.word	0x00006f7d
    68d8:	20000be8 	.word	0x20000be8
    68dc:	00005cc1 	.word	0x00005cc1
    68e0:	00005ae9 	.word	0x00005ae9
    68e4:	00005e19 	.word	0x00005e19
    68e8:	20000be4 	.word	0x20000be4

000068ec <process_incoming_frame>:
    68ec:	b570      	push	{r4, r5, r6, lr}
    68ee:	0005      	movs	r5, r0
    68f0:	7804      	ldrb	r4, [r0, #0]
    68f2:	7843      	ldrb	r3, [r0, #1]
    68f4:	021b      	lsls	r3, r3, #8
    68f6:	4323      	orrs	r3, r4
    68f8:	7884      	ldrb	r4, [r0, #2]
    68fa:	0424      	lsls	r4, r4, #16
    68fc:	4323      	orrs	r3, r4
    68fe:	78c4      	ldrb	r4, [r0, #3]
    6900:	0624      	lsls	r4, r4, #24
    6902:	431c      	orrs	r4, r3
    6904:	7a66      	ldrb	r6, [r4, #9]
    6906:	7aa3      	ldrb	r3, [r4, #10]
    6908:	021b      	lsls	r3, r3, #8
    690a:	4333      	orrs	r3, r6
    690c:	7ae6      	ldrb	r6, [r4, #11]
    690e:	0436      	lsls	r6, r6, #16
    6910:	4333      	orrs	r3, r6
    6912:	7b26      	ldrb	r6, [r4, #12]
    6914:	0636      	lsls	r6, r6, #24
    6916:	431e      	orrs	r6, r3
    6918:	7833      	ldrb	r3, [r6, #0]
    691a:	4a12      	ldr	r2, [pc, #72]	; (6964 <process_incoming_frame+0x78>)
    691c:	7013      	strb	r3, [r2, #0]
    691e:	3301      	adds	r3, #1
    6920:	18f6      	adds	r6, r6, r3
    6922:	7833      	ldrb	r3, [r6, #0]
    6924:	7870      	ldrb	r0, [r6, #1]
    6926:	281f      	cmp	r0, #31
    6928:	d803      	bhi.n	6932 <process_incoming_frame+0x46>
    692a:	2800      	cmp	r0, #0
    692c:	d102      	bne.n	6934 <process_incoming_frame+0x48>
    692e:	3001      	adds	r0, #1
    6930:	e000      	b.n	6934 <process_incoming_frame+0x48>
    6932:	201f      	movs	r0, #31
    6934:	099b      	lsrs	r3, r3, #6
    6936:	4358      	muls	r0, r3
    6938:	0203      	lsls	r3, r0, #8
    693a:	1a18      	subs	r0, r3, r0
    693c:	215d      	movs	r1, #93	; 0x5d
    693e:	4b0a      	ldr	r3, [pc, #40]	; (6968 <process_incoming_frame+0x7c>)
    6940:	4798      	blx	r3
    6942:	b283      	uxth	r3, r0
    6944:	2bff      	cmp	r3, #255	; 0xff
    6946:	d80b      	bhi.n	6960 <process_incoming_frame+0x74>
    6948:	7030      	strb	r0, [r6, #0]
    694a:	7065      	strb	r5, [r4, #1]
    694c:	0a2a      	lsrs	r2, r5, #8
    694e:	70a2      	strb	r2, [r4, #2]
    6950:	0c2a      	lsrs	r2, r5, #16
    6952:	70e2      	strb	r2, [r4, #3]
    6954:	0e2d      	lsrs	r5, r5, #24
    6956:	7125      	strb	r5, [r4, #4]
    6958:	0020      	movs	r0, r4
    695a:	4b04      	ldr	r3, [pc, #16]	; (696c <process_incoming_frame+0x80>)
    695c:	4798      	blx	r3
    695e:	bd70      	pop	{r4, r5, r6, pc}
    6960:	20ff      	movs	r0, #255	; 0xff
    6962:	e7f1      	b.n	6948 <process_incoming_frame+0x5c>
    6964:	20000c18 	.word	0x20000c18
    6968:	0000893d 	.word	0x0000893d
    696c:	0000871d 	.word	0x0000871d

00006970 <tal_rx_enable>:
    6970:	b510      	push	{r4, lr}
    6972:	0004      	movs	r4, r0
    6974:	4b0e      	ldr	r3, [pc, #56]	; (69b0 <tal_rx_enable+0x40>)
    6976:	781b      	ldrb	r3, [r3, #0]
    6978:	2086      	movs	r0, #134	; 0x86
    697a:	2b00      	cmp	r3, #0
    697c:	d109      	bne.n	6992 <tal_rx_enable+0x22>
    697e:	2c08      	cmp	r4, #8
    6980:	d008      	beq.n	6994 <tal_rx_enable+0x24>
    6982:	4b0c      	ldr	r3, [pc, #48]	; (69b4 <tal_rx_enable+0x44>)
    6984:	681b      	ldr	r3, [r3, #0]
    6986:	2b00      	cmp	r3, #0
    6988:	d00c      	beq.n	69a4 <tal_rx_enable+0x34>
    698a:	2016      	movs	r0, #22
    698c:	4b0a      	ldr	r3, [pc, #40]	; (69b8 <tal_rx_enable+0x48>)
    698e:	4798      	blx	r3
    6990:	2006      	movs	r0, #6
    6992:	bd10      	pop	{r4, pc}
    6994:	387e      	subs	r0, #126	; 0x7e
    6996:	4b08      	ldr	r3, [pc, #32]	; (69b8 <tal_rx_enable+0x48>)
    6998:	4798      	blx	r3
    699a:	2200      	movs	r2, #0
    699c:	4b07      	ldr	r3, [pc, #28]	; (69bc <tal_rx_enable+0x4c>)
    699e:	701a      	strb	r2, [r3, #0]
    69a0:	0020      	movs	r0, r4
    69a2:	e7f6      	b.n	6992 <tal_rx_enable+0x22>
    69a4:	2201      	movs	r2, #1
    69a6:	4b05      	ldr	r3, [pc, #20]	; (69bc <tal_rx_enable+0x4c>)
    69a8:	701a      	strb	r2, [r3, #0]
    69aa:	2006      	movs	r0, #6
    69ac:	e7f1      	b.n	6992 <tal_rx_enable+0x22>
    69ae:	46c0      	nop			; (mov r8, r8)
    69b0:	20000c21 	.word	0x20000c21
    69b4:	200003c4 	.word	0x200003c4
    69b8:	00005e19 	.word	0x00005e19
    69bc:	20000be4 	.word	0x20000be4

000069c0 <tx_done_handling>:
    69c0:	b510      	push	{r4, lr}
    69c2:	2200      	movs	r2, #0
    69c4:	4b0c      	ldr	r3, [pc, #48]	; (69f8 <tx_done_handling+0x38>)
    69c6:	701a      	strb	r2, [r3, #0]
    69c8:	4b0c      	ldr	r3, [pc, #48]	; (69fc <tx_done_handling+0x3c>)
    69ca:	781a      	ldrb	r2, [r3, #0]
    69cc:	2a07      	cmp	r2, #7
    69ce:	d80b      	bhi.n	69e8 <tx_done_handling+0x28>
    69d0:	0093      	lsls	r3, r2, #2
    69d2:	4a0b      	ldr	r2, [pc, #44]	; (6a00 <tx_done_handling+0x40>)
    69d4:	58d3      	ldr	r3, [r2, r3]
    69d6:	469f      	mov	pc, r3
    69d8:	2087      	movs	r0, #135	; 0x87
    69da:	e008      	b.n	69ee <tx_done_handling+0x2e>
    69dc:	20e1      	movs	r0, #225	; 0xe1
    69de:	e006      	b.n	69ee <tx_done_handling+0x2e>
    69e0:	20e9      	movs	r0, #233	; 0xe9
    69e2:	e004      	b.n	69ee <tx_done_handling+0x2e>
    69e4:	2085      	movs	r0, #133	; 0x85
    69e6:	e002      	b.n	69ee <tx_done_handling+0x2e>
    69e8:	2085      	movs	r0, #133	; 0x85
    69ea:	e000      	b.n	69ee <tx_done_handling+0x2e>
    69ec:	2000      	movs	r0, #0
    69ee:	4b05      	ldr	r3, [pc, #20]	; (6a04 <tx_done_handling+0x44>)
    69f0:	6819      	ldr	r1, [r3, #0]
    69f2:	4b05      	ldr	r3, [pc, #20]	; (6a08 <tx_done_handling+0x48>)
    69f4:	4798      	blx	r3
    69f6:	bd10      	pop	{r4, pc}
    69f8:	20000c21 	.word	0x20000c21
    69fc:	200003ca 	.word	0x200003ca
    6a00:	0000ae0c 	.word	0x0000ae0c
    6a04:	20000bf4 	.word	0x20000bf4
    6a08:	00008711 	.word	0x00008711

00006a0c <handle_tx_end_irq>:
    6a0c:	b510      	push	{r4, lr}
    6a0e:	2800      	cmp	r0, #0
    6a10:	d019      	beq.n	6a46 <handle_tx_end_irq+0x3a>
    6a12:	2207      	movs	r2, #7
    6a14:	4b1f      	ldr	r3, [pc, #124]	; (6a94 <handle_tx_end_irq+0x88>)
    6a16:	701a      	strb	r2, [r3, #0]
    6a18:	4b1f      	ldr	r3, [pc, #124]	; (6a98 <handle_tx_end_irq+0x8c>)
    6a1a:	781b      	ldrb	r3, [r3, #0]
    6a1c:	2b00      	cmp	r3, #0
    6a1e:	d007      	beq.n	6a30 <handle_tx_end_irq+0x24>
    6a20:	4b1e      	ldr	r3, [pc, #120]	; (6a9c <handle_tx_end_irq+0x90>)
    6a22:	781b      	ldrb	r3, [r3, #0]
    6a24:	2b00      	cmp	r3, #0
    6a26:	d003      	beq.n	6a30 <handle_tx_end_irq+0x24>
    6a28:	4b1a      	ldr	r3, [pc, #104]	; (6a94 <handle_tx_end_irq+0x88>)
    6a2a:	781b      	ldrb	r3, [r3, #0]
    6a2c:	2b05      	cmp	r3, #5
    6a2e:	d012      	beq.n	6a56 <handle_tx_end_irq+0x4a>
    6a30:	2202      	movs	r2, #2
    6a32:	4b1b      	ldr	r3, [pc, #108]	; (6aa0 <handle_tx_end_irq+0x94>)
    6a34:	701a      	strb	r2, [r3, #0]
    6a36:	4b1b      	ldr	r3, [pc, #108]	; (6aa4 <handle_tx_end_irq+0x98>)
    6a38:	681b      	ldr	r3, [r3, #0]
    6a3a:	2b00      	cmp	r3, #0
    6a3c:	d022      	beq.n	6a84 <handle_tx_end_irq+0x78>
    6a3e:	2016      	movs	r0, #22
    6a40:	4b19      	ldr	r3, [pc, #100]	; (6aa8 <handle_tx_end_irq+0x9c>)
    6a42:	4798      	blx	r3
    6a44:	bd10      	pop	{r4, pc}
    6a46:	2205      	movs	r2, #5
    6a48:	21e0      	movs	r1, #224	; 0xe0
    6a4a:	2002      	movs	r0, #2
    6a4c:	4b17      	ldr	r3, [pc, #92]	; (6aac <handle_tx_end_irq+0xa0>)
    6a4e:	4798      	blx	r3
    6a50:	4b10      	ldr	r3, [pc, #64]	; (6a94 <handle_tx_end_irq+0x88>)
    6a52:	7018      	strb	r0, [r3, #0]
    6a54:	e7e0      	b.n	6a18 <handle_tx_end_irq+0xc>
    6a56:	4c14      	ldr	r4, [pc, #80]	; (6aa8 <handle_tx_end_irq+0x9c>)
    6a58:	2019      	movs	r0, #25
    6a5a:	47a0      	blx	r4
    6a5c:	2819      	cmp	r0, #25
    6a5e:	d1fb      	bne.n	6a58 <handle_tx_end_irq+0x4c>
    6a60:	4b13      	ldr	r3, [pc, #76]	; (6ab0 <handle_tx_end_irq+0xa4>)
    6a62:	2280      	movs	r2, #128	; 0x80
    6a64:	0352      	lsls	r2, r2, #13
    6a66:	619a      	str	r2, [r3, #24]
    6a68:	46c0      	nop			; (mov r8, r8)
    6a6a:	46c0      	nop			; (mov r8, r8)
    6a6c:	615a      	str	r2, [r3, #20]
    6a6e:	4a0b      	ldr	r2, [pc, #44]	; (6a9c <handle_tx_end_irq+0x90>)
    6a70:	7813      	ldrb	r3, [r2, #0]
    6a72:	3b01      	subs	r3, #1
    6a74:	b2db      	uxtb	r3, r3
    6a76:	7013      	strb	r3, [r2, #0]
    6a78:	2b00      	cmp	r3, #0
    6a7a:	d1dc      	bne.n	6a36 <handle_tx_end_irq+0x2a>
    6a7c:	2200      	movs	r2, #0
    6a7e:	4b06      	ldr	r3, [pc, #24]	; (6a98 <handle_tx_end_irq+0x8c>)
    6a80:	701a      	strb	r2, [r3, #0]
    6a82:	e7d8      	b.n	6a36 <handle_tx_end_irq+0x2a>
    6a84:	2009      	movs	r0, #9
    6a86:	4b08      	ldr	r3, [pc, #32]	; (6aa8 <handle_tx_end_irq+0x9c>)
    6a88:	4798      	blx	r3
    6a8a:	2201      	movs	r2, #1
    6a8c:	4b09      	ldr	r3, [pc, #36]	; (6ab4 <handle_tx_end_irq+0xa8>)
    6a8e:	701a      	strb	r2, [r3, #0]
    6a90:	e7d8      	b.n	6a44 <handle_tx_end_irq+0x38>
    6a92:	46c0      	nop			; (mov r8, r8)
    6a94:	200003ca 	.word	0x200003ca
    6a98:	200003c9 	.word	0x200003c9
    6a9c:	200003c8 	.word	0x200003c8
    6aa0:	20000c21 	.word	0x20000c21
    6aa4:	200003c4 	.word	0x200003c4
    6aa8:	00005e19 	.word	0x00005e19
    6aac:	00006f3d 	.word	0x00006f3d
    6ab0:	41004400 	.word	0x41004400
    6ab4:	20000be4 	.word	0x20000be4

00006ab8 <tfa_pib_set>:
    6ab8:	b510      	push	{r4, lr}
    6aba:	2800      	cmp	r0, #0
    6abc:	d001      	beq.n	6ac2 <tfa_pib_set+0xa>
    6abe:	20f4      	movs	r0, #244	; 0xf4
    6ac0:	bd10      	pop	{r4, pc}
    6ac2:	2000      	movs	r0, #0
    6ac4:	5608      	ldrsb	r0, [r1, r0]
    6ac6:	0003      	movs	r3, r0
    6ac8:	3330      	adds	r3, #48	; 0x30
    6aca:	db0a      	blt.n	6ae2 <tfa_pib_set+0x2a>
    6acc:	22cf      	movs	r2, #207	; 0xcf
    6ace:	4b0d      	ldr	r3, [pc, #52]	; (6b04 <tfa_pib_set+0x4c>)
    6ad0:	701a      	strb	r2, [r3, #0]
    6ad2:	230f      	movs	r3, #15
    6ad4:	2200      	movs	r2, #0
    6ad6:	210f      	movs	r1, #15
    6ad8:	2015      	movs	r0, #21
    6ada:	4c0b      	ldr	r4, [pc, #44]	; (6b08 <tfa_pib_set+0x50>)
    6adc:	47a0      	blx	r4
    6ade:	2000      	movs	r0, #0
    6ae0:	e7ee      	b.n	6ac0 <tfa_pib_set+0x8>
    6ae2:	0003      	movs	r3, r0
    6ae4:	335a      	adds	r3, #90	; 0x5a
    6ae6:	da04      	bge.n	6af2 <tfa_pib_set+0x3a>
    6ae8:	22a5      	movs	r2, #165	; 0xa5
    6aea:	4b06      	ldr	r3, [pc, #24]	; (6b04 <tfa_pib_set+0x4c>)
    6aec:	701a      	strb	r2, [r3, #0]
    6aee:	2300      	movs	r3, #0
    6af0:	e7f0      	b.n	6ad4 <tfa_pib_set+0x1c>
    6af2:	4b04      	ldr	r3, [pc, #16]	; (6b04 <tfa_pib_set+0x4c>)
    6af4:	7018      	strb	r0, [r3, #0]
    6af6:	305b      	adds	r0, #91	; 0x5b
    6af8:	2103      	movs	r1, #3
    6afa:	4b04      	ldr	r3, [pc, #16]	; (6b0c <tfa_pib_set+0x54>)
    6afc:	4798      	blx	r3
    6afe:	3001      	adds	r0, #1
    6b00:	b2c3      	uxtb	r3, r0
    6b02:	e7e7      	b.n	6ad4 <tfa_pib_set+0x1c>
    6b04:	200003cb 	.word	0x200003cb
    6b08:	00006f55 	.word	0x00006f55
    6b0c:	0000893d 	.word	0x0000893d

00006b10 <tfa_init>:
    6b10:	b510      	push	{r4, lr}
    6b12:	4904      	ldr	r1, [pc, #16]	; (6b24 <tfa_init+0x14>)
    6b14:	23a5      	movs	r3, #165	; 0xa5
    6b16:	700b      	strb	r3, [r1, #0]
    6b18:	2000      	movs	r0, #0
    6b1a:	4b03      	ldr	r3, [pc, #12]	; (6b28 <tfa_init+0x18>)
    6b1c:	4798      	blx	r3
    6b1e:	2000      	movs	r0, #0
    6b20:	bd10      	pop	{r4, pc}
    6b22:	46c0      	nop			; (mov r8, r8)
    6b24:	200003cb 	.word	0x200003cb
    6b28:	00006ab9 	.word	0x00006ab9

00006b2c <tmr_read_count>:
    6b2c:	b510      	push	{r4, lr}
    6b2e:	4802      	ldr	r0, [pc, #8]	; (6b38 <tmr_read_count+0xc>)
    6b30:	4b02      	ldr	r3, [pc, #8]	; (6b3c <tmr_read_count+0x10>)
    6b32:	4798      	blx	r3
    6b34:	b280      	uxth	r0, r0
    6b36:	bd10      	pop	{r4, pc}
    6b38:	20000c58 	.word	0x20000c58
    6b3c:	000056b1 	.word	0x000056b1

00006b40 <tmr_disable_cc_interrupt>:
    6b40:	4b03      	ldr	r3, [pc, #12]	; (6b50 <tmr_disable_cc_interrupt+0x10>)
    6b42:	2110      	movs	r1, #16
    6b44:	681a      	ldr	r2, [r3, #0]
    6b46:	7311      	strb	r1, [r2, #12]
    6b48:	7e5a      	ldrb	r2, [r3, #25]
    6b4a:	438a      	bics	r2, r1
    6b4c:	765a      	strb	r2, [r3, #25]
    6b4e:	4770      	bx	lr
    6b50:	20000c58 	.word	0x20000c58

00006b54 <tmr_enable_cc_interrupt>:
    6b54:	b510      	push	{r4, lr}
    6b56:	4c0a      	ldr	r4, [pc, #40]	; (6b80 <tmr_enable_cc_interrupt+0x2c>)
    6b58:	6820      	ldr	r0, [r4, #0]
    6b5a:	4b0a      	ldr	r3, [pc, #40]	; (6b84 <tmr_enable_cc_interrupt+0x30>)
    6b5c:	4798      	blx	r3
    6b5e:	4b0a      	ldr	r3, [pc, #40]	; (6b88 <tmr_enable_cc_interrupt+0x34>)
    6b60:	5c1b      	ldrb	r3, [r3, r0]
    6b62:	221f      	movs	r2, #31
    6b64:	401a      	ands	r2, r3
    6b66:	2301      	movs	r3, #1
    6b68:	4093      	lsls	r3, r2
    6b6a:	4a08      	ldr	r2, [pc, #32]	; (6b8c <tmr_enable_cc_interrupt+0x38>)
    6b6c:	6013      	str	r3, [r2, #0]
    6b6e:	7e63      	ldrb	r3, [r4, #25]
    6b70:	2210      	movs	r2, #16
    6b72:	4313      	orrs	r3, r2
    6b74:	7663      	strb	r3, [r4, #25]
    6b76:	6823      	ldr	r3, [r4, #0]
    6b78:	2210      	movs	r2, #16
    6b7a:	735a      	strb	r2, [r3, #13]
    6b7c:	bd10      	pop	{r4, pc}
    6b7e:	46c0      	nop			; (mov r8, r8)
    6b80:	20000c58 	.word	0x20000c58
    6b84:	0000543d 	.word	0x0000543d
    6b88:	0000ae2c 	.word	0x0000ae2c
    6b8c:	e000e100 	.word	0xe000e100

00006b90 <tmr_write_cmpreg>:
    6b90:	b510      	push	{r4, lr}
    6b92:	0002      	movs	r2, r0
    6b94:	2100      	movs	r1, #0
    6b96:	4802      	ldr	r0, [pc, #8]	; (6ba0 <tmr_write_cmpreg+0x10>)
    6b98:	4b02      	ldr	r3, [pc, #8]	; (6ba4 <tmr_write_cmpreg+0x14>)
    6b9a:	4798      	blx	r3
    6b9c:	bd10      	pop	{r4, pc}
    6b9e:	46c0      	nop			; (mov r8, r8)
    6ba0:	20000c58 	.word	0x20000c58
    6ba4:	000056dd 	.word	0x000056dd

00006ba8 <save_cpu_interrupt>:
    6ba8:	b082      	sub	sp, #8
    6baa:	f3ef 8310 	mrs	r3, PRIMASK
    6bae:	425a      	negs	r2, r3
    6bb0:	4153      	adcs	r3, r2
    6bb2:	9301      	str	r3, [sp, #4]
    6bb4:	b672      	cpsid	i
    6bb6:	f3bf 8f5f 	dmb	sy
    6bba:	2200      	movs	r2, #0
    6bbc:	4b02      	ldr	r3, [pc, #8]	; (6bc8 <save_cpu_interrupt+0x20>)
    6bbe:	701a      	strb	r2, [r3, #0]
    6bc0:	9801      	ldr	r0, [sp, #4]
    6bc2:	b2c0      	uxtb	r0, r0
    6bc4:	b002      	add	sp, #8
    6bc6:	4770      	bx	lr
    6bc8:	2000000c 	.word	0x2000000c

00006bcc <restore_cpu_interrupt>:
    6bcc:	2800      	cmp	r0, #0
    6bce:	d005      	beq.n	6bdc <restore_cpu_interrupt+0x10>
    6bd0:	2201      	movs	r2, #1
    6bd2:	4b03      	ldr	r3, [pc, #12]	; (6be0 <restore_cpu_interrupt+0x14>)
    6bd4:	701a      	strb	r2, [r3, #0]
    6bd6:	f3bf 8f5f 	dmb	sy
    6bda:	b662      	cpsie	i
    6bdc:	4770      	bx	lr
    6bde:	46c0      	nop			; (mov r8, r8)
    6be0:	2000000c 	.word	0x2000000c

00006be4 <AT86RFX_ISR>:
    6be4:	b510      	push	{r4, lr}
    6be6:	2201      	movs	r2, #1
    6be8:	4b03      	ldr	r3, [pc, #12]	; (6bf8 <AT86RFX_ISR+0x14>)
    6bea:	611a      	str	r2, [r3, #16]
    6bec:	4b03      	ldr	r3, [pc, #12]	; (6bfc <AT86RFX_ISR+0x18>)
    6bee:	681b      	ldr	r3, [r3, #0]
    6bf0:	2b00      	cmp	r3, #0
    6bf2:	d000      	beq.n	6bf6 <AT86RFX_ISR+0x12>
    6bf4:	4798      	blx	r3
    6bf6:	bd10      	pop	{r4, pc}
    6bf8:	40001800 	.word	0x40001800
    6bfc:	200003cc 	.word	0x200003cc

00006c00 <trx_spi_init>:
    6c00:	b5f0      	push	{r4, r5, r6, r7, lr}
    6c02:	b085      	sub	sp, #20
    6c04:	4a38      	ldr	r2, [pc, #224]	; (6ce8 <trx_spi_init+0xe8>)
    6c06:	2300      	movs	r3, #0
    6c08:	7053      	strb	r3, [r2, #1]
    6c0a:	7093      	strb	r3, [r2, #2]
    6c0c:	213f      	movs	r1, #63	; 0x3f
    6c0e:	7011      	strb	r1, [r2, #0]
    6c10:	4c36      	ldr	r4, [pc, #216]	; (6cec <trx_spi_init+0xec>)
    6c12:	7021      	strb	r1, [r4, #0]
    6c14:	7063      	strb	r3, [r4, #1]
    6c16:	70a3      	strb	r3, [r4, #2]
    6c18:	2201      	movs	r2, #1
    6c1a:	4669      	mov	r1, sp
    6c1c:	704a      	strb	r2, [r1, #1]
    6c1e:	708b      	strb	r3, [r1, #2]
    6c20:	700a      	strb	r2, [r1, #0]
    6c22:	203f      	movs	r0, #63	; 0x3f
    6c24:	4b32      	ldr	r3, [pc, #200]	; (6cf0 <trx_spi_init+0xf0>)
    6c26:	4798      	blx	r3
    6c28:	7823      	ldrb	r3, [r4, #0]
    6c2a:	09d9      	lsrs	r1, r3, #7
    6c2c:	2200      	movs	r2, #0
    6c2e:	2900      	cmp	r1, #0
    6c30:	d104      	bne.n	6c3c <trx_spi_init+0x3c>
    6c32:	095a      	lsrs	r2, r3, #5
    6c34:	01d2      	lsls	r2, r2, #7
    6c36:	492f      	ldr	r1, [pc, #188]	; (6cf4 <trx_spi_init+0xf4>)
    6c38:	468c      	mov	ip, r1
    6c3a:	4462      	add	r2, ip
    6c3c:	261f      	movs	r6, #31
    6c3e:	4033      	ands	r3, r6
    6c40:	2501      	movs	r5, #1
    6c42:	0029      	movs	r1, r5
    6c44:	4099      	lsls	r1, r3
    6c46:	6191      	str	r1, [r2, #24]
    6c48:	4c2b      	ldr	r4, [pc, #172]	; (6cf8 <trx_spi_init+0xf8>)
    6c4a:	7025      	strb	r5, [r4, #0]
    6c4c:	2300      	movs	r3, #0
    6c4e:	6063      	str	r3, [r4, #4]
    6c50:	60a3      	str	r3, [r4, #8]
    6c52:	7423      	strb	r3, [r4, #16]
    6c54:	7463      	strb	r3, [r4, #17]
    6c56:	74a5      	strb	r5, [r4, #18]
    6c58:	74e5      	strb	r5, [r4, #19]
    6c5a:	7523      	strb	r3, [r4, #20]
    6c5c:	2224      	movs	r2, #36	; 0x24
    6c5e:	54a3      	strb	r3, [r4, r2]
    6c60:	0020      	movs	r0, r4
    6c62:	3018      	adds	r0, #24
    6c64:	3a18      	subs	r2, #24
    6c66:	2100      	movs	r1, #0
    6c68:	4b24      	ldr	r3, [pc, #144]	; (6cfc <trx_spi_init+0xfc>)
    6c6a:	4798      	blx	r3
    6c6c:	2380      	movs	r3, #128	; 0x80
    6c6e:	025b      	lsls	r3, r3, #9
    6c70:	60e3      	str	r3, [r4, #12]
    6c72:	4b23      	ldr	r3, [pc, #140]	; (6d00 <trx_spi_init+0x100>)
    6c74:	61a3      	str	r3, [r4, #24]
    6c76:	4b23      	ldr	r3, [pc, #140]	; (6d04 <trx_spi_init+0x104>)
    6c78:	62a3      	str	r3, [r4, #40]	; 0x28
    6c7a:	2301      	movs	r3, #1
    6c7c:	425b      	negs	r3, r3
    6c7e:	62e3      	str	r3, [r4, #44]	; 0x2c
    6c80:	4b21      	ldr	r3, [pc, #132]	; (6d08 <trx_spi_init+0x108>)
    6c82:	6323      	str	r3, [r4, #48]	; 0x30
    6c84:	4b21      	ldr	r3, [pc, #132]	; (6d0c <trx_spi_init+0x10c>)
    6c86:	6363      	str	r3, [r4, #52]	; 0x34
    6c88:	4f21      	ldr	r7, [pc, #132]	; (6d10 <trx_spi_init+0x110>)
    6c8a:	0022      	movs	r2, r4
    6c8c:	4921      	ldr	r1, [pc, #132]	; (6d14 <trx_spi_init+0x114>)
    6c8e:	0038      	movs	r0, r7
    6c90:	4b21      	ldr	r3, [pc, #132]	; (6d18 <trx_spi_init+0x118>)
    6c92:	4798      	blx	r3
    6c94:	683c      	ldr	r4, [r7, #0]
    6c96:	0020      	movs	r0, r4
    6c98:	4b20      	ldr	r3, [pc, #128]	; (6d1c <trx_spi_init+0x11c>)
    6c9a:	4798      	blx	r3
    6c9c:	4006      	ands	r6, r0
    6c9e:	40b5      	lsls	r5, r6
    6ca0:	4b1f      	ldr	r3, [pc, #124]	; (6d20 <trx_spi_init+0x120>)
    6ca2:	601d      	str	r5, [r3, #0]
    6ca4:	683a      	ldr	r2, [r7, #0]
    6ca6:	69d3      	ldr	r3, [r2, #28]
    6ca8:	2b00      	cmp	r3, #0
    6caa:	d1fc      	bne.n	6ca6 <trx_spi_init+0xa6>
    6cac:	6823      	ldr	r3, [r4, #0]
    6cae:	2502      	movs	r5, #2
    6cb0:	432b      	orrs	r3, r5
    6cb2:	6023      	str	r3, [r4, #0]
    6cb4:	ac01      	add	r4, sp, #4
    6cb6:	0020      	movs	r0, r4
    6cb8:	4b1a      	ldr	r3, [pc, #104]	; (6d24 <trx_spi_init+0x124>)
    6cba:	4798      	blx	r3
    6cbc:	2320      	movs	r3, #32
    6cbe:	9301      	str	r3, [sp, #4]
    6cc0:	2380      	movs	r3, #128	; 0x80
    6cc2:	039b      	lsls	r3, r3, #14
    6cc4:	6063      	str	r3, [r4, #4]
    6cc6:	7225      	strb	r5, [r4, #8]
    6cc8:	2301      	movs	r3, #1
    6cca:	7263      	strb	r3, [r4, #9]
    6ccc:	2200      	movs	r2, #0
    6cce:	72a2      	strb	r2, [r4, #10]
    6cd0:	72e3      	strb	r3, [r4, #11]
    6cd2:	0021      	movs	r1, r4
    6cd4:	2000      	movs	r0, #0
    6cd6:	4b14      	ldr	r3, [pc, #80]	; (6d28 <trx_spi_init+0x128>)
    6cd8:	4798      	blx	r3
    6cda:	2200      	movs	r2, #0
    6cdc:	2100      	movs	r1, #0
    6cde:	4813      	ldr	r0, [pc, #76]	; (6d2c <trx_spi_init+0x12c>)
    6ce0:	4b13      	ldr	r3, [pc, #76]	; (6d30 <trx_spi_init+0x130>)
    6ce2:	4798      	blx	r3
    6ce4:	b005      	add	sp, #20
    6ce6:	bdf0      	pop	{r4, r5, r6, r7, pc}
    6ce8:	20000c78 	.word	0x20000c78
    6cec:	20000c7c 	.word	0x20000c7c
    6cf0:	000042f1 	.word	0x000042f1
    6cf4:	41004400 	.word	0x41004400
    6cf8:	20000c80 	.word	0x20000c80
    6cfc:	00008bc3 	.word	0x00008bc3
    6d00:	004c4b40 	.word	0x004c4b40
    6d04:	00530005 	.word	0x00530005
    6d08:	003e0005 	.word	0x003e0005
    6d0c:	00520005 	.word	0x00520005
    6d10:	20000cb8 	.word	0x20000cb8
    6d14:	42001800 	.word	0x42001800
    6d18:	00004759 	.word	0x00004759
    6d1c:	000046c9 	.word	0x000046c9
    6d20:	e000e100 	.word	0xe000e100
    6d24:	00004265 	.word	0x00004265
    6d28:	00004279 	.word	0x00004279
    6d2c:	00006be5 	.word	0x00006be5
    6d30:	00004121 	.word	0x00004121

00006d34 <trx_reg_read>:
    6d34:	b570      	push	{r4, r5, r6, lr}
    6d36:	b082      	sub	sp, #8
    6d38:	0005      	movs	r5, r0
    6d3a:	f3ef 8310 	mrs	r3, PRIMASK
    6d3e:	425a      	negs	r2, r3
    6d40:	4153      	adcs	r3, r2
    6d42:	9301      	str	r3, [sp, #4]
    6d44:	b672      	cpsid	i
    6d46:	f3bf 8f5f 	dmb	sy
    6d4a:	2200      	movs	r2, #0
    6d4c:	4b33      	ldr	r3, [pc, #204]	; (6e1c <trx_reg_read+0xe8>)
    6d4e:	701a      	strb	r2, [r3, #0]
    6d50:	9c01      	ldr	r4, [sp, #4]
    6d52:	4e33      	ldr	r6, [pc, #204]	; (6e20 <trx_reg_read+0xec>)
    6d54:	3201      	adds	r2, #1
    6d56:	4933      	ldr	r1, [pc, #204]	; (6e24 <trx_reg_read+0xf0>)
    6d58:	0030      	movs	r0, r6
    6d5a:	4b33      	ldr	r3, [pc, #204]	; (6e28 <trx_reg_read+0xf4>)
    6d5c:	4798      	blx	r3
    6d5e:	6833      	ldr	r3, [r6, #0]
    6d60:	2101      	movs	r1, #1
    6d62:	7e1a      	ldrb	r2, [r3, #24]
    6d64:	420a      	tst	r2, r1
    6d66:	d0fc      	beq.n	6d62 <trx_reg_read+0x2e>
    6d68:	7e1a      	ldrb	r2, [r3, #24]
    6d6a:	07d2      	lsls	r2, r2, #31
    6d6c:	d502      	bpl.n	6d74 <trx_reg_read+0x40>
    6d6e:	2280      	movs	r2, #128	; 0x80
    6d70:	4315      	orrs	r5, r2
    6d72:	629d      	str	r5, [r3, #40]	; 0x28
    6d74:	2102      	movs	r1, #2
    6d76:	7e1a      	ldrb	r2, [r3, #24]
    6d78:	420a      	tst	r2, r1
    6d7a:	d0fc      	beq.n	6d76 <trx_reg_read+0x42>
    6d7c:	2104      	movs	r1, #4
    6d7e:	7e1a      	ldrb	r2, [r3, #24]
    6d80:	420a      	tst	r2, r1
    6d82:	d0fc      	beq.n	6d7e <trx_reg_read+0x4a>
    6d84:	7e1a      	ldrb	r2, [r3, #24]
    6d86:	0752      	lsls	r2, r2, #29
    6d88:	d50c      	bpl.n	6da4 <trx_reg_read+0x70>
    6d8a:	8b5a      	ldrh	r2, [r3, #26]
    6d8c:	0752      	lsls	r2, r2, #29
    6d8e:	d501      	bpl.n	6d94 <trx_reg_read+0x60>
    6d90:	2204      	movs	r2, #4
    6d92:	835a      	strh	r2, [r3, #26]
    6d94:	4a22      	ldr	r2, [pc, #136]	; (6e20 <trx_reg_read+0xec>)
    6d96:	7992      	ldrb	r2, [r2, #6]
    6d98:	2a01      	cmp	r2, #1
    6d9a:	d034      	beq.n	6e06 <trx_reg_read+0xd2>
    6d9c:	6a9a      	ldr	r2, [r3, #40]	; 0x28
    6d9e:	b2d2      	uxtb	r2, r2
    6da0:	4922      	ldr	r1, [pc, #136]	; (6e2c <trx_reg_read+0xf8>)
    6da2:	800a      	strh	r2, [r1, #0]
    6da4:	2101      	movs	r1, #1
    6da6:	7e1a      	ldrb	r2, [r3, #24]
    6da8:	420a      	tst	r2, r1
    6daa:	d0fc      	beq.n	6da6 <trx_reg_read+0x72>
    6dac:	7e1a      	ldrb	r2, [r3, #24]
    6dae:	07d2      	lsls	r2, r2, #31
    6db0:	d501      	bpl.n	6db6 <trx_reg_read+0x82>
    6db2:	2200      	movs	r2, #0
    6db4:	629a      	str	r2, [r3, #40]	; 0x28
    6db6:	2102      	movs	r1, #2
    6db8:	7e1a      	ldrb	r2, [r3, #24]
    6dba:	420a      	tst	r2, r1
    6dbc:	d0fc      	beq.n	6db8 <trx_reg_read+0x84>
    6dbe:	2104      	movs	r1, #4
    6dc0:	7e1a      	ldrb	r2, [r3, #24]
    6dc2:	420a      	tst	r2, r1
    6dc4:	d0fc      	beq.n	6dc0 <trx_reg_read+0x8c>
    6dc6:	7e1a      	ldrb	r2, [r3, #24]
    6dc8:	2500      	movs	r5, #0
    6dca:	0752      	lsls	r2, r2, #29
    6dcc:	d50a      	bpl.n	6de4 <trx_reg_read+0xb0>
    6dce:	8b5a      	ldrh	r2, [r3, #26]
    6dd0:	0752      	lsls	r2, r2, #29
    6dd2:	d501      	bpl.n	6dd8 <trx_reg_read+0xa4>
    6dd4:	2204      	movs	r2, #4
    6dd6:	835a      	strh	r2, [r3, #26]
    6dd8:	4a11      	ldr	r2, [pc, #68]	; (6e20 <trx_reg_read+0xec>)
    6dda:	7992      	ldrb	r2, [r2, #6]
    6ddc:	2a01      	cmp	r2, #1
    6dde:	d018      	beq.n	6e12 <trx_reg_read+0xde>
    6de0:	6a9d      	ldr	r5, [r3, #40]	; 0x28
    6de2:	b2ed      	uxtb	r5, r5
    6de4:	2200      	movs	r2, #0
    6de6:	490f      	ldr	r1, [pc, #60]	; (6e24 <trx_reg_read+0xf0>)
    6de8:	480d      	ldr	r0, [pc, #52]	; (6e20 <trx_reg_read+0xec>)
    6dea:	4b0f      	ldr	r3, [pc, #60]	; (6e28 <trx_reg_read+0xf4>)
    6dec:	4798      	blx	r3
    6dee:	23ff      	movs	r3, #255	; 0xff
    6df0:	4223      	tst	r3, r4
    6df2:	d005      	beq.n	6e00 <trx_reg_read+0xcc>
    6df4:	2201      	movs	r2, #1
    6df6:	4b09      	ldr	r3, [pc, #36]	; (6e1c <trx_reg_read+0xe8>)
    6df8:	701a      	strb	r2, [r3, #0]
    6dfa:	f3bf 8f5f 	dmb	sy
    6dfe:	b662      	cpsie	i
    6e00:	b2e8      	uxtb	r0, r5
    6e02:	b002      	add	sp, #8
    6e04:	bd70      	pop	{r4, r5, r6, pc}
    6e06:	6a9a      	ldr	r2, [r3, #40]	; 0x28
    6e08:	05d2      	lsls	r2, r2, #23
    6e0a:	0dd2      	lsrs	r2, r2, #23
    6e0c:	4907      	ldr	r1, [pc, #28]	; (6e2c <trx_reg_read+0xf8>)
    6e0e:	800a      	strh	r2, [r1, #0]
    6e10:	e7c8      	b.n	6da4 <trx_reg_read+0x70>
    6e12:	6a9d      	ldr	r5, [r3, #40]	; 0x28
    6e14:	05ed      	lsls	r5, r5, #23
    6e16:	0ded      	lsrs	r5, r5, #23
    6e18:	e7e4      	b.n	6de4 <trx_reg_read+0xb0>
    6e1a:	46c0      	nop			; (mov r8, r8)
    6e1c:	2000000c 	.word	0x2000000c
    6e20:	20000cb8 	.word	0x20000cb8
    6e24:	20000c7c 	.word	0x20000c7c
    6e28:	00004931 	.word	0x00004931
    6e2c:	20000c74 	.word	0x20000c74

00006e30 <trx_reg_write>:
    6e30:	b5f0      	push	{r4, r5, r6, r7, lr}
    6e32:	b083      	sub	sp, #12
    6e34:	0006      	movs	r6, r0
    6e36:	000c      	movs	r4, r1
    6e38:	f3ef 8310 	mrs	r3, PRIMASK
    6e3c:	425a      	negs	r2, r3
    6e3e:	4153      	adcs	r3, r2
    6e40:	9301      	str	r3, [sp, #4]
    6e42:	b672      	cpsid	i
    6e44:	f3bf 8f5f 	dmb	sy
    6e48:	2200      	movs	r2, #0
    6e4a:	4b34      	ldr	r3, [pc, #208]	; (6f1c <trx_reg_write+0xec>)
    6e4c:	701a      	strb	r2, [r3, #0]
    6e4e:	9d01      	ldr	r5, [sp, #4]
    6e50:	4f33      	ldr	r7, [pc, #204]	; (6f20 <trx_reg_write+0xf0>)
    6e52:	3201      	adds	r2, #1
    6e54:	4933      	ldr	r1, [pc, #204]	; (6f24 <trx_reg_write+0xf4>)
    6e56:	0038      	movs	r0, r7
    6e58:	4b33      	ldr	r3, [pc, #204]	; (6f28 <trx_reg_write+0xf8>)
    6e5a:	4798      	blx	r3
    6e5c:	683b      	ldr	r3, [r7, #0]
    6e5e:	2101      	movs	r1, #1
    6e60:	7e1a      	ldrb	r2, [r3, #24]
    6e62:	420a      	tst	r2, r1
    6e64:	d0fc      	beq.n	6e60 <trx_reg_write+0x30>
    6e66:	7e1a      	ldrb	r2, [r3, #24]
    6e68:	07d2      	lsls	r2, r2, #31
    6e6a:	d502      	bpl.n	6e72 <trx_reg_write+0x42>
    6e6c:	22c0      	movs	r2, #192	; 0xc0
    6e6e:	4316      	orrs	r6, r2
    6e70:	629e      	str	r6, [r3, #40]	; 0x28
    6e72:	2102      	movs	r1, #2
    6e74:	7e1a      	ldrb	r2, [r3, #24]
    6e76:	420a      	tst	r2, r1
    6e78:	d0fc      	beq.n	6e74 <trx_reg_write+0x44>
    6e7a:	2104      	movs	r1, #4
    6e7c:	7e1a      	ldrb	r2, [r3, #24]
    6e7e:	420a      	tst	r2, r1
    6e80:	d0fc      	beq.n	6e7c <trx_reg_write+0x4c>
    6e82:	7e1a      	ldrb	r2, [r3, #24]
    6e84:	0752      	lsls	r2, r2, #29
    6e86:	d50c      	bpl.n	6ea2 <trx_reg_write+0x72>
    6e88:	8b5a      	ldrh	r2, [r3, #26]
    6e8a:	0752      	lsls	r2, r2, #29
    6e8c:	d501      	bpl.n	6e92 <trx_reg_write+0x62>
    6e8e:	2204      	movs	r2, #4
    6e90:	835a      	strh	r2, [r3, #26]
    6e92:	4a23      	ldr	r2, [pc, #140]	; (6f20 <trx_reg_write+0xf0>)
    6e94:	7992      	ldrb	r2, [r2, #6]
    6e96:	2a01      	cmp	r2, #1
    6e98:	d033      	beq.n	6f02 <trx_reg_write+0xd2>
    6e9a:	6a9a      	ldr	r2, [r3, #40]	; 0x28
    6e9c:	b2d2      	uxtb	r2, r2
    6e9e:	4923      	ldr	r1, [pc, #140]	; (6f2c <trx_reg_write+0xfc>)
    6ea0:	800a      	strh	r2, [r1, #0]
    6ea2:	2101      	movs	r1, #1
    6ea4:	7e1a      	ldrb	r2, [r3, #24]
    6ea6:	420a      	tst	r2, r1
    6ea8:	d0fc      	beq.n	6ea4 <trx_reg_write+0x74>
    6eaa:	7e1a      	ldrb	r2, [r3, #24]
    6eac:	07d2      	lsls	r2, r2, #31
    6eae:	d500      	bpl.n	6eb2 <trx_reg_write+0x82>
    6eb0:	629c      	str	r4, [r3, #40]	; 0x28
    6eb2:	2102      	movs	r1, #2
    6eb4:	7e1a      	ldrb	r2, [r3, #24]
    6eb6:	420a      	tst	r2, r1
    6eb8:	d0fc      	beq.n	6eb4 <trx_reg_write+0x84>
    6eba:	2104      	movs	r1, #4
    6ebc:	7e1a      	ldrb	r2, [r3, #24]
    6ebe:	420a      	tst	r2, r1
    6ec0:	d0fc      	beq.n	6ebc <trx_reg_write+0x8c>
    6ec2:	7e1a      	ldrb	r2, [r3, #24]
    6ec4:	0752      	lsls	r2, r2, #29
    6ec6:	d50c      	bpl.n	6ee2 <trx_reg_write+0xb2>
    6ec8:	8b5a      	ldrh	r2, [r3, #26]
    6eca:	0752      	lsls	r2, r2, #29
    6ecc:	d501      	bpl.n	6ed2 <trx_reg_write+0xa2>
    6ece:	2204      	movs	r2, #4
    6ed0:	835a      	strh	r2, [r3, #26]
    6ed2:	4a13      	ldr	r2, [pc, #76]	; (6f20 <trx_reg_write+0xf0>)
    6ed4:	7992      	ldrb	r2, [r2, #6]
    6ed6:	2a01      	cmp	r2, #1
    6ed8:	d019      	beq.n	6f0e <trx_reg_write+0xde>
    6eda:	6a9b      	ldr	r3, [r3, #40]	; 0x28
    6edc:	b2db      	uxtb	r3, r3
    6ede:	4a13      	ldr	r2, [pc, #76]	; (6f2c <trx_reg_write+0xfc>)
    6ee0:	8013      	strh	r3, [r2, #0]
    6ee2:	2200      	movs	r2, #0
    6ee4:	490f      	ldr	r1, [pc, #60]	; (6f24 <trx_reg_write+0xf4>)
    6ee6:	480e      	ldr	r0, [pc, #56]	; (6f20 <trx_reg_write+0xf0>)
    6ee8:	4b0f      	ldr	r3, [pc, #60]	; (6f28 <trx_reg_write+0xf8>)
    6eea:	4798      	blx	r3
    6eec:	23ff      	movs	r3, #255	; 0xff
    6eee:	422b      	tst	r3, r5
    6ef0:	d005      	beq.n	6efe <trx_reg_write+0xce>
    6ef2:	2201      	movs	r2, #1
    6ef4:	4b09      	ldr	r3, [pc, #36]	; (6f1c <trx_reg_write+0xec>)
    6ef6:	701a      	strb	r2, [r3, #0]
    6ef8:	f3bf 8f5f 	dmb	sy
    6efc:	b662      	cpsie	i
    6efe:	b003      	add	sp, #12
    6f00:	bdf0      	pop	{r4, r5, r6, r7, pc}
    6f02:	6a9a      	ldr	r2, [r3, #40]	; 0x28
    6f04:	05d2      	lsls	r2, r2, #23
    6f06:	0dd2      	lsrs	r2, r2, #23
    6f08:	4908      	ldr	r1, [pc, #32]	; (6f2c <trx_reg_write+0xfc>)
    6f0a:	800a      	strh	r2, [r1, #0]
    6f0c:	e7c9      	b.n	6ea2 <trx_reg_write+0x72>
    6f0e:	6a9b      	ldr	r3, [r3, #40]	; 0x28
    6f10:	05db      	lsls	r3, r3, #23
    6f12:	0ddb      	lsrs	r3, r3, #23
    6f14:	4a05      	ldr	r2, [pc, #20]	; (6f2c <trx_reg_write+0xfc>)
    6f16:	8013      	strh	r3, [r2, #0]
    6f18:	e7e3      	b.n	6ee2 <trx_reg_write+0xb2>
    6f1a:	46c0      	nop			; (mov r8, r8)
    6f1c:	2000000c 	.word	0x2000000c
    6f20:	20000cb8 	.word	0x20000cb8
    6f24:	20000c7c 	.word	0x20000c7c
    6f28:	00004931 	.word	0x00004931
    6f2c:	20000c74 	.word	0x20000c74

00006f30 <trx_irq_init>:
    6f30:	4b01      	ldr	r3, [pc, #4]	; (6f38 <trx_irq_init+0x8>)
    6f32:	6018      	str	r0, [r3, #0]
    6f34:	4770      	bx	lr
    6f36:	46c0      	nop			; (mov r8, r8)
    6f38:	200003cc 	.word	0x200003cc

00006f3c <trx_bit_read>:
    6f3c:	b570      	push	{r4, r5, r6, lr}
    6f3e:	000c      	movs	r4, r1
    6f40:	0015      	movs	r5, r2
    6f42:	4b03      	ldr	r3, [pc, #12]	; (6f50 <trx_bit_read+0x14>)
    6f44:	4798      	blx	r3
    6f46:	4004      	ands	r4, r0
    6f48:	412c      	asrs	r4, r5
    6f4a:	b2e0      	uxtb	r0, r4
    6f4c:	bd70      	pop	{r4, r5, r6, pc}
    6f4e:	46c0      	nop			; (mov r8, r8)
    6f50:	00006d35 	.word	0x00006d35

00006f54 <trx_bit_write>:
    6f54:	b5f8      	push	{r3, r4, r5, r6, r7, lr}
    6f56:	0004      	movs	r4, r0
    6f58:	000e      	movs	r6, r1
    6f5a:	0017      	movs	r7, r2
    6f5c:	001d      	movs	r5, r3
    6f5e:	4b05      	ldr	r3, [pc, #20]	; (6f74 <trx_bit_write+0x20>)
    6f60:	4798      	blx	r3
    6f62:	43b0      	bics	r0, r6
    6f64:	40bd      	lsls	r5, r7
    6f66:	4035      	ands	r5, r6
    6f68:	b2c1      	uxtb	r1, r0
    6f6a:	4329      	orrs	r1, r5
    6f6c:	0020      	movs	r0, r4
    6f6e:	4b02      	ldr	r3, [pc, #8]	; (6f78 <trx_bit_write+0x24>)
    6f70:	4798      	blx	r3
    6f72:	bdf8      	pop	{r3, r4, r5, r6, r7, pc}
    6f74:	00006d35 	.word	0x00006d35
    6f78:	00006e31 	.word	0x00006e31

00006f7c <trx_frame_read>:
    6f7c:	b5f0      	push	{r4, r5, r6, r7, lr}
    6f7e:	46d6      	mov	lr, sl
    6f80:	464f      	mov	r7, r9
    6f82:	4646      	mov	r6, r8
    6f84:	b5c0      	push	{r6, r7, lr}
    6f86:	b082      	sub	sp, #8
    6f88:	0005      	movs	r5, r0
    6f8a:	000c      	movs	r4, r1
    6f8c:	f3ef 8310 	mrs	r3, PRIMASK
    6f90:	425a      	negs	r2, r3
    6f92:	4153      	adcs	r3, r2
    6f94:	9301      	str	r3, [sp, #4]
    6f96:	b672      	cpsid	i
    6f98:	f3bf 8f5f 	dmb	sy
    6f9c:	2200      	movs	r2, #0
    6f9e:	4b3e      	ldr	r3, [pc, #248]	; (7098 <trx_frame_read+0x11c>)
    6fa0:	701a      	strb	r2, [r3, #0]
    6fa2:	9b01      	ldr	r3, [sp, #4]
    6fa4:	4698      	mov	r8, r3
    6fa6:	4f3d      	ldr	r7, [pc, #244]	; (709c <trx_frame_read+0x120>)
    6fa8:	3201      	adds	r2, #1
    6faa:	493d      	ldr	r1, [pc, #244]	; (70a0 <trx_frame_read+0x124>)
    6fac:	0038      	movs	r0, r7
    6fae:	4b3d      	ldr	r3, [pc, #244]	; (70a4 <trx_frame_read+0x128>)
    6fb0:	4798      	blx	r3
    6fb2:	683b      	ldr	r3, [r7, #0]
    6fb4:	2101      	movs	r1, #1
    6fb6:	7e1a      	ldrb	r2, [r3, #24]
    6fb8:	420a      	tst	r2, r1
    6fba:	d0fc      	beq.n	6fb6 <trx_frame_read+0x3a>
    6fbc:	7e1a      	ldrb	r2, [r3, #24]
    6fbe:	07d2      	lsls	r2, r2, #31
    6fc0:	d501      	bpl.n	6fc6 <trx_frame_read+0x4a>
    6fc2:	2220      	movs	r2, #32
    6fc4:	629a      	str	r2, [r3, #40]	; 0x28
    6fc6:	2102      	movs	r1, #2
    6fc8:	7e1a      	ldrb	r2, [r3, #24]
    6fca:	420a      	tst	r2, r1
    6fcc:	d0fc      	beq.n	6fc8 <trx_frame_read+0x4c>
    6fce:	2104      	movs	r1, #4
    6fd0:	7e1a      	ldrb	r2, [r3, #24]
    6fd2:	420a      	tst	r2, r1
    6fd4:	d0fc      	beq.n	6fd0 <trx_frame_read+0x54>
    6fd6:	7e1a      	ldrb	r2, [r3, #24]
    6fd8:	0752      	lsls	r2, r2, #29
    6fda:	d50c      	bpl.n	6ff6 <trx_frame_read+0x7a>
    6fdc:	8b5a      	ldrh	r2, [r3, #26]
    6fde:	0752      	lsls	r2, r2, #29
    6fe0:	d501      	bpl.n	6fe6 <trx_frame_read+0x6a>
    6fe2:	2204      	movs	r2, #4
    6fe4:	835a      	strh	r2, [r3, #26]
    6fe6:	4a2d      	ldr	r2, [pc, #180]	; (709c <trx_frame_read+0x120>)
    6fe8:	7992      	ldrb	r2, [r2, #6]
    6fea:	2a01      	cmp	r2, #1
    6fec:	d013      	beq.n	7016 <trx_frame_read+0x9a>
    6fee:	6a9b      	ldr	r3, [r3, #40]	; 0x28
    6ff0:	b2db      	uxtb	r3, r3
    6ff2:	4a2d      	ldr	r2, [pc, #180]	; (70a8 <trx_frame_read+0x12c>)
    6ff4:	8013      	strh	r3, [r2, #0]
    6ff6:	1e63      	subs	r3, r4, #1
    6ff8:	b2db      	uxtb	r3, r3
    6ffa:	2c00      	cmp	r4, #0
    6ffc:	d036      	beq.n	706c <trx_frame_read+0xf0>
    6ffe:	3301      	adds	r3, #1
    7000:	469c      	mov	ip, r3
    7002:	44ac      	add	ip, r5
    7004:	2720      	movs	r7, #32
    7006:	4e25      	ldr	r6, [pc, #148]	; (709c <trx_frame_read+0x120>)
    7008:	2001      	movs	r0, #1
    700a:	2300      	movs	r3, #0
    700c:	469a      	mov	sl, r3
    700e:	2402      	movs	r4, #2
    7010:	2104      	movs	r1, #4
    7012:	46b1      	mov	r9, r6
    7014:	e00f      	b.n	7036 <trx_frame_read+0xba>
    7016:	6a9b      	ldr	r3, [r3, #40]	; 0x28
    7018:	05db      	lsls	r3, r3, #23
    701a:	0ddb      	lsrs	r3, r3, #23
    701c:	4a22      	ldr	r2, [pc, #136]	; (70a8 <trx_frame_read+0x12c>)
    701e:	8013      	strh	r3, [r2, #0]
    7020:	e7e9      	b.n	6ff6 <trx_frame_read+0x7a>
    7022:	464a      	mov	r2, r9
    7024:	7992      	ldrb	r2, [r2, #6]
    7026:	2a01      	cmp	r2, #1
    7028:	d01c      	beq.n	7064 <trx_frame_read+0xe8>
    702a:	6a9f      	ldr	r7, [r3, #40]	; 0x28
    702c:	b2ff      	uxtb	r7, r7
    702e:	702f      	strb	r7, [r5, #0]
    7030:	3501      	adds	r5, #1
    7032:	4565      	cmp	r5, ip
    7034:	d01a      	beq.n	706c <trx_frame_read+0xf0>
    7036:	6833      	ldr	r3, [r6, #0]
    7038:	7e1a      	ldrb	r2, [r3, #24]
    703a:	4202      	tst	r2, r0
    703c:	d0fc      	beq.n	7038 <trx_frame_read+0xbc>
    703e:	7e1a      	ldrb	r2, [r3, #24]
    7040:	4202      	tst	r2, r0
    7042:	d001      	beq.n	7048 <trx_frame_read+0xcc>
    7044:	4652      	mov	r2, sl
    7046:	629a      	str	r2, [r3, #40]	; 0x28
    7048:	7e1a      	ldrb	r2, [r3, #24]
    704a:	4222      	tst	r2, r4
    704c:	d0fc      	beq.n	7048 <trx_frame_read+0xcc>
    704e:	7e1a      	ldrb	r2, [r3, #24]
    7050:	420a      	tst	r2, r1
    7052:	d0fc      	beq.n	704e <trx_frame_read+0xd2>
    7054:	7e1a      	ldrb	r2, [r3, #24]
    7056:	420a      	tst	r2, r1
    7058:	d0e9      	beq.n	702e <trx_frame_read+0xb2>
    705a:	8b5a      	ldrh	r2, [r3, #26]
    705c:	420a      	tst	r2, r1
    705e:	d0e0      	beq.n	7022 <trx_frame_read+0xa6>
    7060:	8359      	strh	r1, [r3, #26]
    7062:	e7de      	b.n	7022 <trx_frame_read+0xa6>
    7064:	6a9f      	ldr	r7, [r3, #40]	; 0x28
    7066:	05ff      	lsls	r7, r7, #23
    7068:	0dff      	lsrs	r7, r7, #23
    706a:	e7e0      	b.n	702e <trx_frame_read+0xb2>
    706c:	2200      	movs	r2, #0
    706e:	490c      	ldr	r1, [pc, #48]	; (70a0 <trx_frame_read+0x124>)
    7070:	480a      	ldr	r0, [pc, #40]	; (709c <trx_frame_read+0x120>)
    7072:	4b0c      	ldr	r3, [pc, #48]	; (70a4 <trx_frame_read+0x128>)
    7074:	4798      	blx	r3
    7076:	23ff      	movs	r3, #255	; 0xff
    7078:	4642      	mov	r2, r8
    707a:	4213      	tst	r3, r2
    707c:	d005      	beq.n	708a <trx_frame_read+0x10e>
    707e:	2201      	movs	r2, #1
    7080:	4b05      	ldr	r3, [pc, #20]	; (7098 <trx_frame_read+0x11c>)
    7082:	701a      	strb	r2, [r3, #0]
    7084:	f3bf 8f5f 	dmb	sy
    7088:	b662      	cpsie	i
    708a:	b002      	add	sp, #8
    708c:	bc1c      	pop	{r2, r3, r4}
    708e:	4690      	mov	r8, r2
    7090:	4699      	mov	r9, r3
    7092:	46a2      	mov	sl, r4
    7094:	bdf0      	pop	{r4, r5, r6, r7, pc}
    7096:	46c0      	nop			; (mov r8, r8)
    7098:	2000000c 	.word	0x2000000c
    709c:	20000cb8 	.word	0x20000cb8
    70a0:	20000c7c 	.word	0x20000c7c
    70a4:	00004931 	.word	0x00004931
    70a8:	20000c74 	.word	0x20000c74

000070ac <tc_isr>:
}

// [callback_funcs]
void tc_isr(struct tc_module *const module_inst)
{	
	clock_count_timer++;
    70ac:	4b5f      	ldr	r3, [pc, #380]	; (722c <tc_isr+0x180>)
    70ae:	881b      	ldrh	r3, [r3, #0]
    70b0:	3301      	adds	r3, #1
    70b2:	b29b      	uxth	r3, r3
	
	// 2ms x 50 = 100ms
	if(clock_count_timer>=50)
    70b4:	2b31      	cmp	r3, #49	; 0x31
    70b6:	d923      	bls.n	7100 <tc_isr+0x54>
	{
		clock_count_timer=0;
    70b8:	2200      	movs	r2, #0
    70ba:	4b5c      	ldr	r3, [pc, #368]	; (722c <tc_isr+0x180>)
    70bc:	801a      	strh	r2, [r3, #0]

		if(at_move=='1')
    70be:	4b5c      	ldr	r3, [pc, #368]	; (7230 <tc_isr+0x184>)
    70c0:	781b      	ldrb	r3, [r3, #0]
    70c2:	2b31      	cmp	r3, #49	; 0x31
    70c4:	d11e      	bne.n	7104 <tc_isr+0x58>
		{
			error_count++;
    70c6:	4a5b      	ldr	r2, [pc, #364]	; (7234 <tc_isr+0x188>)
    70c8:	6813      	ldr	r3, [r2, #0]
    70ca:	3301      	adds	r3, #1
    70cc:	6013      	str	r3, [r2, #0]
			//100ms x 100 = 5s
			if(error_count>=50)
    70ce:	2b31      	cmp	r3, #49	; 0x31
    70d0:	d819      	bhi.n	7106 <tc_isr+0x5a>
			{
				error_count=0;
				error_flag=1;
			}
			// 1  
			else if(at_step=='1' && sol_valve[0]=='1')
    70d2:	4b59      	ldr	r3, [pc, #356]	; (7238 <tc_isr+0x18c>)
    70d4:	781b      	ldrb	r3, [r3, #0]
    70d6:	2b31      	cmp	r3, #49	; 0x31
    70d8:	d01c      	beq.n	7114 <tc_isr+0x68>
			{
				error_count=0;
				at_move='0';
			}
			// 2  
			else if(at_step=='2' && sol_valve[1]=='1')
    70da:	2b32      	cmp	r3, #50	; 0x32
    70dc:	d025      	beq.n	712a <tc_isr+0x7e>
			{
				error_count=0;
				at_move='0';
			}
			// 3  
			else if(at_step=='3' && sol_valve[2]=='1')
    70de:	2b33      	cmp	r3, #51	; 0x33
    70e0:	d02e      	beq.n	7140 <tc_isr+0x94>
			{
				error_count=0;
				at_move='0';
			}
			// 4  
			else if(at_step=='4' && sol_valve[3]=='1')
    70e2:	2b34      	cmp	r3, #52	; 0x34
    70e4:	d037      	beq.n	7156 <tc_isr+0xaa>
			{
				error_count=0;
				at_move='0';
			}
			// 5  
			else if(at_step=='5' && sol_valve[4]=='1')
    70e6:	2b35      	cmp	r3, #53	; 0x35
    70e8:	d140      	bne.n	716c <tc_isr+0xc0>
    70ea:	4b54      	ldr	r3, [pc, #336]	; (723c <tc_isr+0x190>)
    70ec:	791b      	ldrb	r3, [r3, #4]
    70ee:	2b31      	cmp	r3, #49	; 0x31
    70f0:	d108      	bne.n	7104 <tc_isr+0x58>
			{
				error_count=0;
    70f2:	2200      	movs	r2, #0
    70f4:	4b4f      	ldr	r3, [pc, #316]	; (7234 <tc_isr+0x188>)
    70f6:	601a      	str	r2, [r3, #0]
				at_move='0';
    70f8:	3230      	adds	r2, #48	; 0x30
    70fa:	4b4d      	ldr	r3, [pc, #308]	; (7230 <tc_isr+0x184>)
    70fc:	701a      	strb	r2, [r3, #0]
    70fe:	e001      	b.n	7104 <tc_isr+0x58>
	clock_count_timer++;
    7100:	4a4a      	ldr	r2, [pc, #296]	; (722c <tc_isr+0x180>)
    7102:	8013      	strh	r3, [r2, #0]
				error_count=0;
				at_move='0';
			}
		}
	}
}
    7104:	4770      	bx	lr
				error_count=0;
    7106:	2200      	movs	r2, #0
    7108:	4b4a      	ldr	r3, [pc, #296]	; (7234 <tc_isr+0x188>)
    710a:	601a      	str	r2, [r3, #0]
				error_flag=1;
    710c:	3201      	adds	r2, #1
    710e:	4b4c      	ldr	r3, [pc, #304]	; (7240 <tc_isr+0x194>)
    7110:	701a      	strb	r2, [r3, #0]
    7112:	e7f7      	b.n	7104 <tc_isr+0x58>
			else if(at_step=='1' && sol_valve[0]=='1')
    7114:	4b49      	ldr	r3, [pc, #292]	; (723c <tc_isr+0x190>)
    7116:	781b      	ldrb	r3, [r3, #0]
    7118:	2b31      	cmp	r3, #49	; 0x31
    711a:	d1f3      	bne.n	7104 <tc_isr+0x58>
				error_count=0;
    711c:	2200      	movs	r2, #0
    711e:	4b45      	ldr	r3, [pc, #276]	; (7234 <tc_isr+0x188>)
    7120:	601a      	str	r2, [r3, #0]
				at_move='0';
    7122:	3230      	adds	r2, #48	; 0x30
    7124:	4b42      	ldr	r3, [pc, #264]	; (7230 <tc_isr+0x184>)
    7126:	701a      	strb	r2, [r3, #0]
    7128:	e7ec      	b.n	7104 <tc_isr+0x58>
			else if(at_step=='2' && sol_valve[1]=='1')
    712a:	4b44      	ldr	r3, [pc, #272]	; (723c <tc_isr+0x190>)
    712c:	785b      	ldrb	r3, [r3, #1]
    712e:	2b31      	cmp	r3, #49	; 0x31
    7130:	d1e8      	bne.n	7104 <tc_isr+0x58>
				error_count=0;
    7132:	2200      	movs	r2, #0
    7134:	4b3f      	ldr	r3, [pc, #252]	; (7234 <tc_isr+0x188>)
    7136:	601a      	str	r2, [r3, #0]
				at_move='0';
    7138:	3230      	adds	r2, #48	; 0x30
    713a:	4b3d      	ldr	r3, [pc, #244]	; (7230 <tc_isr+0x184>)
    713c:	701a      	strb	r2, [r3, #0]
    713e:	e7e1      	b.n	7104 <tc_isr+0x58>
			else if(at_step=='3' && sol_valve[2]=='1')
    7140:	4b3e      	ldr	r3, [pc, #248]	; (723c <tc_isr+0x190>)
    7142:	789b      	ldrb	r3, [r3, #2]
    7144:	2b31      	cmp	r3, #49	; 0x31
    7146:	d1dd      	bne.n	7104 <tc_isr+0x58>
				error_count=0;
    7148:	2200      	movs	r2, #0
    714a:	4b3a      	ldr	r3, [pc, #232]	; (7234 <tc_isr+0x188>)
    714c:	601a      	str	r2, [r3, #0]
				at_move='0';
    714e:	3230      	adds	r2, #48	; 0x30
    7150:	4b37      	ldr	r3, [pc, #220]	; (7230 <tc_isr+0x184>)
    7152:	701a      	strb	r2, [r3, #0]
    7154:	e7d6      	b.n	7104 <tc_isr+0x58>
			else if(at_step=='4' && sol_valve[3]=='1')
    7156:	4b39      	ldr	r3, [pc, #228]	; (723c <tc_isr+0x190>)
    7158:	78db      	ldrb	r3, [r3, #3]
    715a:	2b31      	cmp	r3, #49	; 0x31
    715c:	d1d2      	bne.n	7104 <tc_isr+0x58>
				error_count=0;
    715e:	2200      	movs	r2, #0
    7160:	4b34      	ldr	r3, [pc, #208]	; (7234 <tc_isr+0x188>)
    7162:	601a      	str	r2, [r3, #0]
				at_move='0';
    7164:	3230      	adds	r2, #48	; 0x30
    7166:	4b32      	ldr	r3, [pc, #200]	; (7230 <tc_isr+0x184>)
    7168:	701a      	strb	r2, [r3, #0]
    716a:	e7cb      	b.n	7104 <tc_isr+0x58>
			else if(at_step=='6' && sol_valve[5]=='1')
    716c:	2b36      	cmp	r3, #54	; 0x36
    716e:	d10a      	bne.n	7186 <tc_isr+0xda>
    7170:	4b32      	ldr	r3, [pc, #200]	; (723c <tc_isr+0x190>)
    7172:	795b      	ldrb	r3, [r3, #5]
    7174:	2b31      	cmp	r3, #49	; 0x31
    7176:	d1c5      	bne.n	7104 <tc_isr+0x58>
				error_count=0;
    7178:	2200      	movs	r2, #0
    717a:	4b2e      	ldr	r3, [pc, #184]	; (7234 <tc_isr+0x188>)
    717c:	601a      	str	r2, [r3, #0]
				at_move='0';
    717e:	3230      	adds	r2, #48	; 0x30
    7180:	4b2b      	ldr	r3, [pc, #172]	; (7230 <tc_isr+0x184>)
    7182:	701a      	strb	r2, [r3, #0]
    7184:	e7be      	b.n	7104 <tc_isr+0x58>
			else if(at_step=='7' && sol_valve[5]=='0')
    7186:	2b37      	cmp	r3, #55	; 0x37
    7188:	d10a      	bne.n	71a0 <tc_isr+0xf4>
    718a:	4b2c      	ldr	r3, [pc, #176]	; (723c <tc_isr+0x190>)
    718c:	795b      	ldrb	r3, [r3, #5]
    718e:	2b30      	cmp	r3, #48	; 0x30
    7190:	d1b8      	bne.n	7104 <tc_isr+0x58>
				error_count=0;
    7192:	2200      	movs	r2, #0
    7194:	4b27      	ldr	r3, [pc, #156]	; (7234 <tc_isr+0x188>)
    7196:	601a      	str	r2, [r3, #0]
				at_move='0';
    7198:	3230      	adds	r2, #48	; 0x30
    719a:	4b25      	ldr	r3, [pc, #148]	; (7230 <tc_isr+0x184>)
    719c:	701a      	strb	r2, [r3, #0]
    719e:	e7b1      	b.n	7104 <tc_isr+0x58>
			else if(at_step=='8' && sol_valve[4]=='0')
    71a0:	2b38      	cmp	r3, #56	; 0x38
    71a2:	d10a      	bne.n	71ba <tc_isr+0x10e>
    71a4:	4b25      	ldr	r3, [pc, #148]	; (723c <tc_isr+0x190>)
    71a6:	791b      	ldrb	r3, [r3, #4]
    71a8:	2b30      	cmp	r3, #48	; 0x30
    71aa:	d1ab      	bne.n	7104 <tc_isr+0x58>
				error_count=0;
    71ac:	2200      	movs	r2, #0
    71ae:	4b21      	ldr	r3, [pc, #132]	; (7234 <tc_isr+0x188>)
    71b0:	601a      	str	r2, [r3, #0]
				at_move='0';
    71b2:	3230      	adds	r2, #48	; 0x30
    71b4:	4b1e      	ldr	r3, [pc, #120]	; (7230 <tc_isr+0x184>)
    71b6:	701a      	strb	r2, [r3, #0]
    71b8:	e7a4      	b.n	7104 <tc_isr+0x58>
			else if(at_step=='9' && sol_valve[3]=='0')
    71ba:	2b39      	cmp	r3, #57	; 0x39
    71bc:	d10a      	bne.n	71d4 <tc_isr+0x128>
    71be:	4b1f      	ldr	r3, [pc, #124]	; (723c <tc_isr+0x190>)
    71c0:	78db      	ldrb	r3, [r3, #3]
    71c2:	2b30      	cmp	r3, #48	; 0x30
    71c4:	d19e      	bne.n	7104 <tc_isr+0x58>
				error_count=0;
    71c6:	2200      	movs	r2, #0
    71c8:	4b1a      	ldr	r3, [pc, #104]	; (7234 <tc_isr+0x188>)
    71ca:	601a      	str	r2, [r3, #0]
				at_move='0';
    71cc:	3230      	adds	r2, #48	; 0x30
    71ce:	4b18      	ldr	r3, [pc, #96]	; (7230 <tc_isr+0x184>)
    71d0:	701a      	strb	r2, [r3, #0]
    71d2:	e797      	b.n	7104 <tc_isr+0x58>
			else if(at_step=='A' && sol_valve[2]=='0')
    71d4:	2b41      	cmp	r3, #65	; 0x41
    71d6:	d10b      	bne.n	71f0 <tc_isr+0x144>
    71d8:	4b18      	ldr	r3, [pc, #96]	; (723c <tc_isr+0x190>)
    71da:	789b      	ldrb	r3, [r3, #2]
    71dc:	2b30      	cmp	r3, #48	; 0x30
    71de:	d000      	beq.n	71e2 <tc_isr+0x136>
    71e0:	e790      	b.n	7104 <tc_isr+0x58>
				error_count=0;
    71e2:	2200      	movs	r2, #0
    71e4:	4b13      	ldr	r3, [pc, #76]	; (7234 <tc_isr+0x188>)
    71e6:	601a      	str	r2, [r3, #0]
				at_move='0';
    71e8:	3230      	adds	r2, #48	; 0x30
    71ea:	4b11      	ldr	r3, [pc, #68]	; (7230 <tc_isr+0x184>)
    71ec:	701a      	strb	r2, [r3, #0]
    71ee:	e789      	b.n	7104 <tc_isr+0x58>
			else if(at_step=='B' && sol_valve[1]=='0')
    71f0:	2b42      	cmp	r3, #66	; 0x42
    71f2:	d10b      	bne.n	720c <tc_isr+0x160>
    71f4:	4b11      	ldr	r3, [pc, #68]	; (723c <tc_isr+0x190>)
    71f6:	785b      	ldrb	r3, [r3, #1]
    71f8:	2b30      	cmp	r3, #48	; 0x30
    71fa:	d000      	beq.n	71fe <tc_isr+0x152>
    71fc:	e782      	b.n	7104 <tc_isr+0x58>
				error_count=0;
    71fe:	2200      	movs	r2, #0
    7200:	4b0c      	ldr	r3, [pc, #48]	; (7234 <tc_isr+0x188>)
    7202:	601a      	str	r2, [r3, #0]
				at_move='0';
    7204:	3230      	adds	r2, #48	; 0x30
    7206:	4b0a      	ldr	r3, [pc, #40]	; (7230 <tc_isr+0x184>)
    7208:	701a      	strb	r2, [r3, #0]
    720a:	e77b      	b.n	7104 <tc_isr+0x58>
			else if(at_step=='C' && sol_valve[0]=='0')
    720c:	2b43      	cmp	r3, #67	; 0x43
    720e:	d000      	beq.n	7212 <tc_isr+0x166>
    7210:	e778      	b.n	7104 <tc_isr+0x58>
    7212:	4b0a      	ldr	r3, [pc, #40]	; (723c <tc_isr+0x190>)
    7214:	781b      	ldrb	r3, [r3, #0]
    7216:	2b30      	cmp	r3, #48	; 0x30
    7218:	d000      	beq.n	721c <tc_isr+0x170>
    721a:	e773      	b.n	7104 <tc_isr+0x58>
				error_count=0;
    721c:	2200      	movs	r2, #0
    721e:	4b05      	ldr	r3, [pc, #20]	; (7234 <tc_isr+0x188>)
    7220:	601a      	str	r2, [r3, #0]
				at_move='0';
    7222:	3230      	adds	r2, #48	; 0x30
    7224:	4b02      	ldr	r3, [pc, #8]	; (7230 <tc_isr+0x184>)
    7226:	701a      	strb	r2, [r3, #0]
}
    7228:	e76c      	b.n	7104 <tc_isr+0x58>
    722a:	46c0      	nop			; (mov r8, r8)
    722c:	200003e2 	.word	0x200003e2
    7230:	2000001f 	.word	0x2000001f
    7234:	200003e4 	.word	0x200003e4
    7238:	20000022 	.word	0x20000022
    723c:	200009a4 	.word	0x200009a4
    7240:	200003e8 	.word	0x200003e8

00007244 <socket_cb>:

static void socket_cb(SOCKET sock, uint8_t u8Msg, void *pvMsg)
{
    7244:	b5f8      	push	{r3, r4, r5, r6, r7, lr}
    7246:	0014      	movs	r4, r2
	static unsigned int i=0;
	
	switch(u8Msg) 
    7248:	2906      	cmp	r1, #6
    724a:	d867      	bhi.n	731c <socket_cb+0xd8>
    724c:	0089      	lsls	r1, r1, #2
    724e:	4bc5      	ldr	r3, [pc, #788]	; (7564 <socket_cb+0x320>)
    7250:	585b      	ldr	r3, [r3, r1]
    7252:	469f      	mov	pc, r3
	{	/* Socket BIND*/
		case SOCKET_MSG_BIND:
		{
			tstrSocketBindMsg *pstrBind = (tstrSocketBindMsg *)pvMsg;
			
			if(pstrBind && pstrBind->status == 0) 
    7254:	2a00      	cmp	r2, #0
    7256:	d003      	beq.n	7260 <socket_cb+0x1c>
    7258:	2300      	movs	r3, #0
    725a:	56d3      	ldrsb	r3, [r2, r3]
    725c:	2b00      	cmp	r3, #0
    725e:	d00a      	beq.n	7276 <socket_cb+0x32>
				printf("socket_cb: bind success!\r\n");
				listen(tcp_server_socket, 0);				
			} 
			else 
			{
				printf("socket_cb: bind error!\r\n");
    7260:	48c1      	ldr	r0, [pc, #772]	; (7568 <socket_cb+0x324>)
    7262:	4bc2      	ldr	r3, [pc, #776]	; (756c <socket_cb+0x328>)
    7264:	4798      	blx	r3
				close(tcp_server_socket);
    7266:	4cc2      	ldr	r4, [pc, #776]	; (7570 <socket_cb+0x32c>)
    7268:	2000      	movs	r0, #0
    726a:	5620      	ldrsb	r0, [r4, r0]
    726c:	4bc1      	ldr	r3, [pc, #772]	; (7574 <socket_cb+0x330>)
    726e:	4798      	blx	r3
				tcp_server_socket = -1;
    7270:	23ff      	movs	r3, #255	; 0xff
    7272:	7023      	strb	r3, [r4, #0]
    7274:	e052      	b.n	731c <socket_cb+0xd8>
				printf("socket_cb: bind success!\r\n");
    7276:	48c0      	ldr	r0, [pc, #768]	; (7578 <socket_cb+0x334>)
    7278:	4bbc      	ldr	r3, [pc, #752]	; (756c <socket_cb+0x328>)
    727a:	4798      	blx	r3
				listen(tcp_server_socket, 0);				
    727c:	4bbc      	ldr	r3, [pc, #752]	; (7570 <socket_cb+0x32c>)
    727e:	2000      	movs	r0, #0
    7280:	5618      	ldrsb	r0, [r3, r0]
    7282:	2100      	movs	r1, #0
    7284:	4bbd      	ldr	r3, [pc, #756]	; (757c <socket_cb+0x338>)
    7286:	4798      	blx	r3
    7288:	e048      	b.n	731c <socket_cb+0xd8>
		/* Socket listen */
		case SOCKET_MSG_LISTEN:
		{
			tstrSocketListenMsg *pstrListen = (tstrSocketListenMsg *)pvMsg;
			
			if(pstrListen && pstrListen->status == 0) 
    728a:	2a00      	cmp	r2, #0
    728c:	d003      	beq.n	7296 <socket_cb+0x52>
    728e:	2300      	movs	r3, #0
    7290:	56d3      	ldrsb	r3, [r2, r3]
    7292:	2b00      	cmp	r3, #0
    7294:	d00a      	beq.n	72ac <socket_cb+0x68>
				printf("socket_cb: listen success!\r\n");
				accept(tcp_server_socket, NULL, NULL);
			} 
			else 
			{
				printf("socket_cb: listen error!\r\n");
    7296:	48ba      	ldr	r0, [pc, #744]	; (7580 <socket_cb+0x33c>)
    7298:	4bb4      	ldr	r3, [pc, #720]	; (756c <socket_cb+0x328>)
    729a:	4798      	blx	r3
				
				close(tcp_server_socket);
    729c:	4cb4      	ldr	r4, [pc, #720]	; (7570 <socket_cb+0x32c>)
    729e:	2000      	movs	r0, #0
    72a0:	5620      	ldrsb	r0, [r4, r0]
    72a2:	4bb4      	ldr	r3, [pc, #720]	; (7574 <socket_cb+0x330>)
    72a4:	4798      	blx	r3
				tcp_server_socket = -1;
    72a6:	23ff      	movs	r3, #255	; 0xff
    72a8:	7023      	strb	r3, [r4, #0]
    72aa:	e037      	b.n	731c <socket_cb+0xd8>
				printf("socket_cb: listen success!\r\n");
    72ac:	48b5      	ldr	r0, [pc, #724]	; (7584 <socket_cb+0x340>)
    72ae:	4baf      	ldr	r3, [pc, #700]	; (756c <socket_cb+0x328>)
    72b0:	4798      	blx	r3
				accept(tcp_server_socket, NULL, NULL);
    72b2:	4baf      	ldr	r3, [pc, #700]	; (7570 <socket_cb+0x32c>)
    72b4:	2000      	movs	r0, #0
    72b6:	5618      	ldrsb	r0, [r3, r0]
    72b8:	2200      	movs	r2, #0
    72ba:	2100      	movs	r1, #0
    72bc:	4bb2      	ldr	r3, [pc, #712]	; (7588 <socket_cb+0x344>)
    72be:	4798      	blx	r3
    72c0:	e02c      	b.n	731c <socket_cb+0xd8>
		/* Connect accept */
		case SOCKET_MSG_ACCEPT:
		{				
			tstrSocketAcceptMsg *pstrAccept = (tstrSocketAcceptMsg *)pvMsg;
			
			if(pstrAccept) 
    72c2:	2a00      	cmp	r2, #0
    72c4:	d010      	beq.n	72e8 <socket_cb+0xa4>
			{
				//printf("socket_cb: accept success!\r\n");
				accept(tcp_server_socket, NULL, NULL);
    72c6:	4baa      	ldr	r3, [pc, #680]	; (7570 <socket_cb+0x32c>)
    72c8:	2000      	movs	r0, #0
    72ca:	5618      	ldrsb	r0, [r3, r0]
    72cc:	2200      	movs	r2, #0
    72ce:	2100      	movs	r1, #0
    72d0:	4bad      	ldr	r3, [pc, #692]	; (7588 <socket_cb+0x344>)
    72d2:	4798      	blx	r3
				tcp_client_socket = pstrAccept->sock;
    72d4:	2000      	movs	r0, #0
    72d6:	5620      	ldrsb	r0, [r4, r0]
    72d8:	4bac      	ldr	r3, [pc, #688]	; (758c <socket_cb+0x348>)
    72da:	7018      	strb	r0, [r3, #0]
				recv(tcp_client_socket, gau8SocketTestBuffer, sizeof(gau8SocketTestBuffer), 0);		
    72dc:	2300      	movs	r3, #0
    72de:	4aac      	ldr	r2, [pc, #688]	; (7590 <socket_cb+0x34c>)
    72e0:	49ac      	ldr	r1, [pc, #688]	; (7594 <socket_cb+0x350>)
    72e2:	4dad      	ldr	r5, [pc, #692]	; (7598 <socket_cb+0x354>)
    72e4:	47a8      	blx	r5
    72e6:	e016      	b.n	7316 <socket_cb+0xd2>
			} 
			else 
			{
				printf("socket_cb: accept error!\r\n");				
    72e8:	48ac      	ldr	r0, [pc, #688]	; (759c <socket_cb+0x358>)
    72ea:	4ba0      	ldr	r3, [pc, #640]	; (756c <socket_cb+0x328>)
    72ec:	4798      	blx	r3
				close(tcp_server_socket);
    72ee:	4ca0      	ldr	r4, [pc, #640]	; (7570 <socket_cb+0x32c>)
    72f0:	2000      	movs	r0, #0
    72f2:	5620      	ldrsb	r0, [r4, r0]
    72f4:	4b9f      	ldr	r3, [pc, #636]	; (7574 <socket_cb+0x330>)
    72f6:	4798      	blx	r3
				tcp_server_socket = -1;				
    72f8:	23ff      	movs	r3, #255	; 0xff
    72fa:	7023      	strb	r3, [r4, #0]
			{
//				printf("socket_cb: connect success!\r\n");
			} 
			else 
			{
				printf("socket_cb: connect error!\r\n");
    72fc:	48a8      	ldr	r0, [pc, #672]	; (75a0 <socket_cb+0x35c>)
    72fe:	4b9b      	ldr	r3, [pc, #620]	; (756c <socket_cb+0x328>)
    7300:	4798      	blx	r3
				close(tcp_client_socket);
    7302:	4ca2      	ldr	r4, [pc, #648]	; (758c <socket_cb+0x348>)
    7304:	2000      	movs	r0, #0
    7306:	5620      	ldrsb	r0, [r4, r0]
    7308:	4b9a      	ldr	r3, [pc, #616]	; (7574 <socket_cb+0x330>)
    730a:	4798      	blx	r3
				tcp_client_socket = -1;
    730c:	23ff      	movs	r3, #255	; 0xff
    730e:	7023      	strb	r3, [r4, #0]
    7310:	e004      	b.n	731c <socket_cb+0xd8>
			if(pstrConnect && pstrConnect->s8Error >= 0) 
    7312:	2a00      	cmp	r2, #0
    7314:	d0f2      	beq.n	72fc <socket_cb+0xb8>
    7316:	7863      	ldrb	r3, [r4, #1]
    7318:	2b7f      	cmp	r3, #127	; 0x7f
    731a:	d8ef      	bhi.n	72fc <socket_cb+0xb8>
		}
		break;
			
		default:break;	
	}	
}
    731c:	bdf8      	pop	{r3, r4, r5, r6, r7, pc}
			if(pstrRecv && pstrRecv->s16BufferSize > 0)
    731e:	2a00      	cmp	r2, #0
    7320:	d100      	bne.n	7324 <socket_cb+0xe0>
    7322:	e249      	b.n	77b8 <socket_cb+0x574>
    7324:	2204      	movs	r2, #4
    7326:	5ea3      	ldrsh	r3, [r4, r2]
    7328:	2b00      	cmp	r3, #0
    732a:	dc00      	bgt.n	732e <socket_cb+0xea>
    732c:	e244      	b.n	77b8 <socket_cb+0x574>
				for(i=0; i<12; i++)
    732e:	2200      	movs	r2, #0
    7330:	4b9c      	ldr	r3, [pc, #624]	; (75a4 <socket_cb+0x360>)
    7332:	601a      	str	r2, [r3, #0]
    7334:	2300      	movs	r3, #0
						arr[i] = 32;
    7336:	4e9c      	ldr	r6, [pc, #624]	; (75a8 <socket_cb+0x364>)
    7338:	3220      	adds	r2, #32
						arr[i] = pstrRecv->pu8Buffer[i];
    733a:	0037      	movs	r7, r6
    733c:	e00c      	b.n	7358 <socket_cb+0x114>
					else if((pstrRecv->pu8Buffer[i] != 0 || pstrRecv->pu8Buffer[i] != 32) && i>2 && i<7)
    733e:	1ed9      	subs	r1, r3, #3
    7340:	2903      	cmp	r1, #3
    7342:	d80f      	bhi.n	7364 <socket_cb+0x120>
						sw_value[i-3] = pstrRecv->pu8Buffer[i];
    7344:	6821      	ldr	r1, [r4, #0]
    7346:	5cc8      	ldrb	r0, [r1, r3]
    7348:	1ed9      	subs	r1, r3, #3
    734a:	4d98      	ldr	r5, [pc, #608]	; (75ac <socket_cb+0x368>)
    734c:	5468      	strb	r0, [r5, r1]
					pstrRecv->pu8Buffer[i] = 32;
    734e:	6821      	ldr	r1, [r4, #0]
    7350:	54ca      	strb	r2, [r1, r3]
    7352:	3301      	adds	r3, #1
				for(i=0; i<12; i++)
    7354:	2b0c      	cmp	r3, #12
    7356:	d009      	beq.n	736c <socket_cb+0x128>
					if((pstrRecv->pu8Buffer[i] != 0 || pstrRecv->pu8Buffer[i] != 32) && i<3)
    7358:	2b02      	cmp	r3, #2
    735a:	d8f0      	bhi.n	733e <socket_cb+0xfa>
						arr[i] = pstrRecv->pu8Buffer[i];
    735c:	6821      	ldr	r1, [r4, #0]
    735e:	5cc9      	ldrb	r1, [r1, r3]
    7360:	55d9      	strb	r1, [r3, r7]
    7362:	e7f4      	b.n	734e <socket_cb+0x10a>
						arr[i] = 32;
    7364:	559a      	strb	r2, [r3, r6]
						sw_value[i] = 32;
    7366:	4991      	ldr	r1, [pc, #580]	; (75ac <socket_cb+0x368>)
    7368:	545a      	strb	r2, [r3, r1]
    736a:	e7f0      	b.n	734e <socket_cb+0x10a>
    736c:	220c      	movs	r2, #12
    736e:	4b8d      	ldr	r3, [pc, #564]	; (75a4 <socket_cb+0x360>)
    7370:	601a      	str	r2, [r3, #0]
				if(strcmp(arr,arr2)==0)
    7372:	498f      	ldr	r1, [pc, #572]	; (75b0 <socket_cb+0x36c>)
    7374:	488c      	ldr	r0, [pc, #560]	; (75a8 <socket_cb+0x364>)
    7376:	4b8f      	ldr	r3, [pc, #572]	; (75b4 <socket_cb+0x370>)
    7378:	4798      	blx	r3
    737a:	2800      	cmp	r0, #0
    737c:	d15e      	bne.n	743c <socket_cb+0x1f8>
					arr[0]='S';
    737e:	4b8a      	ldr	r3, [pc, #552]	; (75a8 <socket_cb+0x364>)
    7380:	2253      	movs	r2, #83	; 0x53
    7382:	701a      	strb	r2, [r3, #0]
					arr[1]='A';
    7384:	3a12      	subs	r2, #18
    7386:	705a      	strb	r2, [r3, #1]
					arr[2]='M';
    7388:	320c      	adds	r2, #12
    738a:	709a      	strb	r2, [r3, #2]
				if(strcmp(arr,"@1B")==0){cylin_choi='1';cam_on='1';}		// 1  or CAM 0N 
    738c:	498a      	ldr	r1, [pc, #552]	; (75b8 <socket_cb+0x374>)
    738e:	4886      	ldr	r0, [pc, #536]	; (75a8 <socket_cb+0x364>)
    7390:	4b88      	ldr	r3, [pc, #544]	; (75b4 <socket_cb+0x370>)
    7392:	4798      	blx	r3
    7394:	2800      	cmp	r0, #0
    7396:	d156      	bne.n	7446 <socket_cb+0x202>
    7398:	2331      	movs	r3, #49	; 0x31
    739a:	4a88      	ldr	r2, [pc, #544]	; (75bc <socket_cb+0x378>)
    739c:	7013      	strb	r3, [r2, #0]
    739e:	4a88      	ldr	r2, [pc, #544]	; (75c0 <socket_cb+0x37c>)
    73a0:	7013      	strb	r3, [r2, #0]
				if(ready=='1'){sol_valve[150]='1';}
    73a2:	4b88      	ldr	r3, [pc, #544]	; (75c4 <socket_cb+0x380>)
    73a4:	781b      	ldrb	r3, [r3, #0]
    73a6:	2b31      	cmp	r3, #49	; 0x31
    73a8:	d100      	bne.n	73ac <socket_cb+0x168>
    73aa:	e176      	b.n	769a <socket_cb+0x456>
				else{sol_valve[150]='0';}
    73ac:	2130      	movs	r1, #48	; 0x30
    73ae:	2396      	movs	r3, #150	; 0x96
    73b0:	4a85      	ldr	r2, [pc, #532]	; (75c8 <socket_cb+0x384>)
    73b2:	54d1      	strb	r1, [r2, r3]
				if(emg_sw=='1'){sol_valve[151]='1';}
    73b4:	4b85      	ldr	r3, [pc, #532]	; (75cc <socket_cb+0x388>)
    73b6:	781b      	ldrb	r3, [r3, #0]
    73b8:	2b31      	cmp	r3, #49	; 0x31
    73ba:	d100      	bne.n	73be <socket_cb+0x17a>
    73bc:	e1e3      	b.n	7786 <socket_cb+0x542>
				else{sol_valve[151]='0';}
    73be:	2130      	movs	r1, #48	; 0x30
    73c0:	2397      	movs	r3, #151	; 0x97
    73c2:	4a81      	ldr	r2, [pc, #516]	; (75c8 <socket_cb+0x384>)
    73c4:	54d1      	strb	r1, [r2, r3]
				if(mu_sel_sw=='1'){sol_valve[152]='1';}
    73c6:	4b82      	ldr	r3, [pc, #520]	; (75d0 <socket_cb+0x38c>)
    73c8:	781b      	ldrb	r3, [r3, #0]
    73ca:	2b31      	cmp	r3, #49	; 0x31
    73cc:	d100      	bne.n	73d0 <socket_cb+0x18c>
    73ce:	e1df      	b.n	7790 <socket_cb+0x54c>
				else{sol_valve[152]='0';}
    73d0:	2130      	movs	r1, #48	; 0x30
    73d2:	2398      	movs	r3, #152	; 0x98
    73d4:	4a7c      	ldr	r2, [pc, #496]	; (75c8 <socket_cb+0x384>)
    73d6:	54d1      	strb	r1, [r2, r3]
				if(at_sel_sw=='1'){sol_valve[153]='1';}
    73d8:	4b7e      	ldr	r3, [pc, #504]	; (75d4 <socket_cb+0x390>)
    73da:	781b      	ldrb	r3, [r3, #0]
    73dc:	2b31      	cmp	r3, #49	; 0x31
    73de:	d100      	bne.n	73e2 <socket_cb+0x19e>
    73e0:	e1db      	b.n	779a <socket_cb+0x556>
				else{sol_valve[153]='0';}
    73e2:	2130      	movs	r1, #48	; 0x30
    73e4:	2399      	movs	r3, #153	; 0x99
    73e6:	4a78      	ldr	r2, [pc, #480]	; (75c8 <socket_cb+0x384>)
    73e8:	54d1      	strb	r1, [r2, r3]
				if(at_start_sw=='1'){sol_valve[154]='1';}
    73ea:	4b7b      	ldr	r3, [pc, #492]	; (75d8 <socket_cb+0x394>)
    73ec:	781b      	ldrb	r3, [r3, #0]
    73ee:	2b31      	cmp	r3, #49	; 0x31
    73f0:	d100      	bne.n	73f4 <socket_cb+0x1b0>
    73f2:	e1d7      	b.n	77a4 <socket_cb+0x560>
				else{sol_valve[154]='0';}
    73f4:	2130      	movs	r1, #48	; 0x30
    73f6:	239a      	movs	r3, #154	; 0x9a
    73f8:	4a73      	ldr	r2, [pc, #460]	; (75c8 <socket_cb+0x384>)
    73fa:	54d1      	strb	r1, [r2, r3]
				if(hr_sw=='1'){sol_valve[157]='1';}
    73fc:	4b77      	ldr	r3, [pc, #476]	; (75dc <socket_cb+0x398>)
    73fe:	781b      	ldrb	r3, [r3, #0]
    7400:	2b31      	cmp	r3, #49	; 0x31
    7402:	d100      	bne.n	7406 <socket_cb+0x1c2>
    7404:	e1d3      	b.n	77ae <socket_cb+0x56a>
				else{sol_valve[157]='0';}
    7406:	2130      	movs	r1, #48	; 0x30
    7408:	239d      	movs	r3, #157	; 0x9d
    740a:	4a6f      	ldr	r2, [pc, #444]	; (75c8 <socket_cb+0x384>)
    740c:	54d1      	strb	r1, [r2, r3]
				send(tcp_client_socket, &sol_valve, sizeof(sol_valve), 0);
    740e:	4c5f      	ldr	r4, [pc, #380]	; (758c <socket_cb+0x348>)
    7410:	2000      	movs	r0, #0
    7412:	5620      	ldrsb	r0, [r4, r0]
    7414:	2300      	movs	r3, #0
    7416:	2214      	movs	r2, #20
    7418:	496b      	ldr	r1, [pc, #428]	; (75c8 <socket_cb+0x384>)
    741a:	4d71      	ldr	r5, [pc, #452]	; (75e0 <socket_cb+0x39c>)
    741c:	47a8      	blx	r5
				close(tcp_client_socket);
    741e:	2000      	movs	r0, #0
    7420:	5620      	ldrsb	r0, [r4, r0]
    7422:	4b54      	ldr	r3, [pc, #336]	; (7574 <socket_cb+0x330>)
    7424:	4798      	blx	r3
				tcp_client_socket = -1;
    7426:	23ff      	movs	r3, #255	; 0xff
    7428:	7023      	strb	r3, [r4, #0]
				memset(arr,32,sizeof(arr));
    742a:	2203      	movs	r2, #3
    742c:	2120      	movs	r1, #32
    742e:	485e      	ldr	r0, [pc, #376]	; (75a8 <socket_cb+0x364>)
    7430:	4b6c      	ldr	r3, [pc, #432]	; (75e4 <socket_cb+0x3a0>)
    7432:	4798      	blx	r3
				memset(sw_value,32,sizeof(sw_value));
    7434:	4a6c      	ldr	r2, [pc, #432]	; (75e8 <socket_cb+0x3a4>)
    7436:	4b5d      	ldr	r3, [pc, #372]	; (75ac <socket_cb+0x368>)
    7438:	601a      	str	r2, [r3, #0]
    743a:	e76f      	b.n	731c <socket_cb+0xd8>
					strcpy(arr2,arr);
    743c:	495a      	ldr	r1, [pc, #360]	; (75a8 <socket_cb+0x364>)
    743e:	485c      	ldr	r0, [pc, #368]	; (75b0 <socket_cb+0x36c>)
    7440:	4b6a      	ldr	r3, [pc, #424]	; (75ec <socket_cb+0x3a8>)
    7442:	4798      	blx	r3
    7444:	e7a2      	b.n	738c <socket_cb+0x148>
				else if(strcmp(arr,"@1C")==0){cylin_choi='1';cam_on='0';}	// 1  or CAM 0N 
    7446:	496a      	ldr	r1, [pc, #424]	; (75f0 <socket_cb+0x3ac>)
    7448:	4857      	ldr	r0, [pc, #348]	; (75a8 <socket_cb+0x364>)
    744a:	4b5a      	ldr	r3, [pc, #360]	; (75b4 <socket_cb+0x370>)
    744c:	4798      	blx	r3
    744e:	2800      	cmp	r0, #0
    7450:	d106      	bne.n	7460 <socket_cb+0x21c>
    7452:	2231      	movs	r2, #49	; 0x31
    7454:	4b59      	ldr	r3, [pc, #356]	; (75bc <socket_cb+0x378>)
    7456:	701a      	strb	r2, [r3, #0]
    7458:	3a01      	subs	r2, #1
    745a:	4b59      	ldr	r3, [pc, #356]	; (75c0 <socket_cb+0x37c>)
    745c:	701a      	strb	r2, [r3, #0]
    745e:	e7a0      	b.n	73a2 <socket_cb+0x15e>
				else if(strcmp(arr,"@1D")==0){cylin_choi='1';cam_off='1';}	// 1  or CAM 0FF 
    7460:	4964      	ldr	r1, [pc, #400]	; (75f4 <socket_cb+0x3b0>)
    7462:	4851      	ldr	r0, [pc, #324]	; (75a8 <socket_cb+0x364>)
    7464:	4b53      	ldr	r3, [pc, #332]	; (75b4 <socket_cb+0x370>)
    7466:	4798      	blx	r3
    7468:	2800      	cmp	r0, #0
    746a:	d105      	bne.n	7478 <socket_cb+0x234>
    746c:	2331      	movs	r3, #49	; 0x31
    746e:	4a53      	ldr	r2, [pc, #332]	; (75bc <socket_cb+0x378>)
    7470:	7013      	strb	r3, [r2, #0]
    7472:	4a61      	ldr	r2, [pc, #388]	; (75f8 <socket_cb+0x3b4>)
    7474:	7013      	strb	r3, [r2, #0]
    7476:	e794      	b.n	73a2 <socket_cb+0x15e>
				else if(strcmp(arr,"@1E")==0){cylin_choi='1';cam_off='0';}	// 1  or CAM 0FF 
    7478:	4960      	ldr	r1, [pc, #384]	; (75fc <socket_cb+0x3b8>)
    747a:	484b      	ldr	r0, [pc, #300]	; (75a8 <socket_cb+0x364>)
    747c:	4b4d      	ldr	r3, [pc, #308]	; (75b4 <socket_cb+0x370>)
    747e:	4798      	blx	r3
    7480:	2800      	cmp	r0, #0
    7482:	d106      	bne.n	7492 <socket_cb+0x24e>
    7484:	2231      	movs	r2, #49	; 0x31
    7486:	4b4d      	ldr	r3, [pc, #308]	; (75bc <socket_cb+0x378>)
    7488:	701a      	strb	r2, [r3, #0]
    748a:	3a01      	subs	r2, #1
    748c:	4b5a      	ldr	r3, [pc, #360]	; (75f8 <socket_cb+0x3b4>)
    748e:	701a      	strb	r2, [r3, #0]
    7490:	e787      	b.n	73a2 <socket_cb+0x15e>
				else if(strcmp(arr,"@2B")==0){cylin_choi='2';cam_on='1';}	// 2  or CAM 0N 
    7492:	495b      	ldr	r1, [pc, #364]	; (7600 <socket_cb+0x3bc>)
    7494:	4844      	ldr	r0, [pc, #272]	; (75a8 <socket_cb+0x364>)
    7496:	4b47      	ldr	r3, [pc, #284]	; (75b4 <socket_cb+0x370>)
    7498:	4798      	blx	r3
    749a:	2800      	cmp	r0, #0
    749c:	d106      	bne.n	74ac <socket_cb+0x268>
    749e:	2232      	movs	r2, #50	; 0x32
    74a0:	4b46      	ldr	r3, [pc, #280]	; (75bc <socket_cb+0x378>)
    74a2:	701a      	strb	r2, [r3, #0]
    74a4:	3a01      	subs	r2, #1
    74a6:	4b46      	ldr	r3, [pc, #280]	; (75c0 <socket_cb+0x37c>)
    74a8:	701a      	strb	r2, [r3, #0]
    74aa:	e77a      	b.n	73a2 <socket_cb+0x15e>
				else if(strcmp(arr,"@2C")==0){cylin_choi='2';cam_on='0';}	// 2  or CAM 0N 
    74ac:	4955      	ldr	r1, [pc, #340]	; (7604 <socket_cb+0x3c0>)
    74ae:	483e      	ldr	r0, [pc, #248]	; (75a8 <socket_cb+0x364>)
    74b0:	4b40      	ldr	r3, [pc, #256]	; (75b4 <socket_cb+0x370>)
    74b2:	4798      	blx	r3
    74b4:	2800      	cmp	r0, #0
    74b6:	d106      	bne.n	74c6 <socket_cb+0x282>
    74b8:	2232      	movs	r2, #50	; 0x32
    74ba:	4b40      	ldr	r3, [pc, #256]	; (75bc <socket_cb+0x378>)
    74bc:	701a      	strb	r2, [r3, #0]
    74be:	3a02      	subs	r2, #2
    74c0:	4b3f      	ldr	r3, [pc, #252]	; (75c0 <socket_cb+0x37c>)
    74c2:	701a      	strb	r2, [r3, #0]
    74c4:	e76d      	b.n	73a2 <socket_cb+0x15e>
				else if(strcmp(arr,"@2D")==0){cylin_choi='2';cam_off='1';}	// 2  or CAM 0FF 
    74c6:	4950      	ldr	r1, [pc, #320]	; (7608 <socket_cb+0x3c4>)
    74c8:	4837      	ldr	r0, [pc, #220]	; (75a8 <socket_cb+0x364>)
    74ca:	4b3a      	ldr	r3, [pc, #232]	; (75b4 <socket_cb+0x370>)
    74cc:	4798      	blx	r3
    74ce:	2800      	cmp	r0, #0
    74d0:	d106      	bne.n	74e0 <socket_cb+0x29c>
    74d2:	2232      	movs	r2, #50	; 0x32
    74d4:	4b39      	ldr	r3, [pc, #228]	; (75bc <socket_cb+0x378>)
    74d6:	701a      	strb	r2, [r3, #0]
    74d8:	3a01      	subs	r2, #1
    74da:	4b47      	ldr	r3, [pc, #284]	; (75f8 <socket_cb+0x3b4>)
    74dc:	701a      	strb	r2, [r3, #0]
    74de:	e760      	b.n	73a2 <socket_cb+0x15e>
				else if(strcmp(arr,"@2E")==0){cylin_choi='2';cam_off='0';}	// 2  or CAM 0FF 
    74e0:	494a      	ldr	r1, [pc, #296]	; (760c <socket_cb+0x3c8>)
    74e2:	4831      	ldr	r0, [pc, #196]	; (75a8 <socket_cb+0x364>)
    74e4:	4b33      	ldr	r3, [pc, #204]	; (75b4 <socket_cb+0x370>)
    74e6:	4798      	blx	r3
    74e8:	2800      	cmp	r0, #0
    74ea:	d106      	bne.n	74fa <socket_cb+0x2b6>
    74ec:	2232      	movs	r2, #50	; 0x32
    74ee:	4b33      	ldr	r3, [pc, #204]	; (75bc <socket_cb+0x378>)
    74f0:	701a      	strb	r2, [r3, #0]
    74f2:	3a02      	subs	r2, #2
    74f4:	4b40      	ldr	r3, [pc, #256]	; (75f8 <socket_cb+0x3b4>)
    74f6:	701a      	strb	r2, [r3, #0]
    74f8:	e753      	b.n	73a2 <socket_cb+0x15e>
				else if(strcmp(arr,"@3B")==0){cylin_choi='3';cam_on='1';}	// 3  or CAM 0N 
    74fa:	4945      	ldr	r1, [pc, #276]	; (7610 <socket_cb+0x3cc>)
    74fc:	482a      	ldr	r0, [pc, #168]	; (75a8 <socket_cb+0x364>)
    74fe:	4b2d      	ldr	r3, [pc, #180]	; (75b4 <socket_cb+0x370>)
    7500:	4798      	blx	r3
    7502:	2800      	cmp	r0, #0
    7504:	d106      	bne.n	7514 <socket_cb+0x2d0>
    7506:	2233      	movs	r2, #51	; 0x33
    7508:	4b2c      	ldr	r3, [pc, #176]	; (75bc <socket_cb+0x378>)
    750a:	701a      	strb	r2, [r3, #0]
    750c:	3a02      	subs	r2, #2
    750e:	4b2c      	ldr	r3, [pc, #176]	; (75c0 <socket_cb+0x37c>)
    7510:	701a      	strb	r2, [r3, #0]
    7512:	e746      	b.n	73a2 <socket_cb+0x15e>
				else if(strcmp(arr,"@3C")==0){cylin_choi='3';cam_on='0';}	// 3  or CAM 0N 
    7514:	493f      	ldr	r1, [pc, #252]	; (7614 <socket_cb+0x3d0>)
    7516:	4824      	ldr	r0, [pc, #144]	; (75a8 <socket_cb+0x364>)
    7518:	4b26      	ldr	r3, [pc, #152]	; (75b4 <socket_cb+0x370>)
    751a:	4798      	blx	r3
    751c:	2800      	cmp	r0, #0
    751e:	d106      	bne.n	752e <socket_cb+0x2ea>
    7520:	2233      	movs	r2, #51	; 0x33
    7522:	4b26      	ldr	r3, [pc, #152]	; (75bc <socket_cb+0x378>)
    7524:	701a      	strb	r2, [r3, #0]
    7526:	3a03      	subs	r2, #3
    7528:	4b25      	ldr	r3, [pc, #148]	; (75c0 <socket_cb+0x37c>)
    752a:	701a      	strb	r2, [r3, #0]
    752c:	e739      	b.n	73a2 <socket_cb+0x15e>
				else if(strcmp(arr,"@3D")==0){cylin_choi='3';cam_off='1';}	// 3  or CAM 0FF 
    752e:	493a      	ldr	r1, [pc, #232]	; (7618 <socket_cb+0x3d4>)
    7530:	481d      	ldr	r0, [pc, #116]	; (75a8 <socket_cb+0x364>)
    7532:	4b20      	ldr	r3, [pc, #128]	; (75b4 <socket_cb+0x370>)
    7534:	4798      	blx	r3
    7536:	2800      	cmp	r0, #0
    7538:	d106      	bne.n	7548 <socket_cb+0x304>
    753a:	2233      	movs	r2, #51	; 0x33
    753c:	4b1f      	ldr	r3, [pc, #124]	; (75bc <socket_cb+0x378>)
    753e:	701a      	strb	r2, [r3, #0]
    7540:	3a02      	subs	r2, #2
    7542:	4b2d      	ldr	r3, [pc, #180]	; (75f8 <socket_cb+0x3b4>)
    7544:	701a      	strb	r2, [r3, #0]
    7546:	e72c      	b.n	73a2 <socket_cb+0x15e>
				else if(strcmp(arr,"@3E")==0){cylin_choi='3';cam_off='0';}	// 3  or CAM 0FF 
    7548:	4934      	ldr	r1, [pc, #208]	; (761c <socket_cb+0x3d8>)
    754a:	4817      	ldr	r0, [pc, #92]	; (75a8 <socket_cb+0x364>)
    754c:	4b19      	ldr	r3, [pc, #100]	; (75b4 <socket_cb+0x370>)
    754e:	4798      	blx	r3
    7550:	2800      	cmp	r0, #0
    7552:	d165      	bne.n	7620 <socket_cb+0x3dc>
    7554:	2233      	movs	r2, #51	; 0x33
    7556:	4b19      	ldr	r3, [pc, #100]	; (75bc <socket_cb+0x378>)
    7558:	701a      	strb	r2, [r3, #0]
    755a:	3a03      	subs	r2, #3
    755c:	4b26      	ldr	r3, [pc, #152]	; (75f8 <socket_cb+0x3b4>)
    755e:	701a      	strb	r2, [r3, #0]
    7560:	e71f      	b.n	73a2 <socket_cb+0x15e>
    7562:	46c0      	nop			; (mov r8, r8)
    7564:	0000ae30 	.word	0x0000ae30
    7568:	0000af18 	.word	0x0000af18
    756c:	00008cf1 	.word	0x00008cf1
    7570:	2000002c 	.word	0x2000002c
    7574:	000030e1 	.word	0x000030e1
    7578:	0000aefc 	.word	0x0000aefc
    757c:	00002f39 	.word	0x00002f39
    7580:	0000af4c 	.word	0x0000af4c
    7584:	0000af30 	.word	0x0000af30
    7588:	00002f91 	.word	0x00002f91
    758c:	2000002b 	.word	0x2000002b
    7590:	000005b4 	.word	0x000005b4
    7594:	200003ec 	.word	0x200003ec
    7598:	0000304d 	.word	0x0000304d
    759c:	0000af68 	.word	0x0000af68
    75a0:	0000af84 	.word	0x0000af84
    75a4:	200009a0 	.word	0x200009a0
    75a8:	200003d0 	.word	0x200003d0
    75ac:	200009b8 	.word	0x200009b8
    75b0:	200003d4 	.word	0x200003d4
    75b4:	00008f45 	.word	0x00008f45
    75b8:	0000afa0 	.word	0x0000afa0
    75bc:	20000025 	.word	0x20000025
    75c0:	20000024 	.word	0x20000024
    75c4:	2000002a 	.word	0x2000002a
    75c8:	200009a4 	.word	0x200009a4
    75cc:	20000026 	.word	0x20000026
    75d0:	20000029 	.word	0x20000029
    75d4:	20000020 	.word	0x20000020
    75d8:	20000021 	.word	0x20000021
    75dc:	20000028 	.word	0x20000028
    75e0:	00002fb5 	.word	0x00002fb5
    75e4:	00008bc3 	.word	0x00008bc3
    75e8:	20202020 	.word	0x20202020
    75ec:	00008f59 	.word	0x00008f59
    75f0:	0000afa4 	.word	0x0000afa4
    75f4:	0000afa8 	.word	0x0000afa8
    75f8:	20000023 	.word	0x20000023
    75fc:	0000afac 	.word	0x0000afac
    7600:	0000afb0 	.word	0x0000afb0
    7604:	0000afb4 	.word	0x0000afb4
    7608:	0000afb8 	.word	0x0000afb8
    760c:	0000afbc 	.word	0x0000afbc
    7610:	0000afc0 	.word	0x0000afc0
    7614:	0000afc4 	.word	0x0000afc4
    7618:	0000afc8 	.word	0x0000afc8
    761c:	0000afcc 	.word	0x0000afcc
				else if(strcmp(arr,"@4B")==0){cylin_choi='4';cam_on='1';}	// 4  or CAM 0N 
    7620:	496b      	ldr	r1, [pc, #428]	; (77d0 <socket_cb+0x58c>)
    7622:	486c      	ldr	r0, [pc, #432]	; (77d4 <socket_cb+0x590>)
    7624:	4b6c      	ldr	r3, [pc, #432]	; (77d8 <socket_cb+0x594>)
    7626:	4798      	blx	r3
    7628:	2800      	cmp	r0, #0
    762a:	d106      	bne.n	763a <socket_cb+0x3f6>
    762c:	2234      	movs	r2, #52	; 0x34
    762e:	4b6b      	ldr	r3, [pc, #428]	; (77dc <socket_cb+0x598>)
    7630:	701a      	strb	r2, [r3, #0]
    7632:	3a03      	subs	r2, #3
    7634:	4b6a      	ldr	r3, [pc, #424]	; (77e0 <socket_cb+0x59c>)
    7636:	701a      	strb	r2, [r3, #0]
    7638:	e6b3      	b.n	73a2 <socket_cb+0x15e>
				else if(strcmp(arr,"@4C")==0){cylin_choi='4';cam_on='0';}	// 4  or CAM 0N 
    763a:	496a      	ldr	r1, [pc, #424]	; (77e4 <socket_cb+0x5a0>)
    763c:	4865      	ldr	r0, [pc, #404]	; (77d4 <socket_cb+0x590>)
    763e:	4b66      	ldr	r3, [pc, #408]	; (77d8 <socket_cb+0x594>)
    7640:	4798      	blx	r3
    7642:	2800      	cmp	r0, #0
    7644:	d106      	bne.n	7654 <socket_cb+0x410>
    7646:	2234      	movs	r2, #52	; 0x34
    7648:	4b64      	ldr	r3, [pc, #400]	; (77dc <socket_cb+0x598>)
    764a:	701a      	strb	r2, [r3, #0]
    764c:	3a04      	subs	r2, #4
    764e:	4b64      	ldr	r3, [pc, #400]	; (77e0 <socket_cb+0x59c>)
    7650:	701a      	strb	r2, [r3, #0]
    7652:	e6a6      	b.n	73a2 <socket_cb+0x15e>
				else if(strcmp(arr,"@4D")==0){cylin_choi='4';cam_off='1';}	// 4  or CAM 0FF 
    7654:	4964      	ldr	r1, [pc, #400]	; (77e8 <socket_cb+0x5a4>)
    7656:	485f      	ldr	r0, [pc, #380]	; (77d4 <socket_cb+0x590>)
    7658:	4b5f      	ldr	r3, [pc, #380]	; (77d8 <socket_cb+0x594>)
    765a:	4798      	blx	r3
    765c:	2800      	cmp	r0, #0
    765e:	d106      	bne.n	766e <socket_cb+0x42a>
    7660:	2234      	movs	r2, #52	; 0x34
    7662:	4b5e      	ldr	r3, [pc, #376]	; (77dc <socket_cb+0x598>)
    7664:	701a      	strb	r2, [r3, #0]
    7666:	3a03      	subs	r2, #3
    7668:	4b60      	ldr	r3, [pc, #384]	; (77ec <socket_cb+0x5a8>)
    766a:	701a      	strb	r2, [r3, #0]
    766c:	e699      	b.n	73a2 <socket_cb+0x15e>
				else if(strcmp(arr,"@4E")==0){cylin_choi='4';cam_off='0';}	// 4  or CAM 0FF 
    766e:	4960      	ldr	r1, [pc, #384]	; (77f0 <socket_cb+0x5ac>)
    7670:	4858      	ldr	r0, [pc, #352]	; (77d4 <socket_cb+0x590>)
    7672:	4b59      	ldr	r3, [pc, #356]	; (77d8 <socket_cb+0x594>)
    7674:	4798      	blx	r3
    7676:	2800      	cmp	r0, #0
    7678:	d106      	bne.n	7688 <socket_cb+0x444>
    767a:	2234      	movs	r2, #52	; 0x34
    767c:	4b57      	ldr	r3, [pc, #348]	; (77dc <socket_cb+0x598>)
    767e:	701a      	strb	r2, [r3, #0]
    7680:	3a04      	subs	r2, #4
    7682:	4b5a      	ldr	r3, [pc, #360]	; (77ec <socket_cb+0x5a8>)
    7684:	701a      	strb	r2, [r3, #0]
    7686:	e68c      	b.n	73a2 <socket_cb+0x15e>
				else if(strcmp(arr,"@RO")==0){ready='1';}
    7688:	495a      	ldr	r1, [pc, #360]	; (77f4 <socket_cb+0x5b0>)
    768a:	4852      	ldr	r0, [pc, #328]	; (77d4 <socket_cb+0x590>)
    768c:	4b52      	ldr	r3, [pc, #328]	; (77d8 <socket_cb+0x594>)
    768e:	4798      	blx	r3
    7690:	2800      	cmp	r0, #0
    7692:	d107      	bne.n	76a4 <socket_cb+0x460>
    7694:	2231      	movs	r2, #49	; 0x31
    7696:	4b58      	ldr	r3, [pc, #352]	; (77f8 <socket_cb+0x5b4>)
    7698:	701a      	strb	r2, [r3, #0]
				if(ready=='1'){sol_valve[150]='1';}
    769a:	2131      	movs	r1, #49	; 0x31
    769c:	2396      	movs	r3, #150	; 0x96
    769e:	4a57      	ldr	r2, [pc, #348]	; (77fc <socket_cb+0x5b8>)
    76a0:	54d1      	strb	r1, [r2, r3]
    76a2:	e687      	b.n	73b4 <socket_cb+0x170>
				else if(strcmp(arr,"@HR")==0){hr_sw='1';}
    76a4:	4956      	ldr	r1, [pc, #344]	; (7800 <socket_cb+0x5bc>)
    76a6:	484b      	ldr	r0, [pc, #300]	; (77d4 <socket_cb+0x590>)
    76a8:	4b4b      	ldr	r3, [pc, #300]	; (77d8 <socket_cb+0x594>)
    76aa:	4798      	blx	r3
    76ac:	2800      	cmp	r0, #0
    76ae:	d103      	bne.n	76b8 <socket_cb+0x474>
    76b0:	2231      	movs	r2, #49	; 0x31
    76b2:	4b54      	ldr	r3, [pc, #336]	; (7804 <socket_cb+0x5c0>)
    76b4:	701a      	strb	r2, [r3, #0]
    76b6:	e674      	b.n	73a2 <socket_cb+0x15e>
				else if(strcmp(arr,"@HT")==0){hr_sw='0';}
    76b8:	4953      	ldr	r1, [pc, #332]	; (7808 <socket_cb+0x5c4>)
    76ba:	4846      	ldr	r0, [pc, #280]	; (77d4 <socket_cb+0x590>)
    76bc:	4b46      	ldr	r3, [pc, #280]	; (77d8 <socket_cb+0x594>)
    76be:	4798      	blx	r3
    76c0:	2800      	cmp	r0, #0
    76c2:	d103      	bne.n	76cc <socket_cb+0x488>
    76c4:	2230      	movs	r2, #48	; 0x30
    76c6:	4b4f      	ldr	r3, [pc, #316]	; (7804 <socket_cb+0x5c0>)
    76c8:	701a      	strb	r2, [r3, #0]
    76ca:	e66a      	b.n	73a2 <socket_cb+0x15e>
				else if(strcmp(arr,"@ER")==0){er_can_sw='1';}
    76cc:	494f      	ldr	r1, [pc, #316]	; (780c <socket_cb+0x5c8>)
    76ce:	4841      	ldr	r0, [pc, #260]	; (77d4 <socket_cb+0x590>)
    76d0:	4b41      	ldr	r3, [pc, #260]	; (77d8 <socket_cb+0x594>)
    76d2:	4798      	blx	r3
    76d4:	2800      	cmp	r0, #0
    76d6:	d103      	bne.n	76e0 <socket_cb+0x49c>
    76d8:	2231      	movs	r2, #49	; 0x31
    76da:	4b4d      	ldr	r3, [pc, #308]	; (7810 <socket_cb+0x5cc>)
    76dc:	701a      	strb	r2, [r3, #0]
    76de:	e660      	b.n	73a2 <socket_cb+0x15e>
				else if(strcmp(arr,"@ET")==0){er_can_sw='0';}
    76e0:	494c      	ldr	r1, [pc, #304]	; (7814 <socket_cb+0x5d0>)
    76e2:	483c      	ldr	r0, [pc, #240]	; (77d4 <socket_cb+0x590>)
    76e4:	4b3c      	ldr	r3, [pc, #240]	; (77d8 <socket_cb+0x594>)
    76e6:	4798      	blx	r3
    76e8:	2800      	cmp	r0, #0
    76ea:	d103      	bne.n	76f4 <socket_cb+0x4b0>
    76ec:	2230      	movs	r2, #48	; 0x30
    76ee:	4b48      	ldr	r3, [pc, #288]	; (7810 <socket_cb+0x5cc>)
    76f0:	701a      	strb	r2, [r3, #0]
    76f2:	e656      	b.n	73a2 <socket_cb+0x15e>
				else if(strcmp(arr,"@WC")==0){} //WORK COMPLE
    76f4:	4948      	ldr	r1, [pc, #288]	; (7818 <socket_cb+0x5d4>)
    76f6:	4837      	ldr	r0, [pc, #220]	; (77d4 <socket_cb+0x590>)
    76f8:	4b37      	ldr	r3, [pc, #220]	; (77d8 <socket_cb+0x594>)
    76fa:	4798      	blx	r3
    76fc:	2800      	cmp	r0, #0
    76fe:	d100      	bne.n	7702 <socket_cb+0x4be>
    7700:	e64f      	b.n	73a2 <socket_cb+0x15e>
				else if(strcmp(arr,"@AS")==0){at_start_sw='1';}
    7702:	4946      	ldr	r1, [pc, #280]	; (781c <socket_cb+0x5d8>)
    7704:	4833      	ldr	r0, [pc, #204]	; (77d4 <socket_cb+0x590>)
    7706:	4b34      	ldr	r3, [pc, #208]	; (77d8 <socket_cb+0x594>)
    7708:	4798      	blx	r3
    770a:	2800      	cmp	r0, #0
    770c:	d103      	bne.n	7716 <socket_cb+0x4d2>
    770e:	2231      	movs	r2, #49	; 0x31
    7710:	4b43      	ldr	r3, [pc, #268]	; (7820 <socket_cb+0x5dc>)
    7712:	701a      	strb	r2, [r3, #0]
    7714:	e645      	b.n	73a2 <socket_cb+0x15e>
				else if(strcmp(arr,"@EM")==0){emg_sw='1'; ready='0'; mu_sel_sw='0'; at_sel_sw='0'; }
    7716:	4943      	ldr	r1, [pc, #268]	; (7824 <socket_cb+0x5e0>)
    7718:	482e      	ldr	r0, [pc, #184]	; (77d4 <socket_cb+0x590>)
    771a:	4b2f      	ldr	r3, [pc, #188]	; (77d8 <socket_cb+0x594>)
    771c:	4798      	blx	r3
    771e:	2800      	cmp	r0, #0
    7720:	d10a      	bne.n	7738 <socket_cb+0x4f4>
    7722:	2231      	movs	r2, #49	; 0x31
    7724:	4b40      	ldr	r3, [pc, #256]	; (7828 <socket_cb+0x5e4>)
    7726:	701a      	strb	r2, [r3, #0]
    7728:	2330      	movs	r3, #48	; 0x30
    772a:	4a33      	ldr	r2, [pc, #204]	; (77f8 <socket_cb+0x5b4>)
    772c:	7013      	strb	r3, [r2, #0]
    772e:	4a3f      	ldr	r2, [pc, #252]	; (782c <socket_cb+0x5e8>)
    7730:	7013      	strb	r3, [r2, #0]
    7732:	4a3f      	ldr	r2, [pc, #252]	; (7830 <socket_cb+0x5ec>)
    7734:	7013      	strb	r3, [r2, #0]
    7736:	e639      	b.n	73ac <socket_cb+0x168>
				else if(strcmp(arr,"@EC")==0){emg_sw='0';}
    7738:	493e      	ldr	r1, [pc, #248]	; (7834 <socket_cb+0x5f0>)
    773a:	4826      	ldr	r0, [pc, #152]	; (77d4 <socket_cb+0x590>)
    773c:	4b26      	ldr	r3, [pc, #152]	; (77d8 <socket_cb+0x594>)
    773e:	4798      	blx	r3
    7740:	2800      	cmp	r0, #0
    7742:	d103      	bne.n	774c <socket_cb+0x508>
    7744:	2230      	movs	r2, #48	; 0x30
    7746:	4b38      	ldr	r3, [pc, #224]	; (7828 <socket_cb+0x5e4>)
    7748:	701a      	strb	r2, [r3, #0]
    774a:	e62a      	b.n	73a2 <socket_cb+0x15e>
				else if(strcmp(arr,"@AU")==0){at_sel_sw='1'; mu_sel_sw='0';}
    774c:	493a      	ldr	r1, [pc, #232]	; (7838 <socket_cb+0x5f4>)
    774e:	4821      	ldr	r0, [pc, #132]	; (77d4 <socket_cb+0x590>)
    7750:	4b21      	ldr	r3, [pc, #132]	; (77d8 <socket_cb+0x594>)
    7752:	4798      	blx	r3
    7754:	2800      	cmp	r0, #0
    7756:	d106      	bne.n	7766 <socket_cb+0x522>
    7758:	2231      	movs	r2, #49	; 0x31
    775a:	4b35      	ldr	r3, [pc, #212]	; (7830 <socket_cb+0x5ec>)
    775c:	701a      	strb	r2, [r3, #0]
    775e:	3a01      	subs	r2, #1
    7760:	4b32      	ldr	r3, [pc, #200]	; (782c <socket_cb+0x5e8>)
    7762:	701a      	strb	r2, [r3, #0]
    7764:	e61d      	b.n	73a2 <socket_cb+0x15e>
				else if(strcmp(arr,"@MA")==0){mu_sel_sw='1'; at_sel_sw='0'; at_start_sw='0';}
    7766:	4935      	ldr	r1, [pc, #212]	; (783c <socket_cb+0x5f8>)
    7768:	481a      	ldr	r0, [pc, #104]	; (77d4 <socket_cb+0x590>)
    776a:	4b1b      	ldr	r3, [pc, #108]	; (77d8 <socket_cb+0x594>)
    776c:	4798      	blx	r3
    776e:	2800      	cmp	r0, #0
    7770:	d000      	beq.n	7774 <socket_cb+0x530>
    7772:	e616      	b.n	73a2 <socket_cb+0x15e>
    7774:	2231      	movs	r2, #49	; 0x31
    7776:	4b2d      	ldr	r3, [pc, #180]	; (782c <socket_cb+0x5e8>)
    7778:	701a      	strb	r2, [r3, #0]
    777a:	2330      	movs	r3, #48	; 0x30
    777c:	4a2c      	ldr	r2, [pc, #176]	; (7830 <socket_cb+0x5ec>)
    777e:	7013      	strb	r3, [r2, #0]
    7780:	4a27      	ldr	r2, [pc, #156]	; (7820 <socket_cb+0x5dc>)
    7782:	7013      	strb	r3, [r2, #0]
    7784:	e60d      	b.n	73a2 <socket_cb+0x15e>
				if(emg_sw=='1'){sol_valve[151]='1';}
    7786:	2131      	movs	r1, #49	; 0x31
    7788:	3366      	adds	r3, #102	; 0x66
    778a:	4a1c      	ldr	r2, [pc, #112]	; (77fc <socket_cb+0x5b8>)
    778c:	54d1      	strb	r1, [r2, r3]
    778e:	e61a      	b.n	73c6 <socket_cb+0x182>
				if(mu_sel_sw=='1'){sol_valve[152]='1';}
    7790:	2131      	movs	r1, #49	; 0x31
    7792:	3367      	adds	r3, #103	; 0x67
    7794:	4a19      	ldr	r2, [pc, #100]	; (77fc <socket_cb+0x5b8>)
    7796:	54d1      	strb	r1, [r2, r3]
    7798:	e61e      	b.n	73d8 <socket_cb+0x194>
				if(at_sel_sw=='1'){sol_valve[153]='1';}
    779a:	2131      	movs	r1, #49	; 0x31
    779c:	3368      	adds	r3, #104	; 0x68
    779e:	4a17      	ldr	r2, [pc, #92]	; (77fc <socket_cb+0x5b8>)
    77a0:	54d1      	strb	r1, [r2, r3]
    77a2:	e622      	b.n	73ea <socket_cb+0x1a6>
				if(at_start_sw=='1'){sol_valve[154]='1';}
    77a4:	2131      	movs	r1, #49	; 0x31
    77a6:	3369      	adds	r3, #105	; 0x69
    77a8:	4a14      	ldr	r2, [pc, #80]	; (77fc <socket_cb+0x5b8>)
    77aa:	54d1      	strb	r1, [r2, r3]
    77ac:	e626      	b.n	73fc <socket_cb+0x1b8>
				if(hr_sw=='1'){sol_valve[157]='1';}
    77ae:	2131      	movs	r1, #49	; 0x31
    77b0:	336c      	adds	r3, #108	; 0x6c
    77b2:	4a12      	ldr	r2, [pc, #72]	; (77fc <socket_cb+0x5b8>)
    77b4:	54d1      	strb	r1, [r2, r3]
    77b6:	e62a      	b.n	740e <socket_cb+0x1ca>
				printf("socket_cb: recv error!\r\n");
    77b8:	4821      	ldr	r0, [pc, #132]	; (7840 <socket_cb+0x5fc>)
    77ba:	4b22      	ldr	r3, [pc, #136]	; (7844 <socket_cb+0x600>)
    77bc:	4798      	blx	r3
				close(tcp_client_socket);
    77be:	4c22      	ldr	r4, [pc, #136]	; (7848 <socket_cb+0x604>)
    77c0:	2000      	movs	r0, #0
    77c2:	5620      	ldrsb	r0, [r4, r0]
    77c4:	4b21      	ldr	r3, [pc, #132]	; (784c <socket_cb+0x608>)
    77c6:	4798      	blx	r3
				tcp_client_socket = -1;
    77c8:	23ff      	movs	r3, #255	; 0xff
    77ca:	7023      	strb	r3, [r4, #0]
}
    77cc:	e5a6      	b.n	731c <socket_cb+0xd8>
    77ce:	46c0      	nop			; (mov r8, r8)
    77d0:	0000afd0 	.word	0x0000afd0
    77d4:	200003d0 	.word	0x200003d0
    77d8:	00008f45 	.word	0x00008f45
    77dc:	20000025 	.word	0x20000025
    77e0:	20000024 	.word	0x20000024
    77e4:	0000afd4 	.word	0x0000afd4
    77e8:	0000afd8 	.word	0x0000afd8
    77ec:	20000023 	.word	0x20000023
    77f0:	0000afdc 	.word	0x0000afdc
    77f4:	0000afe0 	.word	0x0000afe0
    77f8:	2000002a 	.word	0x2000002a
    77fc:	200009a4 	.word	0x200009a4
    7800:	0000afe4 	.word	0x0000afe4
    7804:	20000028 	.word	0x20000028
    7808:	0000afe8 	.word	0x0000afe8
    780c:	0000afec 	.word	0x0000afec
    7810:	20000027 	.word	0x20000027
    7814:	0000aff0 	.word	0x0000aff0
    7818:	0000aff4 	.word	0x0000aff4
    781c:	0000aff8 	.word	0x0000aff8
    7820:	20000021 	.word	0x20000021
    7824:	0000affc 	.word	0x0000affc
    7828:	20000026 	.word	0x20000026
    782c:	20000029 	.word	0x20000029
    7830:	20000020 	.word	0x20000020
    7834:	0000b000 	.word	0x0000b000
    7838:	0000b004 	.word	0x0000b004
    783c:	0000b008 	.word	0x0000b008
    7840:	0000b00c 	.word	0x0000b00c
    7844:	00008cf1 	.word	0x00008cf1
    7848:	2000002b 	.word	0x2000002b
    784c:	000030e1 	.word	0x000030e1

00007850 <wifi_cb>:

static void wifi_cb(uint8_t u8MsgType, void *pvMsg)
{
    7850:	b510      	push	{r4, lr}
    7852:	b082      	sub	sp, #8
	switch(u8MsgType) 
    7854:	282c      	cmp	r0, #44	; 0x2c
    7856:	d003      	beq.n	7860 <wifi_cb+0x10>
    7858:	2832      	cmp	r0, #50	; 0x32
    785a:	d01b      	beq.n	7894 <wifi_cb+0x44>
			break;
		}

		default:break;
	}
}
    785c:	b002      	add	sp, #8
    785e:	bd10      	pop	{r4, pc}
			if(pstrWifiState->u8CurrState == M2M_WIFI_CONNECTED) 
    7860:	780b      	ldrb	r3, [r1, #0]
    7862:	2b01      	cmp	r3, #1
    7864:	d010      	beq.n	7888 <wifi_cb+0x38>
			else if(pstrWifiState->u8CurrState == M2M_WIFI_DISCONNECTED) 
    7866:	2b00      	cmp	r3, #0
    7868:	d1f8      	bne.n	785c <wifi_cb+0xc>
				printf("wifi_cb: M2M_WIFI_RESP_CON_STATE_CHANGED: DISCONNECTED\r\n");
    786a:	4811      	ldr	r0, [pc, #68]	; (78b0 <wifi_cb+0x60>)
    786c:	4b11      	ldr	r3, [pc, #68]	; (78b4 <wifi_cb+0x64>)
    786e:	4798      	blx	r3
				wifi_connected = 0;
    7870:	2200      	movs	r2, #0
    7872:	4b11      	ldr	r3, [pc, #68]	; (78b8 <wifi_cb+0x68>)
    7874:	701a      	strb	r2, [r3, #0]
				m2m_wifi_connect((char *)MAIN_WLAN_SSID, sizeof(MAIN_WLAN_SSID), 
    7876:	23ff      	movs	r3, #255	; 0xff
    7878:	9300      	str	r3, [sp, #0]
    787a:	4b10      	ldr	r3, [pc, #64]	; (78bc <wifi_cb+0x6c>)
    787c:	3202      	adds	r2, #2
    787e:	210e      	movs	r1, #14
    7880:	480f      	ldr	r0, [pc, #60]	; (78c0 <wifi_cb+0x70>)
    7882:	4c10      	ldr	r4, [pc, #64]	; (78c4 <wifi_cb+0x74>)
    7884:	47a0      	blx	r4
    7886:	e7e9      	b.n	785c <wifi_cb+0xc>
				printf("wifi_cb: M2M_WIFI_RESP_CON_STATE_CHANGED: CONNECTED\r\n");
    7888:	480f      	ldr	r0, [pc, #60]	; (78c8 <wifi_cb+0x78>)
    788a:	4b0a      	ldr	r3, [pc, #40]	; (78b4 <wifi_cb+0x64>)
    788c:	4798      	blx	r3
				m2m_wifi_request_dhcp_client();
    788e:	4b0f      	ldr	r3, [pc, #60]	; (78cc <wifi_cb+0x7c>)
    7890:	4798      	blx	r3
    7892:	e7e3      	b.n	785c <wifi_cb+0xc>
			wifi_connected = 1;
    7894:	2201      	movs	r2, #1
    7896:	4b08      	ldr	r3, [pc, #32]	; (78b8 <wifi_cb+0x68>)
    7898:	701a      	strb	r2, [r3, #0]
			printf("wifi_cb: M2M_WIFI_REQ_DHCP_CONF: IP is %u.%u.%u.%u\r\n",
    789a:	788b      	ldrb	r3, [r1, #2]
    789c:	784a      	ldrb	r2, [r1, #1]
    789e:	7808      	ldrb	r0, [r1, #0]
    78a0:	78c9      	ldrb	r1, [r1, #3]
    78a2:	9100      	str	r1, [sp, #0]
    78a4:	0001      	movs	r1, r0
    78a6:	480a      	ldr	r0, [pc, #40]	; (78d0 <wifi_cb+0x80>)
    78a8:	4c0a      	ldr	r4, [pc, #40]	; (78d4 <wifi_cb+0x84>)
    78aa:	47a0      	blx	r4
}
    78ac:	e7d6      	b.n	785c <wifi_cb+0xc>
    78ae:	46c0      	nop			; (mov r8, r8)
    78b0:	0000b060 	.word	0x0000b060
    78b4:	00008cf1 	.word	0x00008cf1
    78b8:	200009bc 	.word	0x200009bc
    78bc:	0000b098 	.word	0x0000b098
    78c0:	0000b0a4 	.word	0x0000b0a4
    78c4:	00001479 	.word	0x00001479
    78c8:	0000b028 	.word	0x0000b028
    78cc:	00001495 	.word	0x00001495
    78d0:	0000b0b4 	.word	0x0000b0b4
    78d4:	00008bd5 	.word	0x00008bd5

000078d8 <ser_data_out>:
{
    78d8:	b5f8      	push	{r3, r4, r5, r6, r7, lr}
    78da:	46ce      	mov	lr, r9
    78dc:	4647      	mov	r7, r8
    78de:	b580      	push	{r7, lr}
    78e0:	0004      	movs	r4, r0
	for(clk_count_num=0;clk_count_num<8;clk_count_num++)
    78e2:	2200      	movs	r2, #0
    78e4:	4b19      	ldr	r3, [pc, #100]	; (794c <ser_data_out+0x74>)
    78e6:	701a      	strb	r2, [r3, #0]
    78e8:	4698      	mov	r8, r3
		else{SER_HIGH;delay_ms(2);}
    78ea:	2640      	movs	r6, #64	; 0x40
		SCK_HIGH;
    78ec:	2580      	movs	r5, #128	; 0x80
    78ee:	006d      	lsls	r5, r5, #1
	for(clk_count_num=0;clk_count_num<8;clk_count_num++)
    78f0:	4643      	mov	r3, r8
    78f2:	781b      	ldrb	r3, [r3, #0]
    78f4:	2b07      	cmp	r3, #7
    78f6:	d90a      	bls.n	790e <ser_data_out+0x36>
	RCK_HIGH;
    78f8:	4c15      	ldr	r4, [pc, #84]	; (7950 <ser_data_out+0x78>)
    78fa:	2580      	movs	r5, #128	; 0x80
    78fc:	61a5      	str	r5, [r4, #24]
	delay_ms(2);
    78fe:	2002      	movs	r0, #2
    7900:	4b14      	ldr	r3, [pc, #80]	; (7954 <ser_data_out+0x7c>)
    7902:	4798      	blx	r3
	RCK_LOW;
    7904:	6165      	str	r5, [r4, #20]
}
    7906:	bc0c      	pop	{r2, r3}
    7908:	4690      	mov	r8, r2
    790a:	4699      	mov	r9, r3
    790c:	bdf8      	pop	{r3, r4, r5, r6, r7, pc}
		if((out_data&0x80)==0){SER_LOW;delay_ms(2);}
    790e:	b263      	sxtb	r3, r4
    7910:	2b00      	cmp	r3, #0
    7912:	db15      	blt.n	7940 <ser_data_out+0x68>
    7914:	4b0e      	ldr	r3, [pc, #56]	; (7950 <ser_data_out+0x78>)
    7916:	615e      	str	r6, [r3, #20]
    7918:	2002      	movs	r0, #2
    791a:	4b0e      	ldr	r3, [pc, #56]	; (7954 <ser_data_out+0x7c>)
    791c:	4798      	blx	r3
		out_data<<=1;
    791e:	0064      	lsls	r4, r4, #1
    7920:	b2e4      	uxtb	r4, r4
		SCK_HIGH;
    7922:	4b0b      	ldr	r3, [pc, #44]	; (7950 <ser_data_out+0x78>)
    7924:	4699      	mov	r9, r3
    7926:	619d      	str	r5, [r3, #24]
		delay_ms(2);
    7928:	2002      	movs	r0, #2
    792a:	4f0a      	ldr	r7, [pc, #40]	; (7954 <ser_data_out+0x7c>)
    792c:	47b8      	blx	r7
		SCK_LOW;
    792e:	464b      	mov	r3, r9
    7930:	615d      	str	r5, [r3, #20]
		delay_ms(2);
    7932:	2002      	movs	r0, #2
    7934:	47b8      	blx	r7
	for(clk_count_num=0;clk_count_num<8;clk_count_num++)
    7936:	4a05      	ldr	r2, [pc, #20]	; (794c <ser_data_out+0x74>)
    7938:	7813      	ldrb	r3, [r2, #0]
    793a:	3301      	adds	r3, #1
    793c:	7013      	strb	r3, [r2, #0]
    793e:	e7d7      	b.n	78f0 <ser_data_out+0x18>
		else{SER_HIGH;delay_ms(2);}
    7940:	4b03      	ldr	r3, [pc, #12]	; (7950 <ser_data_out+0x78>)
    7942:	619e      	str	r6, [r3, #24]
    7944:	2002      	movs	r0, #2
    7946:	4b03      	ldr	r3, [pc, #12]	; (7954 <ser_data_out+0x7c>)
    7948:	4798      	blx	r3
    794a:	e7e8      	b.n	791e <ser_data_out+0x46>
    794c:	200003e1 	.word	0x200003e1
    7950:	41004400 	.word	0x41004400
    7954:	00004085 	.word	0x00004085

00007958 <sol_valve_cont>:
{	
    7958:	b510      	push	{r4, lr}
	if(at_start_sw=='1'){at_move='1';}
    795a:	4b70      	ldr	r3, [pc, #448]	; (7b1c <sol_valve_cont+0x1c4>)
    795c:	781b      	ldrb	r3, [r3, #0]
    795e:	2b31      	cmp	r3, #49	; 0x31
    7960:	d102      	bne.n	7968 <sol_valve_cont+0x10>
    7962:	2231      	movs	r2, #49	; 0x31
    7964:	4b6e      	ldr	r3, [pc, #440]	; (7b20 <sol_valve_cont+0x1c8>)
    7966:	701a      	strb	r2, [r3, #0]
	switch(sequence)
    7968:	3831      	subs	r0, #49	; 0x31
    796a:	b2c3      	uxtb	r3, r0
    796c:	2b12      	cmp	r3, #18
    796e:	d812      	bhi.n	7996 <sol_valve_cont+0x3e>
    7970:	b2c0      	uxtb	r0, r0
    7972:	0080      	lsls	r0, r0, #2
    7974:	4b6b      	ldr	r3, [pc, #428]	; (7b24 <sol_valve_cont+0x1cc>)
    7976:	581b      	ldr	r3, [r3, r0]
    7978:	469f      	mov	pc, r3
		case '1' :	at_step='1';
    797a:	2231      	movs	r2, #49	; 0x31
    797c:	4b6a      	ldr	r3, [pc, #424]	; (7b28 <sol_valve_cont+0x1d0>)
    797e:	701a      	strb	r2, [r3, #0]
					PORT->Group[1].OUTSET.bit.OUTSET=PORT_PB02;
    7980:	2104      	movs	r1, #4
    7982:	2398      	movs	r3, #152	; 0x98
    7984:	4a69      	ldr	r2, [pc, #420]	; (7b2c <sol_valve_cont+0x1d4>)
    7986:	50d1      	str	r1, [r2, r3]
					delay_us(500);
    7988:	20fa      	movs	r0, #250	; 0xfa
    798a:	0040      	lsls	r0, r0, #1
    798c:	4b68      	ldr	r3, [pc, #416]	; (7b30 <sol_valve_cont+0x1d8>)
    798e:	4798      	blx	r3
					ser_data_out(0x10);
    7990:	2010      	movs	r0, #16
    7992:	4b68      	ldr	r3, [pc, #416]	; (7b34 <sol_valve_cont+0x1dc>)
    7994:	4798      	blx	r3
	delay_us(500);
    7996:	20fa      	movs	r0, #250	; 0xfa
    7998:	0040      	lsls	r0, r0, #1
    799a:	4b65      	ldr	r3, [pc, #404]	; (7b30 <sol_valve_cont+0x1d8>)
    799c:	4798      	blx	r3
	PORT->Group[0].OUTCLR.bit.OUTCLR=PORT_PA28;
    799e:	4b63      	ldr	r3, [pc, #396]	; (7b2c <sol_valve_cont+0x1d4>)
    79a0:	2280      	movs	r2, #128	; 0x80
    79a2:	0552      	lsls	r2, r2, #21
    79a4:	615a      	str	r2, [r3, #20]
	PORT->Group[1].OUTCLR.bit.OUTCLR=PORT_PB02;
    79a6:	2104      	movs	r1, #4
    79a8:	2294      	movs	r2, #148	; 0x94
    79aa:	5099      	str	r1, [r3, r2]
}
    79ac:	bd10      	pop	{r4, pc}
		case '2' :	at_step='2';
    79ae:	2232      	movs	r2, #50	; 0x32
    79b0:	4b5d      	ldr	r3, [pc, #372]	; (7b28 <sol_valve_cont+0x1d0>)
    79b2:	701a      	strb	r2, [r3, #0]
					PORT->Group[1].OUTSET.bit.OUTSET=PORT_PB02;
    79b4:	2104      	movs	r1, #4
    79b6:	2398      	movs	r3, #152	; 0x98
    79b8:	4a5c      	ldr	r2, [pc, #368]	; (7b2c <sol_valve_cont+0x1d4>)
    79ba:	50d1      	str	r1, [r2, r3]
					delay_us(500);
    79bc:	20fa      	movs	r0, #250	; 0xfa
    79be:	0040      	lsls	r0, r0, #1
    79c0:	4b5b      	ldr	r3, [pc, #364]	; (7b30 <sol_valve_cont+0x1d8>)
    79c2:	4798      	blx	r3
					ser_data_out(0x40);
    79c4:	2040      	movs	r0, #64	; 0x40
    79c6:	4b5b      	ldr	r3, [pc, #364]	; (7b34 <sol_valve_cont+0x1dc>)
    79c8:	4798      	blx	r3
					break;
    79ca:	e7e4      	b.n	7996 <sol_valve_cont+0x3e>
		case '3' :	at_step='3';
    79cc:	2233      	movs	r2, #51	; 0x33
    79ce:	4b56      	ldr	r3, [pc, #344]	; (7b28 <sol_valve_cont+0x1d0>)
    79d0:	701a      	strb	r2, [r3, #0]
					PORT->Group[1].OUTSET.bit.OUTSET=PORT_PB02;
    79d2:	2104      	movs	r1, #4
    79d4:	2398      	movs	r3, #152	; 0x98
    79d6:	4a55      	ldr	r2, [pc, #340]	; (7b2c <sol_valve_cont+0x1d4>)
    79d8:	50d1      	str	r1, [r2, r3]
					delay_us(500);
    79da:	20fa      	movs	r0, #250	; 0xfa
    79dc:	0040      	lsls	r0, r0, #1
    79de:	4b54      	ldr	r3, [pc, #336]	; (7b30 <sol_valve_cont+0x1d8>)
    79e0:	4798      	blx	r3
					ser_data_out(0x01);
    79e2:	2001      	movs	r0, #1
    79e4:	4b53      	ldr	r3, [pc, #332]	; (7b34 <sol_valve_cont+0x1dc>)
    79e6:	4798      	blx	r3
					break;
    79e8:	e7d5      	b.n	7996 <sol_valve_cont+0x3e>
		case '4' :	at_step='4';
    79ea:	2234      	movs	r2, #52	; 0x34
    79ec:	4b4e      	ldr	r3, [pc, #312]	; (7b28 <sol_valve_cont+0x1d0>)
    79ee:	701a      	strb	r2, [r3, #0]
					PORT->Group[1].OUTSET.bit.OUTSET=PORT_PB02;
    79f0:	2404      	movs	r4, #4
    79f2:	2398      	movs	r3, #152	; 0x98
    79f4:	4a4d      	ldr	r2, [pc, #308]	; (7b2c <sol_valve_cont+0x1d4>)
    79f6:	50d4      	str	r4, [r2, r3]
					delay_us(500);
    79f8:	20fa      	movs	r0, #250	; 0xfa
    79fa:	0040      	lsls	r0, r0, #1
    79fc:	4b4c      	ldr	r3, [pc, #304]	; (7b30 <sol_valve_cont+0x1d8>)
    79fe:	4798      	blx	r3
					ser_data_out(0x04);
    7a00:	0020      	movs	r0, r4
    7a02:	4b4c      	ldr	r3, [pc, #304]	; (7b34 <sol_valve_cont+0x1dc>)
    7a04:	4798      	blx	r3
					break;
    7a06:	e7c6      	b.n	7996 <sol_valve_cont+0x3e>
		case '5' :	at_step='5';
    7a08:	2235      	movs	r2, #53	; 0x35
    7a0a:	4b47      	ldr	r3, [pc, #284]	; (7b28 <sol_valve_cont+0x1d0>)
    7a0c:	701a      	strb	r2, [r3, #0]
					PORT->Group[0].OUTSET.bit.OUTSET=PORT_PA28;
    7a0e:	4b47      	ldr	r3, [pc, #284]	; (7b2c <sol_valve_cont+0x1d4>)
    7a10:	2280      	movs	r2, #128	; 0x80
    7a12:	0552      	lsls	r2, r2, #21
    7a14:	619a      	str	r2, [r3, #24]
					PORT->Group[1].OUTSET.bit.OUTSET=PORT_PB02;
    7a16:	2104      	movs	r1, #4
    7a18:	2298      	movs	r2, #152	; 0x98
    7a1a:	5099      	str	r1, [r3, r2]
					delay_us(500);
    7a1c:	20fa      	movs	r0, #250	; 0xfa
    7a1e:	0040      	lsls	r0, r0, #1
    7a20:	4b43      	ldr	r3, [pc, #268]	; (7b30 <sol_valve_cont+0x1d8>)
    7a22:	4798      	blx	r3
					ser_data_out(0x10);
    7a24:	2010      	movs	r0, #16
    7a26:	4b43      	ldr	r3, [pc, #268]	; (7b34 <sol_valve_cont+0x1dc>)
    7a28:	4798      	blx	r3
		break;
    7a2a:	e7b4      	b.n	7996 <sol_valve_cont+0x3e>
		case '6' :	at_dir='1';
    7a2c:	2231      	movs	r2, #49	; 0x31
    7a2e:	4b42      	ldr	r3, [pc, #264]	; (7b38 <sol_valve_cont+0x1e0>)
    7a30:	701a      	strb	r2, [r3, #0]
					at_step='6';
    7a32:	3205      	adds	r2, #5
    7a34:	4b3c      	ldr	r3, [pc, #240]	; (7b28 <sol_valve_cont+0x1d0>)
    7a36:	701a      	strb	r2, [r3, #0]
					PORT->Group[0].OUTSET.bit.OUTSET=PORT_PA28;
    7a38:	4b3c      	ldr	r3, [pc, #240]	; (7b2c <sol_valve_cont+0x1d4>)
    7a3a:	2280      	movs	r2, #128	; 0x80
    7a3c:	0552      	lsls	r2, r2, #21
    7a3e:	619a      	str	r2, [r3, #24]
					PORT->Group[1].OUTSET.bit.OUTSET=PORT_PB02;
    7a40:	2104      	movs	r1, #4
    7a42:	2298      	movs	r2, #152	; 0x98
    7a44:	5099      	str	r1, [r3, r2]
					delay_us(500);
    7a46:	20fa      	movs	r0, #250	; 0xfa
    7a48:	0040      	lsls	r0, r0, #1
    7a4a:	4b39      	ldr	r3, [pc, #228]	; (7b30 <sol_valve_cont+0x1d8>)
    7a4c:	4798      	blx	r3
					ser_data_out(0x40);
    7a4e:	2040      	movs	r0, #64	; 0x40
    7a50:	4b38      	ldr	r3, [pc, #224]	; (7b34 <sol_valve_cont+0x1dc>)
    7a52:	4798      	blx	r3
					break;
    7a54:	e79f      	b.n	7996 <sol_valve_cont+0x3e>
		case '7' :	at_step='7';
    7a56:	2237      	movs	r2, #55	; 0x37
    7a58:	4b33      	ldr	r3, [pc, #204]	; (7b28 <sol_valve_cont+0x1d0>)
    7a5a:	701a      	strb	r2, [r3, #0]
					PORT->Group[0].OUTSET.bit.OUTSET=PORT_PA28;
    7a5c:	4b33      	ldr	r3, [pc, #204]	; (7b2c <sol_valve_cont+0x1d4>)
    7a5e:	2280      	movs	r2, #128	; 0x80
    7a60:	0552      	lsls	r2, r2, #21
    7a62:	619a      	str	r2, [r3, #24]
					PORT->Group[1].OUTSET.bit.OUTSET=PORT_PB02;
    7a64:	2104      	movs	r1, #4
    7a66:	2298      	movs	r2, #152	; 0x98
    7a68:	5099      	str	r1, [r3, r2]
					delay_us(500);
    7a6a:	20fa      	movs	r0, #250	; 0xfa
    7a6c:	0040      	lsls	r0, r0, #1
    7a6e:	4b30      	ldr	r3, [pc, #192]	; (7b30 <sol_valve_cont+0x1d8>)
    7a70:	4798      	blx	r3
					ser_data_out(0x80);
    7a72:	2080      	movs	r0, #128	; 0x80
    7a74:	4b2f      	ldr	r3, [pc, #188]	; (7b34 <sol_valve_cont+0x1dc>)
    7a76:	4798      	blx	r3
					break;
    7a78:	e78d      	b.n	7996 <sol_valve_cont+0x3e>
		case '8' :	at_step='8';
    7a7a:	2238      	movs	r2, #56	; 0x38
    7a7c:	4b2a      	ldr	r3, [pc, #168]	; (7b28 <sol_valve_cont+0x1d0>)
    7a7e:	701a      	strb	r2, [r3, #0]
					PORT->Group[0].OUTSET.bit.OUTSET=PORT_PA28;
    7a80:	4b2a      	ldr	r3, [pc, #168]	; (7b2c <sol_valve_cont+0x1d4>)
    7a82:	2280      	movs	r2, #128	; 0x80
    7a84:	0552      	lsls	r2, r2, #21
    7a86:	619a      	str	r2, [r3, #24]
					PORT->Group[1].OUTSET.bit.OUTSET=PORT_PB02;
    7a88:	2104      	movs	r1, #4
    7a8a:	2298      	movs	r2, #152	; 0x98
    7a8c:	5099      	str	r1, [r3, r2]
					delay_us(500);
    7a8e:	20fa      	movs	r0, #250	; 0xfa
    7a90:	0040      	lsls	r0, r0, #1
    7a92:	4b27      	ldr	r3, [pc, #156]	; (7b30 <sol_valve_cont+0x1d8>)
    7a94:	4798      	blx	r3
					ser_data_out(0x20);
    7a96:	2020      	movs	r0, #32
    7a98:	4b26      	ldr	r3, [pc, #152]	; (7b34 <sol_valve_cont+0x1dc>)
    7a9a:	4798      	blx	r3
					break;
    7a9c:	e77b      	b.n	7996 <sol_valve_cont+0x3e>
		case '9' :	at_step='9';
    7a9e:	2239      	movs	r2, #57	; 0x39
    7aa0:	4b21      	ldr	r3, [pc, #132]	; (7b28 <sol_valve_cont+0x1d0>)
    7aa2:	701a      	strb	r2, [r3, #0]
					PORT->Group[1].OUTSET.bit.OUTSET=PORT_PB02;
    7aa4:	2104      	movs	r1, #4
    7aa6:	2398      	movs	r3, #152	; 0x98
    7aa8:	4a20      	ldr	r2, [pc, #128]	; (7b2c <sol_valve_cont+0x1d4>)
    7aaa:	50d1      	str	r1, [r2, r3]
					delay_us(500);
    7aac:	20fa      	movs	r0, #250	; 0xfa
    7aae:	0040      	lsls	r0, r0, #1
    7ab0:	4b1f      	ldr	r3, [pc, #124]	; (7b30 <sol_valve_cont+0x1d8>)
    7ab2:	4798      	blx	r3
					ser_data_out(0x08);
    7ab4:	2008      	movs	r0, #8
    7ab6:	4b1f      	ldr	r3, [pc, #124]	; (7b34 <sol_valve_cont+0x1dc>)
    7ab8:	4798      	blx	r3
					break;
    7aba:	e76c      	b.n	7996 <sol_valve_cont+0x3e>
		case 'A' :	at_step='A';
    7abc:	2241      	movs	r2, #65	; 0x41
    7abe:	4b1a      	ldr	r3, [pc, #104]	; (7b28 <sol_valve_cont+0x1d0>)
    7ac0:	701a      	strb	r2, [r3, #0]
					PORT->Group[1].OUTSET.bit.OUTSET=PORT_PB02;
    7ac2:	2104      	movs	r1, #4
    7ac4:	2398      	movs	r3, #152	; 0x98
    7ac6:	4a19      	ldr	r2, [pc, #100]	; (7b2c <sol_valve_cont+0x1d4>)
    7ac8:	50d1      	str	r1, [r2, r3]
					delay_us(500);
    7aca:	20fa      	movs	r0, #250	; 0xfa
    7acc:	0040      	lsls	r0, r0, #1
    7ace:	4b18      	ldr	r3, [pc, #96]	; (7b30 <sol_valve_cont+0x1d8>)
    7ad0:	4798      	blx	r3
					ser_data_out(0x02);
    7ad2:	2002      	movs	r0, #2
    7ad4:	4b17      	ldr	r3, [pc, #92]	; (7b34 <sol_valve_cont+0x1dc>)
    7ad6:	4798      	blx	r3
					break;
    7ad8:	e75d      	b.n	7996 <sol_valve_cont+0x3e>
		case 'B' :	at_step='B';
    7ada:	2242      	movs	r2, #66	; 0x42
    7adc:	4b12      	ldr	r3, [pc, #72]	; (7b28 <sol_valve_cont+0x1d0>)
    7ade:	701a      	strb	r2, [r3, #0]
					PORT->Group[1].OUTSET.bit.OUTSET=PORT_PB02;
    7ae0:	2104      	movs	r1, #4
    7ae2:	2398      	movs	r3, #152	; 0x98
    7ae4:	4a11      	ldr	r2, [pc, #68]	; (7b2c <sol_valve_cont+0x1d4>)
    7ae6:	50d1      	str	r1, [r2, r3]
					delay_us(500);
    7ae8:	20fa      	movs	r0, #250	; 0xfa
    7aea:	0040      	lsls	r0, r0, #1
    7aec:	4b10      	ldr	r3, [pc, #64]	; (7b30 <sol_valve_cont+0x1d8>)
    7aee:	4798      	blx	r3
					ser_data_out(0x80);
    7af0:	2080      	movs	r0, #128	; 0x80
    7af2:	4b10      	ldr	r3, [pc, #64]	; (7b34 <sol_valve_cont+0x1dc>)
    7af4:	4798      	blx	r3
					break;
    7af6:	e74e      	b.n	7996 <sol_valve_cont+0x3e>
		case 'C' :	at_dir='0';
    7af8:	2230      	movs	r2, #48	; 0x30
    7afa:	4b0f      	ldr	r3, [pc, #60]	; (7b38 <sol_valve_cont+0x1e0>)
    7afc:	701a      	strb	r2, [r3, #0]
					at_step='C';
    7afe:	3213      	adds	r2, #19
    7b00:	4b09      	ldr	r3, [pc, #36]	; (7b28 <sol_valve_cont+0x1d0>)
    7b02:	701a      	strb	r2, [r3, #0]
					PORT->Group[1].OUTSET.bit.OUTSET=PORT_PB02;
    7b04:	2104      	movs	r1, #4
    7b06:	2398      	movs	r3, #152	; 0x98
    7b08:	4a08      	ldr	r2, [pc, #32]	; (7b2c <sol_valve_cont+0x1d4>)
    7b0a:	50d1      	str	r1, [r2, r3]
					delay_us(500);
    7b0c:	20fa      	movs	r0, #250	; 0xfa
    7b0e:	0040      	lsls	r0, r0, #1
    7b10:	4b07      	ldr	r3, [pc, #28]	; (7b30 <sol_valve_cont+0x1d8>)
    7b12:	4798      	blx	r3
					ser_data_out(0x20);
    7b14:	2020      	movs	r0, #32
    7b16:	4b07      	ldr	r3, [pc, #28]	; (7b34 <sol_valve_cont+0x1dc>)
    7b18:	4798      	blx	r3
					break;
    7b1a:	e73c      	b.n	7996 <sol_valve_cont+0x3e>
    7b1c:	20000021 	.word	0x20000021
    7b20:	2000001f 	.word	0x2000001f
    7b24:	0000ae4c 	.word	0x0000ae4c
    7b28:	20000022 	.word	0x20000022
    7b2c:	41004400 	.word	0x41004400
    7b30:	00004059 	.word	0x00004059
    7b34:	000078d9 	.word	0x000078d9
    7b38:	2000001e 	.word	0x2000001e

00007b3c <main>:
{				
    7b3c:	b5f0      	push	{r4, r5, r6, r7, lr}
    7b3e:	46ce      	mov	lr, r9
    7b40:	4647      	mov	r7, r8
    7b42:	b580      	push	{r7, lr}
    7b44:	b08d      	sub	sp, #52	; 0x34
	system_init();	// MCU   	
    7b46:	4bd1      	ldr	r3, [pc, #836]	; (7e8c <main+0x350>)
    7b48:	4798      	blx	r3
//! [setup]
//=======================================================================================//

void init_port(void)
{
	PORT->Group[0].DIRSET.bit.DIRSET=PORT_PA27;	// RS3485 ENABLE PIN CONTROL PORT
    7b4a:	4bd1      	ldr	r3, [pc, #836]	; (7e90 <main+0x354>)
    7b4c:	2780      	movs	r7, #128	; 0x80
    7b4e:	053f      	lsls	r7, r7, #20
    7b50:	609f      	str	r7, [r3, #8]
	
	PORT->Group[0].DIRSET.bit.DIRSET=PORT_PA06; // 74HC573PW DS PIN CONTROL PORT
    7b52:	2540      	movs	r5, #64	; 0x40
    7b54:	609d      	str	r5, [r3, #8]
	PORT->Group[0].DIRSET.bit.DIRSET=PORT_PA07; // 74HC573PW STCP PIN CONTROL PORT
    7b56:	2680      	movs	r6, #128	; 0x80
    7b58:	609e      	str	r6, [r3, #8]
	PORT->Group[0].DIRSET.bit.DIRSET=PORT_PA08; // 74HC573PW SHCP PIN CONTROL PORT
    7b5a:	2080      	movs	r0, #128	; 0x80
    7b5c:	0040      	lsls	r0, r0, #1
    7b5e:	6098      	str	r0, [r3, #8]
	PORT->Group[0].DIRSET.bit.DIRSET=PORT_PA28;	// 74HC238D A0 PIN CONTROL PORT
    7b60:	2280      	movs	r2, #128	; 0x80
    7b62:	0552      	lsls	r2, r2, #21
    7b64:	4690      	mov	r8, r2
    7b66:	609a      	str	r2, [r3, #8]
	PORT->Group[1].DIRSET.bit.DIRSET=PORT_PB02; // 74HC238D A1 PIN CONTROL PORT
    7b68:	2188      	movs	r1, #136	; 0x88
    7b6a:	468c      	mov	ip, r1
    7b6c:	2404      	movs	r4, #4
    7b6e:	505c      	str	r4, [r3, r1]
	PORT->Group[1].DIRSET.bit.DIRSET=PORT_PB03; // 74HC238D A2 PIN CONTROL PORT
    7b70:	3980      	subs	r1, #128	; 0x80
    7b72:	4662      	mov	r2, ip
    7b74:	5099      	str	r1, [r3, r2]
	
	PORT->Group[0].OUTSET.bit.OUTSET=PORT_PA27;
    7b76:	619f      	str	r7, [r3, #24]
	
	PORT->Group[0].OUTCLR.bit.OUTCLR=PORT_PA06;
    7b78:	615d      	str	r5, [r3, #20]
	PORT->Group[0].OUTCLR.bit.OUTCLR=PORT_PA07;
    7b7a:	615e      	str	r6, [r3, #20]
	PORT->Group[0].OUTCLR.bit.OUTCLR=PORT_PA08;
    7b7c:	6158      	str	r0, [r3, #20]
	PORT->Group[0].OUTCLR.bit.OUTCLR=PORT_PA28;
    7b7e:	4642      	mov	r2, r8
    7b80:	615a      	str	r2, [r3, #20]
	PORT->Group[1].OUTCLR.bit.OUTCLR=PORT_PB02;
    7b82:	2294      	movs	r2, #148	; 0x94
    7b84:	509c      	str	r4, [r3, r2]
	PORT->Group[1].OUTCLR.bit.OUTCLR=PORT_PB03;
    7b86:	5099      	str	r1, [r3, r2]
	modules_init();		// UART  
    7b88:	4bc2      	ldr	r3, [pc, #776]	; (7e94 <main+0x358>)
    7b8a:	4798      	blx	r3
{
	/* Sanity check arguments */
	Assert(config);

	/* Write default config to config struct */
	config->clock_source               = GCLK_GENERATOR_0;
    7b8c:	4ac2      	ldr	r2, [pc, #776]	; (7e98 <main+0x35c>)
    7b8e:	2300      	movs	r3, #0
    7b90:	7013      	strb	r3, [r2, #0]
	config->counter_size               = TC_COUNTER_SIZE_16BIT;
    7b92:	7093      	strb	r3, [r2, #2]
	config->clock_prescaler            = TC_CLOCK_PRESCALER_DIV1;
    7b94:	2100      	movs	r1, #0
    7b96:	8093      	strh	r3, [r2, #4]
	config->wave_generation            = TC_WAVE_GENERATION_NORMAL_FREQ;
	config->reload_action              = TC_RELOAD_ACTION_GCLK;
    7b98:	8113      	strh	r3, [r2, #8]
	config->run_in_standby             = false;
    7b9a:	7051      	strb	r1, [r2, #1]
#if (SAML21) || (SAML22) || (SAMC20) || (SAMC21) || (SAMR30)
	config->on_demand                  = false;
#endif
	config->waveform_invert_output     = TC_WAVEFORM_INVERT_OUTPUT_NONE;
    7b9c:	7291      	strb	r1, [r2, #10]
	config->enable_capture_on_channel[TC_COMPARE_CAPTURE_CHANNEL_0] = false;
    7b9e:	72d1      	strb	r1, [r2, #11]
	config->enable_capture_on_channel[TC_COMPARE_CAPTURE_CHANNEL_1] = false;
    7ba0:	7311      	strb	r1, [r2, #12]
#ifdef 	FEATURE_TC_IO_CAPTURE
	config->enable_capture_on_IO[TC_COMPARE_CAPTURE_CHANNEL_0] = false;
	config->enable_capture_on_IO[TC_COMPARE_CAPTURE_CHANNEL_1] = false;
#endif

	config->count_direction            = TC_COUNT_DIRECTION_UP;
    7ba2:	7391      	strb	r1, [r2, #14]
	config->oneshot                    = false;
    7ba4:	7351      	strb	r1, [r2, #13]

	config->pwm_channel[TC_COMPARE_CAPTURE_CHANNEL_0].enabled = false;
	config->pwm_channel[TC_COMPARE_CAPTURE_CHANNEL_0].pin_out = 0;
	config->pwm_channel[TC_COMPARE_CAPTURE_CHANNEL_0].pin_mux = 0;

	config->pwm_channel[TC_COMPARE_CAPTURE_CHANNEL_1].enabled = false;
    7ba6:	7711      	strb	r1, [r2, #28]
	config->pwm_channel[TC_COMPARE_CAPTURE_CHANNEL_1].pin_out = 0;
    7ba8:	6213      	str	r3, [r2, #32]
	config->pwm_channel[TC_COMPARE_CAPTURE_CHANNEL_1].pin_mux = 0;
    7baa:	6253      	str	r3, [r2, #36]	; 0x24

	config->counter_16_bit.value                   = 0x0000;
    7bac:	8513      	strh	r3, [r2, #40]	; 0x28
	config->counter_16_bit.compare_capture_channel\
		[TC_COMPARE_CAPTURE_CHANNEL_0]                        = 0x0000;
	config->counter_16_bit.compare_capture_channel\
		[TC_COMPARE_CAPTURE_CHANNEL_1]                        = 0x0000;
    7bae:	8593      	strh	r3, [r2, #44]	; 0x2c
	config_tc.wave_generation = TC_WAVE_GENERATION_NORMAL_PWM;
    7bb0:	7195      	strb	r5, [r2, #6]
	config_tc.counter_16_bit.compare_capture_channel[0] = 0xFFFF;
    7bb2:	3b01      	subs	r3, #1
    7bb4:	8553      	strh	r3, [r2, #42]	; 0x2a
	config_tc.pwm_channel[0].enabled = true;
    7bb6:	3302      	adds	r3, #2
    7bb8:	7413      	strb	r3, [r2, #16]
	config_tc.pwm_channel[0].pin_out = PWM_OUT_PIN;
    7bba:	3311      	adds	r3, #17
    7bbc:	6153      	str	r3, [r2, #20]
	config_tc.pwm_channel[0].pin_mux = PWM_OUT_MUX;
    7bbe:	6194      	str	r4, [r2, #24]
	tc_init(&tc_instance, PWM_MODULE, &config_tc);
    7bc0:	4cb6      	ldr	r4, [pc, #728]	; (7e9c <main+0x360>)
    7bc2:	49b7      	ldr	r1, [pc, #732]	; (7ea0 <main+0x364>)
    7bc4:	0020      	movs	r0, r4
    7bc6:	4bb7      	ldr	r3, [pc, #732]	; (7ea4 <main+0x368>)
    7bc8:	4798      	blx	r3
	/* Sanity check arguments */
	Assert(module_inst);
	Assert(module_inst->hw);

	/* Get a pointer to the module's hardware instance */
	TcCount8 *const tc_module = &(module_inst->hw->COUNT8);
    7bca:	6822      	ldr	r2, [r4, #0]
	return (tc_module->STATUS.reg & TC_STATUS_SYNCBUSY);
    7bcc:	7bd3      	ldrb	r3, [r2, #15]

	while (tc_is_syncing(module_inst)) {
    7bce:	b25b      	sxtb	r3, r3
    7bd0:	2b00      	cmp	r3, #0
    7bd2:	dbfb      	blt.n	7bcc <main+0x90>
		/* Wait for sync */
	}

	/* Enable TC module */
	tc_module->CTRLA.reg |= TC_CTRLA_ENABLE;
    7bd4:	8813      	ldrh	r3, [r2, #0]
    7bd6:	2102      	movs	r1, #2
    7bd8:	430b      	orrs	r3, r1
    7bda:	8013      	strh	r3, [r2, #0]
	tc_register_callback(&tc_instance,tc_isr,TC_CALLBACK_CC_CHANNEL0);
    7bdc:	4caf      	ldr	r4, [pc, #700]	; (7e9c <main+0x360>)
    7bde:	2202      	movs	r2, #2
    7be0:	49b1      	ldr	r1, [pc, #708]	; (7ea8 <main+0x36c>)
    7be2:	0020      	movs	r0, r4
    7be4:	4bb1      	ldr	r3, [pc, #708]	; (7eac <main+0x370>)
    7be6:	4798      	blx	r3
	/* Sanity check arguments */
	Assert(module);


	/* Enable interrupts for this TC module */
	system_interrupt_enable(_tc_interrupt_get_interrupt_vector(_tc_get_inst_index(module->hw)));
    7be8:	6820      	ldr	r0, [r4, #0]
    7bea:	4bb1      	ldr	r3, [pc, #708]	; (7eb0 <main+0x374>)
    7bec:	4798      	blx	r3
	return (enum system_interrupt_vector)tc_interrupt_vectors[inst_num];
    7bee:	4bb1      	ldr	r3, [pc, #708]	; (7eb4 <main+0x378>)
 * \param[in] vector Interrupt vector to enable
 */
static inline void system_interrupt_enable(
		const enum system_interrupt_vector vector)
{
	NVIC->ISER[0] = (uint32_t)(1 << ((uint32_t)vector & 0x0000001f));
    7bf0:	5c1b      	ldrb	r3, [r3, r0]
    7bf2:	221f      	movs	r2, #31
    7bf4:	401a      	ands	r2, r3
    7bf6:	2301      	movs	r3, #1
    7bf8:	4093      	lsls	r3, r2
    7bfa:	4aaf      	ldr	r2, [pc, #700]	; (7eb8 <main+0x37c>)
    7bfc:	6013      	str	r3, [r2, #0]

	/* Enable callback */
	if (callback_type == TC_CALLBACK_CC_CHANNEL0) {
		module->enable_callback_mask |= TC_INTFLAG_MC(1);
    7bfe:	7e63      	ldrb	r3, [r4, #25]
    7c00:	2210      	movs	r2, #16
    7c02:	4313      	orrs	r3, r2
    7c04:	7663      	strb	r3, [r4, #25]
		module->hw->COUNT8.INTENSET.reg = TC_INTFLAG_MC(1);
    7c06:	6823      	ldr	r3, [r4, #0]
    7c08:	2210      	movs	r2, #16
    7c0a:	735a      	strb	r2, [r3, #13]
	wireless_init();
    7c0c:	4bab      	ldr	r3, [pc, #684]	; (7ebc <main+0x380>)
    7c0e:	4798      	blx	r3
	nm_bsp_init();		// WINC1500    
    7c10:	4bab      	ldr	r3, [pc, #684]	; (7ec0 <main+0x384>)
    7c12:	4798      	blx	r3
	addr.sin_family = AF_INET;
    7c14:	ab02      	add	r3, sp, #8
    7c16:	2202      	movs	r2, #2
    7c18:	801a      	strh	r2, [r3, #0]
	addr.sin_port = _htons(MAIN_WIFI_M2M_SERVER_PORT);
    7c1a:	4aaa      	ldr	r2, [pc, #680]	; (7ec4 <main+0x388>)
    7c1c:	805a      	strh	r2, [r3, #2]
	memset((uint8_t *)&param, 0, sizeof(tstrWifiInitParam));	// param 
    7c1e:	2218      	movs	r2, #24
    7c20:	2100      	movs	r1, #0
    7c22:	a806      	add	r0, sp, #24
    7c24:	4ba8      	ldr	r3, [pc, #672]	; (7ec8 <main+0x38c>)
    7c26:	4798      	blx	r3
	param.pfAppWifiCb = wifi_cb;
    7c28:	4ba8      	ldr	r3, [pc, #672]	; (7ecc <main+0x390>)
    7c2a:	9306      	str	r3, [sp, #24]
	ret = m2m_wifi_init(&param);
    7c2c:	a806      	add	r0, sp, #24
    7c2e:	4ba8      	ldr	r3, [pc, #672]	; (7ed0 <main+0x394>)
    7c30:	4798      	blx	r3
    7c32:	1e01      	subs	r1, r0, #0
	if(M2M_SUCCESS != ret)
    7c34:	d003      	beq.n	7c3e <main+0x102>
		printf("main: m2m_wifi_init call error!(%d)\r\n", ret);
    7c36:	48a7      	ldr	r0, [pc, #668]	; (7ed4 <main+0x398>)
    7c38:	4ba7      	ldr	r3, [pc, #668]	; (7ed8 <main+0x39c>)
    7c3a:	4798      	blx	r3
    7c3c:	e7fe      	b.n	7c3c <main+0x100>
	socketInit();
    7c3e:	4ba7      	ldr	r3, [pc, #668]	; (7edc <main+0x3a0>)
    7c40:	4798      	blx	r3
	registerSocketCallback(socket_cb, NULL);
    7c42:	2100      	movs	r1, #0
    7c44:	48a6      	ldr	r0, [pc, #664]	; (7ee0 <main+0x3a4>)
    7c46:	4ba7      	ldr	r3, [pc, #668]	; (7ee4 <main+0x3a8>)
    7c48:	4798      	blx	r3
	m2m_wifi_connect((char *)MAIN_WLAN_SSID,sizeof(MAIN_WLAN_SSID),MAIN_WLAN_AUTH,(char *)MAIN_WLAN_PSK, M2M_WIFI_CH_ALL);
    7c4a:	23ff      	movs	r3, #255	; 0xff
    7c4c:	9300      	str	r3, [sp, #0]
    7c4e:	4ba6      	ldr	r3, [pc, #664]	; (7ee8 <main+0x3ac>)
    7c50:	2202      	movs	r2, #2
    7c52:	210e      	movs	r1, #14
    7c54:	48a5      	ldr	r0, [pc, #660]	; (7eec <main+0x3b0>)
    7c56:	4ca6      	ldr	r4, [pc, #664]	; (7ef0 <main+0x3b4>)
    7c58:	47a0      	blx	r4
	memset(sol_valve,'2',sizeof(sol_valve));
    7c5a:	2214      	movs	r2, #20
    7c5c:	2132      	movs	r1, #50	; 0x32
    7c5e:	48a5      	ldr	r0, [pc, #660]	; (7ef4 <main+0x3b8>)
    7c60:	4b99      	ldr	r3, [pc, #612]	; (7ec8 <main+0x38c>)
    7c62:	4798      	blx	r3
	cpu_irq_enable();
    7c64:	2201      	movs	r2, #1
    7c66:	4ba4      	ldr	r3, [pc, #656]	; (7ef8 <main+0x3bc>)
    7c68:	701a      	strb	r2, [r3, #0]
    This function ensures the apparent order of the explicit memory operations before
    and after the instruction, without ensuring their completion.
 */
__attribute__( ( always_inline ) ) __STATIC_INLINE void __DMB(void)
{
  __ASM volatile ("dmb");
    7c6a:	f3bf 8f5f 	dmb	sy
  This function enables IRQ interrupts by clearing the I-bit in the CPSR.
  Can only be executed in Privileged modes.
 */
__attribute__( ( always_inline ) ) __STATIC_INLINE void __enable_irq(void)
{
  __ASM volatile ("cpsie i" : : : "memory");
    7c6e:	b662      	cpsie	i
		m2m_wifi_handle_events(NULL);
    7c70:	4da2      	ldr	r5, [pc, #648]	; (7efc <main+0x3c0>)
		if(wifi_connected == M2M_WIFI_CONNECTED) 
    7c72:	4ca3      	ldr	r4, [pc, #652]	; (7f00 <main+0x3c4>)
 *  this function is handled in a loop to perform tasks continuously 
 */
void WirelessTask(void)
{
	/* These methods are called to perform the default tasks of the MAC Stack */
	pal_task();
    7c74:	4ea3      	ldr	r6, [pc, #652]	; (7f04 <main+0x3c8>)
    7c76:	e062      	b.n	7d3e <main+0x202>
			if(tcp_server_socket < 0) 
    7c78:	4ba3      	ldr	r3, [pc, #652]	; (7f08 <main+0x3cc>)
    7c7a:	781b      	ldrb	r3, [r3, #0]
    7c7c:	2b7f      	cmp	r3, #127	; 0x7f
    7c7e:	d965      	bls.n	7d4c <main+0x210>
				if((tcp_server_socket = socket(AF_INET, SOCK_STREAM, 0)) < 0) 
    7c80:	2200      	movs	r2, #0
    7c82:	2101      	movs	r1, #1
    7c84:	2002      	movs	r0, #2
    7c86:	4ba1      	ldr	r3, [pc, #644]	; (7f0c <main+0x3d0>)
    7c88:	4798      	blx	r3
    7c8a:	4b9f      	ldr	r3, [pc, #636]	; (7f08 <main+0x3cc>)
    7c8c:	7018      	strb	r0, [r3, #0]
    7c8e:	2800      	cmp	r0, #0
    7c90:	db04      	blt.n	7c9c <main+0x160>
				bind(tcp_server_socket, (struct sockaddr *)&addr, sizeof(struct sockaddr_in));
    7c92:	2210      	movs	r2, #16
    7c94:	a902      	add	r1, sp, #8
    7c96:	4b9e      	ldr	r3, [pc, #632]	; (7f10 <main+0x3d4>)
    7c98:	4798      	blx	r3
    7c9a:	e057      	b.n	7d4c <main+0x210>
					printf("main: failed to create TCP server socket error!\r\n");
    7c9c:	489d      	ldr	r0, [pc, #628]	; (7f14 <main+0x3d8>)
    7c9e:	4b9e      	ldr	r3, [pc, #632]	; (7f18 <main+0x3dc>)
    7ca0:	4798      	blx	r3
					continue;
    7ca2:	e04c      	b.n	7d3e <main+0x202>
		else if(strcmp(buff,"#1F1")==0)	{F_condi[0]='1';}// printf("#1F1 \r\n");}
    7ca4:	499d      	ldr	r1, [pc, #628]	; (7f1c <main+0x3e0>)
    7ca6:	489e      	ldr	r0, [pc, #632]	; (7f20 <main+0x3e4>)
    7ca8:	4b9e      	ldr	r3, [pc, #632]	; (7f24 <main+0x3e8>)
    7caa:	4798      	blx	r3
    7cac:	2800      	cmp	r0, #0
    7cae:	d10a      	bne.n	7cc6 <main+0x18a>
    7cb0:	2231      	movs	r2, #49	; 0x31
    7cb2:	4b9d      	ldr	r3, [pc, #628]	; (7f28 <main+0x3ec>)
    7cb4:	701a      	strb	r2, [r3, #0]
		else if (F_condi[0]=='1' && R_condi[0]=='0'){sol_valve[0] = '1';}// 1  (Close)
    7cb6:	4b9d      	ldr	r3, [pc, #628]	; (7f2c <main+0x3f0>)
    7cb8:	781b      	ldrb	r3, [r3, #0]
    7cba:	2b30      	cmp	r3, #48	; 0x30
    7cbc:	d112      	bne.n	7ce4 <main+0x1a8>
    7cbe:	2231      	movs	r2, #49	; 0x31
    7cc0:	4b8c      	ldr	r3, [pc, #560]	; (7ef4 <main+0x3b8>)
    7cc2:	701a      	strb	r2, [r3, #0]
    7cc4:	e036      	b.n	7d34 <main+0x1f8>
		else if(strcmp(buff,"#1R0")==0)	{R_condi[0]='0';}// printf("#1R0 \r\n");}
    7cc6:	499a      	ldr	r1, [pc, #616]	; (7f30 <main+0x3f4>)
    7cc8:	4895      	ldr	r0, [pc, #596]	; (7f20 <main+0x3e4>)
    7cca:	4b96      	ldr	r3, [pc, #600]	; (7f24 <main+0x3e8>)
    7ccc:	4798      	blx	r3
    7cce:	2800      	cmp	r0, #0
    7cd0:	d152      	bne.n	7d78 <main+0x23c>
    7cd2:	2230      	movs	r2, #48	; 0x30
    7cd4:	4b95      	ldr	r3, [pc, #596]	; (7f2c <main+0x3f0>)
    7cd6:	701a      	strb	r2, [r3, #0]
		if(F_condi[0]=='0' && R_condi[0]=='1'){sol_valve[0] = '0';}// 1  (Open)
    7cd8:	4b93      	ldr	r3, [pc, #588]	; (7f28 <main+0x3ec>)
    7cda:	781b      	ldrb	r3, [r3, #0]
    7cdc:	2b30      	cmp	r3, #48	; 0x30
    7cde:	d001      	beq.n	7ce4 <main+0x1a8>
		else if (F_condi[0]=='1' && R_condi[0]=='0'){sol_valve[0] = '1';}// 1  (Close)
    7ce0:	2b31      	cmp	r3, #49	; 0x31
    7ce2:	d0e8      	beq.n	7cb6 <main+0x17a>
		else if (F_condi[1]=='0' && R_condi[1]=='1'){sol_valve[1] = '0';}// 2  (Open)
    7ce4:	4b90      	ldr	r3, [pc, #576]	; (7f28 <main+0x3ec>)
    7ce6:	785b      	ldrb	r3, [r3, #1]
    7ce8:	2b30      	cmp	r3, #48	; 0x30
    7cea:	d100      	bne.n	7cee <main+0x1b2>
    7cec:	e195      	b.n	801a <main+0x4de>
		else if (F_condi[1]=='1' && R_condi[1]=='0'){sol_valve[1] = '1';}// 2  (Close)
    7cee:	2b31      	cmp	r3, #49	; 0x31
    7cf0:	d100      	bne.n	7cf4 <main+0x1b8>
    7cf2:	e19b      	b.n	802c <main+0x4f0>
		else if (F_condi[2]=='0' && R_condi[2]=='1'){sol_valve[2] = '0';}// 3  (Open)
    7cf4:	4b8c      	ldr	r3, [pc, #560]	; (7f28 <main+0x3ec>)
    7cf6:	789b      	ldrb	r3, [r3, #2]
    7cf8:	2b30      	cmp	r3, #48	; 0x30
    7cfa:	d100      	bne.n	7cfe <main+0x1c2>
    7cfc:	e19f      	b.n	803e <main+0x502>
		else if (F_condi[2]=='1' && R_condi[2]=='0'){sol_valve[2] = '1';}// 3  (Close)
    7cfe:	2b31      	cmp	r3, #49	; 0x31
    7d00:	d100      	bne.n	7d04 <main+0x1c8>
    7d02:	e1a5      	b.n	8050 <main+0x514>
		else if (F_condi[3]=='0' && R_condi[3]=='1'){sol_valve[3] = '0';}// 4  (Open)
    7d04:	4b88      	ldr	r3, [pc, #544]	; (7f28 <main+0x3ec>)
    7d06:	78db      	ldrb	r3, [r3, #3]
    7d08:	2b30      	cmp	r3, #48	; 0x30
    7d0a:	d100      	bne.n	7d0e <main+0x1d2>
    7d0c:	e1a9      	b.n	8062 <main+0x526>
		else if (F_condi[3]=='1' && R_condi[3]=='0'){sol_valve[3] = '1';}// 4  (Close)
    7d0e:	2b31      	cmp	r3, #49	; 0x31
    7d10:	d100      	bne.n	7d14 <main+0x1d8>
    7d12:	e1af      	b.n	8074 <main+0x538>
		else if (F_condi[4]=='0' && R_condi[4]=='1'){sol_valve[4] = '0';}// 5  (Open)
    7d14:	4b84      	ldr	r3, [pc, #528]	; (7f28 <main+0x3ec>)
    7d16:	791b      	ldrb	r3, [r3, #4]
    7d18:	2b30      	cmp	r3, #48	; 0x30
    7d1a:	d100      	bne.n	7d1e <main+0x1e2>
    7d1c:	e1b3      	b.n	8086 <main+0x54a>
		else if (F_condi[4]=='1' && R_condi[4]=='0'){sol_valve[4] = '1';}// 5  (Close)
    7d1e:	2b31      	cmp	r3, #49	; 0x31
    7d20:	d100      	bne.n	7d24 <main+0x1e8>
    7d22:	e1b9      	b.n	8098 <main+0x55c>
		else if (F_condi[5]=='0' && R_condi[5]=='1'){sol_valve[5] = '0';}// 6  (Open)
    7d24:	4b80      	ldr	r3, [pc, #512]	; (7f28 <main+0x3ec>)
    7d26:	795b      	ldrb	r3, [r3, #5]
    7d28:	2b30      	cmp	r3, #48	; 0x30
    7d2a:	d100      	bne.n	7d2e <main+0x1f2>
    7d2c:	e1bd      	b.n	80aa <main+0x56e>
		else if (F_condi[5]=='1' && R_condi[5]=='0'){sol_valve[5] = '1';}// 6  (Close)
    7d2e:	2b31      	cmp	r3, #49	; 0x31
    7d30:	d100      	bne.n	7d34 <main+0x1f8>
    7d32:	e1c3      	b.n	80bc <main+0x580>
		if(emg_sw=='0')
    7d34:	4b7f      	ldr	r3, [pc, #508]	; (7f34 <main+0x3f8>)
    7d36:	781b      	ldrb	r3, [r3, #0]
    7d38:	2b30      	cmp	r3, #48	; 0x30
    7d3a:	d100      	bne.n	7d3e <main+0x202>
    7d3c:	e1c7      	b.n	80ce <main+0x592>
		const uint8_t gpio_pin)
{
	PortGroup *const port_base = port_get_group_from_gpio_pin(gpio_pin);
	uint32_t pin_mask  = (1UL << (gpio_pin % 32));

	return (port_base->IN.reg & pin_mask);
    7d3e:	4b54      	ldr	r3, [pc, #336]	; (7e90 <main+0x354>)
    7d40:	6a1b      	ldr	r3, [r3, #32]
		m2m_wifi_handle_events(NULL);
    7d42:	2000      	movs	r0, #0
    7d44:	47a8      	blx	r5
		if(wifi_connected == M2M_WIFI_CONNECTED) 
    7d46:	7823      	ldrb	r3, [r4, #0]
    7d48:	2b01      	cmp	r3, #1
    7d4a:	d095      	beq.n	7c78 <main+0x13c>
	pal_task();
    7d4c:	47b0      	blx	r6
	tal_task();
    7d4e:	4b7a      	ldr	r3, [pc, #488]	; (7f38 <main+0x3fc>)
    7d50:	4798      	blx	r3
 * \brief Application task
 */
 void app_task(void)
{
//	usr_wireless_app_task();
	init_data_reception();
    7d52:	4b7a      	ldr	r3, [pc, #488]	; (7f3c <main+0x400>)
    7d54:	4798      	blx	r3
		if(strcmp(buff,"#1F0")==0)		{F_condi[0]='0';}//printf("#1F0 \r\n");}
    7d56:	497a      	ldr	r1, [pc, #488]	; (7f40 <main+0x404>)
    7d58:	4871      	ldr	r0, [pc, #452]	; (7f20 <main+0x3e4>)
    7d5a:	4b72      	ldr	r3, [pc, #456]	; (7f24 <main+0x3e8>)
    7d5c:	4798      	blx	r3
    7d5e:	2800      	cmp	r0, #0
    7d60:	d1a0      	bne.n	7ca4 <main+0x168>
    7d62:	2230      	movs	r2, #48	; 0x30
    7d64:	4b70      	ldr	r3, [pc, #448]	; (7f28 <main+0x3ec>)
    7d66:	701a      	strb	r2, [r3, #0]
		if(F_condi[0]=='0' && R_condi[0]=='1'){sol_valve[0] = '0';}// 1  (Open)
    7d68:	4b70      	ldr	r3, [pc, #448]	; (7f2c <main+0x3f0>)
    7d6a:	781b      	ldrb	r3, [r3, #0]
    7d6c:	2b31      	cmp	r3, #49	; 0x31
    7d6e:	d1b9      	bne.n	7ce4 <main+0x1a8>
    7d70:	2230      	movs	r2, #48	; 0x30
    7d72:	4b60      	ldr	r3, [pc, #384]	; (7ef4 <main+0x3b8>)
    7d74:	701a      	strb	r2, [r3, #0]
    7d76:	e7dd      	b.n	7d34 <main+0x1f8>
		else if(strcmp(buff,"#1R1")==0)	{R_condi[0]='1';}// printf("#1R1 \r\n");}
    7d78:	4972      	ldr	r1, [pc, #456]	; (7f44 <main+0x408>)
    7d7a:	4869      	ldr	r0, [pc, #420]	; (7f20 <main+0x3e4>)
    7d7c:	4b69      	ldr	r3, [pc, #420]	; (7f24 <main+0x3e8>)
    7d7e:	4798      	blx	r3
    7d80:	2800      	cmp	r0, #0
    7d82:	d107      	bne.n	7d94 <main+0x258>
    7d84:	2231      	movs	r2, #49	; 0x31
    7d86:	4b69      	ldr	r3, [pc, #420]	; (7f2c <main+0x3f0>)
    7d88:	701a      	strb	r2, [r3, #0]
		if(F_condi[0]=='0' && R_condi[0]=='1'){sol_valve[0] = '0';}// 1  (Open)
    7d8a:	4b67      	ldr	r3, [pc, #412]	; (7f28 <main+0x3ec>)
    7d8c:	781b      	ldrb	r3, [r3, #0]
    7d8e:	2b30      	cmp	r3, #48	; 0x30
    7d90:	d1a6      	bne.n	7ce0 <main+0x1a4>
    7d92:	e7ed      	b.n	7d70 <main+0x234>
		else if(strcmp(buff,"#2F0")==0)	{F_condi[1]='0';}//printf("#2F0 \r\n");}
    7d94:	496c      	ldr	r1, [pc, #432]	; (7f48 <main+0x40c>)
    7d96:	4862      	ldr	r0, [pc, #392]	; (7f20 <main+0x3e4>)
    7d98:	4b62      	ldr	r3, [pc, #392]	; (7f24 <main+0x3e8>)
    7d9a:	4798      	blx	r3
    7d9c:	2800      	cmp	r0, #0
    7d9e:	d107      	bne.n	7db0 <main+0x274>
    7da0:	2230      	movs	r2, #48	; 0x30
    7da2:	4b61      	ldr	r3, [pc, #388]	; (7f28 <main+0x3ec>)
    7da4:	705a      	strb	r2, [r3, #1]
		if(F_condi[0]=='0' && R_condi[0]=='1'){sol_valve[0] = '0';}// 1  (Open)
    7da6:	4b60      	ldr	r3, [pc, #384]	; (7f28 <main+0x3ec>)
    7da8:	781b      	ldrb	r3, [r3, #0]
    7daa:	2b30      	cmp	r3, #48	; 0x30
    7dac:	d198      	bne.n	7ce0 <main+0x1a4>
    7dae:	e7db      	b.n	7d68 <main+0x22c>
		else if(strcmp(buff,"#2F1")==0)	{F_condi[1]='1';}//printf("#2F1 \r\n");}
    7db0:	4966      	ldr	r1, [pc, #408]	; (7f4c <main+0x410>)
    7db2:	485b      	ldr	r0, [pc, #364]	; (7f20 <main+0x3e4>)
    7db4:	4b5b      	ldr	r3, [pc, #364]	; (7f24 <main+0x3e8>)
    7db6:	4798      	blx	r3
    7db8:	2800      	cmp	r0, #0
    7dba:	d103      	bne.n	7dc4 <main+0x288>
    7dbc:	2231      	movs	r2, #49	; 0x31
    7dbe:	4b5a      	ldr	r3, [pc, #360]	; (7f28 <main+0x3ec>)
    7dc0:	705a      	strb	r2, [r3, #1]
    7dc2:	e7f0      	b.n	7da6 <main+0x26a>
		else if(strcmp(buff,"#2R0")==0)	{R_condi[1]='0';}//printf("#2R0 \r\n");}
    7dc4:	4962      	ldr	r1, [pc, #392]	; (7f50 <main+0x414>)
    7dc6:	4856      	ldr	r0, [pc, #344]	; (7f20 <main+0x3e4>)
    7dc8:	4b56      	ldr	r3, [pc, #344]	; (7f24 <main+0x3e8>)
    7dca:	4798      	blx	r3
    7dcc:	2800      	cmp	r0, #0
    7dce:	d103      	bne.n	7dd8 <main+0x29c>
    7dd0:	2230      	movs	r2, #48	; 0x30
    7dd2:	4b56      	ldr	r3, [pc, #344]	; (7f2c <main+0x3f0>)
    7dd4:	705a      	strb	r2, [r3, #1]
    7dd6:	e7e6      	b.n	7da6 <main+0x26a>
		else if(strcmp(buff,"#2R1")==0)	{R_condi[1]='1';}//printf("#2R1 \r\n");}
    7dd8:	495e      	ldr	r1, [pc, #376]	; (7f54 <main+0x418>)
    7dda:	4851      	ldr	r0, [pc, #324]	; (7f20 <main+0x3e4>)
    7ddc:	4b51      	ldr	r3, [pc, #324]	; (7f24 <main+0x3e8>)
    7dde:	4798      	blx	r3
    7de0:	2800      	cmp	r0, #0
    7de2:	d103      	bne.n	7dec <main+0x2b0>
    7de4:	2231      	movs	r2, #49	; 0x31
    7de6:	4b51      	ldr	r3, [pc, #324]	; (7f2c <main+0x3f0>)
    7de8:	705a      	strb	r2, [r3, #1]
    7dea:	e7dc      	b.n	7da6 <main+0x26a>
		else if(strcmp(buff,"#3F0")==0)	{F_condi[2]='0';}//printf("#3F0 \r\n");}
    7dec:	495a      	ldr	r1, [pc, #360]	; (7f58 <main+0x41c>)
    7dee:	484c      	ldr	r0, [pc, #304]	; (7f20 <main+0x3e4>)
    7df0:	4b4c      	ldr	r3, [pc, #304]	; (7f24 <main+0x3e8>)
    7df2:	4798      	blx	r3
    7df4:	2800      	cmp	r0, #0
    7df6:	d103      	bne.n	7e00 <main+0x2c4>
    7df8:	2230      	movs	r2, #48	; 0x30
    7dfa:	4b4b      	ldr	r3, [pc, #300]	; (7f28 <main+0x3ec>)
    7dfc:	709a      	strb	r2, [r3, #2]
    7dfe:	e7d2      	b.n	7da6 <main+0x26a>
		else if(strcmp(buff,"#3F1")==0)	{F_condi[2]='1';}//printf("#3F1 \r\n");}
    7e00:	4956      	ldr	r1, [pc, #344]	; (7f5c <main+0x420>)
    7e02:	4847      	ldr	r0, [pc, #284]	; (7f20 <main+0x3e4>)
    7e04:	4b47      	ldr	r3, [pc, #284]	; (7f24 <main+0x3e8>)
    7e06:	4798      	blx	r3
    7e08:	2800      	cmp	r0, #0
    7e0a:	d103      	bne.n	7e14 <main+0x2d8>
    7e0c:	2231      	movs	r2, #49	; 0x31
    7e0e:	4b46      	ldr	r3, [pc, #280]	; (7f28 <main+0x3ec>)
    7e10:	709a      	strb	r2, [r3, #2]
    7e12:	e7c8      	b.n	7da6 <main+0x26a>
		else if(strcmp(buff,"#3R0")==0)	{R_condi[2]='0';}//printf("#3R0 \r\n");}
    7e14:	4952      	ldr	r1, [pc, #328]	; (7f60 <main+0x424>)
    7e16:	4842      	ldr	r0, [pc, #264]	; (7f20 <main+0x3e4>)
    7e18:	4b42      	ldr	r3, [pc, #264]	; (7f24 <main+0x3e8>)
    7e1a:	4798      	blx	r3
    7e1c:	2800      	cmp	r0, #0
    7e1e:	d103      	bne.n	7e28 <main+0x2ec>
    7e20:	2230      	movs	r2, #48	; 0x30
    7e22:	4b42      	ldr	r3, [pc, #264]	; (7f2c <main+0x3f0>)
    7e24:	709a      	strb	r2, [r3, #2]
    7e26:	e7be      	b.n	7da6 <main+0x26a>
		else if(strcmp(buff,"#3R1")==0)	{R_condi[2]='1';}//printf("#3R1 \r\n");}
    7e28:	494e      	ldr	r1, [pc, #312]	; (7f64 <main+0x428>)
    7e2a:	483d      	ldr	r0, [pc, #244]	; (7f20 <main+0x3e4>)
    7e2c:	4b3d      	ldr	r3, [pc, #244]	; (7f24 <main+0x3e8>)
    7e2e:	4798      	blx	r3
    7e30:	2800      	cmp	r0, #0
    7e32:	d103      	bne.n	7e3c <main+0x300>
    7e34:	2231      	movs	r2, #49	; 0x31
    7e36:	4b3d      	ldr	r3, [pc, #244]	; (7f2c <main+0x3f0>)
    7e38:	709a      	strb	r2, [r3, #2]
    7e3a:	e7b4      	b.n	7da6 <main+0x26a>
		else if(strcmp(buff,"#4F0")==0)	{F_condi[3]='0';}//printf("#4F0 \r\n");}
    7e3c:	494a      	ldr	r1, [pc, #296]	; (7f68 <main+0x42c>)
    7e3e:	4838      	ldr	r0, [pc, #224]	; (7f20 <main+0x3e4>)
    7e40:	4b38      	ldr	r3, [pc, #224]	; (7f24 <main+0x3e8>)
    7e42:	4798      	blx	r3
    7e44:	2800      	cmp	r0, #0
    7e46:	d103      	bne.n	7e50 <main+0x314>
    7e48:	2230      	movs	r2, #48	; 0x30
    7e4a:	4b37      	ldr	r3, [pc, #220]	; (7f28 <main+0x3ec>)
    7e4c:	70da      	strb	r2, [r3, #3]
    7e4e:	e7aa      	b.n	7da6 <main+0x26a>
		else if(strcmp(buff,"#4F1")==0)	{F_condi[3]='1';}//printf("#4F1 \r\n");}
    7e50:	4946      	ldr	r1, [pc, #280]	; (7f6c <main+0x430>)
    7e52:	4833      	ldr	r0, [pc, #204]	; (7f20 <main+0x3e4>)
    7e54:	4b33      	ldr	r3, [pc, #204]	; (7f24 <main+0x3e8>)
    7e56:	4798      	blx	r3
    7e58:	2800      	cmp	r0, #0
    7e5a:	d103      	bne.n	7e64 <main+0x328>
    7e5c:	2231      	movs	r2, #49	; 0x31
    7e5e:	4b32      	ldr	r3, [pc, #200]	; (7f28 <main+0x3ec>)
    7e60:	70da      	strb	r2, [r3, #3]
    7e62:	e7a0      	b.n	7da6 <main+0x26a>
		else if(strcmp(buff,"#4R0")==0)	{R_condi[3]='0';}//printf("#4R0 \r\n");}
    7e64:	4942      	ldr	r1, [pc, #264]	; (7f70 <main+0x434>)
    7e66:	482e      	ldr	r0, [pc, #184]	; (7f20 <main+0x3e4>)
    7e68:	4b2e      	ldr	r3, [pc, #184]	; (7f24 <main+0x3e8>)
    7e6a:	4798      	blx	r3
    7e6c:	2800      	cmp	r0, #0
    7e6e:	d103      	bne.n	7e78 <main+0x33c>
    7e70:	2230      	movs	r2, #48	; 0x30
    7e72:	4b2e      	ldr	r3, [pc, #184]	; (7f2c <main+0x3f0>)
    7e74:	70da      	strb	r2, [r3, #3]
    7e76:	e796      	b.n	7da6 <main+0x26a>
		else if(strcmp(buff,"#4R1")==0)	{R_condi[3]='1';}//printf("#4R1 \r\n");}
    7e78:	493e      	ldr	r1, [pc, #248]	; (7f74 <main+0x438>)
    7e7a:	4829      	ldr	r0, [pc, #164]	; (7f20 <main+0x3e4>)
    7e7c:	4b29      	ldr	r3, [pc, #164]	; (7f24 <main+0x3e8>)
    7e7e:	4798      	blx	r3
    7e80:	2800      	cmp	r0, #0
    7e82:	d179      	bne.n	7f78 <main+0x43c>
    7e84:	2231      	movs	r2, #49	; 0x31
    7e86:	4b29      	ldr	r3, [pc, #164]	; (7f2c <main+0x3f0>)
    7e88:	70da      	strb	r2, [r3, #3]
    7e8a:	e78c      	b.n	7da6 <main+0x26a>
    7e8c:	00005351 	.word	0x00005351
    7e90:	41004400 	.word	0x41004400
    7e94:	0000400d 	.word	0x0000400d
    7e98:	20000cf4 	.word	0x20000cf4
    7e9c:	20000d34 	.word	0x20000d34
    7ea0:	42002c00 	.word	0x42002c00
    7ea4:	00005475 	.word	0x00005475
    7ea8:	000070ad 	.word	0x000070ad
    7eac:	00005375 	.word	0x00005375
    7eb0:	0000543d 	.word	0x0000543d
    7eb4:	0000b024 	.word	0x0000b024
    7eb8:	e000e100 	.word	0xe000e100
    7ebc:	00003f21 	.word	0x00003f21
    7ec0:	00000169 	.word	0x00000169
    7ec4:	ffffb80b 	.word	0xffffb80b
    7ec8:	00008bc3 	.word	0x00008bc3
    7ecc:	00007851 	.word	0x00007851
    7ed0:	000010a5 	.word	0x000010a5
    7ed4:	0000ae98 	.word	0x0000ae98
    7ed8:	00008bd5 	.word	0x00008bd5
    7edc:	00002cd5 	.word	0x00002cd5
    7ee0:	00007245 	.word	0x00007245
    7ee4:	00002d19 	.word	0x00002d19
    7ee8:	0000b098 	.word	0x0000b098
    7eec:	0000b0a4 	.word	0x0000b0a4
    7ef0:	00001479 	.word	0x00001479
    7ef4:	200009a4 	.word	0x200009a4
    7ef8:	2000000c 	.word	0x2000000c
    7efc:	000011d9 	.word	0x000011d9
    7f00:	200009bc 	.word	0x200009bc
    7f04:	00005a6d 	.word	0x00005a6d
    7f08:	2000002c 	.word	0x2000002c
    7f0c:	00002d2d 	.word	0x00002d2d
    7f10:	00002eb1 	.word	0x00002eb1
    7f14:	0000aec0 	.word	0x0000aec0
    7f18:	00008cf1 	.word	0x00008cf1
    7f1c:	0000ac24 	.word	0x0000ac24
    7f20:	200003dc 	.word	0x200003dc
    7f24:	00008f45 	.word	0x00008f45
    7f28:	20000010 	.word	0x20000010
    7f2c:	20000018 	.word	0x20000018
    7f30:	0000ac2c 	.word	0x0000ac2c
    7f34:	20000026 	.word	0x20000026
    7f38:	000060bd 	.word	0x000060bd
    7f3c:	00003f85 	.word	0x00003f85
    7f40:	0000ac1c 	.word	0x0000ac1c
    7f44:	0000ac34 	.word	0x0000ac34
    7f48:	0000ac3c 	.word	0x0000ac3c
    7f4c:	0000ac44 	.word	0x0000ac44
    7f50:	0000ac4c 	.word	0x0000ac4c
    7f54:	0000ac54 	.word	0x0000ac54
    7f58:	0000ac5c 	.word	0x0000ac5c
    7f5c:	0000ac64 	.word	0x0000ac64
    7f60:	0000ac6c 	.word	0x0000ac6c
    7f64:	0000ac74 	.word	0x0000ac74
    7f68:	0000ac7c 	.word	0x0000ac7c
    7f6c:	0000ac84 	.word	0x0000ac84
    7f70:	0000ac8c 	.word	0x0000ac8c
    7f74:	0000ac94 	.word	0x0000ac94
		else if(strcmp(buff,"#5F0")==0)	{F_condi[4]='0';} //printf("#5F0 \r\n");}
    7f78:	49bd      	ldr	r1, [pc, #756]	; (8270 <main+0x734>)
    7f7a:	48be      	ldr	r0, [pc, #760]	; (8274 <main+0x738>)
    7f7c:	4bbe      	ldr	r3, [pc, #760]	; (8278 <main+0x73c>)
    7f7e:	4798      	blx	r3
    7f80:	2800      	cmp	r0, #0
    7f82:	d103      	bne.n	7f8c <main+0x450>
    7f84:	2230      	movs	r2, #48	; 0x30
    7f86:	4bbd      	ldr	r3, [pc, #756]	; (827c <main+0x740>)
    7f88:	711a      	strb	r2, [r3, #4]
    7f8a:	e70c      	b.n	7da6 <main+0x26a>
		else if(strcmp(buff,"#5F1")==0)	{F_condi[4]='1';} //printf("#5F1 \r\n");}
    7f8c:	49bc      	ldr	r1, [pc, #752]	; (8280 <main+0x744>)
    7f8e:	48b9      	ldr	r0, [pc, #740]	; (8274 <main+0x738>)
    7f90:	4bb9      	ldr	r3, [pc, #740]	; (8278 <main+0x73c>)
    7f92:	4798      	blx	r3
    7f94:	2800      	cmp	r0, #0
    7f96:	d103      	bne.n	7fa0 <main+0x464>
    7f98:	2231      	movs	r2, #49	; 0x31
    7f9a:	4bb8      	ldr	r3, [pc, #736]	; (827c <main+0x740>)
    7f9c:	711a      	strb	r2, [r3, #4]
    7f9e:	e702      	b.n	7da6 <main+0x26a>
		else if(strcmp(buff,"#5R0")==0)	{R_condi[4]='0';} //printf("#5R0 \r\n");}
    7fa0:	49b8      	ldr	r1, [pc, #736]	; (8284 <main+0x748>)
    7fa2:	48b4      	ldr	r0, [pc, #720]	; (8274 <main+0x738>)
    7fa4:	4bb4      	ldr	r3, [pc, #720]	; (8278 <main+0x73c>)
    7fa6:	4798      	blx	r3
    7fa8:	2800      	cmp	r0, #0
    7faa:	d103      	bne.n	7fb4 <main+0x478>
    7fac:	2230      	movs	r2, #48	; 0x30
    7fae:	4bb6      	ldr	r3, [pc, #728]	; (8288 <main+0x74c>)
    7fb0:	711a      	strb	r2, [r3, #4]
    7fb2:	e6f8      	b.n	7da6 <main+0x26a>
		else if(strcmp(buff,"#5R1")==0)	{R_condi[4]='1';} //printf("#5R0 \r\n");}
    7fb4:	49b5      	ldr	r1, [pc, #724]	; (828c <main+0x750>)
    7fb6:	48af      	ldr	r0, [pc, #700]	; (8274 <main+0x738>)
    7fb8:	4baf      	ldr	r3, [pc, #700]	; (8278 <main+0x73c>)
    7fba:	4798      	blx	r3
    7fbc:	2800      	cmp	r0, #0
    7fbe:	d103      	bne.n	7fc8 <main+0x48c>
    7fc0:	2231      	movs	r2, #49	; 0x31
    7fc2:	4bb1      	ldr	r3, [pc, #708]	; (8288 <main+0x74c>)
    7fc4:	711a      	strb	r2, [r3, #4]
    7fc6:	e6ee      	b.n	7da6 <main+0x26a>
		else if(strcmp(buff,"#6F0")==0)	{F_condi[5]='0';}//printf("#6F0 \r\n");}
    7fc8:	49b1      	ldr	r1, [pc, #708]	; (8290 <main+0x754>)
    7fca:	48aa      	ldr	r0, [pc, #680]	; (8274 <main+0x738>)
    7fcc:	4baa      	ldr	r3, [pc, #680]	; (8278 <main+0x73c>)
    7fce:	4798      	blx	r3
    7fd0:	2800      	cmp	r0, #0
    7fd2:	d103      	bne.n	7fdc <main+0x4a0>
    7fd4:	2230      	movs	r2, #48	; 0x30
    7fd6:	4ba9      	ldr	r3, [pc, #676]	; (827c <main+0x740>)
    7fd8:	715a      	strb	r2, [r3, #5]
    7fda:	e6e4      	b.n	7da6 <main+0x26a>
		else if(strcmp(buff,"#6F1")==0)	{F_condi[5]='1';}//printf("#6F1 \r\n");}
    7fdc:	49ad      	ldr	r1, [pc, #692]	; (8294 <main+0x758>)
    7fde:	48a5      	ldr	r0, [pc, #660]	; (8274 <main+0x738>)
    7fe0:	4ba5      	ldr	r3, [pc, #660]	; (8278 <main+0x73c>)
    7fe2:	4798      	blx	r3
    7fe4:	2800      	cmp	r0, #0
    7fe6:	d103      	bne.n	7ff0 <main+0x4b4>
    7fe8:	2231      	movs	r2, #49	; 0x31
    7fea:	4ba4      	ldr	r3, [pc, #656]	; (827c <main+0x740>)
    7fec:	715a      	strb	r2, [r3, #5]
    7fee:	e6da      	b.n	7da6 <main+0x26a>
		else if(strcmp(buff,"#6R0")==0)	{R_condi[5]='0';}//printf("#6R0 \r\n");}
    7ff0:	49a9      	ldr	r1, [pc, #676]	; (8298 <main+0x75c>)
    7ff2:	48a0      	ldr	r0, [pc, #640]	; (8274 <main+0x738>)
    7ff4:	4ba0      	ldr	r3, [pc, #640]	; (8278 <main+0x73c>)
    7ff6:	4798      	blx	r3
    7ff8:	2800      	cmp	r0, #0
    7ffa:	d103      	bne.n	8004 <main+0x4c8>
    7ffc:	2230      	movs	r2, #48	; 0x30
    7ffe:	4ba2      	ldr	r3, [pc, #648]	; (8288 <main+0x74c>)
    8000:	715a      	strb	r2, [r3, #5]
    8002:	e6d0      	b.n	7da6 <main+0x26a>
		else if(strcmp(buff,"#6R1")==0)	{R_condi[5]='1';}//printf("#6R1 \r\n");}
    8004:	49a5      	ldr	r1, [pc, #660]	; (829c <main+0x760>)
    8006:	489b      	ldr	r0, [pc, #620]	; (8274 <main+0x738>)
    8008:	4b9b      	ldr	r3, [pc, #620]	; (8278 <main+0x73c>)
    800a:	4798      	blx	r3
    800c:	2800      	cmp	r0, #0
    800e:	d000      	beq.n	8012 <main+0x4d6>
    8010:	e6c9      	b.n	7da6 <main+0x26a>
    8012:	2231      	movs	r2, #49	; 0x31
    8014:	4b9c      	ldr	r3, [pc, #624]	; (8288 <main+0x74c>)
    8016:	715a      	strb	r2, [r3, #5]
    8018:	e6c5      	b.n	7da6 <main+0x26a>
		else if (F_condi[1]=='0' && R_condi[1]=='1'){sol_valve[1] = '0';}// 2  (Open)
    801a:	4b9b      	ldr	r3, [pc, #620]	; (8288 <main+0x74c>)
    801c:	785b      	ldrb	r3, [r3, #1]
    801e:	2b31      	cmp	r3, #49	; 0x31
    8020:	d000      	beq.n	8024 <main+0x4e8>
    8022:	e667      	b.n	7cf4 <main+0x1b8>
    8024:	2230      	movs	r2, #48	; 0x30
    8026:	4b9e      	ldr	r3, [pc, #632]	; (82a0 <main+0x764>)
    8028:	705a      	strb	r2, [r3, #1]
    802a:	e683      	b.n	7d34 <main+0x1f8>
		else if (F_condi[1]=='1' && R_condi[1]=='0'){sol_valve[1] = '1';}// 2  (Close)
    802c:	4b96      	ldr	r3, [pc, #600]	; (8288 <main+0x74c>)
    802e:	785b      	ldrb	r3, [r3, #1]
    8030:	2b30      	cmp	r3, #48	; 0x30
    8032:	d000      	beq.n	8036 <main+0x4fa>
    8034:	e65e      	b.n	7cf4 <main+0x1b8>
    8036:	2231      	movs	r2, #49	; 0x31
    8038:	4b99      	ldr	r3, [pc, #612]	; (82a0 <main+0x764>)
    803a:	705a      	strb	r2, [r3, #1]
    803c:	e67a      	b.n	7d34 <main+0x1f8>
		else if (F_condi[2]=='0' && R_condi[2]=='1'){sol_valve[2] = '0';}// 3  (Open)
    803e:	4b92      	ldr	r3, [pc, #584]	; (8288 <main+0x74c>)
    8040:	789b      	ldrb	r3, [r3, #2]
    8042:	2b31      	cmp	r3, #49	; 0x31
    8044:	d000      	beq.n	8048 <main+0x50c>
    8046:	e65d      	b.n	7d04 <main+0x1c8>
    8048:	2230      	movs	r2, #48	; 0x30
    804a:	4b95      	ldr	r3, [pc, #596]	; (82a0 <main+0x764>)
    804c:	709a      	strb	r2, [r3, #2]
    804e:	e671      	b.n	7d34 <main+0x1f8>
		else if (F_condi[2]=='1' && R_condi[2]=='0'){sol_valve[2] = '1';}// 3  (Close)
    8050:	4b8d      	ldr	r3, [pc, #564]	; (8288 <main+0x74c>)
    8052:	789b      	ldrb	r3, [r3, #2]
    8054:	2b30      	cmp	r3, #48	; 0x30
    8056:	d000      	beq.n	805a <main+0x51e>
    8058:	e654      	b.n	7d04 <main+0x1c8>
    805a:	2231      	movs	r2, #49	; 0x31
    805c:	4b90      	ldr	r3, [pc, #576]	; (82a0 <main+0x764>)
    805e:	709a      	strb	r2, [r3, #2]
    8060:	e668      	b.n	7d34 <main+0x1f8>
		else if (F_condi[3]=='0' && R_condi[3]=='1'){sol_valve[3] = '0';}// 4  (Open)
    8062:	4b89      	ldr	r3, [pc, #548]	; (8288 <main+0x74c>)
    8064:	78db      	ldrb	r3, [r3, #3]
    8066:	2b31      	cmp	r3, #49	; 0x31
    8068:	d000      	beq.n	806c <main+0x530>
    806a:	e653      	b.n	7d14 <main+0x1d8>
    806c:	2230      	movs	r2, #48	; 0x30
    806e:	4b8c      	ldr	r3, [pc, #560]	; (82a0 <main+0x764>)
    8070:	70da      	strb	r2, [r3, #3]
    8072:	e65f      	b.n	7d34 <main+0x1f8>
		else if (F_condi[3]=='1' && R_condi[3]=='0'){sol_valve[3] = '1';}// 4  (Close)
    8074:	4b84      	ldr	r3, [pc, #528]	; (8288 <main+0x74c>)
    8076:	78db      	ldrb	r3, [r3, #3]
    8078:	2b30      	cmp	r3, #48	; 0x30
    807a:	d000      	beq.n	807e <main+0x542>
    807c:	e64a      	b.n	7d14 <main+0x1d8>
    807e:	2231      	movs	r2, #49	; 0x31
    8080:	4b87      	ldr	r3, [pc, #540]	; (82a0 <main+0x764>)
    8082:	70da      	strb	r2, [r3, #3]
    8084:	e656      	b.n	7d34 <main+0x1f8>
		else if (F_condi[4]=='0' && R_condi[4]=='1'){sol_valve[4] = '0';}// 5  (Open)
    8086:	4b80      	ldr	r3, [pc, #512]	; (8288 <main+0x74c>)
    8088:	791b      	ldrb	r3, [r3, #4]
    808a:	2b31      	cmp	r3, #49	; 0x31
    808c:	d000      	beq.n	8090 <main+0x554>
    808e:	e649      	b.n	7d24 <main+0x1e8>
    8090:	2230      	movs	r2, #48	; 0x30
    8092:	4b83      	ldr	r3, [pc, #524]	; (82a0 <main+0x764>)
    8094:	711a      	strb	r2, [r3, #4]
    8096:	e64d      	b.n	7d34 <main+0x1f8>
		else if (F_condi[4]=='1' && R_condi[4]=='0'){sol_valve[4] = '1';}// 5  (Close)
    8098:	4b7b      	ldr	r3, [pc, #492]	; (8288 <main+0x74c>)
    809a:	791b      	ldrb	r3, [r3, #4]
    809c:	2b30      	cmp	r3, #48	; 0x30
    809e:	d000      	beq.n	80a2 <main+0x566>
    80a0:	e640      	b.n	7d24 <main+0x1e8>
    80a2:	2231      	movs	r2, #49	; 0x31
    80a4:	4b7e      	ldr	r3, [pc, #504]	; (82a0 <main+0x764>)
    80a6:	711a      	strb	r2, [r3, #4]
    80a8:	e644      	b.n	7d34 <main+0x1f8>
		else if (F_condi[5]=='0' && R_condi[5]=='1'){sol_valve[5] = '0';}// 6  (Open)
    80aa:	4b77      	ldr	r3, [pc, #476]	; (8288 <main+0x74c>)
    80ac:	795b      	ldrb	r3, [r3, #5]
    80ae:	2b31      	cmp	r3, #49	; 0x31
    80b0:	d000      	beq.n	80b4 <main+0x578>
    80b2:	e63f      	b.n	7d34 <main+0x1f8>
    80b4:	2230      	movs	r2, #48	; 0x30
    80b6:	4b7a      	ldr	r3, [pc, #488]	; (82a0 <main+0x764>)
    80b8:	715a      	strb	r2, [r3, #5]
    80ba:	e63b      	b.n	7d34 <main+0x1f8>
		else if (F_condi[5]=='1' && R_condi[5]=='0'){sol_valve[5] = '1';}// 6  (Close)
    80bc:	4b72      	ldr	r3, [pc, #456]	; (8288 <main+0x74c>)
    80be:	795b      	ldrb	r3, [r3, #5]
    80c0:	2b30      	cmp	r3, #48	; 0x30
    80c2:	d000      	beq.n	80c6 <main+0x58a>
    80c4:	e636      	b.n	7d34 <main+0x1f8>
    80c6:	2231      	movs	r2, #49	; 0x31
    80c8:	4b75      	ldr	r3, [pc, #468]	; (82a0 <main+0x764>)
    80ca:	715a      	strb	r2, [r3, #5]
    80cc:	e632      	b.n	7d34 <main+0x1f8>
			if(ready=='1' && mu_sel_sw=='0' && at_sel_sw=='1' && error_flag==0)
    80ce:	4b75      	ldr	r3, [pc, #468]	; (82a4 <main+0x768>)
    80d0:	781b      	ldrb	r3, [r3, #0]
    80d2:	2b31      	cmp	r3, #49	; 0x31
    80d4:	d008      	beq.n	80e8 <main+0x5ac>
			else if(error_flag==1)
    80d6:	4b74      	ldr	r3, [pc, #464]	; (82a8 <main+0x76c>)
    80d8:	781b      	ldrb	r3, [r3, #0]
    80da:	2b00      	cmp	r3, #0
    80dc:	d100      	bne.n	80e0 <main+0x5a4>
    80de:	e62e      	b.n	7d3e <main+0x202>
				printf("error\r\n");
    80e0:	4872      	ldr	r0, [pc, #456]	; (82ac <main+0x770>)
    80e2:	4b73      	ldr	r3, [pc, #460]	; (82b0 <main+0x774>)
    80e4:	4798      	blx	r3
    80e6:	e62a      	b.n	7d3e <main+0x202>
			if(ready=='1' && mu_sel_sw=='0' && at_sel_sw=='1' && error_flag==0)
    80e8:	4b72      	ldr	r3, [pc, #456]	; (82b4 <main+0x778>)
    80ea:	781b      	ldrb	r3, [r3, #0]
    80ec:	2b30      	cmp	r3, #48	; 0x30
    80ee:	d049      	beq.n	8184 <main+0x648>
			else if(ready=='1' && mu_sel_sw=='1' && at_sel_sw=='0' && error_flag==false)
    80f0:	2b31      	cmp	r3, #49	; 0x31
    80f2:	d1f0      	bne.n	80d6 <main+0x59a>
    80f4:	4a70      	ldr	r2, [pc, #448]	; (82b8 <main+0x77c>)
    80f6:	7812      	ldrb	r2, [r2, #0]
    80f8:	2a30      	cmp	r2, #48	; 0x30
    80fa:	d1ec      	bne.n	80d6 <main+0x59a>
    80fc:	4a6a      	ldr	r2, [pc, #424]	; (82a8 <main+0x76c>)
    80fe:	7812      	ldrb	r2, [r2, #0]
    8100:	2a00      	cmp	r2, #0
    8102:	d1ed      	bne.n	80e0 <main+0x5a4>
				if(at_start_sw!=0){at_start_sw=0;}
    8104:	4a6d      	ldr	r2, [pc, #436]	; (82bc <main+0x780>)
    8106:	7812      	ldrb	r2, [r2, #0]
    8108:	2a00      	cmp	r2, #0
    810a:	d002      	beq.n	8112 <main+0x5d6>
    810c:	2100      	movs	r1, #0
    810e:	4a6b      	ldr	r2, [pc, #428]	; (82bc <main+0x780>)
    8110:	7011      	strb	r1, [r2, #0]
				if(sol_valve[0]=='0' && sol_valve[1]=='0' && cylin_choi=='1' && cam_on=='1')
    8112:	4a63      	ldr	r2, [pc, #396]	; (82a0 <main+0x764>)
    8114:	7811      	ldrb	r1, [r2, #0]
    8116:	2930      	cmp	r1, #48	; 0x30
    8118:	d100      	bne.n	811c <main+0x5e0>
    811a:	e18c      	b.n	8436 <main+0x8fa>
				else if(sol_valve[0]=='1' && sol_valve[1]=='0' && sol_valve[2]=='0' && cylin_choi=='2' && cam_on=='1')
    811c:	2931      	cmp	r1, #49	; 0x31
    811e:	d100      	bne.n	8122 <main+0x5e6>
    8120:	e19c      	b.n	845c <main+0x920>
				else if(sol_valve[1]=='1' && sol_valve[2]=='0' && sol_valve[3]=='0' && cylin_choi=='3' && cam_on=='1')
    8122:	4a5f      	ldr	r2, [pc, #380]	; (82a0 <main+0x764>)
    8124:	7850      	ldrb	r0, [r2, #1]
    8126:	2831      	cmp	r0, #49	; 0x31
    8128:	d100      	bne.n	812c <main+0x5f0>
    812a:	e1ae      	b.n	848a <main+0x94e>
				else if(sol_valve[2]=='1' && sol_valve[3]=='0' && sol_valve[4]=='0' && cylin_choi=='4' && cam_on=='1')
    812c:	4a5c      	ldr	r2, [pc, #368]	; (82a0 <main+0x764>)
    812e:	7892      	ldrb	r2, [r2, #2]
    8130:	2a31      	cmp	r2, #49	; 0x31
    8132:	d100      	bne.n	8136 <main+0x5fa>
    8134:	e1c0      	b.n	84b8 <main+0x97c>
				else if(sol_valve[3]=='1' && sol_valve[4]=='0' && sol_valve[5]=='0' && cylin_choi=='5' && cam_on=='1')
    8136:	4f5a      	ldr	r7, [pc, #360]	; (82a0 <main+0x764>)
    8138:	78ff      	ldrb	r7, [r7, #3]
    813a:	46b9      	mov	r9, r7
    813c:	2f31      	cmp	r7, #49	; 0x31
    813e:	d100      	bne.n	8142 <main+0x606>
    8140:	e1d5      	b.n	84ee <main+0x9b2>
				else if(sol_valve[4]=='1' && sol_valve[5]=='0' && cylin_choi=='6' && cam_on=='1')
    8142:	4f57      	ldr	r7, [pc, #348]	; (82a0 <main+0x764>)
    8144:	793f      	ldrb	r7, [r7, #4]
    8146:	46bc      	mov	ip, r7
    8148:	2f31      	cmp	r7, #49	; 0x31
    814a:	d100      	bne.n	814e <main+0x612>
    814c:	e213      	b.n	8576 <main+0xa3a>
				else if(sol_valve[3]=='1' && sol_valve[4]=='1' && sol_valve[5]=='0' && cylin_choi=='5' && cam_off=='1')
    814e:	464f      	mov	r7, r9
    8150:	2f31      	cmp	r7, #49	; 0x31
    8152:	d100      	bne.n	8156 <main+0x61a>
    8154:	e1d5      	b.n	8502 <main+0x9c6>
				else if(sol_valve[2]=='1' && sol_valve[3]=='1' && sol_valve[4]=='0' && cylin_choi=='4' && cam_off=='1')
    8156:	2a31      	cmp	r2, #49	; 0x31
    8158:	d100      	bne.n	815c <main+0x620>
    815a:	e2a8      	b.n	86ae <main+0xb72>
				else if(sol_valve[1]=='1' && sol_valve[2]=='1' && sol_valve[3]=='0' && cylin_choi=='3' && cam_off=='1')
    815c:	2831      	cmp	r0, #49	; 0x31
    815e:	d100      	bne.n	8162 <main+0x626>
    8160:	e25e      	b.n	8620 <main+0xae4>
				else if(sol_valve[0]=='1' && sol_valve[1]=='1' && sol_valve[2]=='0' && cylin_choi=='2' && cam_off=='1')
    8162:	2931      	cmp	r1, #49	; 0x31
    8164:	d100      	bne.n	8168 <main+0x62c>
    8166:	e1d8      	b.n	851a <main+0x9de>
				if(cam_on=='1'){cam_on='2';}
    8168:	4b55      	ldr	r3, [pc, #340]	; (82c0 <main+0x784>)
    816a:	781b      	ldrb	r3, [r3, #0]
    816c:	2b31      	cmp	r3, #49	; 0x31
    816e:	d100      	bne.n	8172 <main+0x636>
    8170:	e1e6      	b.n	8540 <main+0xa04>
				if(cam_off=='1'){cam_off='2';}
    8172:	4b54      	ldr	r3, [pc, #336]	; (82c4 <main+0x788>)
    8174:	781b      	ldrb	r3, [r3, #0]
    8176:	2b31      	cmp	r3, #49	; 0x31
    8178:	d000      	beq.n	817c <main+0x640>
    817a:	e5e0      	b.n	7d3e <main+0x202>
    817c:	2232      	movs	r2, #50	; 0x32
    817e:	4b51      	ldr	r3, [pc, #324]	; (82c4 <main+0x788>)
    8180:	701a      	strb	r2, [r3, #0]
    8182:	e5dc      	b.n	7d3e <main+0x202>
			if(ready=='1' && mu_sel_sw=='0' && at_sel_sw=='1' && error_flag==0)
    8184:	4b4c      	ldr	r3, [pc, #304]	; (82b8 <main+0x77c>)
    8186:	781b      	ldrb	r3, [r3, #0]
    8188:	2b31      	cmp	r3, #49	; 0x31
    818a:	d1a4      	bne.n	80d6 <main+0x59a>
    818c:	4b46      	ldr	r3, [pc, #280]	; (82a8 <main+0x76c>)
    818e:	781b      	ldrb	r3, [r3, #0]
    8190:	2b00      	cmp	r3, #0
    8192:	d1a0      	bne.n	80d6 <main+0x59a>
				if(at_start_sw=='1')
    8194:	4b49      	ldr	r3, [pc, #292]	; (82bc <main+0x780>)
    8196:	7818      	ldrb	r0, [r3, #0]
    8198:	2831      	cmp	r0, #49	; 0x31
    819a:	d000      	beq.n	819e <main+0x662>
    819c:	e5cf      	b.n	7d3e <main+0x202>
					if(sol_valve[0]=='0' && sol_valve[1]=='0' && at_dir=='0' && at_move=='0')
    819e:	4b40      	ldr	r3, [pc, #256]	; (82a0 <main+0x764>)
    81a0:	781b      	ldrb	r3, [r3, #0]
    81a2:	4699      	mov	r9, r3
    81a4:	2b30      	cmp	r3, #48	; 0x30
    81a6:	d023      	beq.n	81f0 <main+0x6b4>
					else if(sol_valve[0]=='1' && sol_valve[1]=='0' && sol_valve[2]=='0' && at_dir=='0' && at_move=='0')
    81a8:	2b31      	cmp	r3, #49	; 0x31
    81aa:	d033      	beq.n	8214 <main+0x6d8>
					else if(sol_valve[1]=='1' && sol_valve[2]=='0' && sol_valve[3]=='0' && at_dir=='0' && at_move=='0')
    81ac:	4b3c      	ldr	r3, [pc, #240]	; (82a0 <main+0x764>)
    81ae:	785b      	ldrb	r3, [r3, #1]
    81b0:	2b31      	cmp	r3, #49	; 0x31
    81b2:	d045      	beq.n	8240 <main+0x704>
					else if(sol_valve[2]=='1' && sol_valve[3]=='0' && sol_valve[4]=='0' && at_dir=='0' && at_move=='0')
    81b4:	4a3a      	ldr	r2, [pc, #232]	; (82a0 <main+0x764>)
    81b6:	7892      	ldrb	r2, [r2, #2]
    81b8:	2a31      	cmp	r2, #49	; 0x31
    81ba:	d100      	bne.n	81be <main+0x682>
    81bc:	e08a      	b.n	82d4 <main+0x798>
					else if(sol_valve[3]=='1' && sol_valve[4]=='0' && sol_valve[5]=='0' && at_dir=='0' && at_move=='0')
    81be:	4938      	ldr	r1, [pc, #224]	; (82a0 <main+0x764>)
    81c0:	78c9      	ldrb	r1, [r1, #3]
    81c2:	2931      	cmp	r1, #49	; 0x31
    81c4:	d100      	bne.n	81c8 <main+0x68c>
    81c6:	e0a2      	b.n	830e <main+0x7d2>
					else if(sol_valve[4]=='1' && sol_valve[5]=='0' && at_dir=='0' && at_move=='0')
    81c8:	4f35      	ldr	r7, [pc, #212]	; (82a0 <main+0x764>)
    81ca:	793f      	ldrb	r7, [r7, #4]
    81cc:	46bc      	mov	ip, r7
    81ce:	2f31      	cmp	r7, #49	; 0x31
    81d0:	d100      	bne.n	81d4 <main+0x698>
    81d2:	e0b7      	b.n	8344 <main+0x808>
					else if(sol_valve[3]=='1' && sol_valve[4]=='1' && sol_valve[5]=='0' && at_dir=='1' && at_move=='0')
    81d4:	2931      	cmp	r1, #49	; 0x31
    81d6:	d100      	bne.n	81da <main+0x69e>
    81d8:	e27a      	b.n	86d0 <main+0xb94>
					else if(sol_valve[2]=='1' && sol_valve[3]=='1' && sol_valve[4]=='0' && at_dir=='1' && at_move=='0')
    81da:	2a31      	cmp	r2, #49	; 0x31
    81dc:	d100      	bne.n	81e0 <main+0x6a4>
    81de:	e245      	b.n	866c <main+0xb30>
					else if(sol_valve[1]=='1' && sol_valve[2]=='1' && sol_valve[3]=='0' && at_dir=='1' && at_move=='0')
    81e0:	2b31      	cmp	r3, #49	; 0x31
    81e2:	d100      	bne.n	81e6 <main+0x6aa>
    81e4:	e10e      	b.n	8404 <main+0x8c8>
					else if(sol_valve[0]=='1' && sol_valve[1]=='1' && sol_valve[2]=='0' && at_dir=='1' && at_move=='0')
    81e6:	464a      	mov	r2, r9
    81e8:	2a31      	cmp	r2, #49	; 0x31
    81ea:	d000      	beq.n	81ee <main+0x6b2>
    81ec:	e5a7      	b.n	7d3e <main+0x202>
    81ee:	e0ca      	b.n	8386 <main+0x84a>
					if(sol_valve[0]=='0' && sol_valve[1]=='0' && at_dir=='0' && at_move=='0')
    81f0:	4b2b      	ldr	r3, [pc, #172]	; (82a0 <main+0x764>)
    81f2:	785b      	ldrb	r3, [r3, #1]
    81f4:	2b30      	cmp	r3, #48	; 0x30
    81f6:	d1d9      	bne.n	81ac <main+0x670>
    81f8:	4b33      	ldr	r3, [pc, #204]	; (82c8 <main+0x78c>)
    81fa:	781b      	ldrb	r3, [r3, #0]
    81fc:	2b30      	cmp	r3, #48	; 0x30
    81fe:	d002      	beq.n	8206 <main+0x6ca>
					else if(sol_valve[1]=='1' && sol_valve[2]=='0' && sol_valve[3]=='0' && at_dir=='0' && at_move=='0')
    8200:	4b27      	ldr	r3, [pc, #156]	; (82a0 <main+0x764>)
    8202:	785b      	ldrb	r3, [r3, #1]
    8204:	e7d6      	b.n	81b4 <main+0x678>
					if(sol_valve[0]=='0' && sol_valve[1]=='0' && at_dir=='0' && at_move=='0')
    8206:	4b31      	ldr	r3, [pc, #196]	; (82cc <main+0x790>)
    8208:	781b      	ldrb	r3, [r3, #0]
    820a:	2b30      	cmp	r3, #48	; 0x30
    820c:	d1f8      	bne.n	8200 <main+0x6c4>
						sol_valve_cont('1');
    820e:	4b30      	ldr	r3, [pc, #192]	; (82d0 <main+0x794>)
    8210:	4798      	blx	r3
    8212:	e594      	b.n	7d3e <main+0x202>
					else if(sol_valve[0]=='1' && sol_valve[1]=='0' && sol_valve[2]=='0' && at_dir=='0' && at_move=='0')
    8214:	4b22      	ldr	r3, [pc, #136]	; (82a0 <main+0x764>)
    8216:	785a      	ldrb	r2, [r3, #1]
    8218:	2a30      	cmp	r2, #48	; 0x30
    821a:	d1c7      	bne.n	81ac <main+0x670>
    821c:	789b      	ldrb	r3, [r3, #2]
    821e:	2b30      	cmp	r3, #48	; 0x30
    8220:	d001      	beq.n	8226 <main+0x6ea>
					else if(sol_valve[1]=='1' && sol_valve[2]=='0' && sol_valve[3]=='0' && at_dir=='0' && at_move=='0')
    8222:	0013      	movs	r3, r2
    8224:	e7c6      	b.n	81b4 <main+0x678>
					else if(sol_valve[0]=='1' && sol_valve[1]=='0' && sol_valve[2]=='0' && at_dir=='0' && at_move=='0')
    8226:	4a28      	ldr	r2, [pc, #160]	; (82c8 <main+0x78c>)
    8228:	7812      	ldrb	r2, [r2, #0]
    822a:	2a30      	cmp	r2, #48	; 0x30
    822c:	d1c2      	bne.n	81b4 <main+0x678>
    822e:	4b27      	ldr	r3, [pc, #156]	; (82cc <main+0x790>)
    8230:	7819      	ldrb	r1, [r3, #0]
					else if(sol_valve[1]=='1' && sol_valve[2]=='0' && sol_valve[3]=='0' && at_dir=='0' && at_move=='0')
    8232:	0013      	movs	r3, r2
					else if(sol_valve[0]=='1' && sol_valve[1]=='0' && sol_valve[2]=='0' && at_dir=='0' && at_move=='0')
    8234:	2930      	cmp	r1, #48	; 0x30
    8236:	d1bd      	bne.n	81b4 <main+0x678>
						sol_valve_cont('2');
    8238:	2032      	movs	r0, #50	; 0x32
    823a:	4b25      	ldr	r3, [pc, #148]	; (82d0 <main+0x794>)
    823c:	4798      	blx	r3
    823e:	e57e      	b.n	7d3e <main+0x202>
					else if(sol_valve[1]=='1' && sol_valve[2]=='0' && sol_valve[3]=='0' && at_dir=='0' && at_move=='0')
    8240:	4a17      	ldr	r2, [pc, #92]	; (82a0 <main+0x764>)
    8242:	7891      	ldrb	r1, [r2, #2]
    8244:	2930      	cmp	r1, #48	; 0x30
    8246:	d1b5      	bne.n	81b4 <main+0x678>
    8248:	78d2      	ldrb	r2, [r2, #3]
    824a:	2a30      	cmp	r2, #48	; 0x30
    824c:	d001      	beq.n	8252 <main+0x716>
					else if(sol_valve[2]=='1' && sol_valve[3]=='0' && sol_valve[4]=='0' && at_dir=='0' && at_move=='0')
    824e:	000a      	movs	r2, r1
    8250:	e7b5      	b.n	81be <main+0x682>
					else if(sol_valve[1]=='1' && sol_valve[2]=='0' && sol_valve[3]=='0' && at_dir=='0' && at_move=='0')
    8252:	491d      	ldr	r1, [pc, #116]	; (82c8 <main+0x78c>)
    8254:	7809      	ldrb	r1, [r1, #0]
    8256:	2930      	cmp	r1, #48	; 0x30
    8258:	d1b1      	bne.n	81be <main+0x682>
    825a:	4a1c      	ldr	r2, [pc, #112]	; (82cc <main+0x790>)
    825c:	7812      	ldrb	r2, [r2, #0]
    825e:	4694      	mov	ip, r2
					else if(sol_valve[2]=='1' && sol_valve[3]=='0' && sol_valve[4]=='0' && at_dir=='0' && at_move=='0')
    8260:	000a      	movs	r2, r1
					else if(sol_valve[1]=='1' && sol_valve[2]=='0' && sol_valve[3]=='0' && at_dir=='0' && at_move=='0')
    8262:	4661      	mov	r1, ip
    8264:	2930      	cmp	r1, #48	; 0x30
    8266:	d1aa      	bne.n	81be <main+0x682>
						sol_valve_cont('3');
    8268:	2033      	movs	r0, #51	; 0x33
    826a:	4b19      	ldr	r3, [pc, #100]	; (82d0 <main+0x794>)
    826c:	4798      	blx	r3
    826e:	e566      	b.n	7d3e <main+0x202>
    8270:	0000ac9c 	.word	0x0000ac9c
    8274:	200003dc 	.word	0x200003dc
    8278:	00008f45 	.word	0x00008f45
    827c:	20000010 	.word	0x20000010
    8280:	0000aca4 	.word	0x0000aca4
    8284:	0000acac 	.word	0x0000acac
    8288:	20000018 	.word	0x20000018
    828c:	0000acb4 	.word	0x0000acb4
    8290:	0000acbc 	.word	0x0000acbc
    8294:	0000acc4 	.word	0x0000acc4
    8298:	0000accc 	.word	0x0000accc
    829c:	0000acd4 	.word	0x0000acd4
    82a0:	200009a4 	.word	0x200009a4
    82a4:	2000002a 	.word	0x2000002a
    82a8:	200003e8 	.word	0x200003e8
    82ac:	0000aef4 	.word	0x0000aef4
    82b0:	00008cf1 	.word	0x00008cf1
    82b4:	20000029 	.word	0x20000029
    82b8:	20000020 	.word	0x20000020
    82bc:	20000021 	.word	0x20000021
    82c0:	20000024 	.word	0x20000024
    82c4:	20000023 	.word	0x20000023
    82c8:	2000001e 	.word	0x2000001e
    82cc:	2000001f 	.word	0x2000001f
    82d0:	00007959 	.word	0x00007959
					else if(sol_valve[2]=='1' && sol_valve[3]=='0' && sol_valve[4]=='0' && at_dir=='0' && at_move=='0')
    82d4:	49bb      	ldr	r1, [pc, #748]	; (85c4 <main+0xa88>)
    82d6:	78c9      	ldrb	r1, [r1, #3]
    82d8:	468c      	mov	ip, r1
    82da:	2930      	cmp	r1, #48	; 0x30
    82dc:	d000      	beq.n	82e0 <main+0x7a4>
    82de:	e76e      	b.n	81be <main+0x682>
    82e0:	49b8      	ldr	r1, [pc, #736]	; (85c4 <main+0xa88>)
    82e2:	7909      	ldrb	r1, [r1, #4]
    82e4:	2930      	cmp	r1, #48	; 0x30
    82e6:	d001      	beq.n	82ec <main+0x7b0>
					else if(sol_valve[3]=='1' && sol_valve[4]=='0' && sol_valve[5]=='0' && at_dir=='0' && at_move=='0')
    82e8:	4661      	mov	r1, ip
    82ea:	e76d      	b.n	81c8 <main+0x68c>
					else if(sol_valve[2]=='1' && sol_valve[3]=='0' && sol_valve[4]=='0' && at_dir=='0' && at_move=='0')
    82ec:	4fb6      	ldr	r7, [pc, #728]	; (85c8 <main+0xa8c>)
    82ee:	783f      	ldrb	r7, [r7, #0]
    82f0:	2f30      	cmp	r7, #48	; 0x30
    82f2:	d000      	beq.n	82f6 <main+0x7ba>
    82f4:	e768      	b.n	81c8 <main+0x68c>
    82f6:	49b5      	ldr	r1, [pc, #724]	; (85cc <main+0xa90>)
    82f8:	7809      	ldrb	r1, [r1, #0]
    82fa:	4688      	mov	r8, r1
					else if(sol_valve[3]=='1' && sol_valve[4]=='0' && sol_valve[5]=='0' && at_dir=='0' && at_move=='0')
    82fc:	0039      	movs	r1, r7
					else if(sol_valve[2]=='1' && sol_valve[3]=='0' && sol_valve[4]=='0' && at_dir=='0' && at_move=='0')
    82fe:	4647      	mov	r7, r8
    8300:	2f30      	cmp	r7, #48	; 0x30
    8302:	d000      	beq.n	8306 <main+0x7ca>
    8304:	e760      	b.n	81c8 <main+0x68c>
						sol_valve_cont('4');
    8306:	2034      	movs	r0, #52	; 0x34
    8308:	4bb1      	ldr	r3, [pc, #708]	; (85d0 <main+0xa94>)
    830a:	4798      	blx	r3
    830c:	e517      	b.n	7d3e <main+0x202>
					else if(sol_valve[3]=='1' && sol_valve[4]=='0' && sol_valve[5]=='0' && at_dir=='0' && at_move=='0')
    830e:	4fad      	ldr	r7, [pc, #692]	; (85c4 <main+0xa88>)
    8310:	793f      	ldrb	r7, [r7, #4]
    8312:	46bc      	mov	ip, r7
    8314:	2f30      	cmp	r7, #48	; 0x30
    8316:	d000      	beq.n	831a <main+0x7de>
    8318:	e1d4      	b.n	86c4 <main+0xb88>
    831a:	4faa      	ldr	r7, [pc, #680]	; (85c4 <main+0xa88>)
    831c:	797f      	ldrb	r7, [r7, #5]
    831e:	2f30      	cmp	r7, #48	; 0x30
    8320:	d003      	beq.n	832a <main+0x7ee>
					else if(sol_valve[2]=='1' && sol_valve[3]=='1' && sol_valve[4]=='0' && at_dir=='1' && at_move=='0')
    8322:	2a31      	cmp	r2, #49	; 0x31
    8324:	d000      	beq.n	8328 <main+0x7ec>
    8326:	e75b      	b.n	81e0 <main+0x6a4>
    8328:	e021      	b.n	836e <main+0x832>
					else if(sol_valve[3]=='1' && sol_valve[4]=='0' && sol_valve[5]=='0' && at_dir=='0' && at_move=='0')
    832a:	4fa7      	ldr	r7, [pc, #668]	; (85c8 <main+0xa8c>)
    832c:	783f      	ldrb	r7, [r7, #0]
    832e:	2f30      	cmp	r7, #48	; 0x30
    8330:	d1f7      	bne.n	8322 <main+0x7e6>
    8332:	4fa6      	ldr	r7, [pc, #664]	; (85cc <main+0xa90>)
    8334:	783f      	ldrb	r7, [r7, #0]
    8336:	2f30      	cmp	r7, #48	; 0x30
    8338:	d1f3      	bne.n	8322 <main+0x7e6>
						sol_valve_cont('5');
    833a:	2035      	movs	r0, #53	; 0x35
    833c:	4ba4      	ldr	r3, [pc, #656]	; (85d0 <main+0xa94>)
    833e:	4798      	blx	r3
    8340:	e4fd      	b.n	7d3e <main+0x202>
					else if(sol_valve[3]=='1' && sol_valve[4]=='0' && sol_valve[5]=='0' && at_dir=='0' && at_move=='0')
    8342:	4661      	mov	r1, ip
					else if(sol_valve[4]=='1' && sol_valve[5]=='0' && at_dir=='0' && at_move=='0')
    8344:	4f9f      	ldr	r7, [pc, #636]	; (85c4 <main+0xa88>)
    8346:	797f      	ldrb	r7, [r7, #5]
    8348:	2f30      	cmp	r7, #48	; 0x30
    834a:	d135      	bne.n	83b8 <main+0x87c>
    834c:	4f9e      	ldr	r7, [pc, #632]	; (85c8 <main+0xa8c>)
    834e:	783f      	ldrb	r7, [r7, #0]
    8350:	2f30      	cmp	r7, #48	; 0x30
    8352:	d029      	beq.n	83a8 <main+0x86c>
					else if(sol_valve[3]=='1' && sol_valve[4]=='1' && sol_valve[5]=='0' && at_dir=='1' && at_move=='0')
    8354:	2931      	cmp	r1, #49	; 0x31
    8356:	d000      	beq.n	835a <main+0x81e>
    8358:	e73f      	b.n	81da <main+0x69e>
    835a:	4f9a      	ldr	r7, [pc, #616]	; (85c4 <main+0xa88>)
    835c:	797f      	ldrb	r7, [r7, #5]
    835e:	2f30      	cmp	r7, #48	; 0x30
    8360:	d038      	beq.n	83d4 <main+0x898>
					else if(sol_valve[2]=='1' && sol_valve[3]=='1' && sol_valve[4]=='0' && at_dir=='1' && at_move=='0')
    8362:	2a31      	cmp	r2, #49	; 0x31
    8364:	d000      	beq.n	8368 <main+0x82c>
    8366:	e1bb      	b.n	86e0 <main+0xba4>
    8368:	2931      	cmp	r1, #49	; 0x31
    836a:	d000      	beq.n	836e <main+0x832>
    836c:	e17e      	b.n	866c <main+0xb30>
    836e:	4662      	mov	r2, ip
    8370:	2a30      	cmp	r2, #48	; 0x30
    8372:	d03b      	beq.n	83ec <main+0x8b0>
					else if(sol_valve[1]=='1' && sol_valve[2]=='1' && sol_valve[3]=='0' && at_dir=='1' && at_move=='0')
    8374:	2b31      	cmp	r3, #49	; 0x31
    8376:	d04e      	beq.n	8416 <main+0x8da>
					else if(sol_valve[0]=='1' && sol_valve[1]=='1' && sol_valve[2]=='0' && at_dir=='1' && at_move=='0')
    8378:	464a      	mov	r2, r9
    837a:	2a31      	cmp	r2, #49	; 0x31
    837c:	d000      	beq.n	8380 <main+0x844>
    837e:	e4de      	b.n	7d3e <main+0x202>
    8380:	2b31      	cmp	r3, #49	; 0x31
    8382:	d100      	bne.n	8386 <main+0x84a>
    8384:	e17e      	b.n	8684 <main+0xb48>
					else if(sol_valve[0]=='1' && sol_valve[1]=='0' && at_dir=='1' && at_move=='0')
    8386:	2b30      	cmp	r3, #48	; 0x30
    8388:	d000      	beq.n	838c <main+0x850>
    838a:	e4d8      	b.n	7d3e <main+0x202>
    838c:	4b8e      	ldr	r3, [pc, #568]	; (85c8 <main+0xa8c>)
    838e:	781b      	ldrb	r3, [r3, #0]
    8390:	2b31      	cmp	r3, #49	; 0x31
    8392:	d000      	beq.n	8396 <main+0x85a>
    8394:	e4d3      	b.n	7d3e <main+0x202>
    8396:	4b8d      	ldr	r3, [pc, #564]	; (85cc <main+0xa90>)
    8398:	781b      	ldrb	r3, [r3, #0]
    839a:	2b30      	cmp	r3, #48	; 0x30
    839c:	d000      	beq.n	83a0 <main+0x864>
    839e:	e4ce      	b.n	7d3e <main+0x202>
						sol_valve_cont('C');
    83a0:	2043      	movs	r0, #67	; 0x43
    83a2:	4b8b      	ldr	r3, [pc, #556]	; (85d0 <main+0xa94>)
    83a4:	4798      	blx	r3
    83a6:	e4ca      	b.n	7d3e <main+0x202>
					else if(sol_valve[4]=='1' && sol_valve[5]=='0' && at_dir=='0' && at_move=='0')
    83a8:	4f88      	ldr	r7, [pc, #544]	; (85cc <main+0xa90>)
    83aa:	783f      	ldrb	r7, [r7, #0]
    83ac:	2f30      	cmp	r7, #48	; 0x30
    83ae:	d1d1      	bne.n	8354 <main+0x818>
						sol_valve_cont('6');
    83b0:	2036      	movs	r0, #54	; 0x36
    83b2:	4b87      	ldr	r3, [pc, #540]	; (85d0 <main+0xa94>)
    83b4:	4798      	blx	r3
    83b6:	e4c2      	b.n	7d3e <main+0x202>
					else if(sol_valve[4]=='1' && sol_valve[5]=='1' && at_dir=='1' && at_move=='0')
    83b8:	2f31      	cmp	r7, #49	; 0x31
    83ba:	d1cb      	bne.n	8354 <main+0x818>
    83bc:	4f82      	ldr	r7, [pc, #520]	; (85c8 <main+0xa8c>)
    83be:	783f      	ldrb	r7, [r7, #0]
    83c0:	2f31      	cmp	r7, #49	; 0x31
    83c2:	d1c7      	bne.n	8354 <main+0x818>
    83c4:	4f81      	ldr	r7, [pc, #516]	; (85cc <main+0xa90>)
    83c6:	783f      	ldrb	r7, [r7, #0]
    83c8:	2f30      	cmp	r7, #48	; 0x30
    83ca:	d1c3      	bne.n	8354 <main+0x818>
						sol_valve_cont('7');
    83cc:	2037      	movs	r0, #55	; 0x37
    83ce:	4b80      	ldr	r3, [pc, #512]	; (85d0 <main+0xa94>)
    83d0:	4798      	blx	r3
    83d2:	e4b4      	b.n	7d3e <main+0x202>
					else if(sol_valve[3]=='1' && sol_valve[4]=='1' && sol_valve[5]=='0' && at_dir=='1' && at_move=='0')
    83d4:	4f7c      	ldr	r7, [pc, #496]	; (85c8 <main+0xa8c>)
    83d6:	783f      	ldrb	r7, [r7, #0]
    83d8:	2f31      	cmp	r7, #49	; 0x31
    83da:	d1c2      	bne.n	8362 <main+0x826>
    83dc:	4f7b      	ldr	r7, [pc, #492]	; (85cc <main+0xa90>)
    83de:	783f      	ldrb	r7, [r7, #0]
    83e0:	2f30      	cmp	r7, #48	; 0x30
    83e2:	d1be      	bne.n	8362 <main+0x826>
						sol_valve_cont('8');
    83e4:	2038      	movs	r0, #56	; 0x38
    83e6:	4b7a      	ldr	r3, [pc, #488]	; (85d0 <main+0xa94>)
    83e8:	4798      	blx	r3
    83ea:	e4a8      	b.n	7d3e <main+0x202>
					else if(sol_valve[2]=='1' && sol_valve[3]=='1' && sol_valve[4]=='0' && at_dir=='1' && at_move=='0')
    83ec:	4a76      	ldr	r2, [pc, #472]	; (85c8 <main+0xa8c>)
    83ee:	7812      	ldrb	r2, [r2, #0]
    83f0:	2a31      	cmp	r2, #49	; 0x31
    83f2:	d1bf      	bne.n	8374 <main+0x838>
    83f4:	4a75      	ldr	r2, [pc, #468]	; (85cc <main+0xa90>)
    83f6:	7812      	ldrb	r2, [r2, #0]
    83f8:	2a30      	cmp	r2, #48	; 0x30
    83fa:	d1bb      	bne.n	8374 <main+0x838>
						sol_valve_cont('9');
    83fc:	2039      	movs	r0, #57	; 0x39
    83fe:	4b74      	ldr	r3, [pc, #464]	; (85d0 <main+0xa94>)
    8400:	4798      	blx	r3
    8402:	e49c      	b.n	7d3e <main+0x202>
    8404:	0010      	movs	r0, r2
					else if(sol_valve[1]=='1' && sol_valve[2]=='1' && sol_valve[3]=='0' && at_dir=='1' && at_move=='0')
    8406:	2a31      	cmp	r2, #49	; 0x31
    8408:	d100      	bne.n	840c <main+0x8d0>
    840a:	e132      	b.n	8672 <main+0xb36>
					else if(sol_valve[0]=='1' && sol_valve[1]=='1' && sol_valve[2]=='0' && at_dir=='1' && at_move=='0')
    840c:	464b      	mov	r3, r9
    840e:	2b31      	cmp	r3, #49	; 0x31
    8410:	d000      	beq.n	8414 <main+0x8d8>
    8412:	e494      	b.n	7d3e <main+0x202>
    8414:	e136      	b.n	8684 <main+0xb48>
					else if(sol_valve[1]=='1' && sol_valve[2]=='1' && sol_valve[3]=='0' && at_dir=='1' && at_move=='0')
    8416:	0019      	movs	r1, r3
    8418:	e12b      	b.n	8672 <main+0xb36>
    841a:	4b6b      	ldr	r3, [pc, #428]	; (85c8 <main+0xa8c>)
    841c:	781b      	ldrb	r3, [r3, #0]
    841e:	2b31      	cmp	r3, #49	; 0x31
    8420:	d000      	beq.n	8424 <main+0x8e8>
    8422:	e129      	b.n	8678 <main+0xb3c>
    8424:	4b69      	ldr	r3, [pc, #420]	; (85cc <main+0xa90>)
    8426:	781b      	ldrb	r3, [r3, #0]
    8428:	2b30      	cmp	r3, #48	; 0x30
    842a:	d000      	beq.n	842e <main+0x8f2>
    842c:	e124      	b.n	8678 <main+0xb3c>
						sol_valve_cont('A');
    842e:	2041      	movs	r0, #65	; 0x41
    8430:	4b67      	ldr	r3, [pc, #412]	; (85d0 <main+0xa94>)
    8432:	4798      	blx	r3
    8434:	e483      	b.n	7d3e <main+0x202>
				if(sol_valve[0]=='0' && sol_valve[1]=='0' && cylin_choi=='1' && cam_on=='1')
    8436:	7852      	ldrb	r2, [r2, #1]
    8438:	2a30      	cmp	r2, #48	; 0x30
    843a:	d000      	beq.n	843e <main+0x902>
    843c:	e671      	b.n	8122 <main+0x5e6>
    843e:	4a65      	ldr	r2, [pc, #404]	; (85d4 <main+0xa98>)
    8440:	7812      	ldrb	r2, [r2, #0]
    8442:	2a31      	cmp	r2, #49	; 0x31
    8444:	d103      	bne.n	844e <main+0x912>
    8446:	4a64      	ldr	r2, [pc, #400]	; (85d8 <main+0xa9c>)
    8448:	7812      	ldrb	r2, [r2, #0]
    844a:	2a31      	cmp	r2, #49	; 0x31
    844c:	d002      	beq.n	8454 <main+0x918>
				else if(sol_valve[1]=='1' && sol_valve[2]=='0' && sol_valve[3]=='0' && cylin_choi=='3' && cam_on=='1')
    844e:	4a5d      	ldr	r2, [pc, #372]	; (85c4 <main+0xa88>)
    8450:	7850      	ldrb	r0, [r2, #1]
    8452:	e66b      	b.n	812c <main+0x5f0>
					sol_valve_cont('1');
    8454:	2031      	movs	r0, #49	; 0x31
    8456:	4b5e      	ldr	r3, [pc, #376]	; (85d0 <main+0xa94>)
    8458:	4798      	blx	r3
    845a:	e685      	b.n	8168 <main+0x62c>
				else if(sol_valve[0]=='1' && sol_valve[1]=='0' && sol_valve[2]=='0' && cylin_choi=='2' && cam_on=='1')
    845c:	4a59      	ldr	r2, [pc, #356]	; (85c4 <main+0xa88>)
    845e:	7852      	ldrb	r2, [r2, #1]
    8460:	2a30      	cmp	r2, #48	; 0x30
    8462:	d000      	beq.n	8466 <main+0x92a>
    8464:	e65d      	b.n	8122 <main+0x5e6>
    8466:	4857      	ldr	r0, [pc, #348]	; (85c4 <main+0xa88>)
    8468:	7880      	ldrb	r0, [r0, #2]
    846a:	2830      	cmp	r0, #48	; 0x30
    846c:	d122      	bne.n	84b4 <main+0x978>
    846e:	4a59      	ldr	r2, [pc, #356]	; (85d4 <main+0xa98>)
    8470:	7812      	ldrb	r2, [r2, #0]
    8472:	2a32      	cmp	r2, #50	; 0x32
    8474:	d000      	beq.n	8478 <main+0x93c>
    8476:	e659      	b.n	812c <main+0x5f0>
    8478:	4a57      	ldr	r2, [pc, #348]	; (85d8 <main+0xa9c>)
    847a:	7812      	ldrb	r2, [r2, #0]
    847c:	2a31      	cmp	r2, #49	; 0x31
    847e:	d000      	beq.n	8482 <main+0x946>
    8480:	e654      	b.n	812c <main+0x5f0>
					sol_valve_cont('2');
    8482:	3002      	adds	r0, #2
    8484:	4b52      	ldr	r3, [pc, #328]	; (85d0 <main+0xa94>)
    8486:	4798      	blx	r3
    8488:	e66e      	b.n	8168 <main+0x62c>
				else if(sol_valve[1]=='1' && sol_valve[2]=='0' && sol_valve[3]=='0' && cylin_choi=='3' && cam_on=='1')
    848a:	7897      	ldrb	r7, [r2, #2]
    848c:	2f30      	cmp	r7, #48	; 0x30
    848e:	d000      	beq.n	8492 <main+0x956>
    8490:	e64c      	b.n	812c <main+0x5f0>
    8492:	78d2      	ldrb	r2, [r2, #3]
    8494:	2a30      	cmp	r2, #48	; 0x30
    8496:	d128      	bne.n	84ea <main+0x9ae>
    8498:	4f4e      	ldr	r7, [pc, #312]	; (85d4 <main+0xa98>)
    849a:	783f      	ldrb	r7, [r7, #0]
    849c:	2f33      	cmp	r7, #51	; 0x33
    849e:	d000      	beq.n	84a2 <main+0x966>
    84a0:	e649      	b.n	8136 <main+0x5fa>
    84a2:	4f4d      	ldr	r7, [pc, #308]	; (85d8 <main+0xa9c>)
    84a4:	783f      	ldrb	r7, [r7, #0]
    84a6:	2f31      	cmp	r7, #49	; 0x31
    84a8:	d000      	beq.n	84ac <main+0x970>
    84aa:	e644      	b.n	8136 <main+0x5fa>
					sol_valve_cont('3');
    84ac:	3002      	adds	r0, #2
    84ae:	4b48      	ldr	r3, [pc, #288]	; (85d0 <main+0xa94>)
    84b0:	4798      	blx	r3
    84b2:	e659      	b.n	8168 <main+0x62c>
				else if(sol_valve[1]=='1' && sol_valve[2]=='0' && sol_valve[3]=='0' && cylin_choi=='3' && cam_on=='1')
    84b4:	0010      	movs	r0, r2
    84b6:	e639      	b.n	812c <main+0x5f0>
				else if(sol_valve[2]=='1' && sol_valve[3]=='0' && sol_valve[4]=='0' && cylin_choi=='4' && cam_on=='1')
    84b8:	4f42      	ldr	r7, [pc, #264]	; (85c4 <main+0xa88>)
    84ba:	78ff      	ldrb	r7, [r7, #3]
    84bc:	46bc      	mov	ip, r7
    84be:	2f30      	cmp	r7, #48	; 0x30
    84c0:	d000      	beq.n	84c4 <main+0x988>
    84c2:	e638      	b.n	8136 <main+0x5fa>
    84c4:	4f3f      	ldr	r7, [pc, #252]	; (85c4 <main+0xa88>)
    84c6:	793f      	ldrb	r7, [r7, #4]
    84c8:	46b9      	mov	r9, r7
    84ca:	2f30      	cmp	r7, #48	; 0x30
    84cc:	d150      	bne.n	8570 <main+0xa34>
    84ce:	4f41      	ldr	r7, [pc, #260]	; (85d4 <main+0xa98>)
    84d0:	783f      	ldrb	r7, [r7, #0]
    84d2:	2f34      	cmp	r7, #52	; 0x34
    84d4:	d000      	beq.n	84d8 <main+0x99c>
    84d6:	e634      	b.n	8142 <main+0x606>
    84d8:	4f3f      	ldr	r7, [pc, #252]	; (85d8 <main+0xa9c>)
    84da:	783f      	ldrb	r7, [r7, #0]
    84dc:	2f31      	cmp	r7, #49	; 0x31
    84de:	d000      	beq.n	84e2 <main+0x9a6>
    84e0:	e62f      	b.n	8142 <main+0x606>
					sol_valve_cont('4');
    84e2:	2034      	movs	r0, #52	; 0x34
    84e4:	4b3a      	ldr	r3, [pc, #232]	; (85d0 <main+0xa94>)
    84e6:	4798      	blx	r3
    84e8:	e63e      	b.n	8168 <main+0x62c>
				else if(sol_valve[2]=='1' && sol_valve[3]=='0' && sol_valve[4]=='0' && cylin_choi=='4' && cam_on=='1')
    84ea:	003a      	movs	r2, r7
    84ec:	e623      	b.n	8136 <main+0x5fa>
				else if(sol_valve[3]=='1' && sol_valve[4]=='0' && sol_valve[5]=='0' && cylin_choi=='5' && cam_on=='1')
    84ee:	4f35      	ldr	r7, [pc, #212]	; (85c4 <main+0xa88>)
    84f0:	793f      	ldrb	r7, [r7, #4]
    84f2:	46bc      	mov	ip, r7
    84f4:	2f30      	cmp	r7, #48	; 0x30
    84f6:	d027      	beq.n	8548 <main+0xa0c>
				else if(sol_valve[4]=='1' && sol_valve[5]=='0' && cylin_choi=='6' && cam_on=='1')
    84f8:	4f32      	ldr	r7, [pc, #200]	; (85c4 <main+0xa88>)
    84fa:	793f      	ldrb	r7, [r7, #4]
    84fc:	46bc      	mov	ip, r7
    84fe:	2f31      	cmp	r7, #49	; 0x31
    8500:	d038      	beq.n	8574 <main+0xa38>
				else if(sol_valve[2]=='1' && sol_valve[3]=='1' && sol_valve[4]=='0' && cylin_choi=='4' && cam_off=='1')
    8502:	2a31      	cmp	r2, #49	; 0x31
    8504:	d04f      	beq.n	85a6 <main+0xa6a>
				else if(sol_valve[1]=='1' && sol_valve[2]=='1' && sol_valve[3]=='0' && cylin_choi=='3' && cam_off=='1')
    8506:	2831      	cmp	r0, #49	; 0x31
    8508:	d100      	bne.n	850c <main+0x9d0>
    850a:	e08b      	b.n	8624 <main+0xae8>
    850c:	0013      	movs	r3, r2
				else if(sol_valve[0]=='1' && sol_valve[1]=='1' && sol_valve[2]=='0' && cylin_choi=='2' && cam_off=='1')
    850e:	2931      	cmp	r1, #49	; 0x31
    8510:	d000      	beq.n	8514 <main+0x9d8>
    8512:	e629      	b.n	8168 <main+0x62c>
    8514:	2831      	cmp	r0, #49	; 0x31
    8516:	d100      	bne.n	851a <main+0x9de>
    8518:	e088      	b.n	862c <main+0xaf0>
				else if(sol_valve[0]=='1' && sol_valve[1]=='0' && cylin_choi=='1' && cam_off=='1')
    851a:	2830      	cmp	r0, #48	; 0x30
    851c:	d000      	beq.n	8520 <main+0x9e4>
    851e:	e623      	b.n	8168 <main+0x62c>
    8520:	4b2c      	ldr	r3, [pc, #176]	; (85d4 <main+0xa98>)
    8522:	781b      	ldrb	r3, [r3, #0]
    8524:	2b31      	cmp	r3, #49	; 0x31
    8526:	d000      	beq.n	852a <main+0x9ee>
    8528:	e61e      	b.n	8168 <main+0x62c>
    852a:	4b2c      	ldr	r3, [pc, #176]	; (85dc <main+0xaa0>)
    852c:	781b      	ldrb	r3, [r3, #0]
    852e:	2b31      	cmp	r3, #49	; 0x31
    8530:	d100      	bne.n	8534 <main+0x9f8>
    8532:	e097      	b.n	8664 <main+0xb28>
				if(cam_on=='1'){cam_on='2';}
    8534:	4b28      	ldr	r3, [pc, #160]	; (85d8 <main+0xa9c>)
    8536:	781b      	ldrb	r3, [r3, #0]
    8538:	2b31      	cmp	r3, #49	; 0x31
    853a:	d001      	beq.n	8540 <main+0xa04>
    853c:	f7ff fbff 	bl	7d3e <main+0x202>
    8540:	2232      	movs	r2, #50	; 0x32
    8542:	4b25      	ldr	r3, [pc, #148]	; (85d8 <main+0xa9c>)
    8544:	701a      	strb	r2, [r3, #0]
    8546:	e614      	b.n	8172 <main+0x636>
				else if(sol_valve[3]=='1' && sol_valve[4]=='0' && sol_valve[5]=='0' && cylin_choi=='5' && cam_on=='1')
    8548:	4f1e      	ldr	r7, [pc, #120]	; (85c4 <main+0xa88>)
    854a:	797f      	ldrb	r7, [r7, #5]
    854c:	2f30      	cmp	r7, #48	; 0x30
    854e:	d103      	bne.n	8558 <main+0xa1c>
    8550:	4f20      	ldr	r7, [pc, #128]	; (85d4 <main+0xa98>)
    8552:	783f      	ldrb	r7, [r7, #0]
    8554:	2f35      	cmp	r7, #53	; 0x35
    8556:	d003      	beq.n	8560 <main+0xa24>
				else if(sol_valve[2]=='1' && sol_valve[3]=='1' && sol_valve[4]=='0' && cylin_choi=='4' && cam_off=='1')
    8558:	2a31      	cmp	r2, #49	; 0x31
    855a:	d000      	beq.n	855e <main+0xa22>
    855c:	e5fe      	b.n	815c <main+0x620>
    855e:	e022      	b.n	85a6 <main+0xa6a>
				else if(sol_valve[3]=='1' && sol_valve[4]=='0' && sol_valve[5]=='0' && cylin_choi=='5' && cam_on=='1')
    8560:	4f1d      	ldr	r7, [pc, #116]	; (85d8 <main+0xa9c>)
    8562:	783f      	ldrb	r7, [r7, #0]
    8564:	2f31      	cmp	r7, #49	; 0x31
    8566:	d1f7      	bne.n	8558 <main+0xa1c>
					sol_valve_cont('5');
    8568:	2035      	movs	r0, #53	; 0x35
    856a:	4b19      	ldr	r3, [pc, #100]	; (85d0 <main+0xa94>)
    856c:	4798      	blx	r3
    856e:	e5fb      	b.n	8168 <main+0x62c>
				else if(sol_valve[3]=='1' && sol_valve[4]=='0' && sol_valve[5]=='0' && cylin_choi=='5' && cam_on=='1')
    8570:	46e1      	mov	r9, ip
    8572:	e5e6      	b.n	8142 <main+0x606>
    8574:	46e1      	mov	r9, ip
				else if(sol_valve[4]=='1' && sol_valve[5]=='0' && cylin_choi=='6' && cam_on=='1')
    8576:	4f13      	ldr	r7, [pc, #76]	; (85c4 <main+0xa88>)
    8578:	797f      	ldrb	r7, [r7, #5]
    857a:	2f30      	cmp	r7, #48	; 0x30
    857c:	d030      	beq.n	85e0 <main+0xaa4>
				else if(sol_valve[4]=='1' && sol_valve[5]=='1' && cylin_choi=='6' && cam_off=='1')
    857e:	2f31      	cmp	r7, #49	; 0x31
    8580:	d03a      	beq.n	85f8 <main+0xabc>
				else if(sol_valve[3]=='1' && sol_valve[4]=='1' && sol_valve[5]=='0' && cylin_choi=='5' && cam_off=='1')
    8582:	464f      	mov	r7, r9
    8584:	2f31      	cmp	r7, #49	; 0x31
    8586:	d000      	beq.n	858a <main+0xa4e>
    8588:	e5e5      	b.n	8156 <main+0x61a>
    858a:	4f0e      	ldr	r7, [pc, #56]	; (85c4 <main+0xa88>)
    858c:	797f      	ldrb	r7, [r7, #5]
    858e:	2f30      	cmp	r7, #48	; 0x30
    8590:	d103      	bne.n	859a <main+0xa5e>
    8592:	4f10      	ldr	r7, [pc, #64]	; (85d4 <main+0xa98>)
    8594:	783f      	ldrb	r7, [r7, #0]
    8596:	2f35      	cmp	r7, #53	; 0x35
    8598:	d03a      	beq.n	8610 <main+0xad4>
				else if(sol_valve[2]=='1' && sol_valve[3]=='1' && sol_valve[4]=='0' && cylin_choi=='4' && cam_off=='1')
    859a:	2a31      	cmp	r2, #49	; 0x31
    859c:	d1b3      	bne.n	8506 <main+0x9ca>
    859e:	464a      	mov	r2, r9
    85a0:	2a31      	cmp	r2, #49	; 0x31
    85a2:	d000      	beq.n	85a6 <main+0xa6a>
    85a4:	e083      	b.n	86ae <main+0xb72>
    85a6:	4662      	mov	r2, ip
    85a8:	2a30      	cmp	r2, #48	; 0x30
    85aa:	d1b0      	bne.n	850e <main+0x9d2>
    85ac:	4a09      	ldr	r2, [pc, #36]	; (85d4 <main+0xa98>)
    85ae:	7812      	ldrb	r2, [r2, #0]
    85b0:	2a34      	cmp	r2, #52	; 0x34
    85b2:	d1ac      	bne.n	850e <main+0x9d2>
    85b4:	4a09      	ldr	r2, [pc, #36]	; (85dc <main+0xaa0>)
    85b6:	7812      	ldrb	r2, [r2, #0]
    85b8:	2a31      	cmp	r2, #49	; 0x31
    85ba:	d1a8      	bne.n	850e <main+0x9d2>
					sol_valve_cont('9');
    85bc:	2039      	movs	r0, #57	; 0x39
    85be:	4b04      	ldr	r3, [pc, #16]	; (85d0 <main+0xa94>)
    85c0:	4798      	blx	r3
    85c2:	e5d1      	b.n	8168 <main+0x62c>
    85c4:	200009a4 	.word	0x200009a4
    85c8:	2000001e 	.word	0x2000001e
    85cc:	2000001f 	.word	0x2000001f
    85d0:	00007959 	.word	0x00007959
    85d4:	20000025 	.word	0x20000025
    85d8:	20000024 	.word	0x20000024
    85dc:	20000023 	.word	0x20000023
				else if(sol_valve[4]=='1' && sol_valve[5]=='0' && cylin_choi=='6' && cam_on=='1')
    85e0:	4f44      	ldr	r7, [pc, #272]	; (86f4 <main+0xbb8>)
    85e2:	783f      	ldrb	r7, [r7, #0]
    85e4:	2f36      	cmp	r7, #54	; 0x36
    85e6:	d1cc      	bne.n	8582 <main+0xa46>
    85e8:	4f43      	ldr	r7, [pc, #268]	; (86f8 <main+0xbbc>)
    85ea:	783f      	ldrb	r7, [r7, #0]
    85ec:	2f31      	cmp	r7, #49	; 0x31
    85ee:	d1c8      	bne.n	8582 <main+0xa46>
					sol_valve_cont('6');
    85f0:	2036      	movs	r0, #54	; 0x36
    85f2:	4b42      	ldr	r3, [pc, #264]	; (86fc <main+0xbc0>)
    85f4:	4798      	blx	r3
    85f6:	e5b7      	b.n	8168 <main+0x62c>
				else if(sol_valve[4]=='1' && sol_valve[5]=='1' && cylin_choi=='6' && cam_off=='1')
    85f8:	4f3e      	ldr	r7, [pc, #248]	; (86f4 <main+0xbb8>)
    85fa:	783f      	ldrb	r7, [r7, #0]
    85fc:	2f36      	cmp	r7, #54	; 0x36
    85fe:	d1c0      	bne.n	8582 <main+0xa46>
    8600:	4f3f      	ldr	r7, [pc, #252]	; (8700 <main+0xbc4>)
    8602:	783f      	ldrb	r7, [r7, #0]
    8604:	2f31      	cmp	r7, #49	; 0x31
    8606:	d1bc      	bne.n	8582 <main+0xa46>
					sol_valve_cont('7');
    8608:	2037      	movs	r0, #55	; 0x37
    860a:	4b3c      	ldr	r3, [pc, #240]	; (86fc <main+0xbc0>)
    860c:	4798      	blx	r3
    860e:	e5ab      	b.n	8168 <main+0x62c>
				else if(sol_valve[3]=='1' && sol_valve[4]=='1' && sol_valve[5]=='0' && cylin_choi=='5' && cam_off=='1')
    8610:	4f3b      	ldr	r7, [pc, #236]	; (8700 <main+0xbc4>)
    8612:	783f      	ldrb	r7, [r7, #0]
    8614:	2f31      	cmp	r7, #49	; 0x31
    8616:	d1c0      	bne.n	859a <main+0xa5e>
					sol_valve_cont('8');
    8618:	2038      	movs	r0, #56	; 0x38
    861a:	4b38      	ldr	r3, [pc, #224]	; (86fc <main+0xbc0>)
    861c:	4798      	blx	r3
    861e:	e5a3      	b.n	8168 <main+0x62c>
				else if(sol_valve[1]=='1' && sol_valve[2]=='1' && sol_valve[3]=='0' && cylin_choi=='3' && cam_off=='1')
    8620:	2a31      	cmp	r2, #49	; 0x31
    8622:	d047      	beq.n	86b4 <main+0xb78>
				else if(sol_valve[0]=='1' && sol_valve[1]=='1' && sol_valve[2]=='0' && cylin_choi=='2' && cam_off=='1')
    8624:	2931      	cmp	r1, #49	; 0x31
    8626:	d000      	beq.n	862a <main+0xaee>
    8628:	e59e      	b.n	8168 <main+0x62c>
    862a:	0013      	movs	r3, r2
    862c:	2b30      	cmp	r3, #48	; 0x30
    862e:	d000      	beq.n	8632 <main+0xaf6>
    8630:	e59a      	b.n	8168 <main+0x62c>
    8632:	4b30      	ldr	r3, [pc, #192]	; (86f4 <main+0xbb8>)
    8634:	781b      	ldrb	r3, [r3, #0]
    8636:	2b32      	cmp	r3, #50	; 0x32
    8638:	d000      	beq.n	863c <main+0xb00>
    863a:	e595      	b.n	8168 <main+0x62c>
    863c:	4b30      	ldr	r3, [pc, #192]	; (8700 <main+0xbc4>)
    863e:	781b      	ldrb	r3, [r3, #0]
    8640:	2b31      	cmp	r3, #49	; 0x31
    8642:	d14f      	bne.n	86e4 <main+0xba8>
					sol_valve_cont('B');
    8644:	2042      	movs	r0, #66	; 0x42
    8646:	4b2d      	ldr	r3, [pc, #180]	; (86fc <main+0xbc0>)
    8648:	4798      	blx	r3
    864a:	e58d      	b.n	8168 <main+0x62c>
				else if(sol_valve[1]=='1' && sol_valve[2]=='1' && sol_valve[3]=='0' && cylin_choi=='3' && cam_off=='1')
    864c:	4b29      	ldr	r3, [pc, #164]	; (86f4 <main+0xbb8>)
    864e:	781b      	ldrb	r3, [r3, #0]
    8650:	2b33      	cmp	r3, #51	; 0x33
    8652:	d132      	bne.n	86ba <main+0xb7e>
    8654:	4b2a      	ldr	r3, [pc, #168]	; (8700 <main+0xbc4>)
    8656:	781b      	ldrb	r3, [r3, #0]
    8658:	2b31      	cmp	r3, #49	; 0x31
    865a:	d12e      	bne.n	86ba <main+0xb7e>
					sol_valve_cont('A');
    865c:	2041      	movs	r0, #65	; 0x41
    865e:	4b27      	ldr	r3, [pc, #156]	; (86fc <main+0xbc0>)
    8660:	4798      	blx	r3
    8662:	e581      	b.n	8168 <main+0x62c>
					sol_valve_cont('C');
    8664:	3013      	adds	r0, #19
    8666:	4b25      	ldr	r3, [pc, #148]	; (86fc <main+0xbc0>)
    8668:	4798      	blx	r3
    866a:	e57d      	b.n	8168 <main+0x62c>
					else if(sol_valve[1]=='1' && sol_valve[2]=='1' && sol_valve[3]=='0' && at_dir=='1' && at_move=='0')
    866c:	2b31      	cmp	r3, #49	; 0x31
    866e:	d000      	beq.n	8672 <main+0xb36>
    8670:	e5b9      	b.n	81e6 <main+0x6aa>
    8672:	2930      	cmp	r1, #48	; 0x30
    8674:	d100      	bne.n	8678 <main+0xb3c>
    8676:	e6d0      	b.n	841a <main+0x8de>
					else if(sol_valve[0]=='1' && sol_valve[1]=='1' && sol_valve[2]=='0' && at_dir=='1' && at_move=='0')
    8678:	464b      	mov	r3, r9
    867a:	2b31      	cmp	r3, #49	; 0x31
    867c:	d001      	beq.n	8682 <main+0xb46>
    867e:	f7ff fb5e 	bl	7d3e <main+0x202>
    8682:	4648      	mov	r0, r9
    8684:	2830      	cmp	r0, #48	; 0x30
    8686:	d001      	beq.n	868c <main+0xb50>
    8688:	f7ff fb59 	bl	7d3e <main+0x202>
    868c:	4b1d      	ldr	r3, [pc, #116]	; (8704 <main+0xbc8>)
    868e:	781b      	ldrb	r3, [r3, #0]
    8690:	2b31      	cmp	r3, #49	; 0x31
    8692:	d001      	beq.n	8698 <main+0xb5c>
    8694:	f7ff fb53 	bl	7d3e <main+0x202>
    8698:	4b1b      	ldr	r3, [pc, #108]	; (8708 <main+0xbcc>)
    869a:	781b      	ldrb	r3, [r3, #0]
    869c:	2b30      	cmp	r3, #48	; 0x30
    869e:	d001      	beq.n	86a4 <main+0xb68>
    86a0:	f7ff fb4d 	bl	7d3e <main+0x202>
						sol_valve_cont('B');
    86a4:	3012      	adds	r0, #18
    86a6:	4b15      	ldr	r3, [pc, #84]	; (86fc <main+0xbc0>)
    86a8:	4798      	blx	r3
    86aa:	f7ff fb48 	bl	7d3e <main+0x202>
				else if(sol_valve[1]=='1' && sol_valve[2]=='1' && sol_valve[3]=='0' && cylin_choi=='3' && cam_off=='1')
    86ae:	2831      	cmp	r0, #49	; 0x31
    86b0:	d000      	beq.n	86b4 <main+0xb78>
    86b2:	e556      	b.n	8162 <main+0x626>
    86b4:	464b      	mov	r3, r9
    86b6:	2b30      	cmp	r3, #48	; 0x30
    86b8:	d0c8      	beq.n	864c <main+0xb10>
				else if(sol_valve[0]=='1' && sol_valve[1]=='1' && sol_valve[2]=='0' && cylin_choi=='2' && cam_off=='1')
    86ba:	2931      	cmp	r1, #49	; 0x31
    86bc:	d000      	beq.n	86c0 <main+0xb84>
    86be:	e553      	b.n	8168 <main+0x62c>
    86c0:	000b      	movs	r3, r1
    86c2:	e7b3      	b.n	862c <main+0xaf0>
					else if(sol_valve[4]=='1' && sol_valve[5]=='0' && at_dir=='0' && at_move=='0')
    86c4:	4911      	ldr	r1, [pc, #68]	; (870c <main+0xbd0>)
    86c6:	7909      	ldrb	r1, [r1, #4]
    86c8:	468c      	mov	ip, r1
    86ca:	2931      	cmp	r1, #49	; 0x31
    86cc:	d100      	bne.n	86d0 <main+0xb94>
    86ce:	e638      	b.n	8342 <main+0x806>
					else if(sol_valve[2]=='1' && sol_valve[3]=='1' && sol_valve[4]=='0' && at_dir=='1' && at_move=='0')
    86d0:	2a31      	cmp	r2, #49	; 0x31
    86d2:	d100      	bne.n	86d6 <main+0xb9a>
    86d4:	e64b      	b.n	836e <main+0x832>
    86d6:	0010      	movs	r0, r2
					else if(sol_valve[1]=='1' && sol_valve[2]=='1' && sol_valve[3]=='0' && at_dir=='1' && at_move=='0')
    86d8:	2b31      	cmp	r3, #49	; 0x31
    86da:	d000      	beq.n	86de <main+0xba2>
    86dc:	e64c      	b.n	8378 <main+0x83c>
    86de:	e695      	b.n	840c <main+0x8d0>
    86e0:	0010      	movs	r0, r2
    86e2:	e7f9      	b.n	86d8 <main+0xb9c>
				if(cam_on=='1'){cam_on='2';}
    86e4:	4b04      	ldr	r3, [pc, #16]	; (86f8 <main+0xbbc>)
    86e6:	781b      	ldrb	r3, [r3, #0]
    86e8:	2b31      	cmp	r3, #49	; 0x31
    86ea:	d001      	beq.n	86f0 <main+0xbb4>
    86ec:	f7ff fb27 	bl	7d3e <main+0x202>
    86f0:	e726      	b.n	8540 <main+0xa04>
    86f2:	46c0      	nop			; (mov r8, r8)
    86f4:	20000025 	.word	0x20000025
    86f8:	20000024 	.word	0x20000024
    86fc:	00007959 	.word	0x00007959
    8700:	20000023 	.word	0x20000023
    8704:	2000001e 	.word	0x2000001e
    8708:	2000001f 	.word	0x2000001f
    870c:	200009a4 	.word	0x200009a4

00008710 <tal_tx_frame_done_cb>:
 * \brief This method (callback) is called when a frame has been transmitted by the transceiver
 * \param status  Status of frame transmission i.e MAC_SUCCESS,MAC_NO_ACK,CHANNEL_ACCESS_FAILURE etc
 * \param frame pointer to the transmitted frame
 */
void tal_tx_frame_done_cb(retval_t status, frame_info_t *frame)
{
    8710:	b510      	push	{r4, lr}
	/*Perform application tasks when a frame is transmitted here*/
	usr_frame_transmitted_cb(status, frame);
    8712:	4b01      	ldr	r3, [pc, #4]	; (8718 <tal_tx_frame_done_cb+0x8>)
    8714:	4798      	blx	r3
}
    8716:	bd10      	pop	{r4, pc}
    8718:	00003f1d 	.word	0x00003f1d

0000871c <tal_rx_frame_cb>:
/*
 * \brief This method (callback) is called when a frame is received by the transceiver
 * \param frame pointer to the received frame
 */
void tal_rx_frame_cb(frame_info_t *frame)
{
    871c:	b510      	push	{r4, lr}
    871e:	0004      	movs	r4, r0
	/*Perform application tasks when a frame is received here*/
	usr_frame_received_cb(frame);
    8720:	4b07      	ldr	r3, [pc, #28]	; (8740 <tal_rx_frame_cb+0x24>)
    8722:	4798      	blx	r3
	// Free-up the buffer which was used for reception once the frame is extracted.
	bmm_buffer_free(frame->buffer_header);
    8724:	7860      	ldrb	r0, [r4, #1]
    8726:	78a3      	ldrb	r3, [r4, #2]
    8728:	021b      	lsls	r3, r3, #8
    872a:	4303      	orrs	r3, r0
    872c:	78e0      	ldrb	r0, [r4, #3]
    872e:	0400      	lsls	r0, r0, #16
    8730:	4303      	orrs	r3, r0
    8732:	7920      	ldrb	r0, [r4, #4]
    8734:	0600      	lsls	r0, r0, #24
    8736:	4318      	orrs	r0, r3
    8738:	4b02      	ldr	r3, [pc, #8]	; (8744 <tal_rx_frame_cb+0x28>)
    873a:	4798      	blx	r3
    873c:	bd10      	pop	{r4, pc}
    873e:	46c0      	nop			; (mov r8, r8)
    8740:	00003ef5 	.word	0x00003ef5
    8744:	00005afd 	.word	0x00005afd

00008748 <common_tc_read_count>:
    8748:	b5f8      	push	{r3, r4, r5, r6, r7, lr}
    874a:	4b0d      	ldr	r3, [pc, #52]	; (8780 <common_tc_read_count+0x38>)
    874c:	4798      	blx	r3
    874e:	4b0d      	ldr	r3, [pc, #52]	; (8784 <common_tc_read_count+0x3c>)
    8750:	781b      	ldrb	r3, [r3, #0]
    8752:	2b00      	cmp	r3, #0
    8754:	d00e      	beq.n	8774 <common_tc_read_count+0x2c>
    8756:	4b0c      	ldr	r3, [pc, #48]	; (8788 <common_tc_read_count+0x40>)
    8758:	781d      	ldrb	r5, [r3, #0]
    875a:	4b0a      	ldr	r3, [pc, #40]	; (8784 <common_tc_read_count+0x3c>)
    875c:	781f      	ldrb	r7, [r3, #0]
    875e:	4c0b      	ldr	r4, [pc, #44]	; (878c <common_tc_read_count+0x44>)
    8760:	1c29      	adds	r1, r5, #0
    8762:	47a0      	blx	r4
    8764:	1c06      	adds	r6, r0, #0
    8766:	480a      	ldr	r0, [pc, #40]	; (8790 <common_tc_read_count+0x48>)
    8768:	1c29      	adds	r1, r5, #0
    876a:	47a0      	blx	r4
    876c:	4378      	muls	r0, r7
    876e:	1830      	adds	r0, r6, r0
    8770:	b280      	uxth	r0, r0
    8772:	e004      	b.n	877e <common_tc_read_count+0x36>
    8774:	4b04      	ldr	r3, [pc, #16]	; (8788 <common_tc_read_count+0x40>)
    8776:	7819      	ldrb	r1, [r3, #0]
    8778:	4b04      	ldr	r3, [pc, #16]	; (878c <common_tc_read_count+0x44>)
    877a:	4798      	blx	r3
    877c:	b280      	uxth	r0, r0
    877e:	bdf8      	pop	{r3, r4, r5, r6, r7, pc}
    8780:	00006b2d 	.word	0x00006b2d
    8784:	200009c0 	.word	0x200009c0
    8788:	20000d54 	.word	0x20000d54
    878c:	0000893d 	.word	0x0000893d
    8790:	0000ffff 	.word	0x0000ffff

00008794 <common_tc_compare_stop>:
    8794:	b508      	push	{r3, lr}
    8796:	4b05      	ldr	r3, [pc, #20]	; (87ac <common_tc_compare_stop+0x18>)
    8798:	4798      	blx	r3
    879a:	4b05      	ldr	r3, [pc, #20]	; (87b0 <common_tc_compare_stop+0x1c>)
    879c:	4798      	blx	r3
    879e:	4b05      	ldr	r3, [pc, #20]	; (87b4 <common_tc_compare_stop+0x20>)
    87a0:	2200      	movs	r2, #0
    87a2:	605a      	str	r2, [r3, #4]
    87a4:	811a      	strh	r2, [r3, #8]
    87a6:	4b04      	ldr	r3, [pc, #16]	; (87b8 <common_tc_compare_stop+0x24>)
    87a8:	4798      	blx	r3
    87aa:	bd08      	pop	{r3, pc}
    87ac:	00006b41 	.word	0x00006b41
    87b0:	00006ba9 	.word	0x00006ba9
    87b4:	200009c0 	.word	0x200009c0
    87b8:	00006bcd 	.word	0x00006bcd

000087bc <common_tc_delay>:
    87bc:	b510      	push	{r4, lr}
    87be:	1c04      	adds	r4, r0, #0
    87c0:	4b13      	ldr	r3, [pc, #76]	; (8810 <common_tc_delay+0x54>)
    87c2:	4798      	blx	r3
    87c4:	4b13      	ldr	r3, [pc, #76]	; (8814 <common_tc_delay+0x58>)
    87c6:	781a      	ldrb	r2, [r3, #0]
    87c8:	4362      	muls	r2, r4
    87ca:	1881      	adds	r1, r0, r2
    87cc:	4b12      	ldr	r3, [pc, #72]	; (8818 <common_tc_delay+0x5c>)
    87ce:	6059      	str	r1, [r3, #4]
    87d0:	6859      	ldr	r1, [r3, #4]
    87d2:	0c09      	lsrs	r1, r1, #16
    87d4:	6059      	str	r1, [r3, #4]
    87d6:	685b      	ldr	r3, [r3, #4]
    87d8:	2b00      	cmp	r3, #0
    87da:	d007      	beq.n	87ec <common_tc_delay+0x30>
    87dc:	4b0e      	ldr	r3, [pc, #56]	; (8818 <common_tc_delay+0x5c>)
    87de:	6859      	ldr	r1, [r3, #4]
    87e0:	3201      	adds	r2, #1
    87e2:	1880      	adds	r0, r0, r2
    87e4:	8118      	strh	r0, [r3, #8]
    87e6:	4b0d      	ldr	r3, [pc, #52]	; (881c <common_tc_delay+0x60>)
    87e8:	4798      	blx	r3
    87ea:	e004      	b.n	87f6 <common_tc_delay+0x3a>
    87ec:	1882      	adds	r2, r0, r2
    87ee:	4b0a      	ldr	r3, [pc, #40]	; (8818 <common_tc_delay+0x5c>)
    87f0:	811a      	strh	r2, [r3, #8]
    87f2:	4b0b      	ldr	r3, [pc, #44]	; (8820 <common_tc_delay+0x64>)
    87f4:	4798      	blx	r3
    87f6:	4b08      	ldr	r3, [pc, #32]	; (8818 <common_tc_delay+0x5c>)
    87f8:	891b      	ldrh	r3, [r3, #8]
    87fa:	2b63      	cmp	r3, #99	; 0x63
    87fc:	d802      	bhi.n	8804 <common_tc_delay+0x48>
    87fe:	3364      	adds	r3, #100	; 0x64
    8800:	4a05      	ldr	r2, [pc, #20]	; (8818 <common_tc_delay+0x5c>)
    8802:	8113      	strh	r3, [r2, #8]
    8804:	4b04      	ldr	r3, [pc, #16]	; (8818 <common_tc_delay+0x5c>)
    8806:	8918      	ldrh	r0, [r3, #8]
    8808:	4b06      	ldr	r3, [pc, #24]	; (8824 <common_tc_delay+0x68>)
    880a:	4798      	blx	r3
    880c:	bd10      	pop	{r4, pc}
    880e:	46c0      	nop			; (mov r8, r8)
    8810:	00006b2d 	.word	0x00006b2d
    8814:	20000d54 	.word	0x20000d54
    8818:	200009c0 	.word	0x200009c0
    881c:	00006b41 	.word	0x00006b41
    8820:	00006b55 	.word	0x00006b55
    8824:	00006b91 	.word	0x00006b91

00008828 <__udivsi3>:
    8828:	2200      	movs	r2, #0
    882a:	0843      	lsrs	r3, r0, #1
    882c:	428b      	cmp	r3, r1
    882e:	d374      	bcc.n	891a <__udivsi3+0xf2>
    8830:	0903      	lsrs	r3, r0, #4
    8832:	428b      	cmp	r3, r1
    8834:	d35f      	bcc.n	88f6 <__udivsi3+0xce>
    8836:	0a03      	lsrs	r3, r0, #8
    8838:	428b      	cmp	r3, r1
    883a:	d344      	bcc.n	88c6 <__udivsi3+0x9e>
    883c:	0b03      	lsrs	r3, r0, #12
    883e:	428b      	cmp	r3, r1
    8840:	d328      	bcc.n	8894 <__udivsi3+0x6c>
    8842:	0c03      	lsrs	r3, r0, #16
    8844:	428b      	cmp	r3, r1
    8846:	d30d      	bcc.n	8864 <__udivsi3+0x3c>
    8848:	22ff      	movs	r2, #255	; 0xff
    884a:	0209      	lsls	r1, r1, #8
    884c:	ba12      	rev	r2, r2
    884e:	0c03      	lsrs	r3, r0, #16
    8850:	428b      	cmp	r3, r1
    8852:	d302      	bcc.n	885a <__udivsi3+0x32>
    8854:	1212      	asrs	r2, r2, #8
    8856:	0209      	lsls	r1, r1, #8
    8858:	d065      	beq.n	8926 <__udivsi3+0xfe>
    885a:	0b03      	lsrs	r3, r0, #12
    885c:	428b      	cmp	r3, r1
    885e:	d319      	bcc.n	8894 <__udivsi3+0x6c>
    8860:	e000      	b.n	8864 <__udivsi3+0x3c>
    8862:	0a09      	lsrs	r1, r1, #8
    8864:	0bc3      	lsrs	r3, r0, #15
    8866:	428b      	cmp	r3, r1
    8868:	d301      	bcc.n	886e <__udivsi3+0x46>
    886a:	03cb      	lsls	r3, r1, #15
    886c:	1ac0      	subs	r0, r0, r3
    886e:	4152      	adcs	r2, r2
    8870:	0b83      	lsrs	r3, r0, #14
    8872:	428b      	cmp	r3, r1
    8874:	d301      	bcc.n	887a <__udivsi3+0x52>
    8876:	038b      	lsls	r3, r1, #14
    8878:	1ac0      	subs	r0, r0, r3
    887a:	4152      	adcs	r2, r2
    887c:	0b43      	lsrs	r3, r0, #13
    887e:	428b      	cmp	r3, r1
    8880:	d301      	bcc.n	8886 <__udivsi3+0x5e>
    8882:	034b      	lsls	r3, r1, #13
    8884:	1ac0      	subs	r0, r0, r3
    8886:	4152      	adcs	r2, r2
    8888:	0b03      	lsrs	r3, r0, #12
    888a:	428b      	cmp	r3, r1
    888c:	d301      	bcc.n	8892 <__udivsi3+0x6a>
    888e:	030b      	lsls	r3, r1, #12
    8890:	1ac0      	subs	r0, r0, r3
    8892:	4152      	adcs	r2, r2
    8894:	0ac3      	lsrs	r3, r0, #11
    8896:	428b      	cmp	r3, r1
    8898:	d301      	bcc.n	889e <__udivsi3+0x76>
    889a:	02cb      	lsls	r3, r1, #11
    889c:	1ac0      	subs	r0, r0, r3
    889e:	4152      	adcs	r2, r2
    88a0:	0a83      	lsrs	r3, r0, #10
    88a2:	428b      	cmp	r3, r1
    88a4:	d301      	bcc.n	88aa <__udivsi3+0x82>
    88a6:	028b      	lsls	r3, r1, #10
    88a8:	1ac0      	subs	r0, r0, r3
    88aa:	4152      	adcs	r2, r2
    88ac:	0a43      	lsrs	r3, r0, #9
    88ae:	428b      	cmp	r3, r1
    88b0:	d301      	bcc.n	88b6 <__udivsi3+0x8e>
    88b2:	024b      	lsls	r3, r1, #9
    88b4:	1ac0      	subs	r0, r0, r3
    88b6:	4152      	adcs	r2, r2
    88b8:	0a03      	lsrs	r3, r0, #8
    88ba:	428b      	cmp	r3, r1
    88bc:	d301      	bcc.n	88c2 <__udivsi3+0x9a>
    88be:	020b      	lsls	r3, r1, #8
    88c0:	1ac0      	subs	r0, r0, r3
    88c2:	4152      	adcs	r2, r2
    88c4:	d2cd      	bcs.n	8862 <__udivsi3+0x3a>
    88c6:	09c3      	lsrs	r3, r0, #7
    88c8:	428b      	cmp	r3, r1
    88ca:	d301      	bcc.n	88d0 <__udivsi3+0xa8>
    88cc:	01cb      	lsls	r3, r1, #7
    88ce:	1ac0      	subs	r0, r0, r3
    88d0:	4152      	adcs	r2, r2
    88d2:	0983      	lsrs	r3, r0, #6
    88d4:	428b      	cmp	r3, r1
    88d6:	d301      	bcc.n	88dc <__udivsi3+0xb4>
    88d8:	018b      	lsls	r3, r1, #6
    88da:	1ac0      	subs	r0, r0, r3
    88dc:	4152      	adcs	r2, r2
    88de:	0943      	lsrs	r3, r0, #5
    88e0:	428b      	cmp	r3, r1
    88e2:	d301      	bcc.n	88e8 <__udivsi3+0xc0>
    88e4:	014b      	lsls	r3, r1, #5
    88e6:	1ac0      	subs	r0, r0, r3
    88e8:	4152      	adcs	r2, r2
    88ea:	0903      	lsrs	r3, r0, #4
    88ec:	428b      	cmp	r3, r1
    88ee:	d301      	bcc.n	88f4 <__udivsi3+0xcc>
    88f0:	010b      	lsls	r3, r1, #4
    88f2:	1ac0      	subs	r0, r0, r3
    88f4:	4152      	adcs	r2, r2
    88f6:	08c3      	lsrs	r3, r0, #3
    88f8:	428b      	cmp	r3, r1
    88fa:	d301      	bcc.n	8900 <__udivsi3+0xd8>
    88fc:	00cb      	lsls	r3, r1, #3
    88fe:	1ac0      	subs	r0, r0, r3
    8900:	4152      	adcs	r2, r2
    8902:	0883      	lsrs	r3, r0, #2
    8904:	428b      	cmp	r3, r1
    8906:	d301      	bcc.n	890c <__udivsi3+0xe4>
    8908:	008b      	lsls	r3, r1, #2
    890a:	1ac0      	subs	r0, r0, r3
    890c:	4152      	adcs	r2, r2
    890e:	0843      	lsrs	r3, r0, #1
    8910:	428b      	cmp	r3, r1
    8912:	d301      	bcc.n	8918 <__udivsi3+0xf0>
    8914:	004b      	lsls	r3, r1, #1
    8916:	1ac0      	subs	r0, r0, r3
    8918:	4152      	adcs	r2, r2
    891a:	1a41      	subs	r1, r0, r1
    891c:	d200      	bcs.n	8920 <__udivsi3+0xf8>
    891e:	4601      	mov	r1, r0
    8920:	4152      	adcs	r2, r2
    8922:	4610      	mov	r0, r2
    8924:	4770      	bx	lr
    8926:	e7ff      	b.n	8928 <__udivsi3+0x100>
    8928:	b501      	push	{r0, lr}
    892a:	2000      	movs	r0, #0
    892c:	f000 f8f0 	bl	8b10 <__aeabi_idiv0>
    8930:	bd02      	pop	{r1, pc}
    8932:	46c0      	nop			; (mov r8, r8)

00008934 <__aeabi_uidivmod>:
    8934:	2900      	cmp	r1, #0
    8936:	d0f7      	beq.n	8928 <__udivsi3+0x100>
    8938:	e776      	b.n	8828 <__udivsi3>
    893a:	4770      	bx	lr

0000893c <__divsi3>:
    893c:	4603      	mov	r3, r0
    893e:	430b      	orrs	r3, r1
    8940:	d47f      	bmi.n	8a42 <__divsi3+0x106>
    8942:	2200      	movs	r2, #0
    8944:	0843      	lsrs	r3, r0, #1
    8946:	428b      	cmp	r3, r1
    8948:	d374      	bcc.n	8a34 <__divsi3+0xf8>
    894a:	0903      	lsrs	r3, r0, #4
    894c:	428b      	cmp	r3, r1
    894e:	d35f      	bcc.n	8a10 <__divsi3+0xd4>
    8950:	0a03      	lsrs	r3, r0, #8
    8952:	428b      	cmp	r3, r1
    8954:	d344      	bcc.n	89e0 <__divsi3+0xa4>
    8956:	0b03      	lsrs	r3, r0, #12
    8958:	428b      	cmp	r3, r1
    895a:	d328      	bcc.n	89ae <__divsi3+0x72>
    895c:	0c03      	lsrs	r3, r0, #16
    895e:	428b      	cmp	r3, r1
    8960:	d30d      	bcc.n	897e <__divsi3+0x42>
    8962:	22ff      	movs	r2, #255	; 0xff
    8964:	0209      	lsls	r1, r1, #8
    8966:	ba12      	rev	r2, r2
    8968:	0c03      	lsrs	r3, r0, #16
    896a:	428b      	cmp	r3, r1
    896c:	d302      	bcc.n	8974 <__divsi3+0x38>
    896e:	1212      	asrs	r2, r2, #8
    8970:	0209      	lsls	r1, r1, #8
    8972:	d065      	beq.n	8a40 <__divsi3+0x104>
    8974:	0b03      	lsrs	r3, r0, #12
    8976:	428b      	cmp	r3, r1
    8978:	d319      	bcc.n	89ae <__divsi3+0x72>
    897a:	e000      	b.n	897e <__divsi3+0x42>
    897c:	0a09      	lsrs	r1, r1, #8
    897e:	0bc3      	lsrs	r3, r0, #15
    8980:	428b      	cmp	r3, r1
    8982:	d301      	bcc.n	8988 <__divsi3+0x4c>
    8984:	03cb      	lsls	r3, r1, #15
    8986:	1ac0      	subs	r0, r0, r3
    8988:	4152      	adcs	r2, r2
    898a:	0b83      	lsrs	r3, r0, #14
    898c:	428b      	cmp	r3, r1
    898e:	d301      	bcc.n	8994 <__divsi3+0x58>
    8990:	038b      	lsls	r3, r1, #14
    8992:	1ac0      	subs	r0, r0, r3
    8994:	4152      	adcs	r2, r2
    8996:	0b43      	lsrs	r3, r0, #13
    8998:	428b      	cmp	r3, r1
    899a:	d301      	bcc.n	89a0 <__divsi3+0x64>
    899c:	034b      	lsls	r3, r1, #13
    899e:	1ac0      	subs	r0, r0, r3
    89a0:	4152      	adcs	r2, r2
    89a2:	0b03      	lsrs	r3, r0, #12
    89a4:	428b      	cmp	r3, r1
    89a6:	d301      	bcc.n	89ac <__divsi3+0x70>
    89a8:	030b      	lsls	r3, r1, #12
    89aa:	1ac0      	subs	r0, r0, r3
    89ac:	4152      	adcs	r2, r2
    89ae:	0ac3      	lsrs	r3, r0, #11
    89b0:	428b      	cmp	r3, r1
    89b2:	d301      	bcc.n	89b8 <__divsi3+0x7c>
    89b4:	02cb      	lsls	r3, r1, #11
    89b6:	1ac0      	subs	r0, r0, r3
    89b8:	4152      	adcs	r2, r2
    89ba:	0a83      	lsrs	r3, r0, #10
    89bc:	428b      	cmp	r3, r1
    89be:	d301      	bcc.n	89c4 <__divsi3+0x88>
    89c0:	028b      	lsls	r3, r1, #10
    89c2:	1ac0      	subs	r0, r0, r3
    89c4:	4152      	adcs	r2, r2
    89c6:	0a43      	lsrs	r3, r0, #9
    89c8:	428b      	cmp	r3, r1
    89ca:	d301      	bcc.n	89d0 <__divsi3+0x94>
    89cc:	024b      	lsls	r3, r1, #9
    89ce:	1ac0      	subs	r0, r0, r3
    89d0:	4152      	adcs	r2, r2
    89d2:	0a03      	lsrs	r3, r0, #8
    89d4:	428b      	cmp	r3, r1
    89d6:	d301      	bcc.n	89dc <__divsi3+0xa0>
    89d8:	020b      	lsls	r3, r1, #8
    89da:	1ac0      	subs	r0, r0, r3
    89dc:	4152      	adcs	r2, r2
    89de:	d2cd      	bcs.n	897c <__divsi3+0x40>
    89e0:	09c3      	lsrs	r3, r0, #7
    89e2:	428b      	cmp	r3, r1
    89e4:	d301      	bcc.n	89ea <__divsi3+0xae>
    89e6:	01cb      	lsls	r3, r1, #7
    89e8:	1ac0      	subs	r0, r0, r3
    89ea:	4152      	adcs	r2, r2
    89ec:	0983      	lsrs	r3, r0, #6
    89ee:	428b      	cmp	r3, r1
    89f0:	d301      	bcc.n	89f6 <__divsi3+0xba>
    89f2:	018b      	lsls	r3, r1, #6
    89f4:	1ac0      	subs	r0, r0, r3
    89f6:	4152      	adcs	r2, r2
    89f8:	0943      	lsrs	r3, r0, #5
    89fa:	428b      	cmp	r3, r1
    89fc:	d301      	bcc.n	8a02 <__divsi3+0xc6>
    89fe:	014b      	lsls	r3, r1, #5
    8a00:	1ac0      	subs	r0, r0, r3
    8a02:	4152      	adcs	r2, r2
    8a04:	0903      	lsrs	r3, r0, #4
    8a06:	428b      	cmp	r3, r1
    8a08:	d301      	bcc.n	8a0e <__divsi3+0xd2>
    8a0a:	010b      	lsls	r3, r1, #4
    8a0c:	1ac0      	subs	r0, r0, r3
    8a0e:	4152      	adcs	r2, r2
    8a10:	08c3      	lsrs	r3, r0, #3
    8a12:	428b      	cmp	r3, r1
    8a14:	d301      	bcc.n	8a1a <__divsi3+0xde>
    8a16:	00cb      	lsls	r3, r1, #3
    8a18:	1ac0      	subs	r0, r0, r3
    8a1a:	4152      	adcs	r2, r2
    8a1c:	0883      	lsrs	r3, r0, #2
    8a1e:	428b      	cmp	r3, r1
    8a20:	d301      	bcc.n	8a26 <__divsi3+0xea>
    8a22:	008b      	lsls	r3, r1, #2
    8a24:	1ac0      	subs	r0, r0, r3
    8a26:	4152      	adcs	r2, r2
    8a28:	0843      	lsrs	r3, r0, #1
    8a2a:	428b      	cmp	r3, r1
    8a2c:	d301      	bcc.n	8a32 <__divsi3+0xf6>
    8a2e:	004b      	lsls	r3, r1, #1
    8a30:	1ac0      	subs	r0, r0, r3
    8a32:	4152      	adcs	r2, r2
    8a34:	1a41      	subs	r1, r0, r1
    8a36:	d200      	bcs.n	8a3a <__divsi3+0xfe>
    8a38:	4601      	mov	r1, r0
    8a3a:	4152      	adcs	r2, r2
    8a3c:	4610      	mov	r0, r2
    8a3e:	4770      	bx	lr
    8a40:	e05d      	b.n	8afe <__divsi3+0x1c2>
    8a42:	0fca      	lsrs	r2, r1, #31
    8a44:	d000      	beq.n	8a48 <__divsi3+0x10c>
    8a46:	4249      	negs	r1, r1
    8a48:	1003      	asrs	r3, r0, #32
    8a4a:	d300      	bcc.n	8a4e <__divsi3+0x112>
    8a4c:	4240      	negs	r0, r0
    8a4e:	4053      	eors	r3, r2
    8a50:	2200      	movs	r2, #0
    8a52:	469c      	mov	ip, r3
    8a54:	0903      	lsrs	r3, r0, #4
    8a56:	428b      	cmp	r3, r1
    8a58:	d32d      	bcc.n	8ab6 <__divsi3+0x17a>
    8a5a:	0a03      	lsrs	r3, r0, #8
    8a5c:	428b      	cmp	r3, r1
    8a5e:	d312      	bcc.n	8a86 <__divsi3+0x14a>
    8a60:	22fc      	movs	r2, #252	; 0xfc
    8a62:	0189      	lsls	r1, r1, #6
    8a64:	ba12      	rev	r2, r2
    8a66:	0a03      	lsrs	r3, r0, #8
    8a68:	428b      	cmp	r3, r1
    8a6a:	d30c      	bcc.n	8a86 <__divsi3+0x14a>
    8a6c:	0189      	lsls	r1, r1, #6
    8a6e:	1192      	asrs	r2, r2, #6
    8a70:	428b      	cmp	r3, r1
    8a72:	d308      	bcc.n	8a86 <__divsi3+0x14a>
    8a74:	0189      	lsls	r1, r1, #6
    8a76:	1192      	asrs	r2, r2, #6
    8a78:	428b      	cmp	r3, r1
    8a7a:	d304      	bcc.n	8a86 <__divsi3+0x14a>
    8a7c:	0189      	lsls	r1, r1, #6
    8a7e:	d03a      	beq.n	8af6 <__divsi3+0x1ba>
    8a80:	1192      	asrs	r2, r2, #6
    8a82:	e000      	b.n	8a86 <__divsi3+0x14a>
    8a84:	0989      	lsrs	r1, r1, #6
    8a86:	09c3      	lsrs	r3, r0, #7
    8a88:	428b      	cmp	r3, r1
    8a8a:	d301      	bcc.n	8a90 <__divsi3+0x154>
    8a8c:	01cb      	lsls	r3, r1, #7
    8a8e:	1ac0      	subs	r0, r0, r3
    8a90:	4152      	adcs	r2, r2
    8a92:	0983      	lsrs	r3, r0, #6
    8a94:	428b      	cmp	r3, r1
    8a96:	d301      	bcc.n	8a9c <__divsi3+0x160>
    8a98:	018b      	lsls	r3, r1, #6
    8a9a:	1ac0      	subs	r0, r0, r3
    8a9c:	4152      	adcs	r2, r2
    8a9e:	0943      	lsrs	r3, r0, #5
    8aa0:	428b      	cmp	r3, r1
    8aa2:	d301      	bcc.n	8aa8 <__divsi3+0x16c>
    8aa4:	014b      	lsls	r3, r1, #5
    8aa6:	1ac0      	subs	r0, r0, r3
    8aa8:	4152      	adcs	r2, r2
    8aaa:	0903      	lsrs	r3, r0, #4
    8aac:	428b      	cmp	r3, r1
    8aae:	d301      	bcc.n	8ab4 <__divsi3+0x178>
    8ab0:	010b      	lsls	r3, r1, #4
    8ab2:	1ac0      	subs	r0, r0, r3
    8ab4:	4152      	adcs	r2, r2
    8ab6:	08c3      	lsrs	r3, r0, #3
    8ab8:	428b      	cmp	r3, r1
    8aba:	d301      	bcc.n	8ac0 <__divsi3+0x184>
    8abc:	00cb      	lsls	r3, r1, #3
    8abe:	1ac0      	subs	r0, r0, r3
    8ac0:	4152      	adcs	r2, r2
    8ac2:	0883      	lsrs	r3, r0, #2
    8ac4:	428b      	cmp	r3, r1
    8ac6:	d301      	bcc.n	8acc <__divsi3+0x190>
    8ac8:	008b      	lsls	r3, r1, #2
    8aca:	1ac0      	subs	r0, r0, r3
    8acc:	4152      	adcs	r2, r2
    8ace:	d2d9      	bcs.n	8a84 <__divsi3+0x148>
    8ad0:	0843      	lsrs	r3, r0, #1
    8ad2:	428b      	cmp	r3, r1
    8ad4:	d301      	bcc.n	8ada <__divsi3+0x19e>
    8ad6:	004b      	lsls	r3, r1, #1
    8ad8:	1ac0      	subs	r0, r0, r3
    8ada:	4152      	adcs	r2, r2
    8adc:	1a41      	subs	r1, r0, r1
    8ade:	d200      	bcs.n	8ae2 <__divsi3+0x1a6>
    8ae0:	4601      	mov	r1, r0
    8ae2:	4663      	mov	r3, ip
    8ae4:	4152      	adcs	r2, r2
    8ae6:	105b      	asrs	r3, r3, #1
    8ae8:	4610      	mov	r0, r2
    8aea:	d301      	bcc.n	8af0 <__divsi3+0x1b4>
    8aec:	4240      	negs	r0, r0
    8aee:	2b00      	cmp	r3, #0
    8af0:	d500      	bpl.n	8af4 <__divsi3+0x1b8>
    8af2:	4249      	negs	r1, r1
    8af4:	4770      	bx	lr
    8af6:	4663      	mov	r3, ip
    8af8:	105b      	asrs	r3, r3, #1
    8afa:	d300      	bcc.n	8afe <__divsi3+0x1c2>
    8afc:	4240      	negs	r0, r0
    8afe:	b501      	push	{r0, lr}
    8b00:	2000      	movs	r0, #0
    8b02:	f000 f805 	bl	8b10 <__aeabi_idiv0>
    8b06:	bd02      	pop	{r1, pc}

00008b08 <__aeabi_idivmod>:
    8b08:	2900      	cmp	r1, #0
    8b0a:	d0f8      	beq.n	8afe <__divsi3+0x1c2>
    8b0c:	e716      	b.n	893c <__divsi3>
    8b0e:	4770      	bx	lr

00008b10 <__aeabi_idiv0>:
    8b10:	4770      	bx	lr
    8b12:	46c0      	nop			; (mov r8, r8)

00008b14 <__aeabi_lmul>:
    8b14:	b5f0      	push	{r4, r5, r6, r7, lr}
    8b16:	46ce      	mov	lr, r9
    8b18:	4647      	mov	r7, r8
    8b1a:	0415      	lsls	r5, r2, #16
    8b1c:	0c2d      	lsrs	r5, r5, #16
    8b1e:	002e      	movs	r6, r5
    8b20:	b580      	push	{r7, lr}
    8b22:	0407      	lsls	r7, r0, #16
    8b24:	0c14      	lsrs	r4, r2, #16
    8b26:	0c3f      	lsrs	r7, r7, #16
    8b28:	4699      	mov	r9, r3
    8b2a:	0c03      	lsrs	r3, r0, #16
    8b2c:	437e      	muls	r6, r7
    8b2e:	435d      	muls	r5, r3
    8b30:	4367      	muls	r7, r4
    8b32:	4363      	muls	r3, r4
    8b34:	197f      	adds	r7, r7, r5
    8b36:	0c34      	lsrs	r4, r6, #16
    8b38:	19e4      	adds	r4, r4, r7
    8b3a:	469c      	mov	ip, r3
    8b3c:	42a5      	cmp	r5, r4
    8b3e:	d903      	bls.n	8b48 <__aeabi_lmul+0x34>
    8b40:	2380      	movs	r3, #128	; 0x80
    8b42:	025b      	lsls	r3, r3, #9
    8b44:	4698      	mov	r8, r3
    8b46:	44c4      	add	ip, r8
    8b48:	464b      	mov	r3, r9
    8b4a:	4351      	muls	r1, r2
    8b4c:	4343      	muls	r3, r0
    8b4e:	0436      	lsls	r6, r6, #16
    8b50:	0c36      	lsrs	r6, r6, #16
    8b52:	0c25      	lsrs	r5, r4, #16
    8b54:	0424      	lsls	r4, r4, #16
    8b56:	4465      	add	r5, ip
    8b58:	19a4      	adds	r4, r4, r6
    8b5a:	1859      	adds	r1, r3, r1
    8b5c:	1949      	adds	r1, r1, r5
    8b5e:	0020      	movs	r0, r4
    8b60:	bc0c      	pop	{r2, r3}
    8b62:	4690      	mov	r8, r2
    8b64:	4699      	mov	r9, r3
    8b66:	bdf0      	pop	{r4, r5, r6, r7, pc}

00008b68 <__libc_init_array>:
    8b68:	b570      	push	{r4, r5, r6, lr}
    8b6a:	2600      	movs	r6, #0
    8b6c:	4d0c      	ldr	r5, [pc, #48]	; (8ba0 <__libc_init_array+0x38>)
    8b6e:	4c0d      	ldr	r4, [pc, #52]	; (8ba4 <__libc_init_array+0x3c>)
    8b70:	1b64      	subs	r4, r4, r5
    8b72:	10a4      	asrs	r4, r4, #2
    8b74:	42a6      	cmp	r6, r4
    8b76:	d109      	bne.n	8b8c <__libc_init_array+0x24>
    8b78:	2600      	movs	r6, #0
    8b7a:	f002 fb03 	bl	b184 <_init>
    8b7e:	4d0a      	ldr	r5, [pc, #40]	; (8ba8 <__libc_init_array+0x40>)
    8b80:	4c0a      	ldr	r4, [pc, #40]	; (8bac <__libc_init_array+0x44>)
    8b82:	1b64      	subs	r4, r4, r5
    8b84:	10a4      	asrs	r4, r4, #2
    8b86:	42a6      	cmp	r6, r4
    8b88:	d105      	bne.n	8b96 <__libc_init_array+0x2e>
    8b8a:	bd70      	pop	{r4, r5, r6, pc}
    8b8c:	00b3      	lsls	r3, r6, #2
    8b8e:	58eb      	ldr	r3, [r5, r3]
    8b90:	4798      	blx	r3
    8b92:	3601      	adds	r6, #1
    8b94:	e7ee      	b.n	8b74 <__libc_init_array+0xc>
    8b96:	00b3      	lsls	r3, r6, #2
    8b98:	58eb      	ldr	r3, [r5, r3]
    8b9a:	4798      	blx	r3
    8b9c:	3601      	adds	r6, #1
    8b9e:	e7f2      	b.n	8b86 <__libc_init_array+0x1e>
    8ba0:	0000b190 	.word	0x0000b190
    8ba4:	0000b190 	.word	0x0000b190
    8ba8:	0000b190 	.word	0x0000b190
    8bac:	0000b194 	.word	0x0000b194

00008bb0 <memcpy>:
    8bb0:	2300      	movs	r3, #0
    8bb2:	b510      	push	{r4, lr}
    8bb4:	429a      	cmp	r2, r3
    8bb6:	d100      	bne.n	8bba <memcpy+0xa>
    8bb8:	bd10      	pop	{r4, pc}
    8bba:	5ccc      	ldrb	r4, [r1, r3]
    8bbc:	54c4      	strb	r4, [r0, r3]
    8bbe:	3301      	adds	r3, #1
    8bc0:	e7f8      	b.n	8bb4 <memcpy+0x4>

00008bc2 <memset>:
    8bc2:	0003      	movs	r3, r0
    8bc4:	1882      	adds	r2, r0, r2
    8bc6:	4293      	cmp	r3, r2
    8bc8:	d100      	bne.n	8bcc <memset+0xa>
    8bca:	4770      	bx	lr
    8bcc:	7019      	strb	r1, [r3, #0]
    8bce:	3301      	adds	r3, #1
    8bd0:	e7f9      	b.n	8bc6 <memset+0x4>
	...

00008bd4 <iprintf>:
    8bd4:	b40f      	push	{r0, r1, r2, r3}
    8bd6:	4b0b      	ldr	r3, [pc, #44]	; (8c04 <iprintf+0x30>)
    8bd8:	b513      	push	{r0, r1, r4, lr}
    8bda:	681c      	ldr	r4, [r3, #0]
    8bdc:	2c00      	cmp	r4, #0
    8bde:	d005      	beq.n	8bec <iprintf+0x18>
    8be0:	69a3      	ldr	r3, [r4, #24]
    8be2:	2b00      	cmp	r3, #0
    8be4:	d102      	bne.n	8bec <iprintf+0x18>
    8be6:	0020      	movs	r0, r4
    8be8:	f000 fb82 	bl	92f0 <__sinit>
    8bec:	ab05      	add	r3, sp, #20
    8bee:	9a04      	ldr	r2, [sp, #16]
    8bf0:	68a1      	ldr	r1, [r4, #8]
    8bf2:	0020      	movs	r0, r4
    8bf4:	9301      	str	r3, [sp, #4]
    8bf6:	f000 fd57 	bl	96a8 <_vfiprintf_r>
    8bfa:	bc16      	pop	{r1, r2, r4}
    8bfc:	bc08      	pop	{r3}
    8bfe:	b004      	add	sp, #16
    8c00:	4718      	bx	r3
    8c02:	46c0      	nop			; (mov r8, r8)
    8c04:	20000030 	.word	0x20000030

00008c08 <putchar>:
    8c08:	4b08      	ldr	r3, [pc, #32]	; (8c2c <putchar+0x24>)
    8c0a:	b570      	push	{r4, r5, r6, lr}
    8c0c:	681c      	ldr	r4, [r3, #0]
    8c0e:	0005      	movs	r5, r0
    8c10:	2c00      	cmp	r4, #0
    8c12:	d005      	beq.n	8c20 <putchar+0x18>
    8c14:	69a3      	ldr	r3, [r4, #24]
    8c16:	2b00      	cmp	r3, #0
    8c18:	d102      	bne.n	8c20 <putchar+0x18>
    8c1a:	0020      	movs	r0, r4
    8c1c:	f000 fb68 	bl	92f0 <__sinit>
    8c20:	0029      	movs	r1, r5
    8c22:	68a2      	ldr	r2, [r4, #8]
    8c24:	0020      	movs	r0, r4
    8c26:	f000 ffe3 	bl	9bf0 <_putc_r>
    8c2a:	bd70      	pop	{r4, r5, r6, pc}
    8c2c:	20000030 	.word	0x20000030

00008c30 <_puts_r>:
    8c30:	b570      	push	{r4, r5, r6, lr}
    8c32:	0005      	movs	r5, r0
    8c34:	000e      	movs	r6, r1
    8c36:	2800      	cmp	r0, #0
    8c38:	d004      	beq.n	8c44 <_puts_r+0x14>
    8c3a:	6983      	ldr	r3, [r0, #24]
    8c3c:	2b00      	cmp	r3, #0
    8c3e:	d101      	bne.n	8c44 <_puts_r+0x14>
    8c40:	f000 fb56 	bl	92f0 <__sinit>
    8c44:	69ab      	ldr	r3, [r5, #24]
    8c46:	68ac      	ldr	r4, [r5, #8]
    8c48:	2b00      	cmp	r3, #0
    8c4a:	d102      	bne.n	8c52 <_puts_r+0x22>
    8c4c:	0028      	movs	r0, r5
    8c4e:	f000 fb4f 	bl	92f0 <__sinit>
    8c52:	4b24      	ldr	r3, [pc, #144]	; (8ce4 <_puts_r+0xb4>)
    8c54:	429c      	cmp	r4, r3
    8c56:	d10f      	bne.n	8c78 <_puts_r+0x48>
    8c58:	686c      	ldr	r4, [r5, #4]
    8c5a:	89a3      	ldrh	r3, [r4, #12]
    8c5c:	071b      	lsls	r3, r3, #28
    8c5e:	d502      	bpl.n	8c66 <_puts_r+0x36>
    8c60:	6923      	ldr	r3, [r4, #16]
    8c62:	2b00      	cmp	r3, #0
    8c64:	d120      	bne.n	8ca8 <_puts_r+0x78>
    8c66:	0021      	movs	r1, r4
    8c68:	0028      	movs	r0, r5
    8c6a:	f000 f9d3 	bl	9014 <__swsetup_r>
    8c6e:	2800      	cmp	r0, #0
    8c70:	d01a      	beq.n	8ca8 <_puts_r+0x78>
    8c72:	2001      	movs	r0, #1
    8c74:	4240      	negs	r0, r0
    8c76:	bd70      	pop	{r4, r5, r6, pc}
    8c78:	4b1b      	ldr	r3, [pc, #108]	; (8ce8 <_puts_r+0xb8>)
    8c7a:	429c      	cmp	r4, r3
    8c7c:	d101      	bne.n	8c82 <_puts_r+0x52>
    8c7e:	68ac      	ldr	r4, [r5, #8]
    8c80:	e7eb      	b.n	8c5a <_puts_r+0x2a>
    8c82:	4b1a      	ldr	r3, [pc, #104]	; (8cec <_puts_r+0xbc>)
    8c84:	429c      	cmp	r4, r3
    8c86:	d1e8      	bne.n	8c5a <_puts_r+0x2a>
    8c88:	68ec      	ldr	r4, [r5, #12]
    8c8a:	e7e6      	b.n	8c5a <_puts_r+0x2a>
    8c8c:	3b01      	subs	r3, #1
    8c8e:	3601      	adds	r6, #1
    8c90:	60a3      	str	r3, [r4, #8]
    8c92:	2b00      	cmp	r3, #0
    8c94:	da04      	bge.n	8ca0 <_puts_r+0x70>
    8c96:	69a2      	ldr	r2, [r4, #24]
    8c98:	4293      	cmp	r3, r2
    8c9a:	db16      	blt.n	8cca <_puts_r+0x9a>
    8c9c:	290a      	cmp	r1, #10
    8c9e:	d014      	beq.n	8cca <_puts_r+0x9a>
    8ca0:	6823      	ldr	r3, [r4, #0]
    8ca2:	1c5a      	adds	r2, r3, #1
    8ca4:	6022      	str	r2, [r4, #0]
    8ca6:	7019      	strb	r1, [r3, #0]
    8ca8:	7831      	ldrb	r1, [r6, #0]
    8caa:	68a3      	ldr	r3, [r4, #8]
    8cac:	2900      	cmp	r1, #0
    8cae:	d1ed      	bne.n	8c8c <_puts_r+0x5c>
    8cb0:	3b01      	subs	r3, #1
    8cb2:	60a3      	str	r3, [r4, #8]
    8cb4:	2b00      	cmp	r3, #0
    8cb6:	da0f      	bge.n	8cd8 <_puts_r+0xa8>
    8cb8:	0022      	movs	r2, r4
    8cba:	310a      	adds	r1, #10
    8cbc:	0028      	movs	r0, r5
    8cbe:	f000 f953 	bl	8f68 <__swbuf_r>
    8cc2:	1c43      	adds	r3, r0, #1
    8cc4:	d0d5      	beq.n	8c72 <_puts_r+0x42>
    8cc6:	200a      	movs	r0, #10
    8cc8:	e7d5      	b.n	8c76 <_puts_r+0x46>
    8cca:	0022      	movs	r2, r4
    8ccc:	0028      	movs	r0, r5
    8cce:	f000 f94b 	bl	8f68 <__swbuf_r>
    8cd2:	1c43      	adds	r3, r0, #1
    8cd4:	d1e8      	bne.n	8ca8 <_puts_r+0x78>
    8cd6:	e7cc      	b.n	8c72 <_puts_r+0x42>
    8cd8:	200a      	movs	r0, #10
    8cda:	6823      	ldr	r3, [r4, #0]
    8cdc:	1c5a      	adds	r2, r3, #1
    8cde:	6022      	str	r2, [r4, #0]
    8ce0:	7018      	strb	r0, [r3, #0]
    8ce2:	e7c8      	b.n	8c76 <_puts_r+0x46>
    8ce4:	0000b110 	.word	0x0000b110
    8ce8:	0000b130 	.word	0x0000b130
    8cec:	0000b0f0 	.word	0x0000b0f0

00008cf0 <puts>:
    8cf0:	b510      	push	{r4, lr}
    8cf2:	4b03      	ldr	r3, [pc, #12]	; (8d00 <puts+0x10>)
    8cf4:	0001      	movs	r1, r0
    8cf6:	6818      	ldr	r0, [r3, #0]
    8cf8:	f7ff ff9a 	bl	8c30 <_puts_r>
    8cfc:	bd10      	pop	{r4, pc}
    8cfe:	46c0      	nop			; (mov r8, r8)
    8d00:	20000030 	.word	0x20000030

00008d04 <srand>:
    8d04:	4b10      	ldr	r3, [pc, #64]	; (8d48 <srand+0x44>)
    8d06:	b570      	push	{r4, r5, r6, lr}
    8d08:	681c      	ldr	r4, [r3, #0]
    8d0a:	0005      	movs	r5, r0
    8d0c:	6ba3      	ldr	r3, [r4, #56]	; 0x38
    8d0e:	2b00      	cmp	r3, #0
    8d10:	d115      	bne.n	8d3e <srand+0x3a>
    8d12:	2018      	movs	r0, #24
    8d14:	f000 fbee 	bl	94f4 <malloc>
    8d18:	4b0c      	ldr	r3, [pc, #48]	; (8d4c <srand+0x48>)
    8d1a:	63a0      	str	r0, [r4, #56]	; 0x38
    8d1c:	8003      	strh	r3, [r0, #0]
    8d1e:	4b0c      	ldr	r3, [pc, #48]	; (8d50 <srand+0x4c>)
    8d20:	2201      	movs	r2, #1
    8d22:	8043      	strh	r3, [r0, #2]
    8d24:	4b0b      	ldr	r3, [pc, #44]	; (8d54 <srand+0x50>)
    8d26:	8083      	strh	r3, [r0, #4]
    8d28:	4b0b      	ldr	r3, [pc, #44]	; (8d58 <srand+0x54>)
    8d2a:	80c3      	strh	r3, [r0, #6]
    8d2c:	4b0b      	ldr	r3, [pc, #44]	; (8d5c <srand+0x58>)
    8d2e:	8103      	strh	r3, [r0, #8]
    8d30:	2305      	movs	r3, #5
    8d32:	8143      	strh	r3, [r0, #10]
    8d34:	3306      	adds	r3, #6
    8d36:	8183      	strh	r3, [r0, #12]
    8d38:	2300      	movs	r3, #0
    8d3a:	6102      	str	r2, [r0, #16]
    8d3c:	6143      	str	r3, [r0, #20]
    8d3e:	2200      	movs	r2, #0
    8d40:	6ba3      	ldr	r3, [r4, #56]	; 0x38
    8d42:	611d      	str	r5, [r3, #16]
    8d44:	615a      	str	r2, [r3, #20]
    8d46:	bd70      	pop	{r4, r5, r6, pc}
    8d48:	20000030 	.word	0x20000030
    8d4c:	0000330e 	.word	0x0000330e
    8d50:	ffffabcd 	.word	0xffffabcd
    8d54:	00001234 	.word	0x00001234
    8d58:	ffffe66d 	.word	0xffffe66d
    8d5c:	ffffdeec 	.word	0xffffdeec

00008d60 <rand>:
    8d60:	4b15      	ldr	r3, [pc, #84]	; (8db8 <rand+0x58>)
    8d62:	b510      	push	{r4, lr}
    8d64:	681c      	ldr	r4, [r3, #0]
    8d66:	6ba3      	ldr	r3, [r4, #56]	; 0x38
    8d68:	2b00      	cmp	r3, #0
    8d6a:	d115      	bne.n	8d98 <rand+0x38>
    8d6c:	2018      	movs	r0, #24
    8d6e:	f000 fbc1 	bl	94f4 <malloc>
    8d72:	4b12      	ldr	r3, [pc, #72]	; (8dbc <rand+0x5c>)
    8d74:	63a0      	str	r0, [r4, #56]	; 0x38
    8d76:	8003      	strh	r3, [r0, #0]
    8d78:	4b11      	ldr	r3, [pc, #68]	; (8dc0 <rand+0x60>)
    8d7a:	2201      	movs	r2, #1
    8d7c:	8043      	strh	r3, [r0, #2]
    8d7e:	4b11      	ldr	r3, [pc, #68]	; (8dc4 <rand+0x64>)
    8d80:	8083      	strh	r3, [r0, #4]
    8d82:	4b11      	ldr	r3, [pc, #68]	; (8dc8 <rand+0x68>)
    8d84:	80c3      	strh	r3, [r0, #6]
    8d86:	4b11      	ldr	r3, [pc, #68]	; (8dcc <rand+0x6c>)
    8d88:	8103      	strh	r3, [r0, #8]
    8d8a:	2305      	movs	r3, #5
    8d8c:	8143      	strh	r3, [r0, #10]
    8d8e:	3306      	adds	r3, #6
    8d90:	8183      	strh	r3, [r0, #12]
    8d92:	2300      	movs	r3, #0
    8d94:	6102      	str	r2, [r0, #16]
    8d96:	6143      	str	r3, [r0, #20]
    8d98:	6ba4      	ldr	r4, [r4, #56]	; 0x38
    8d9a:	4a0d      	ldr	r2, [pc, #52]	; (8dd0 <rand+0x70>)
    8d9c:	6920      	ldr	r0, [r4, #16]
    8d9e:	6961      	ldr	r1, [r4, #20]
    8da0:	4b0c      	ldr	r3, [pc, #48]	; (8dd4 <rand+0x74>)
    8da2:	f7ff feb7 	bl	8b14 <__aeabi_lmul>
    8da6:	2201      	movs	r2, #1
    8da8:	2300      	movs	r3, #0
    8daa:	1880      	adds	r0, r0, r2
    8dac:	4159      	adcs	r1, r3
    8dae:	6120      	str	r0, [r4, #16]
    8db0:	6161      	str	r1, [r4, #20]
    8db2:	0048      	lsls	r0, r1, #1
    8db4:	0840      	lsrs	r0, r0, #1
    8db6:	bd10      	pop	{r4, pc}
    8db8:	20000030 	.word	0x20000030
    8dbc:	0000330e 	.word	0x0000330e
    8dc0:	ffffabcd 	.word	0xffffabcd
    8dc4:	00001234 	.word	0x00001234
    8dc8:	ffffe66d 	.word	0xffffe66d
    8dcc:	ffffdeec 	.word	0xffffdeec
    8dd0:	4c957f2d 	.word	0x4c957f2d
    8dd4:	5851f42d 	.word	0x5851f42d

00008dd8 <setbuf>:
    8dd8:	424a      	negs	r2, r1
    8dda:	414a      	adcs	r2, r1
    8ddc:	2380      	movs	r3, #128	; 0x80
    8dde:	b510      	push	{r4, lr}
    8de0:	0052      	lsls	r2, r2, #1
    8de2:	00db      	lsls	r3, r3, #3
    8de4:	f000 f802 	bl	8dec <setvbuf>
    8de8:	bd10      	pop	{r4, pc}
	...

00008dec <setvbuf>:
    8dec:	b5f0      	push	{r4, r5, r6, r7, lr}
    8dee:	001d      	movs	r5, r3
    8df0:	4b4f      	ldr	r3, [pc, #316]	; (8f30 <setvbuf+0x144>)
    8df2:	b085      	sub	sp, #20
    8df4:	681e      	ldr	r6, [r3, #0]
    8df6:	0004      	movs	r4, r0
    8df8:	000f      	movs	r7, r1
    8dfa:	9200      	str	r2, [sp, #0]
    8dfc:	2e00      	cmp	r6, #0
    8dfe:	d005      	beq.n	8e0c <setvbuf+0x20>
    8e00:	69b3      	ldr	r3, [r6, #24]
    8e02:	2b00      	cmp	r3, #0
    8e04:	d102      	bne.n	8e0c <setvbuf+0x20>
    8e06:	0030      	movs	r0, r6
    8e08:	f000 fa72 	bl	92f0 <__sinit>
    8e0c:	4b49      	ldr	r3, [pc, #292]	; (8f34 <setvbuf+0x148>)
    8e0e:	429c      	cmp	r4, r3
    8e10:	d150      	bne.n	8eb4 <setvbuf+0xc8>
    8e12:	6874      	ldr	r4, [r6, #4]
    8e14:	9b00      	ldr	r3, [sp, #0]
    8e16:	2b02      	cmp	r3, #2
    8e18:	d005      	beq.n	8e26 <setvbuf+0x3a>
    8e1a:	2b01      	cmp	r3, #1
    8e1c:	d900      	bls.n	8e20 <setvbuf+0x34>
    8e1e:	e084      	b.n	8f2a <setvbuf+0x13e>
    8e20:	2d00      	cmp	r5, #0
    8e22:	da00      	bge.n	8e26 <setvbuf+0x3a>
    8e24:	e081      	b.n	8f2a <setvbuf+0x13e>
    8e26:	0021      	movs	r1, r4
    8e28:	0030      	movs	r0, r6
    8e2a:	f000 f9f3 	bl	9214 <_fflush_r>
    8e2e:	6b61      	ldr	r1, [r4, #52]	; 0x34
    8e30:	2900      	cmp	r1, #0
    8e32:	d008      	beq.n	8e46 <setvbuf+0x5a>
    8e34:	0023      	movs	r3, r4
    8e36:	3344      	adds	r3, #68	; 0x44
    8e38:	4299      	cmp	r1, r3
    8e3a:	d002      	beq.n	8e42 <setvbuf+0x56>
    8e3c:	0030      	movs	r0, r6
    8e3e:	f000 fb63 	bl	9508 <_free_r>
    8e42:	2300      	movs	r3, #0
    8e44:	6363      	str	r3, [r4, #52]	; 0x34
    8e46:	2300      	movs	r3, #0
    8e48:	61a3      	str	r3, [r4, #24]
    8e4a:	6063      	str	r3, [r4, #4]
    8e4c:	89a3      	ldrh	r3, [r4, #12]
    8e4e:	061b      	lsls	r3, r3, #24
    8e50:	d503      	bpl.n	8e5a <setvbuf+0x6e>
    8e52:	6921      	ldr	r1, [r4, #16]
    8e54:	0030      	movs	r0, r6
    8e56:	f000 fb57 	bl	9508 <_free_r>
    8e5a:	89a3      	ldrh	r3, [r4, #12]
    8e5c:	4a36      	ldr	r2, [pc, #216]	; (8f38 <setvbuf+0x14c>)
    8e5e:	4013      	ands	r3, r2
    8e60:	81a3      	strh	r3, [r4, #12]
    8e62:	9b00      	ldr	r3, [sp, #0]
    8e64:	2b02      	cmp	r3, #2
    8e66:	d05a      	beq.n	8f1e <setvbuf+0x132>
    8e68:	ab03      	add	r3, sp, #12
    8e6a:	aa02      	add	r2, sp, #8
    8e6c:	0021      	movs	r1, r4
    8e6e:	0030      	movs	r0, r6
    8e70:	f000 fad4 	bl	941c <__swhatbuf_r>
    8e74:	89a3      	ldrh	r3, [r4, #12]
    8e76:	4318      	orrs	r0, r3
    8e78:	81a0      	strh	r0, [r4, #12]
    8e7a:	2d00      	cmp	r5, #0
    8e7c:	d124      	bne.n	8ec8 <setvbuf+0xdc>
    8e7e:	9d02      	ldr	r5, [sp, #8]
    8e80:	0028      	movs	r0, r5
    8e82:	f000 fb37 	bl	94f4 <malloc>
    8e86:	9501      	str	r5, [sp, #4]
    8e88:	1e07      	subs	r7, r0, #0
    8e8a:	d142      	bne.n	8f12 <setvbuf+0x126>
    8e8c:	9b02      	ldr	r3, [sp, #8]
    8e8e:	9301      	str	r3, [sp, #4]
    8e90:	42ab      	cmp	r3, r5
    8e92:	d139      	bne.n	8f08 <setvbuf+0x11c>
    8e94:	2001      	movs	r0, #1
    8e96:	4240      	negs	r0, r0
    8e98:	2302      	movs	r3, #2
    8e9a:	89a2      	ldrh	r2, [r4, #12]
    8e9c:	4313      	orrs	r3, r2
    8e9e:	81a3      	strh	r3, [r4, #12]
    8ea0:	2300      	movs	r3, #0
    8ea2:	60a3      	str	r3, [r4, #8]
    8ea4:	0023      	movs	r3, r4
    8ea6:	3347      	adds	r3, #71	; 0x47
    8ea8:	6023      	str	r3, [r4, #0]
    8eaa:	6123      	str	r3, [r4, #16]
    8eac:	2301      	movs	r3, #1
    8eae:	6163      	str	r3, [r4, #20]
    8eb0:	b005      	add	sp, #20
    8eb2:	bdf0      	pop	{r4, r5, r6, r7, pc}
    8eb4:	4b21      	ldr	r3, [pc, #132]	; (8f3c <setvbuf+0x150>)
    8eb6:	429c      	cmp	r4, r3
    8eb8:	d101      	bne.n	8ebe <setvbuf+0xd2>
    8eba:	68b4      	ldr	r4, [r6, #8]
    8ebc:	e7aa      	b.n	8e14 <setvbuf+0x28>
    8ebe:	4b20      	ldr	r3, [pc, #128]	; (8f40 <setvbuf+0x154>)
    8ec0:	429c      	cmp	r4, r3
    8ec2:	d1a7      	bne.n	8e14 <setvbuf+0x28>
    8ec4:	68f4      	ldr	r4, [r6, #12]
    8ec6:	e7a5      	b.n	8e14 <setvbuf+0x28>
    8ec8:	2f00      	cmp	r7, #0
    8eca:	d0d9      	beq.n	8e80 <setvbuf+0x94>
    8ecc:	69b3      	ldr	r3, [r6, #24]
    8ece:	2b00      	cmp	r3, #0
    8ed0:	d102      	bne.n	8ed8 <setvbuf+0xec>
    8ed2:	0030      	movs	r0, r6
    8ed4:	f000 fa0c 	bl	92f0 <__sinit>
    8ed8:	9b00      	ldr	r3, [sp, #0]
    8eda:	2b01      	cmp	r3, #1
    8edc:	d103      	bne.n	8ee6 <setvbuf+0xfa>
    8ede:	89a3      	ldrh	r3, [r4, #12]
    8ee0:	9a00      	ldr	r2, [sp, #0]
    8ee2:	431a      	orrs	r2, r3
    8ee4:	81a2      	strh	r2, [r4, #12]
    8ee6:	2008      	movs	r0, #8
    8ee8:	89a3      	ldrh	r3, [r4, #12]
    8eea:	6027      	str	r7, [r4, #0]
    8eec:	6127      	str	r7, [r4, #16]
    8eee:	6165      	str	r5, [r4, #20]
    8ef0:	4018      	ands	r0, r3
    8ef2:	d018      	beq.n	8f26 <setvbuf+0x13a>
    8ef4:	2001      	movs	r0, #1
    8ef6:	4018      	ands	r0, r3
    8ef8:	2300      	movs	r3, #0
    8efa:	4298      	cmp	r0, r3
    8efc:	d011      	beq.n	8f22 <setvbuf+0x136>
    8efe:	426d      	negs	r5, r5
    8f00:	60a3      	str	r3, [r4, #8]
    8f02:	61a5      	str	r5, [r4, #24]
    8f04:	0018      	movs	r0, r3
    8f06:	e7d3      	b.n	8eb0 <setvbuf+0xc4>
    8f08:	9801      	ldr	r0, [sp, #4]
    8f0a:	f000 faf3 	bl	94f4 <malloc>
    8f0e:	1e07      	subs	r7, r0, #0
    8f10:	d0c0      	beq.n	8e94 <setvbuf+0xa8>
    8f12:	2380      	movs	r3, #128	; 0x80
    8f14:	89a2      	ldrh	r2, [r4, #12]
    8f16:	9d01      	ldr	r5, [sp, #4]
    8f18:	4313      	orrs	r3, r2
    8f1a:	81a3      	strh	r3, [r4, #12]
    8f1c:	e7d6      	b.n	8ecc <setvbuf+0xe0>
    8f1e:	2000      	movs	r0, #0
    8f20:	e7ba      	b.n	8e98 <setvbuf+0xac>
    8f22:	60a5      	str	r5, [r4, #8]
    8f24:	e7c4      	b.n	8eb0 <setvbuf+0xc4>
    8f26:	60a0      	str	r0, [r4, #8]
    8f28:	e7c2      	b.n	8eb0 <setvbuf+0xc4>
    8f2a:	2001      	movs	r0, #1
    8f2c:	4240      	negs	r0, r0
    8f2e:	e7bf      	b.n	8eb0 <setvbuf+0xc4>
    8f30:	20000030 	.word	0x20000030
    8f34:	0000b110 	.word	0x0000b110
    8f38:	fffff35c 	.word	0xfffff35c
    8f3c:	0000b130 	.word	0x0000b130
    8f40:	0000b0f0 	.word	0x0000b0f0

00008f44 <strcmp>:
    8f44:	7802      	ldrb	r2, [r0, #0]
    8f46:	780b      	ldrb	r3, [r1, #0]
    8f48:	2a00      	cmp	r2, #0
    8f4a:	d003      	beq.n	8f54 <strcmp+0x10>
    8f4c:	3001      	adds	r0, #1
    8f4e:	3101      	adds	r1, #1
    8f50:	429a      	cmp	r2, r3
    8f52:	d0f7      	beq.n	8f44 <strcmp>
    8f54:	1ad0      	subs	r0, r2, r3
    8f56:	4770      	bx	lr

00008f58 <strcpy>:
    8f58:	1c03      	adds	r3, r0, #0
    8f5a:	780a      	ldrb	r2, [r1, #0]
    8f5c:	3101      	adds	r1, #1
    8f5e:	701a      	strb	r2, [r3, #0]
    8f60:	3301      	adds	r3, #1
    8f62:	2a00      	cmp	r2, #0
    8f64:	d1f9      	bne.n	8f5a <strcpy+0x2>
    8f66:	4770      	bx	lr

00008f68 <__swbuf_r>:
    8f68:	b5f8      	push	{r3, r4, r5, r6, r7, lr}
    8f6a:	0005      	movs	r5, r0
    8f6c:	000e      	movs	r6, r1
    8f6e:	0014      	movs	r4, r2
    8f70:	2800      	cmp	r0, #0
    8f72:	d004      	beq.n	8f7e <__swbuf_r+0x16>
    8f74:	6983      	ldr	r3, [r0, #24]
    8f76:	2b00      	cmp	r3, #0
    8f78:	d101      	bne.n	8f7e <__swbuf_r+0x16>
    8f7a:	f000 f9b9 	bl	92f0 <__sinit>
    8f7e:	4b22      	ldr	r3, [pc, #136]	; (9008 <__swbuf_r+0xa0>)
    8f80:	429c      	cmp	r4, r3
    8f82:	d12d      	bne.n	8fe0 <__swbuf_r+0x78>
    8f84:	686c      	ldr	r4, [r5, #4]
    8f86:	69a3      	ldr	r3, [r4, #24]
    8f88:	60a3      	str	r3, [r4, #8]
    8f8a:	89a3      	ldrh	r3, [r4, #12]
    8f8c:	071b      	lsls	r3, r3, #28
    8f8e:	d531      	bpl.n	8ff4 <__swbuf_r+0x8c>
    8f90:	6923      	ldr	r3, [r4, #16]
    8f92:	2b00      	cmp	r3, #0
    8f94:	d02e      	beq.n	8ff4 <__swbuf_r+0x8c>
    8f96:	6823      	ldr	r3, [r4, #0]
    8f98:	6922      	ldr	r2, [r4, #16]
    8f9a:	b2f7      	uxtb	r7, r6
    8f9c:	1a98      	subs	r0, r3, r2
    8f9e:	6963      	ldr	r3, [r4, #20]
    8fa0:	b2f6      	uxtb	r6, r6
    8fa2:	4298      	cmp	r0, r3
    8fa4:	db05      	blt.n	8fb2 <__swbuf_r+0x4a>
    8fa6:	0021      	movs	r1, r4
    8fa8:	0028      	movs	r0, r5
    8faa:	f000 f933 	bl	9214 <_fflush_r>
    8fae:	2800      	cmp	r0, #0
    8fb0:	d126      	bne.n	9000 <__swbuf_r+0x98>
    8fb2:	68a3      	ldr	r3, [r4, #8]
    8fb4:	3001      	adds	r0, #1
    8fb6:	3b01      	subs	r3, #1
    8fb8:	60a3      	str	r3, [r4, #8]
    8fba:	6823      	ldr	r3, [r4, #0]
    8fbc:	1c5a      	adds	r2, r3, #1
    8fbe:	6022      	str	r2, [r4, #0]
    8fc0:	701f      	strb	r7, [r3, #0]
    8fc2:	6963      	ldr	r3, [r4, #20]
    8fc4:	4298      	cmp	r0, r3
    8fc6:	d004      	beq.n	8fd2 <__swbuf_r+0x6a>
    8fc8:	89a3      	ldrh	r3, [r4, #12]
    8fca:	07db      	lsls	r3, r3, #31
    8fcc:	d51a      	bpl.n	9004 <__swbuf_r+0x9c>
    8fce:	2e0a      	cmp	r6, #10
    8fd0:	d118      	bne.n	9004 <__swbuf_r+0x9c>
    8fd2:	0021      	movs	r1, r4
    8fd4:	0028      	movs	r0, r5
    8fd6:	f000 f91d 	bl	9214 <_fflush_r>
    8fda:	2800      	cmp	r0, #0
    8fdc:	d012      	beq.n	9004 <__swbuf_r+0x9c>
    8fde:	e00f      	b.n	9000 <__swbuf_r+0x98>
    8fe0:	4b0a      	ldr	r3, [pc, #40]	; (900c <__swbuf_r+0xa4>)
    8fe2:	429c      	cmp	r4, r3
    8fe4:	d101      	bne.n	8fea <__swbuf_r+0x82>
    8fe6:	68ac      	ldr	r4, [r5, #8]
    8fe8:	e7cd      	b.n	8f86 <__swbuf_r+0x1e>
    8fea:	4b09      	ldr	r3, [pc, #36]	; (9010 <__swbuf_r+0xa8>)
    8fec:	429c      	cmp	r4, r3
    8fee:	d1ca      	bne.n	8f86 <__swbuf_r+0x1e>
    8ff0:	68ec      	ldr	r4, [r5, #12]
    8ff2:	e7c8      	b.n	8f86 <__swbuf_r+0x1e>
    8ff4:	0021      	movs	r1, r4
    8ff6:	0028      	movs	r0, r5
    8ff8:	f000 f80c 	bl	9014 <__swsetup_r>
    8ffc:	2800      	cmp	r0, #0
    8ffe:	d0ca      	beq.n	8f96 <__swbuf_r+0x2e>
    9000:	2601      	movs	r6, #1
    9002:	4276      	negs	r6, r6
    9004:	0030      	movs	r0, r6
    9006:	bdf8      	pop	{r3, r4, r5, r6, r7, pc}
    9008:	0000b110 	.word	0x0000b110
    900c:	0000b130 	.word	0x0000b130
    9010:	0000b0f0 	.word	0x0000b0f0

00009014 <__swsetup_r>:
    9014:	4b36      	ldr	r3, [pc, #216]	; (90f0 <__swsetup_r+0xdc>)
    9016:	b570      	push	{r4, r5, r6, lr}
    9018:	681d      	ldr	r5, [r3, #0]
    901a:	0006      	movs	r6, r0
    901c:	000c      	movs	r4, r1
    901e:	2d00      	cmp	r5, #0
    9020:	d005      	beq.n	902e <__swsetup_r+0x1a>
    9022:	69ab      	ldr	r3, [r5, #24]
    9024:	2b00      	cmp	r3, #0
    9026:	d102      	bne.n	902e <__swsetup_r+0x1a>
    9028:	0028      	movs	r0, r5
    902a:	f000 f961 	bl	92f0 <__sinit>
    902e:	4b31      	ldr	r3, [pc, #196]	; (90f4 <__swsetup_r+0xe0>)
    9030:	429c      	cmp	r4, r3
    9032:	d10f      	bne.n	9054 <__swsetup_r+0x40>
    9034:	686c      	ldr	r4, [r5, #4]
    9036:	230c      	movs	r3, #12
    9038:	5ee2      	ldrsh	r2, [r4, r3]
    903a:	b293      	uxth	r3, r2
    903c:	0719      	lsls	r1, r3, #28
    903e:	d42d      	bmi.n	909c <__swsetup_r+0x88>
    9040:	06d9      	lsls	r1, r3, #27
    9042:	d411      	bmi.n	9068 <__swsetup_r+0x54>
    9044:	2309      	movs	r3, #9
    9046:	2001      	movs	r0, #1
    9048:	6033      	str	r3, [r6, #0]
    904a:	3337      	adds	r3, #55	; 0x37
    904c:	4313      	orrs	r3, r2
    904e:	81a3      	strh	r3, [r4, #12]
    9050:	4240      	negs	r0, r0
    9052:	bd70      	pop	{r4, r5, r6, pc}
    9054:	4b28      	ldr	r3, [pc, #160]	; (90f8 <__swsetup_r+0xe4>)
    9056:	429c      	cmp	r4, r3
    9058:	d101      	bne.n	905e <__swsetup_r+0x4a>
    905a:	68ac      	ldr	r4, [r5, #8]
    905c:	e7eb      	b.n	9036 <__swsetup_r+0x22>
    905e:	4b27      	ldr	r3, [pc, #156]	; (90fc <__swsetup_r+0xe8>)
    9060:	429c      	cmp	r4, r3
    9062:	d1e8      	bne.n	9036 <__swsetup_r+0x22>
    9064:	68ec      	ldr	r4, [r5, #12]
    9066:	e7e6      	b.n	9036 <__swsetup_r+0x22>
    9068:	075b      	lsls	r3, r3, #29
    906a:	d513      	bpl.n	9094 <__swsetup_r+0x80>
    906c:	6b61      	ldr	r1, [r4, #52]	; 0x34
    906e:	2900      	cmp	r1, #0
    9070:	d008      	beq.n	9084 <__swsetup_r+0x70>
    9072:	0023      	movs	r3, r4
    9074:	3344      	adds	r3, #68	; 0x44
    9076:	4299      	cmp	r1, r3
    9078:	d002      	beq.n	9080 <__swsetup_r+0x6c>
    907a:	0030      	movs	r0, r6
    907c:	f000 fa44 	bl	9508 <_free_r>
    9080:	2300      	movs	r3, #0
    9082:	6363      	str	r3, [r4, #52]	; 0x34
    9084:	2224      	movs	r2, #36	; 0x24
    9086:	89a3      	ldrh	r3, [r4, #12]
    9088:	4393      	bics	r3, r2
    908a:	81a3      	strh	r3, [r4, #12]
    908c:	2300      	movs	r3, #0
    908e:	6063      	str	r3, [r4, #4]
    9090:	6923      	ldr	r3, [r4, #16]
    9092:	6023      	str	r3, [r4, #0]
    9094:	2308      	movs	r3, #8
    9096:	89a2      	ldrh	r2, [r4, #12]
    9098:	4313      	orrs	r3, r2
    909a:	81a3      	strh	r3, [r4, #12]
    909c:	6923      	ldr	r3, [r4, #16]
    909e:	2b00      	cmp	r3, #0
    90a0:	d10b      	bne.n	90ba <__swsetup_r+0xa6>
    90a2:	21a0      	movs	r1, #160	; 0xa0
    90a4:	2280      	movs	r2, #128	; 0x80
    90a6:	89a3      	ldrh	r3, [r4, #12]
    90a8:	0089      	lsls	r1, r1, #2
    90aa:	0092      	lsls	r2, r2, #2
    90ac:	400b      	ands	r3, r1
    90ae:	4293      	cmp	r3, r2
    90b0:	d003      	beq.n	90ba <__swsetup_r+0xa6>
    90b2:	0021      	movs	r1, r4
    90b4:	0030      	movs	r0, r6
    90b6:	f000 f9d9 	bl	946c <__smakebuf_r>
    90ba:	2301      	movs	r3, #1
    90bc:	89a2      	ldrh	r2, [r4, #12]
    90be:	4013      	ands	r3, r2
    90c0:	d011      	beq.n	90e6 <__swsetup_r+0xd2>
    90c2:	2300      	movs	r3, #0
    90c4:	60a3      	str	r3, [r4, #8]
    90c6:	6963      	ldr	r3, [r4, #20]
    90c8:	425b      	negs	r3, r3
    90ca:	61a3      	str	r3, [r4, #24]
    90cc:	2000      	movs	r0, #0
    90ce:	6923      	ldr	r3, [r4, #16]
    90d0:	4283      	cmp	r3, r0
    90d2:	d1be      	bne.n	9052 <__swsetup_r+0x3e>
    90d4:	230c      	movs	r3, #12
    90d6:	5ee2      	ldrsh	r2, [r4, r3]
    90d8:	0613      	lsls	r3, r2, #24
    90da:	d5ba      	bpl.n	9052 <__swsetup_r+0x3e>
    90dc:	2340      	movs	r3, #64	; 0x40
    90de:	4313      	orrs	r3, r2
    90e0:	81a3      	strh	r3, [r4, #12]
    90e2:	3801      	subs	r0, #1
    90e4:	e7b5      	b.n	9052 <__swsetup_r+0x3e>
    90e6:	0792      	lsls	r2, r2, #30
    90e8:	d400      	bmi.n	90ec <__swsetup_r+0xd8>
    90ea:	6963      	ldr	r3, [r4, #20]
    90ec:	60a3      	str	r3, [r4, #8]
    90ee:	e7ed      	b.n	90cc <__swsetup_r+0xb8>
    90f0:	20000030 	.word	0x20000030
    90f4:	0000b110 	.word	0x0000b110
    90f8:	0000b130 	.word	0x0000b130
    90fc:	0000b0f0 	.word	0x0000b0f0

00009100 <__sflush_r>:
    9100:	b5f7      	push	{r0, r1, r2, r4, r5, r6, r7, lr}
    9102:	898a      	ldrh	r2, [r1, #12]
    9104:	0005      	movs	r5, r0
    9106:	000c      	movs	r4, r1
    9108:	0713      	lsls	r3, r2, #28
    910a:	d460      	bmi.n	91ce <__sflush_r+0xce>
    910c:	684b      	ldr	r3, [r1, #4]
    910e:	2b00      	cmp	r3, #0
    9110:	dc04      	bgt.n	911c <__sflush_r+0x1c>
    9112:	6c0b      	ldr	r3, [r1, #64]	; 0x40
    9114:	2b00      	cmp	r3, #0
    9116:	dc01      	bgt.n	911c <__sflush_r+0x1c>
    9118:	2000      	movs	r0, #0
    911a:	bdfe      	pop	{r1, r2, r3, r4, r5, r6, r7, pc}
    911c:	6ae7      	ldr	r7, [r4, #44]	; 0x2c
    911e:	2f00      	cmp	r7, #0
    9120:	d0fa      	beq.n	9118 <__sflush_r+0x18>
    9122:	2300      	movs	r3, #0
    9124:	682e      	ldr	r6, [r5, #0]
    9126:	602b      	str	r3, [r5, #0]
    9128:	2380      	movs	r3, #128	; 0x80
    912a:	015b      	lsls	r3, r3, #5
    912c:	401a      	ands	r2, r3
    912e:	d034      	beq.n	919a <__sflush_r+0x9a>
    9130:	6d60      	ldr	r0, [r4, #84]	; 0x54
    9132:	89a3      	ldrh	r3, [r4, #12]
    9134:	075b      	lsls	r3, r3, #29
    9136:	d506      	bpl.n	9146 <__sflush_r+0x46>
    9138:	6863      	ldr	r3, [r4, #4]
    913a:	1ac0      	subs	r0, r0, r3
    913c:	6b63      	ldr	r3, [r4, #52]	; 0x34
    913e:	2b00      	cmp	r3, #0
    9140:	d001      	beq.n	9146 <__sflush_r+0x46>
    9142:	6c23      	ldr	r3, [r4, #64]	; 0x40
    9144:	1ac0      	subs	r0, r0, r3
    9146:	0002      	movs	r2, r0
    9148:	6a21      	ldr	r1, [r4, #32]
    914a:	2300      	movs	r3, #0
    914c:	0028      	movs	r0, r5
    914e:	6ae7      	ldr	r7, [r4, #44]	; 0x2c
    9150:	47b8      	blx	r7
    9152:	89a1      	ldrh	r1, [r4, #12]
    9154:	1c43      	adds	r3, r0, #1
    9156:	d106      	bne.n	9166 <__sflush_r+0x66>
    9158:	682b      	ldr	r3, [r5, #0]
    915a:	2b1d      	cmp	r3, #29
    915c:	d831      	bhi.n	91c2 <__sflush_r+0xc2>
    915e:	4a2c      	ldr	r2, [pc, #176]	; (9210 <__sflush_r+0x110>)
    9160:	40da      	lsrs	r2, r3
    9162:	07d3      	lsls	r3, r2, #31
    9164:	d52d      	bpl.n	91c2 <__sflush_r+0xc2>
    9166:	2300      	movs	r3, #0
    9168:	6063      	str	r3, [r4, #4]
    916a:	6923      	ldr	r3, [r4, #16]
    916c:	6023      	str	r3, [r4, #0]
    916e:	04cb      	lsls	r3, r1, #19
    9170:	d505      	bpl.n	917e <__sflush_r+0x7e>
    9172:	1c43      	adds	r3, r0, #1
    9174:	d102      	bne.n	917c <__sflush_r+0x7c>
    9176:	682b      	ldr	r3, [r5, #0]
    9178:	2b00      	cmp	r3, #0
    917a:	d100      	bne.n	917e <__sflush_r+0x7e>
    917c:	6560      	str	r0, [r4, #84]	; 0x54
    917e:	6b61      	ldr	r1, [r4, #52]	; 0x34
    9180:	602e      	str	r6, [r5, #0]
    9182:	2900      	cmp	r1, #0
    9184:	d0c8      	beq.n	9118 <__sflush_r+0x18>
    9186:	0023      	movs	r3, r4
    9188:	3344      	adds	r3, #68	; 0x44
    918a:	4299      	cmp	r1, r3
    918c:	d002      	beq.n	9194 <__sflush_r+0x94>
    918e:	0028      	movs	r0, r5
    9190:	f000 f9ba 	bl	9508 <_free_r>
    9194:	2000      	movs	r0, #0
    9196:	6360      	str	r0, [r4, #52]	; 0x34
    9198:	e7bf      	b.n	911a <__sflush_r+0x1a>
    919a:	2301      	movs	r3, #1
    919c:	6a21      	ldr	r1, [r4, #32]
    919e:	0028      	movs	r0, r5
    91a0:	47b8      	blx	r7
    91a2:	1c43      	adds	r3, r0, #1
    91a4:	d1c5      	bne.n	9132 <__sflush_r+0x32>
    91a6:	682b      	ldr	r3, [r5, #0]
    91a8:	2b00      	cmp	r3, #0
    91aa:	d0c2      	beq.n	9132 <__sflush_r+0x32>
    91ac:	2b1d      	cmp	r3, #29
    91ae:	d001      	beq.n	91b4 <__sflush_r+0xb4>
    91b0:	2b16      	cmp	r3, #22
    91b2:	d101      	bne.n	91b8 <__sflush_r+0xb8>
    91b4:	602e      	str	r6, [r5, #0]
    91b6:	e7af      	b.n	9118 <__sflush_r+0x18>
    91b8:	2340      	movs	r3, #64	; 0x40
    91ba:	89a2      	ldrh	r2, [r4, #12]
    91bc:	4313      	orrs	r3, r2
    91be:	81a3      	strh	r3, [r4, #12]
    91c0:	e7ab      	b.n	911a <__sflush_r+0x1a>
    91c2:	2340      	movs	r3, #64	; 0x40
    91c4:	430b      	orrs	r3, r1
    91c6:	2001      	movs	r0, #1
    91c8:	81a3      	strh	r3, [r4, #12]
    91ca:	4240      	negs	r0, r0
    91cc:	e7a5      	b.n	911a <__sflush_r+0x1a>
    91ce:	690f      	ldr	r7, [r1, #16]
    91d0:	2f00      	cmp	r7, #0
    91d2:	d0a1      	beq.n	9118 <__sflush_r+0x18>
    91d4:	680b      	ldr	r3, [r1, #0]
    91d6:	600f      	str	r7, [r1, #0]
    91d8:	1bdb      	subs	r3, r3, r7
    91da:	9301      	str	r3, [sp, #4]
    91dc:	2300      	movs	r3, #0
    91de:	0792      	lsls	r2, r2, #30
    91e0:	d100      	bne.n	91e4 <__sflush_r+0xe4>
    91e2:	694b      	ldr	r3, [r1, #20]
    91e4:	60a3      	str	r3, [r4, #8]
    91e6:	9b01      	ldr	r3, [sp, #4]
    91e8:	2b00      	cmp	r3, #0
    91ea:	dc00      	bgt.n	91ee <__sflush_r+0xee>
    91ec:	e794      	b.n	9118 <__sflush_r+0x18>
    91ee:	9b01      	ldr	r3, [sp, #4]
    91f0:	003a      	movs	r2, r7
    91f2:	6a21      	ldr	r1, [r4, #32]
    91f4:	0028      	movs	r0, r5
    91f6:	6aa6      	ldr	r6, [r4, #40]	; 0x28
    91f8:	47b0      	blx	r6
    91fa:	2800      	cmp	r0, #0
    91fc:	dc03      	bgt.n	9206 <__sflush_r+0x106>
    91fe:	2340      	movs	r3, #64	; 0x40
    9200:	89a2      	ldrh	r2, [r4, #12]
    9202:	4313      	orrs	r3, r2
    9204:	e7df      	b.n	91c6 <__sflush_r+0xc6>
    9206:	9b01      	ldr	r3, [sp, #4]
    9208:	183f      	adds	r7, r7, r0
    920a:	1a1b      	subs	r3, r3, r0
    920c:	9301      	str	r3, [sp, #4]
    920e:	e7ea      	b.n	91e6 <__sflush_r+0xe6>
    9210:	20400001 	.word	0x20400001

00009214 <_fflush_r>:
    9214:	690b      	ldr	r3, [r1, #16]
    9216:	b570      	push	{r4, r5, r6, lr}
    9218:	0005      	movs	r5, r0
    921a:	000c      	movs	r4, r1
    921c:	2b00      	cmp	r3, #0
    921e:	d101      	bne.n	9224 <_fflush_r+0x10>
    9220:	2000      	movs	r0, #0
    9222:	bd70      	pop	{r4, r5, r6, pc}
    9224:	2800      	cmp	r0, #0
    9226:	d004      	beq.n	9232 <_fflush_r+0x1e>
    9228:	6983      	ldr	r3, [r0, #24]
    922a:	2b00      	cmp	r3, #0
    922c:	d101      	bne.n	9232 <_fflush_r+0x1e>
    922e:	f000 f85f 	bl	92f0 <__sinit>
    9232:	4b0b      	ldr	r3, [pc, #44]	; (9260 <_fflush_r+0x4c>)
    9234:	429c      	cmp	r4, r3
    9236:	d109      	bne.n	924c <_fflush_r+0x38>
    9238:	686c      	ldr	r4, [r5, #4]
    923a:	220c      	movs	r2, #12
    923c:	5ea3      	ldrsh	r3, [r4, r2]
    923e:	2b00      	cmp	r3, #0
    9240:	d0ee      	beq.n	9220 <_fflush_r+0xc>
    9242:	0021      	movs	r1, r4
    9244:	0028      	movs	r0, r5
    9246:	f7ff ff5b 	bl	9100 <__sflush_r>
    924a:	e7ea      	b.n	9222 <_fflush_r+0xe>
    924c:	4b05      	ldr	r3, [pc, #20]	; (9264 <_fflush_r+0x50>)
    924e:	429c      	cmp	r4, r3
    9250:	d101      	bne.n	9256 <_fflush_r+0x42>
    9252:	68ac      	ldr	r4, [r5, #8]
    9254:	e7f1      	b.n	923a <_fflush_r+0x26>
    9256:	4b04      	ldr	r3, [pc, #16]	; (9268 <_fflush_r+0x54>)
    9258:	429c      	cmp	r4, r3
    925a:	d1ee      	bne.n	923a <_fflush_r+0x26>
    925c:	68ec      	ldr	r4, [r5, #12]
    925e:	e7ec      	b.n	923a <_fflush_r+0x26>
    9260:	0000b110 	.word	0x0000b110
    9264:	0000b130 	.word	0x0000b130
    9268:	0000b0f0 	.word	0x0000b0f0

0000926c <_cleanup_r>:
    926c:	b510      	push	{r4, lr}
    926e:	4902      	ldr	r1, [pc, #8]	; (9278 <_cleanup_r+0xc>)
    9270:	f000 f8b2 	bl	93d8 <_fwalk_reent>
    9274:	bd10      	pop	{r4, pc}
    9276:	46c0      	nop			; (mov r8, r8)
    9278:	00009215 	.word	0x00009215

0000927c <std.isra.0>:
    927c:	2300      	movs	r3, #0
    927e:	b510      	push	{r4, lr}
    9280:	0004      	movs	r4, r0
    9282:	6003      	str	r3, [r0, #0]
    9284:	6043      	str	r3, [r0, #4]
    9286:	6083      	str	r3, [r0, #8]
    9288:	8181      	strh	r1, [r0, #12]
    928a:	6643      	str	r3, [r0, #100]	; 0x64
    928c:	81c2      	strh	r2, [r0, #14]
    928e:	6103      	str	r3, [r0, #16]
    9290:	6143      	str	r3, [r0, #20]
    9292:	6183      	str	r3, [r0, #24]
    9294:	0019      	movs	r1, r3
    9296:	2208      	movs	r2, #8
    9298:	305c      	adds	r0, #92	; 0x5c
    929a:	f7ff fc92 	bl	8bc2 <memset>
    929e:	4b05      	ldr	r3, [pc, #20]	; (92b4 <std.isra.0+0x38>)
    92a0:	6224      	str	r4, [r4, #32]
    92a2:	6263      	str	r3, [r4, #36]	; 0x24
    92a4:	4b04      	ldr	r3, [pc, #16]	; (92b8 <std.isra.0+0x3c>)
    92a6:	62a3      	str	r3, [r4, #40]	; 0x28
    92a8:	4b04      	ldr	r3, [pc, #16]	; (92bc <std.isra.0+0x40>)
    92aa:	62e3      	str	r3, [r4, #44]	; 0x2c
    92ac:	4b04      	ldr	r3, [pc, #16]	; (92c0 <std.isra.0+0x44>)
    92ae:	6323      	str	r3, [r4, #48]	; 0x30
    92b0:	bd10      	pop	{r4, pc}
    92b2:	46c0      	nop			; (mov r8, r8)
    92b4:	00009c81 	.word	0x00009c81
    92b8:	00009ca9 	.word	0x00009ca9
    92bc:	00009ce1 	.word	0x00009ce1
    92c0:	00009d0d 	.word	0x00009d0d

000092c4 <__sfmoreglue>:
    92c4:	b570      	push	{r4, r5, r6, lr}
    92c6:	2568      	movs	r5, #104	; 0x68
    92c8:	1e4a      	subs	r2, r1, #1
    92ca:	4355      	muls	r5, r2
    92cc:	000e      	movs	r6, r1
    92ce:	0029      	movs	r1, r5
    92d0:	3174      	adds	r1, #116	; 0x74
    92d2:	f000 f963 	bl	959c <_malloc_r>
    92d6:	1e04      	subs	r4, r0, #0
    92d8:	d008      	beq.n	92ec <__sfmoreglue+0x28>
    92da:	2100      	movs	r1, #0
    92dc:	002a      	movs	r2, r5
    92de:	6001      	str	r1, [r0, #0]
    92e0:	6046      	str	r6, [r0, #4]
    92e2:	300c      	adds	r0, #12
    92e4:	60a0      	str	r0, [r4, #8]
    92e6:	3268      	adds	r2, #104	; 0x68
    92e8:	f7ff fc6b 	bl	8bc2 <memset>
    92ec:	0020      	movs	r0, r4
    92ee:	bd70      	pop	{r4, r5, r6, pc}

000092f0 <__sinit>:
    92f0:	6983      	ldr	r3, [r0, #24]
    92f2:	b513      	push	{r0, r1, r4, lr}
    92f4:	0004      	movs	r4, r0
    92f6:	2b00      	cmp	r3, #0
    92f8:	d128      	bne.n	934c <__sinit+0x5c>
    92fa:	6483      	str	r3, [r0, #72]	; 0x48
    92fc:	64c3      	str	r3, [r0, #76]	; 0x4c
    92fe:	6503      	str	r3, [r0, #80]	; 0x50
    9300:	4b13      	ldr	r3, [pc, #76]	; (9350 <__sinit+0x60>)
    9302:	4a14      	ldr	r2, [pc, #80]	; (9354 <__sinit+0x64>)
    9304:	681b      	ldr	r3, [r3, #0]
    9306:	6282      	str	r2, [r0, #40]	; 0x28
    9308:	9301      	str	r3, [sp, #4]
    930a:	4298      	cmp	r0, r3
    930c:	d101      	bne.n	9312 <__sinit+0x22>
    930e:	2301      	movs	r3, #1
    9310:	6183      	str	r3, [r0, #24]
    9312:	0020      	movs	r0, r4
    9314:	f000 f820 	bl	9358 <__sfp>
    9318:	6060      	str	r0, [r4, #4]
    931a:	0020      	movs	r0, r4
    931c:	f000 f81c 	bl	9358 <__sfp>
    9320:	60a0      	str	r0, [r4, #8]
    9322:	0020      	movs	r0, r4
    9324:	f000 f818 	bl	9358 <__sfp>
    9328:	2200      	movs	r2, #0
    932a:	60e0      	str	r0, [r4, #12]
    932c:	2104      	movs	r1, #4
    932e:	6860      	ldr	r0, [r4, #4]
    9330:	f7ff ffa4 	bl	927c <std.isra.0>
    9334:	2201      	movs	r2, #1
    9336:	2109      	movs	r1, #9
    9338:	68a0      	ldr	r0, [r4, #8]
    933a:	f7ff ff9f 	bl	927c <std.isra.0>
    933e:	2202      	movs	r2, #2
    9340:	2112      	movs	r1, #18
    9342:	68e0      	ldr	r0, [r4, #12]
    9344:	f7ff ff9a 	bl	927c <std.isra.0>
    9348:	2301      	movs	r3, #1
    934a:	61a3      	str	r3, [r4, #24]
    934c:	bd13      	pop	{r0, r1, r4, pc}
    934e:	46c0      	nop			; (mov r8, r8)
    9350:	0000b0ec 	.word	0x0000b0ec
    9354:	0000926d 	.word	0x0000926d

00009358 <__sfp>:
    9358:	b5f8      	push	{r3, r4, r5, r6, r7, lr}
    935a:	4b1e      	ldr	r3, [pc, #120]	; (93d4 <__sfp+0x7c>)
    935c:	0007      	movs	r7, r0
    935e:	681e      	ldr	r6, [r3, #0]
    9360:	69b3      	ldr	r3, [r6, #24]
    9362:	2b00      	cmp	r3, #0
    9364:	d102      	bne.n	936c <__sfp+0x14>
    9366:	0030      	movs	r0, r6
    9368:	f7ff ffc2 	bl	92f0 <__sinit>
    936c:	3648      	adds	r6, #72	; 0x48
    936e:	68b4      	ldr	r4, [r6, #8]
    9370:	6873      	ldr	r3, [r6, #4]
    9372:	3b01      	subs	r3, #1
    9374:	d504      	bpl.n	9380 <__sfp+0x28>
    9376:	6833      	ldr	r3, [r6, #0]
    9378:	2b00      	cmp	r3, #0
    937a:	d007      	beq.n	938c <__sfp+0x34>
    937c:	6836      	ldr	r6, [r6, #0]
    937e:	e7f6      	b.n	936e <__sfp+0x16>
    9380:	220c      	movs	r2, #12
    9382:	5ea5      	ldrsh	r5, [r4, r2]
    9384:	2d00      	cmp	r5, #0
    9386:	d00d      	beq.n	93a4 <__sfp+0x4c>
    9388:	3468      	adds	r4, #104	; 0x68
    938a:	e7f2      	b.n	9372 <__sfp+0x1a>
    938c:	2104      	movs	r1, #4
    938e:	0038      	movs	r0, r7
    9390:	f7ff ff98 	bl	92c4 <__sfmoreglue>
    9394:	6030      	str	r0, [r6, #0]
    9396:	2800      	cmp	r0, #0
    9398:	d1f0      	bne.n	937c <__sfp+0x24>
    939a:	230c      	movs	r3, #12
    939c:	0004      	movs	r4, r0
    939e:	603b      	str	r3, [r7, #0]
    93a0:	0020      	movs	r0, r4
    93a2:	bdf8      	pop	{r3, r4, r5, r6, r7, pc}
    93a4:	2301      	movs	r3, #1
    93a6:	0020      	movs	r0, r4
    93a8:	425b      	negs	r3, r3
    93aa:	81e3      	strh	r3, [r4, #14]
    93ac:	3302      	adds	r3, #2
    93ae:	81a3      	strh	r3, [r4, #12]
    93b0:	6665      	str	r5, [r4, #100]	; 0x64
    93b2:	6025      	str	r5, [r4, #0]
    93b4:	60a5      	str	r5, [r4, #8]
    93b6:	6065      	str	r5, [r4, #4]
    93b8:	6125      	str	r5, [r4, #16]
    93ba:	6165      	str	r5, [r4, #20]
    93bc:	61a5      	str	r5, [r4, #24]
    93be:	2208      	movs	r2, #8
    93c0:	0029      	movs	r1, r5
    93c2:	305c      	adds	r0, #92	; 0x5c
    93c4:	f7ff fbfd 	bl	8bc2 <memset>
    93c8:	6365      	str	r5, [r4, #52]	; 0x34
    93ca:	63a5      	str	r5, [r4, #56]	; 0x38
    93cc:	64a5      	str	r5, [r4, #72]	; 0x48
    93ce:	64e5      	str	r5, [r4, #76]	; 0x4c
    93d0:	e7e6      	b.n	93a0 <__sfp+0x48>
    93d2:	46c0      	nop			; (mov r8, r8)
    93d4:	0000b0ec 	.word	0x0000b0ec

000093d8 <_fwalk_reent>:
    93d8:	b5f7      	push	{r0, r1, r2, r4, r5, r6, r7, lr}
    93da:	0004      	movs	r4, r0
    93dc:	0007      	movs	r7, r0
    93de:	2600      	movs	r6, #0
    93e0:	9101      	str	r1, [sp, #4]
    93e2:	3448      	adds	r4, #72	; 0x48
    93e4:	2c00      	cmp	r4, #0
    93e6:	d101      	bne.n	93ec <_fwalk_reent+0x14>
    93e8:	0030      	movs	r0, r6
    93ea:	bdfe      	pop	{r1, r2, r3, r4, r5, r6, r7, pc}
    93ec:	6863      	ldr	r3, [r4, #4]
    93ee:	68a5      	ldr	r5, [r4, #8]
    93f0:	9300      	str	r3, [sp, #0]
    93f2:	9b00      	ldr	r3, [sp, #0]
    93f4:	3b01      	subs	r3, #1
    93f6:	9300      	str	r3, [sp, #0]
    93f8:	d501      	bpl.n	93fe <_fwalk_reent+0x26>
    93fa:	6824      	ldr	r4, [r4, #0]
    93fc:	e7f2      	b.n	93e4 <_fwalk_reent+0xc>
    93fe:	89ab      	ldrh	r3, [r5, #12]
    9400:	2b01      	cmp	r3, #1
    9402:	d908      	bls.n	9416 <_fwalk_reent+0x3e>
    9404:	220e      	movs	r2, #14
    9406:	5eab      	ldrsh	r3, [r5, r2]
    9408:	3301      	adds	r3, #1
    940a:	d004      	beq.n	9416 <_fwalk_reent+0x3e>
    940c:	0029      	movs	r1, r5
    940e:	0038      	movs	r0, r7
    9410:	9b01      	ldr	r3, [sp, #4]
    9412:	4798      	blx	r3
    9414:	4306      	orrs	r6, r0
    9416:	3568      	adds	r5, #104	; 0x68
    9418:	e7eb      	b.n	93f2 <_fwalk_reent+0x1a>
	...

0000941c <__swhatbuf_r>:
    941c:	b570      	push	{r4, r5, r6, lr}
    941e:	000e      	movs	r6, r1
    9420:	001d      	movs	r5, r3
    9422:	230e      	movs	r3, #14
    9424:	5ec9      	ldrsh	r1, [r1, r3]
    9426:	b090      	sub	sp, #64	; 0x40
    9428:	0014      	movs	r4, r2
    942a:	2900      	cmp	r1, #0
    942c:	da07      	bge.n	943e <__swhatbuf_r+0x22>
    942e:	2300      	movs	r3, #0
    9430:	602b      	str	r3, [r5, #0]
    9432:	89b3      	ldrh	r3, [r6, #12]
    9434:	061b      	lsls	r3, r3, #24
    9436:	d411      	bmi.n	945c <__swhatbuf_r+0x40>
    9438:	2380      	movs	r3, #128	; 0x80
    943a:	00db      	lsls	r3, r3, #3
    943c:	e00f      	b.n	945e <__swhatbuf_r+0x42>
    943e:	aa01      	add	r2, sp, #4
    9440:	f000 fc90 	bl	9d64 <_fstat_r>
    9444:	2800      	cmp	r0, #0
    9446:	dbf2      	blt.n	942e <__swhatbuf_r+0x12>
    9448:	22f0      	movs	r2, #240	; 0xf0
    944a:	9b02      	ldr	r3, [sp, #8]
    944c:	0212      	lsls	r2, r2, #8
    944e:	4013      	ands	r3, r2
    9450:	4a05      	ldr	r2, [pc, #20]	; (9468 <__swhatbuf_r+0x4c>)
    9452:	189b      	adds	r3, r3, r2
    9454:	425a      	negs	r2, r3
    9456:	4153      	adcs	r3, r2
    9458:	602b      	str	r3, [r5, #0]
    945a:	e7ed      	b.n	9438 <__swhatbuf_r+0x1c>
    945c:	2340      	movs	r3, #64	; 0x40
    945e:	2000      	movs	r0, #0
    9460:	6023      	str	r3, [r4, #0]
    9462:	b010      	add	sp, #64	; 0x40
    9464:	bd70      	pop	{r4, r5, r6, pc}
    9466:	46c0      	nop			; (mov r8, r8)
    9468:	ffffe000 	.word	0xffffe000

0000946c <__smakebuf_r>:
    946c:	b5f7      	push	{r0, r1, r2, r4, r5, r6, r7, lr}
    946e:	2602      	movs	r6, #2
    9470:	898b      	ldrh	r3, [r1, #12]
    9472:	0005      	movs	r5, r0
    9474:	000c      	movs	r4, r1
    9476:	4233      	tst	r3, r6
    9478:	d006      	beq.n	9488 <__smakebuf_r+0x1c>
    947a:	0023      	movs	r3, r4
    947c:	3347      	adds	r3, #71	; 0x47
    947e:	6023      	str	r3, [r4, #0]
    9480:	6123      	str	r3, [r4, #16]
    9482:	2301      	movs	r3, #1
    9484:	6163      	str	r3, [r4, #20]
    9486:	bdf7      	pop	{r0, r1, r2, r4, r5, r6, r7, pc}
    9488:	ab01      	add	r3, sp, #4
    948a:	466a      	mov	r2, sp
    948c:	f7ff ffc6 	bl	941c <__swhatbuf_r>
    9490:	9900      	ldr	r1, [sp, #0]
    9492:	0007      	movs	r7, r0
    9494:	0028      	movs	r0, r5
    9496:	f000 f881 	bl	959c <_malloc_r>
    949a:	2800      	cmp	r0, #0
    949c:	d108      	bne.n	94b0 <__smakebuf_r+0x44>
    949e:	220c      	movs	r2, #12
    94a0:	5ea3      	ldrsh	r3, [r4, r2]
    94a2:	059a      	lsls	r2, r3, #22
    94a4:	d4ef      	bmi.n	9486 <__smakebuf_r+0x1a>
    94a6:	2203      	movs	r2, #3
    94a8:	4393      	bics	r3, r2
    94aa:	431e      	orrs	r6, r3
    94ac:	81a6      	strh	r6, [r4, #12]
    94ae:	e7e4      	b.n	947a <__smakebuf_r+0xe>
    94b0:	4b0f      	ldr	r3, [pc, #60]	; (94f0 <__smakebuf_r+0x84>)
    94b2:	62ab      	str	r3, [r5, #40]	; 0x28
    94b4:	2380      	movs	r3, #128	; 0x80
    94b6:	89a2      	ldrh	r2, [r4, #12]
    94b8:	6020      	str	r0, [r4, #0]
    94ba:	4313      	orrs	r3, r2
    94bc:	81a3      	strh	r3, [r4, #12]
    94be:	9b00      	ldr	r3, [sp, #0]
    94c0:	6120      	str	r0, [r4, #16]
    94c2:	6163      	str	r3, [r4, #20]
    94c4:	9b01      	ldr	r3, [sp, #4]
    94c6:	2b00      	cmp	r3, #0
    94c8:	d00d      	beq.n	94e6 <__smakebuf_r+0x7a>
    94ca:	230e      	movs	r3, #14
    94cc:	5ee1      	ldrsh	r1, [r4, r3]
    94ce:	0028      	movs	r0, r5
    94d0:	f000 fc5a 	bl	9d88 <_isatty_r>
    94d4:	2800      	cmp	r0, #0
    94d6:	d006      	beq.n	94e6 <__smakebuf_r+0x7a>
    94d8:	2203      	movs	r2, #3
    94da:	89a3      	ldrh	r3, [r4, #12]
    94dc:	4393      	bics	r3, r2
    94de:	001a      	movs	r2, r3
    94e0:	2301      	movs	r3, #1
    94e2:	4313      	orrs	r3, r2
    94e4:	81a3      	strh	r3, [r4, #12]
    94e6:	89a0      	ldrh	r0, [r4, #12]
    94e8:	4338      	orrs	r0, r7
    94ea:	81a0      	strh	r0, [r4, #12]
    94ec:	e7cb      	b.n	9486 <__smakebuf_r+0x1a>
    94ee:	46c0      	nop			; (mov r8, r8)
    94f0:	0000926d 	.word	0x0000926d

000094f4 <malloc>:
    94f4:	b510      	push	{r4, lr}
    94f6:	4b03      	ldr	r3, [pc, #12]	; (9504 <malloc+0x10>)
    94f8:	0001      	movs	r1, r0
    94fa:	6818      	ldr	r0, [r3, #0]
    94fc:	f000 f84e 	bl	959c <_malloc_r>
    9500:	bd10      	pop	{r4, pc}
    9502:	46c0      	nop			; (mov r8, r8)
    9504:	20000030 	.word	0x20000030

00009508 <_free_r>:
    9508:	b570      	push	{r4, r5, r6, lr}
    950a:	0005      	movs	r5, r0
    950c:	2900      	cmp	r1, #0
    950e:	d010      	beq.n	9532 <_free_r+0x2a>
    9510:	1f0c      	subs	r4, r1, #4
    9512:	6823      	ldr	r3, [r4, #0]
    9514:	2b00      	cmp	r3, #0
    9516:	da00      	bge.n	951a <_free_r+0x12>
    9518:	18e4      	adds	r4, r4, r3
    951a:	0028      	movs	r0, r5
    951c:	f000 fc65 	bl	9dea <__malloc_lock>
    9520:	4a1d      	ldr	r2, [pc, #116]	; (9598 <_free_r+0x90>)
    9522:	6813      	ldr	r3, [r2, #0]
    9524:	2b00      	cmp	r3, #0
    9526:	d105      	bne.n	9534 <_free_r+0x2c>
    9528:	6063      	str	r3, [r4, #4]
    952a:	6014      	str	r4, [r2, #0]
    952c:	0028      	movs	r0, r5
    952e:	f000 fc5d 	bl	9dec <__malloc_unlock>
    9532:	bd70      	pop	{r4, r5, r6, pc}
    9534:	42a3      	cmp	r3, r4
    9536:	d909      	bls.n	954c <_free_r+0x44>
    9538:	6821      	ldr	r1, [r4, #0]
    953a:	1860      	adds	r0, r4, r1
    953c:	4283      	cmp	r3, r0
    953e:	d1f3      	bne.n	9528 <_free_r+0x20>
    9540:	6818      	ldr	r0, [r3, #0]
    9542:	685b      	ldr	r3, [r3, #4]
    9544:	1841      	adds	r1, r0, r1
    9546:	6021      	str	r1, [r4, #0]
    9548:	e7ee      	b.n	9528 <_free_r+0x20>
    954a:	0013      	movs	r3, r2
    954c:	685a      	ldr	r2, [r3, #4]
    954e:	2a00      	cmp	r2, #0
    9550:	d001      	beq.n	9556 <_free_r+0x4e>
    9552:	42a2      	cmp	r2, r4
    9554:	d9f9      	bls.n	954a <_free_r+0x42>
    9556:	6819      	ldr	r1, [r3, #0]
    9558:	1858      	adds	r0, r3, r1
    955a:	42a0      	cmp	r0, r4
    955c:	d10b      	bne.n	9576 <_free_r+0x6e>
    955e:	6820      	ldr	r0, [r4, #0]
    9560:	1809      	adds	r1, r1, r0
    9562:	1858      	adds	r0, r3, r1
    9564:	6019      	str	r1, [r3, #0]
    9566:	4282      	cmp	r2, r0
    9568:	d1e0      	bne.n	952c <_free_r+0x24>
    956a:	6810      	ldr	r0, [r2, #0]
    956c:	6852      	ldr	r2, [r2, #4]
    956e:	1841      	adds	r1, r0, r1
    9570:	6019      	str	r1, [r3, #0]
    9572:	605a      	str	r2, [r3, #4]
    9574:	e7da      	b.n	952c <_free_r+0x24>
    9576:	42a0      	cmp	r0, r4
    9578:	d902      	bls.n	9580 <_free_r+0x78>
    957a:	230c      	movs	r3, #12
    957c:	602b      	str	r3, [r5, #0]
    957e:	e7d5      	b.n	952c <_free_r+0x24>
    9580:	6821      	ldr	r1, [r4, #0]
    9582:	1860      	adds	r0, r4, r1
    9584:	4282      	cmp	r2, r0
    9586:	d103      	bne.n	9590 <_free_r+0x88>
    9588:	6810      	ldr	r0, [r2, #0]
    958a:	6852      	ldr	r2, [r2, #4]
    958c:	1841      	adds	r1, r0, r1
    958e:	6021      	str	r1, [r4, #0]
    9590:	6062      	str	r2, [r4, #4]
    9592:	605c      	str	r4, [r3, #4]
    9594:	e7ca      	b.n	952c <_free_r+0x24>
    9596:	46c0      	nop			; (mov r8, r8)
    9598:	200009d4 	.word	0x200009d4

0000959c <_malloc_r>:
    959c:	2303      	movs	r3, #3
    959e:	b570      	push	{r4, r5, r6, lr}
    95a0:	1ccd      	adds	r5, r1, #3
    95a2:	439d      	bics	r5, r3
    95a4:	3508      	adds	r5, #8
    95a6:	0006      	movs	r6, r0
    95a8:	2d0c      	cmp	r5, #12
    95aa:	d21e      	bcs.n	95ea <_malloc_r+0x4e>
    95ac:	250c      	movs	r5, #12
    95ae:	42a9      	cmp	r1, r5
    95b0:	d81d      	bhi.n	95ee <_malloc_r+0x52>
    95b2:	0030      	movs	r0, r6
    95b4:	f000 fc19 	bl	9dea <__malloc_lock>
    95b8:	4a25      	ldr	r2, [pc, #148]	; (9650 <_malloc_r+0xb4>)
    95ba:	6814      	ldr	r4, [r2, #0]
    95bc:	0021      	movs	r1, r4
    95be:	2900      	cmp	r1, #0
    95c0:	d119      	bne.n	95f6 <_malloc_r+0x5a>
    95c2:	4c24      	ldr	r4, [pc, #144]	; (9654 <_malloc_r+0xb8>)
    95c4:	6823      	ldr	r3, [r4, #0]
    95c6:	2b00      	cmp	r3, #0
    95c8:	d103      	bne.n	95d2 <_malloc_r+0x36>
    95ca:	0030      	movs	r0, r6
    95cc:	f000 fb46 	bl	9c5c <_sbrk_r>
    95d0:	6020      	str	r0, [r4, #0]
    95d2:	0029      	movs	r1, r5
    95d4:	0030      	movs	r0, r6
    95d6:	f000 fb41 	bl	9c5c <_sbrk_r>
    95da:	1c43      	adds	r3, r0, #1
    95dc:	d12c      	bne.n	9638 <_malloc_r+0x9c>
    95de:	230c      	movs	r3, #12
    95e0:	0030      	movs	r0, r6
    95e2:	6033      	str	r3, [r6, #0]
    95e4:	f000 fc02 	bl	9dec <__malloc_unlock>
    95e8:	e003      	b.n	95f2 <_malloc_r+0x56>
    95ea:	2d00      	cmp	r5, #0
    95ec:	dadf      	bge.n	95ae <_malloc_r+0x12>
    95ee:	230c      	movs	r3, #12
    95f0:	6033      	str	r3, [r6, #0]
    95f2:	2000      	movs	r0, #0
    95f4:	bd70      	pop	{r4, r5, r6, pc}
    95f6:	680b      	ldr	r3, [r1, #0]
    95f8:	1b5b      	subs	r3, r3, r5
    95fa:	d41a      	bmi.n	9632 <_malloc_r+0x96>
    95fc:	2b0b      	cmp	r3, #11
    95fe:	d903      	bls.n	9608 <_malloc_r+0x6c>
    9600:	600b      	str	r3, [r1, #0]
    9602:	18cc      	adds	r4, r1, r3
    9604:	6025      	str	r5, [r4, #0]
    9606:	e003      	b.n	9610 <_malloc_r+0x74>
    9608:	428c      	cmp	r4, r1
    960a:	d10e      	bne.n	962a <_malloc_r+0x8e>
    960c:	6863      	ldr	r3, [r4, #4]
    960e:	6013      	str	r3, [r2, #0]
    9610:	0030      	movs	r0, r6
    9612:	f000 fbeb 	bl	9dec <__malloc_unlock>
    9616:	0020      	movs	r0, r4
    9618:	2207      	movs	r2, #7
    961a:	300b      	adds	r0, #11
    961c:	1d23      	adds	r3, r4, #4
    961e:	4390      	bics	r0, r2
    9620:	1ac3      	subs	r3, r0, r3
    9622:	d0e7      	beq.n	95f4 <_malloc_r+0x58>
    9624:	425a      	negs	r2, r3
    9626:	50e2      	str	r2, [r4, r3]
    9628:	e7e4      	b.n	95f4 <_malloc_r+0x58>
    962a:	684b      	ldr	r3, [r1, #4]
    962c:	6063      	str	r3, [r4, #4]
    962e:	000c      	movs	r4, r1
    9630:	e7ee      	b.n	9610 <_malloc_r+0x74>
    9632:	000c      	movs	r4, r1
    9634:	6849      	ldr	r1, [r1, #4]
    9636:	e7c2      	b.n	95be <_malloc_r+0x22>
    9638:	2303      	movs	r3, #3
    963a:	1cc4      	adds	r4, r0, #3
    963c:	439c      	bics	r4, r3
    963e:	42a0      	cmp	r0, r4
    9640:	d0e0      	beq.n	9604 <_malloc_r+0x68>
    9642:	1a21      	subs	r1, r4, r0
    9644:	0030      	movs	r0, r6
    9646:	f000 fb09 	bl	9c5c <_sbrk_r>
    964a:	1c43      	adds	r3, r0, #1
    964c:	d1da      	bne.n	9604 <_malloc_r+0x68>
    964e:	e7c6      	b.n	95de <_malloc_r+0x42>
    9650:	200009d4 	.word	0x200009d4
    9654:	200009d8 	.word	0x200009d8

00009658 <__sfputc_r>:
    9658:	6893      	ldr	r3, [r2, #8]
    965a:	b510      	push	{r4, lr}
    965c:	3b01      	subs	r3, #1
    965e:	6093      	str	r3, [r2, #8]
    9660:	2b00      	cmp	r3, #0
    9662:	da05      	bge.n	9670 <__sfputc_r+0x18>
    9664:	6994      	ldr	r4, [r2, #24]
    9666:	42a3      	cmp	r3, r4
    9668:	db08      	blt.n	967c <__sfputc_r+0x24>
    966a:	b2cb      	uxtb	r3, r1
    966c:	2b0a      	cmp	r3, #10
    966e:	d005      	beq.n	967c <__sfputc_r+0x24>
    9670:	6813      	ldr	r3, [r2, #0]
    9672:	1c58      	adds	r0, r3, #1
    9674:	6010      	str	r0, [r2, #0]
    9676:	7019      	strb	r1, [r3, #0]
    9678:	b2c8      	uxtb	r0, r1
    967a:	bd10      	pop	{r4, pc}
    967c:	f7ff fc74 	bl	8f68 <__swbuf_r>
    9680:	e7fb      	b.n	967a <__sfputc_r+0x22>

00009682 <__sfputs_r>:
    9682:	b5f8      	push	{r3, r4, r5, r6, r7, lr}
    9684:	0006      	movs	r6, r0
    9686:	000f      	movs	r7, r1
    9688:	0014      	movs	r4, r2
    968a:	18d5      	adds	r5, r2, r3
    968c:	42ac      	cmp	r4, r5
    968e:	d101      	bne.n	9694 <__sfputs_r+0x12>
    9690:	2000      	movs	r0, #0
    9692:	e007      	b.n	96a4 <__sfputs_r+0x22>
    9694:	7821      	ldrb	r1, [r4, #0]
    9696:	003a      	movs	r2, r7
    9698:	0030      	movs	r0, r6
    969a:	f7ff ffdd 	bl	9658 <__sfputc_r>
    969e:	3401      	adds	r4, #1
    96a0:	1c43      	adds	r3, r0, #1
    96a2:	d1f3      	bne.n	968c <__sfputs_r+0xa>
    96a4:	bdf8      	pop	{r3, r4, r5, r6, r7, pc}
	...

000096a8 <_vfiprintf_r>:
    96a8:	b5f0      	push	{r4, r5, r6, r7, lr}
    96aa:	b09f      	sub	sp, #124	; 0x7c
    96ac:	0006      	movs	r6, r0
    96ae:	000f      	movs	r7, r1
    96b0:	0014      	movs	r4, r2
    96b2:	9305      	str	r3, [sp, #20]
    96b4:	2800      	cmp	r0, #0
    96b6:	d004      	beq.n	96c2 <_vfiprintf_r+0x1a>
    96b8:	6983      	ldr	r3, [r0, #24]
    96ba:	2b00      	cmp	r3, #0
    96bc:	d101      	bne.n	96c2 <_vfiprintf_r+0x1a>
    96be:	f7ff fe17 	bl	92f0 <__sinit>
    96c2:	4b7f      	ldr	r3, [pc, #508]	; (98c0 <_vfiprintf_r+0x218>)
    96c4:	429f      	cmp	r7, r3
    96c6:	d15c      	bne.n	9782 <_vfiprintf_r+0xda>
    96c8:	6877      	ldr	r7, [r6, #4]
    96ca:	89bb      	ldrh	r3, [r7, #12]
    96cc:	071b      	lsls	r3, r3, #28
    96ce:	d562      	bpl.n	9796 <_vfiprintf_r+0xee>
    96d0:	693b      	ldr	r3, [r7, #16]
    96d2:	2b00      	cmp	r3, #0
    96d4:	d05f      	beq.n	9796 <_vfiprintf_r+0xee>
    96d6:	2300      	movs	r3, #0
    96d8:	ad06      	add	r5, sp, #24
    96da:	616b      	str	r3, [r5, #20]
    96dc:	3320      	adds	r3, #32
    96de:	766b      	strb	r3, [r5, #25]
    96e0:	3310      	adds	r3, #16
    96e2:	76ab      	strb	r3, [r5, #26]
    96e4:	9402      	str	r4, [sp, #8]
    96e6:	9c02      	ldr	r4, [sp, #8]
    96e8:	7823      	ldrb	r3, [r4, #0]
    96ea:	2b00      	cmp	r3, #0
    96ec:	d15d      	bne.n	97aa <_vfiprintf_r+0x102>
    96ee:	9b02      	ldr	r3, [sp, #8]
    96f0:	1ae3      	subs	r3, r4, r3
    96f2:	9304      	str	r3, [sp, #16]
    96f4:	d00d      	beq.n	9712 <_vfiprintf_r+0x6a>
    96f6:	9b04      	ldr	r3, [sp, #16]
    96f8:	9a02      	ldr	r2, [sp, #8]
    96fa:	0039      	movs	r1, r7
    96fc:	0030      	movs	r0, r6
    96fe:	f7ff ffc0 	bl	9682 <__sfputs_r>
    9702:	1c43      	adds	r3, r0, #1
    9704:	d100      	bne.n	9708 <_vfiprintf_r+0x60>
    9706:	e0cc      	b.n	98a2 <_vfiprintf_r+0x1fa>
    9708:	696a      	ldr	r2, [r5, #20]
    970a:	9b04      	ldr	r3, [sp, #16]
    970c:	4694      	mov	ip, r2
    970e:	4463      	add	r3, ip
    9710:	616b      	str	r3, [r5, #20]
    9712:	7823      	ldrb	r3, [r4, #0]
    9714:	2b00      	cmp	r3, #0
    9716:	d100      	bne.n	971a <_vfiprintf_r+0x72>
    9718:	e0c3      	b.n	98a2 <_vfiprintf_r+0x1fa>
    971a:	2201      	movs	r2, #1
    971c:	2300      	movs	r3, #0
    971e:	4252      	negs	r2, r2
    9720:	606a      	str	r2, [r5, #4]
    9722:	a902      	add	r1, sp, #8
    9724:	3254      	adds	r2, #84	; 0x54
    9726:	1852      	adds	r2, r2, r1
    9728:	3401      	adds	r4, #1
    972a:	602b      	str	r3, [r5, #0]
    972c:	60eb      	str	r3, [r5, #12]
    972e:	60ab      	str	r3, [r5, #8]
    9730:	7013      	strb	r3, [r2, #0]
    9732:	65ab      	str	r3, [r5, #88]	; 0x58
    9734:	7821      	ldrb	r1, [r4, #0]
    9736:	2205      	movs	r2, #5
    9738:	4862      	ldr	r0, [pc, #392]	; (98c4 <_vfiprintf_r+0x21c>)
    973a:	f000 fb4b 	bl	9dd4 <memchr>
    973e:	1c63      	adds	r3, r4, #1
    9740:	469c      	mov	ip, r3
    9742:	2800      	cmp	r0, #0
    9744:	d135      	bne.n	97b2 <_vfiprintf_r+0x10a>
    9746:	6829      	ldr	r1, [r5, #0]
    9748:	06cb      	lsls	r3, r1, #27
    974a:	d504      	bpl.n	9756 <_vfiprintf_r+0xae>
    974c:	2353      	movs	r3, #83	; 0x53
    974e:	aa02      	add	r2, sp, #8
    9750:	3020      	adds	r0, #32
    9752:	189b      	adds	r3, r3, r2
    9754:	7018      	strb	r0, [r3, #0]
    9756:	070b      	lsls	r3, r1, #28
    9758:	d504      	bpl.n	9764 <_vfiprintf_r+0xbc>
    975a:	2353      	movs	r3, #83	; 0x53
    975c:	202b      	movs	r0, #43	; 0x2b
    975e:	aa02      	add	r2, sp, #8
    9760:	189b      	adds	r3, r3, r2
    9762:	7018      	strb	r0, [r3, #0]
    9764:	7823      	ldrb	r3, [r4, #0]
    9766:	2b2a      	cmp	r3, #42	; 0x2a
    9768:	d02c      	beq.n	97c4 <_vfiprintf_r+0x11c>
    976a:	2000      	movs	r0, #0
    976c:	210a      	movs	r1, #10
    976e:	9b09      	ldr	r3, [sp, #36]	; 0x24
    9770:	7822      	ldrb	r2, [r4, #0]
    9772:	3a30      	subs	r2, #48	; 0x30
    9774:	2a09      	cmp	r2, #9
    9776:	d800      	bhi.n	977a <_vfiprintf_r+0xd2>
    9778:	e06b      	b.n	9852 <_vfiprintf_r+0x1aa>
    977a:	2800      	cmp	r0, #0
    977c:	d02a      	beq.n	97d4 <_vfiprintf_r+0x12c>
    977e:	9309      	str	r3, [sp, #36]	; 0x24
    9780:	e028      	b.n	97d4 <_vfiprintf_r+0x12c>
    9782:	4b51      	ldr	r3, [pc, #324]	; (98c8 <_vfiprintf_r+0x220>)
    9784:	429f      	cmp	r7, r3
    9786:	d101      	bne.n	978c <_vfiprintf_r+0xe4>
    9788:	68b7      	ldr	r7, [r6, #8]
    978a:	e79e      	b.n	96ca <_vfiprintf_r+0x22>
    978c:	4b4f      	ldr	r3, [pc, #316]	; (98cc <_vfiprintf_r+0x224>)
    978e:	429f      	cmp	r7, r3
    9790:	d19b      	bne.n	96ca <_vfiprintf_r+0x22>
    9792:	68f7      	ldr	r7, [r6, #12]
    9794:	e799      	b.n	96ca <_vfiprintf_r+0x22>
    9796:	0039      	movs	r1, r7
    9798:	0030      	movs	r0, r6
    979a:	f7ff fc3b 	bl	9014 <__swsetup_r>
    979e:	2800      	cmp	r0, #0
    97a0:	d099      	beq.n	96d6 <_vfiprintf_r+0x2e>
    97a2:	2001      	movs	r0, #1
    97a4:	4240      	negs	r0, r0
    97a6:	b01f      	add	sp, #124	; 0x7c
    97a8:	bdf0      	pop	{r4, r5, r6, r7, pc}
    97aa:	2b25      	cmp	r3, #37	; 0x25
    97ac:	d09f      	beq.n	96ee <_vfiprintf_r+0x46>
    97ae:	3401      	adds	r4, #1
    97b0:	e79a      	b.n	96e8 <_vfiprintf_r+0x40>
    97b2:	4b44      	ldr	r3, [pc, #272]	; (98c4 <_vfiprintf_r+0x21c>)
    97b4:	6829      	ldr	r1, [r5, #0]
    97b6:	1ac0      	subs	r0, r0, r3
    97b8:	2301      	movs	r3, #1
    97ba:	4083      	lsls	r3, r0
    97bc:	430b      	orrs	r3, r1
    97be:	602b      	str	r3, [r5, #0]
    97c0:	4664      	mov	r4, ip
    97c2:	e7b7      	b.n	9734 <_vfiprintf_r+0x8c>
    97c4:	9b05      	ldr	r3, [sp, #20]
    97c6:	1d18      	adds	r0, r3, #4
    97c8:	681b      	ldr	r3, [r3, #0]
    97ca:	9005      	str	r0, [sp, #20]
    97cc:	2b00      	cmp	r3, #0
    97ce:	db3a      	blt.n	9846 <_vfiprintf_r+0x19e>
    97d0:	9309      	str	r3, [sp, #36]	; 0x24
    97d2:	4664      	mov	r4, ip
    97d4:	7823      	ldrb	r3, [r4, #0]
    97d6:	2b2e      	cmp	r3, #46	; 0x2e
    97d8:	d10b      	bne.n	97f2 <_vfiprintf_r+0x14a>
    97da:	7863      	ldrb	r3, [r4, #1]
    97dc:	1c62      	adds	r2, r4, #1
    97de:	2b2a      	cmp	r3, #42	; 0x2a
    97e0:	d13f      	bne.n	9862 <_vfiprintf_r+0x1ba>
    97e2:	9b05      	ldr	r3, [sp, #20]
    97e4:	3402      	adds	r4, #2
    97e6:	1d1a      	adds	r2, r3, #4
    97e8:	681b      	ldr	r3, [r3, #0]
    97ea:	9205      	str	r2, [sp, #20]
    97ec:	2b00      	cmp	r3, #0
    97ee:	db35      	blt.n	985c <_vfiprintf_r+0x1b4>
    97f0:	9307      	str	r3, [sp, #28]
    97f2:	7821      	ldrb	r1, [r4, #0]
    97f4:	2203      	movs	r2, #3
    97f6:	4836      	ldr	r0, [pc, #216]	; (98d0 <_vfiprintf_r+0x228>)
    97f8:	f000 faec 	bl	9dd4 <memchr>
    97fc:	2800      	cmp	r0, #0
    97fe:	d007      	beq.n	9810 <_vfiprintf_r+0x168>
    9800:	4b33      	ldr	r3, [pc, #204]	; (98d0 <_vfiprintf_r+0x228>)
    9802:	682a      	ldr	r2, [r5, #0]
    9804:	1ac0      	subs	r0, r0, r3
    9806:	2340      	movs	r3, #64	; 0x40
    9808:	4083      	lsls	r3, r0
    980a:	4313      	orrs	r3, r2
    980c:	602b      	str	r3, [r5, #0]
    980e:	3401      	adds	r4, #1
    9810:	7821      	ldrb	r1, [r4, #0]
    9812:	1c63      	adds	r3, r4, #1
    9814:	2206      	movs	r2, #6
    9816:	482f      	ldr	r0, [pc, #188]	; (98d4 <_vfiprintf_r+0x22c>)
    9818:	9302      	str	r3, [sp, #8]
    981a:	7629      	strb	r1, [r5, #24]
    981c:	f000 fada 	bl	9dd4 <memchr>
    9820:	2800      	cmp	r0, #0
    9822:	d044      	beq.n	98ae <_vfiprintf_r+0x206>
    9824:	4b2c      	ldr	r3, [pc, #176]	; (98d8 <_vfiprintf_r+0x230>)
    9826:	2b00      	cmp	r3, #0
    9828:	d12f      	bne.n	988a <_vfiprintf_r+0x1e2>
    982a:	6829      	ldr	r1, [r5, #0]
    982c:	9b05      	ldr	r3, [sp, #20]
    982e:	2207      	movs	r2, #7
    9830:	05c9      	lsls	r1, r1, #23
    9832:	d528      	bpl.n	9886 <_vfiprintf_r+0x1de>
    9834:	189b      	adds	r3, r3, r2
    9836:	4393      	bics	r3, r2
    9838:	3308      	adds	r3, #8
    983a:	9305      	str	r3, [sp, #20]
    983c:	696b      	ldr	r3, [r5, #20]
    983e:	9a03      	ldr	r2, [sp, #12]
    9840:	189b      	adds	r3, r3, r2
    9842:	616b      	str	r3, [r5, #20]
    9844:	e74f      	b.n	96e6 <_vfiprintf_r+0x3e>
    9846:	425b      	negs	r3, r3
    9848:	60eb      	str	r3, [r5, #12]
    984a:	2302      	movs	r3, #2
    984c:	430b      	orrs	r3, r1
    984e:	602b      	str	r3, [r5, #0]
    9850:	e7bf      	b.n	97d2 <_vfiprintf_r+0x12a>
    9852:	434b      	muls	r3, r1
    9854:	3401      	adds	r4, #1
    9856:	189b      	adds	r3, r3, r2
    9858:	2001      	movs	r0, #1
    985a:	e789      	b.n	9770 <_vfiprintf_r+0xc8>
    985c:	2301      	movs	r3, #1
    985e:	425b      	negs	r3, r3
    9860:	e7c6      	b.n	97f0 <_vfiprintf_r+0x148>
    9862:	2300      	movs	r3, #0
    9864:	0014      	movs	r4, r2
    9866:	200a      	movs	r0, #10
    9868:	001a      	movs	r2, r3
    986a:	606b      	str	r3, [r5, #4]
    986c:	7821      	ldrb	r1, [r4, #0]
    986e:	3930      	subs	r1, #48	; 0x30
    9870:	2909      	cmp	r1, #9
    9872:	d903      	bls.n	987c <_vfiprintf_r+0x1d4>
    9874:	2b00      	cmp	r3, #0
    9876:	d0bc      	beq.n	97f2 <_vfiprintf_r+0x14a>
    9878:	9207      	str	r2, [sp, #28]
    987a:	e7ba      	b.n	97f2 <_vfiprintf_r+0x14a>
    987c:	4342      	muls	r2, r0
    987e:	3401      	adds	r4, #1
    9880:	1852      	adds	r2, r2, r1
    9882:	2301      	movs	r3, #1
    9884:	e7f2      	b.n	986c <_vfiprintf_r+0x1c4>
    9886:	3307      	adds	r3, #7
    9888:	e7d5      	b.n	9836 <_vfiprintf_r+0x18e>
    988a:	ab05      	add	r3, sp, #20
    988c:	9300      	str	r3, [sp, #0]
    988e:	003a      	movs	r2, r7
    9890:	4b12      	ldr	r3, [pc, #72]	; (98dc <_vfiprintf_r+0x234>)
    9892:	0029      	movs	r1, r5
    9894:	0030      	movs	r0, r6
    9896:	e000      	b.n	989a <_vfiprintf_r+0x1f2>
    9898:	bf00      	nop
    989a:	9003      	str	r0, [sp, #12]
    989c:	9b03      	ldr	r3, [sp, #12]
    989e:	3301      	adds	r3, #1
    98a0:	d1cc      	bne.n	983c <_vfiprintf_r+0x194>
    98a2:	89bb      	ldrh	r3, [r7, #12]
    98a4:	065b      	lsls	r3, r3, #25
    98a6:	d500      	bpl.n	98aa <_vfiprintf_r+0x202>
    98a8:	e77b      	b.n	97a2 <_vfiprintf_r+0xfa>
    98aa:	980b      	ldr	r0, [sp, #44]	; 0x2c
    98ac:	e77b      	b.n	97a6 <_vfiprintf_r+0xfe>
    98ae:	ab05      	add	r3, sp, #20
    98b0:	9300      	str	r3, [sp, #0]
    98b2:	003a      	movs	r2, r7
    98b4:	4b09      	ldr	r3, [pc, #36]	; (98dc <_vfiprintf_r+0x234>)
    98b6:	0029      	movs	r1, r5
    98b8:	0030      	movs	r0, r6
    98ba:	f000 f87f 	bl	99bc <_printf_i>
    98be:	e7ec      	b.n	989a <_vfiprintf_r+0x1f2>
    98c0:	0000b110 	.word	0x0000b110
    98c4:	0000b150 	.word	0x0000b150
    98c8:	0000b130 	.word	0x0000b130
    98cc:	0000b0f0 	.word	0x0000b0f0
    98d0:	0000b156 	.word	0x0000b156
    98d4:	0000b15a 	.word	0x0000b15a
    98d8:	00000000 	.word	0x00000000
    98dc:	00009683 	.word	0x00009683

000098e0 <_printf_common>:
    98e0:	b5f7      	push	{r0, r1, r2, r4, r5, r6, r7, lr}
    98e2:	0015      	movs	r5, r2
    98e4:	9301      	str	r3, [sp, #4]
    98e6:	688a      	ldr	r2, [r1, #8]
    98e8:	690b      	ldr	r3, [r1, #16]
    98ea:	9000      	str	r0, [sp, #0]
    98ec:	000c      	movs	r4, r1
    98ee:	4293      	cmp	r3, r2
    98f0:	da00      	bge.n	98f4 <_printf_common+0x14>
    98f2:	0013      	movs	r3, r2
    98f4:	0022      	movs	r2, r4
    98f6:	602b      	str	r3, [r5, #0]
    98f8:	3243      	adds	r2, #67	; 0x43
    98fa:	7812      	ldrb	r2, [r2, #0]
    98fc:	2a00      	cmp	r2, #0
    98fe:	d001      	beq.n	9904 <_printf_common+0x24>
    9900:	3301      	adds	r3, #1
    9902:	602b      	str	r3, [r5, #0]
    9904:	6823      	ldr	r3, [r4, #0]
    9906:	069b      	lsls	r3, r3, #26
    9908:	d502      	bpl.n	9910 <_printf_common+0x30>
    990a:	682b      	ldr	r3, [r5, #0]
    990c:	3302      	adds	r3, #2
    990e:	602b      	str	r3, [r5, #0]
    9910:	2706      	movs	r7, #6
    9912:	6823      	ldr	r3, [r4, #0]
    9914:	401f      	ands	r7, r3
    9916:	d027      	beq.n	9968 <_printf_common+0x88>
    9918:	0023      	movs	r3, r4
    991a:	3343      	adds	r3, #67	; 0x43
    991c:	781b      	ldrb	r3, [r3, #0]
    991e:	1e5a      	subs	r2, r3, #1
    9920:	4193      	sbcs	r3, r2
    9922:	6822      	ldr	r2, [r4, #0]
    9924:	0692      	lsls	r2, r2, #26
    9926:	d430      	bmi.n	998a <_printf_common+0xaa>
    9928:	0022      	movs	r2, r4
    992a:	9901      	ldr	r1, [sp, #4]
    992c:	3243      	adds	r2, #67	; 0x43
    992e:	9800      	ldr	r0, [sp, #0]
    9930:	9e08      	ldr	r6, [sp, #32]
    9932:	47b0      	blx	r6
    9934:	1c43      	adds	r3, r0, #1
    9936:	d025      	beq.n	9984 <_printf_common+0xa4>
    9938:	2306      	movs	r3, #6
    993a:	6820      	ldr	r0, [r4, #0]
    993c:	682a      	ldr	r2, [r5, #0]
    993e:	68e1      	ldr	r1, [r4, #12]
    9940:	4003      	ands	r3, r0
    9942:	2500      	movs	r5, #0
    9944:	2b04      	cmp	r3, #4
    9946:	d103      	bne.n	9950 <_printf_common+0x70>
    9948:	1a8d      	subs	r5, r1, r2
    994a:	43eb      	mvns	r3, r5
    994c:	17db      	asrs	r3, r3, #31
    994e:	401d      	ands	r5, r3
    9950:	68a3      	ldr	r3, [r4, #8]
    9952:	6922      	ldr	r2, [r4, #16]
    9954:	4293      	cmp	r3, r2
    9956:	dd01      	ble.n	995c <_printf_common+0x7c>
    9958:	1a9b      	subs	r3, r3, r2
    995a:	18ed      	adds	r5, r5, r3
    995c:	2700      	movs	r7, #0
    995e:	42bd      	cmp	r5, r7
    9960:	d120      	bne.n	99a4 <_printf_common+0xc4>
    9962:	2000      	movs	r0, #0
    9964:	e010      	b.n	9988 <_printf_common+0xa8>
    9966:	3701      	adds	r7, #1
    9968:	68e3      	ldr	r3, [r4, #12]
    996a:	682a      	ldr	r2, [r5, #0]
    996c:	1a9b      	subs	r3, r3, r2
    996e:	429f      	cmp	r7, r3
    9970:	dad2      	bge.n	9918 <_printf_common+0x38>
    9972:	0022      	movs	r2, r4
    9974:	2301      	movs	r3, #1
    9976:	3219      	adds	r2, #25
    9978:	9901      	ldr	r1, [sp, #4]
    997a:	9800      	ldr	r0, [sp, #0]
    997c:	9e08      	ldr	r6, [sp, #32]
    997e:	47b0      	blx	r6
    9980:	1c43      	adds	r3, r0, #1
    9982:	d1f0      	bne.n	9966 <_printf_common+0x86>
    9984:	2001      	movs	r0, #1
    9986:	4240      	negs	r0, r0
    9988:	bdfe      	pop	{r1, r2, r3, r4, r5, r6, r7, pc}
    998a:	2030      	movs	r0, #48	; 0x30
    998c:	18e1      	adds	r1, r4, r3
    998e:	3143      	adds	r1, #67	; 0x43
    9990:	7008      	strb	r0, [r1, #0]
    9992:	0021      	movs	r1, r4
    9994:	1c5a      	adds	r2, r3, #1
    9996:	3145      	adds	r1, #69	; 0x45
    9998:	7809      	ldrb	r1, [r1, #0]
    999a:	18a2      	adds	r2, r4, r2
    999c:	3243      	adds	r2, #67	; 0x43
    999e:	3302      	adds	r3, #2
    99a0:	7011      	strb	r1, [r2, #0]
    99a2:	e7c1      	b.n	9928 <_printf_common+0x48>
    99a4:	0022      	movs	r2, r4
    99a6:	2301      	movs	r3, #1
    99a8:	321a      	adds	r2, #26
    99aa:	9901      	ldr	r1, [sp, #4]
    99ac:	9800      	ldr	r0, [sp, #0]
    99ae:	9e08      	ldr	r6, [sp, #32]
    99b0:	47b0      	blx	r6
    99b2:	1c43      	adds	r3, r0, #1
    99b4:	d0e6      	beq.n	9984 <_printf_common+0xa4>
    99b6:	3701      	adds	r7, #1
    99b8:	e7d1      	b.n	995e <_printf_common+0x7e>
	...

000099bc <_printf_i>:
    99bc:	b5f0      	push	{r4, r5, r6, r7, lr}
    99be:	b08b      	sub	sp, #44	; 0x2c
    99c0:	9206      	str	r2, [sp, #24]
    99c2:	000a      	movs	r2, r1
    99c4:	3243      	adds	r2, #67	; 0x43
    99c6:	9307      	str	r3, [sp, #28]
    99c8:	9005      	str	r0, [sp, #20]
    99ca:	9204      	str	r2, [sp, #16]
    99cc:	7e0a      	ldrb	r2, [r1, #24]
    99ce:	000c      	movs	r4, r1
    99d0:	9b10      	ldr	r3, [sp, #64]	; 0x40
    99d2:	2a6e      	cmp	r2, #110	; 0x6e
    99d4:	d100      	bne.n	99d8 <_printf_i+0x1c>
    99d6:	e08f      	b.n	9af8 <_printf_i+0x13c>
    99d8:	d817      	bhi.n	9a0a <_printf_i+0x4e>
    99da:	2a63      	cmp	r2, #99	; 0x63
    99dc:	d02c      	beq.n	9a38 <_printf_i+0x7c>
    99de:	d808      	bhi.n	99f2 <_printf_i+0x36>
    99e0:	2a00      	cmp	r2, #0
    99e2:	d100      	bne.n	99e6 <_printf_i+0x2a>
    99e4:	e099      	b.n	9b1a <_printf_i+0x15e>
    99e6:	2a58      	cmp	r2, #88	; 0x58
    99e8:	d054      	beq.n	9a94 <_printf_i+0xd8>
    99ea:	0026      	movs	r6, r4
    99ec:	3642      	adds	r6, #66	; 0x42
    99ee:	7032      	strb	r2, [r6, #0]
    99f0:	e029      	b.n	9a46 <_printf_i+0x8a>
    99f2:	2a64      	cmp	r2, #100	; 0x64
    99f4:	d001      	beq.n	99fa <_printf_i+0x3e>
    99f6:	2a69      	cmp	r2, #105	; 0x69
    99f8:	d1f7      	bne.n	99ea <_printf_i+0x2e>
    99fa:	6821      	ldr	r1, [r4, #0]
    99fc:	681a      	ldr	r2, [r3, #0]
    99fe:	0608      	lsls	r0, r1, #24
    9a00:	d523      	bpl.n	9a4a <_printf_i+0x8e>
    9a02:	1d11      	adds	r1, r2, #4
    9a04:	6019      	str	r1, [r3, #0]
    9a06:	6815      	ldr	r5, [r2, #0]
    9a08:	e025      	b.n	9a56 <_printf_i+0x9a>
    9a0a:	2a73      	cmp	r2, #115	; 0x73
    9a0c:	d100      	bne.n	9a10 <_printf_i+0x54>
    9a0e:	e088      	b.n	9b22 <_printf_i+0x166>
    9a10:	d808      	bhi.n	9a24 <_printf_i+0x68>
    9a12:	2a6f      	cmp	r2, #111	; 0x6f
    9a14:	d029      	beq.n	9a6a <_printf_i+0xae>
    9a16:	2a70      	cmp	r2, #112	; 0x70
    9a18:	d1e7      	bne.n	99ea <_printf_i+0x2e>
    9a1a:	2220      	movs	r2, #32
    9a1c:	6809      	ldr	r1, [r1, #0]
    9a1e:	430a      	orrs	r2, r1
    9a20:	6022      	str	r2, [r4, #0]
    9a22:	e003      	b.n	9a2c <_printf_i+0x70>
    9a24:	2a75      	cmp	r2, #117	; 0x75
    9a26:	d020      	beq.n	9a6a <_printf_i+0xae>
    9a28:	2a78      	cmp	r2, #120	; 0x78
    9a2a:	d1de      	bne.n	99ea <_printf_i+0x2e>
    9a2c:	0022      	movs	r2, r4
    9a2e:	2178      	movs	r1, #120	; 0x78
    9a30:	3245      	adds	r2, #69	; 0x45
    9a32:	7011      	strb	r1, [r2, #0]
    9a34:	4a6c      	ldr	r2, [pc, #432]	; (9be8 <_printf_i+0x22c>)
    9a36:	e030      	b.n	9a9a <_printf_i+0xde>
    9a38:	000e      	movs	r6, r1
    9a3a:	681a      	ldr	r2, [r3, #0]
    9a3c:	3642      	adds	r6, #66	; 0x42
    9a3e:	1d11      	adds	r1, r2, #4
    9a40:	6019      	str	r1, [r3, #0]
    9a42:	6813      	ldr	r3, [r2, #0]
    9a44:	7033      	strb	r3, [r6, #0]
    9a46:	2301      	movs	r3, #1
    9a48:	e079      	b.n	9b3e <_printf_i+0x182>
    9a4a:	0649      	lsls	r1, r1, #25
    9a4c:	d5d9      	bpl.n	9a02 <_printf_i+0x46>
    9a4e:	1d11      	adds	r1, r2, #4
    9a50:	6019      	str	r1, [r3, #0]
    9a52:	2300      	movs	r3, #0
    9a54:	5ed5      	ldrsh	r5, [r2, r3]
    9a56:	2d00      	cmp	r5, #0
    9a58:	da03      	bge.n	9a62 <_printf_i+0xa6>
    9a5a:	232d      	movs	r3, #45	; 0x2d
    9a5c:	9a04      	ldr	r2, [sp, #16]
    9a5e:	426d      	negs	r5, r5
    9a60:	7013      	strb	r3, [r2, #0]
    9a62:	4b62      	ldr	r3, [pc, #392]	; (9bec <_printf_i+0x230>)
    9a64:	270a      	movs	r7, #10
    9a66:	9303      	str	r3, [sp, #12]
    9a68:	e02f      	b.n	9aca <_printf_i+0x10e>
    9a6a:	6820      	ldr	r0, [r4, #0]
    9a6c:	6819      	ldr	r1, [r3, #0]
    9a6e:	0605      	lsls	r5, r0, #24
    9a70:	d503      	bpl.n	9a7a <_printf_i+0xbe>
    9a72:	1d08      	adds	r0, r1, #4
    9a74:	6018      	str	r0, [r3, #0]
    9a76:	680d      	ldr	r5, [r1, #0]
    9a78:	e005      	b.n	9a86 <_printf_i+0xca>
    9a7a:	0640      	lsls	r0, r0, #25
    9a7c:	d5f9      	bpl.n	9a72 <_printf_i+0xb6>
    9a7e:	680d      	ldr	r5, [r1, #0]
    9a80:	1d08      	adds	r0, r1, #4
    9a82:	6018      	str	r0, [r3, #0]
    9a84:	b2ad      	uxth	r5, r5
    9a86:	4b59      	ldr	r3, [pc, #356]	; (9bec <_printf_i+0x230>)
    9a88:	2708      	movs	r7, #8
    9a8a:	9303      	str	r3, [sp, #12]
    9a8c:	2a6f      	cmp	r2, #111	; 0x6f
    9a8e:	d018      	beq.n	9ac2 <_printf_i+0x106>
    9a90:	270a      	movs	r7, #10
    9a92:	e016      	b.n	9ac2 <_printf_i+0x106>
    9a94:	3145      	adds	r1, #69	; 0x45
    9a96:	700a      	strb	r2, [r1, #0]
    9a98:	4a54      	ldr	r2, [pc, #336]	; (9bec <_printf_i+0x230>)
    9a9a:	9203      	str	r2, [sp, #12]
    9a9c:	681a      	ldr	r2, [r3, #0]
    9a9e:	6821      	ldr	r1, [r4, #0]
    9aa0:	1d10      	adds	r0, r2, #4
    9aa2:	6018      	str	r0, [r3, #0]
    9aa4:	6815      	ldr	r5, [r2, #0]
    9aa6:	0608      	lsls	r0, r1, #24
    9aa8:	d522      	bpl.n	9af0 <_printf_i+0x134>
    9aaa:	07cb      	lsls	r3, r1, #31
    9aac:	d502      	bpl.n	9ab4 <_printf_i+0xf8>
    9aae:	2320      	movs	r3, #32
    9ab0:	4319      	orrs	r1, r3
    9ab2:	6021      	str	r1, [r4, #0]
    9ab4:	2710      	movs	r7, #16
    9ab6:	2d00      	cmp	r5, #0
    9ab8:	d103      	bne.n	9ac2 <_printf_i+0x106>
    9aba:	2320      	movs	r3, #32
    9abc:	6822      	ldr	r2, [r4, #0]
    9abe:	439a      	bics	r2, r3
    9ac0:	6022      	str	r2, [r4, #0]
    9ac2:	0023      	movs	r3, r4
    9ac4:	2200      	movs	r2, #0
    9ac6:	3343      	adds	r3, #67	; 0x43
    9ac8:	701a      	strb	r2, [r3, #0]
    9aca:	6863      	ldr	r3, [r4, #4]
    9acc:	60a3      	str	r3, [r4, #8]
    9ace:	2b00      	cmp	r3, #0
    9ad0:	db5c      	blt.n	9b8c <_printf_i+0x1d0>
    9ad2:	2204      	movs	r2, #4
    9ad4:	6821      	ldr	r1, [r4, #0]
    9ad6:	4391      	bics	r1, r2
    9ad8:	6021      	str	r1, [r4, #0]
    9ada:	2d00      	cmp	r5, #0
    9adc:	d158      	bne.n	9b90 <_printf_i+0x1d4>
    9ade:	9e04      	ldr	r6, [sp, #16]
    9ae0:	2b00      	cmp	r3, #0
    9ae2:	d064      	beq.n	9bae <_printf_i+0x1f2>
    9ae4:	0026      	movs	r6, r4
    9ae6:	9b03      	ldr	r3, [sp, #12]
    9ae8:	3642      	adds	r6, #66	; 0x42
    9aea:	781b      	ldrb	r3, [r3, #0]
    9aec:	7033      	strb	r3, [r6, #0]
    9aee:	e05e      	b.n	9bae <_printf_i+0x1f2>
    9af0:	0648      	lsls	r0, r1, #25
    9af2:	d5da      	bpl.n	9aaa <_printf_i+0xee>
    9af4:	b2ad      	uxth	r5, r5
    9af6:	e7d8      	b.n	9aaa <_printf_i+0xee>
    9af8:	6809      	ldr	r1, [r1, #0]
    9afa:	681a      	ldr	r2, [r3, #0]
    9afc:	0608      	lsls	r0, r1, #24
    9afe:	d505      	bpl.n	9b0c <_printf_i+0x150>
    9b00:	1d11      	adds	r1, r2, #4
    9b02:	6019      	str	r1, [r3, #0]
    9b04:	6813      	ldr	r3, [r2, #0]
    9b06:	6962      	ldr	r2, [r4, #20]
    9b08:	601a      	str	r2, [r3, #0]
    9b0a:	e006      	b.n	9b1a <_printf_i+0x15e>
    9b0c:	0649      	lsls	r1, r1, #25
    9b0e:	d5f7      	bpl.n	9b00 <_printf_i+0x144>
    9b10:	1d11      	adds	r1, r2, #4
    9b12:	6019      	str	r1, [r3, #0]
    9b14:	6813      	ldr	r3, [r2, #0]
    9b16:	8aa2      	ldrh	r2, [r4, #20]
    9b18:	801a      	strh	r2, [r3, #0]
    9b1a:	2300      	movs	r3, #0
    9b1c:	9e04      	ldr	r6, [sp, #16]
    9b1e:	6123      	str	r3, [r4, #16]
    9b20:	e054      	b.n	9bcc <_printf_i+0x210>
    9b22:	681a      	ldr	r2, [r3, #0]
    9b24:	1d11      	adds	r1, r2, #4
    9b26:	6019      	str	r1, [r3, #0]
    9b28:	6816      	ldr	r6, [r2, #0]
    9b2a:	2100      	movs	r1, #0
    9b2c:	6862      	ldr	r2, [r4, #4]
    9b2e:	0030      	movs	r0, r6
    9b30:	f000 f950 	bl	9dd4 <memchr>
    9b34:	2800      	cmp	r0, #0
    9b36:	d001      	beq.n	9b3c <_printf_i+0x180>
    9b38:	1b80      	subs	r0, r0, r6
    9b3a:	6060      	str	r0, [r4, #4]
    9b3c:	6863      	ldr	r3, [r4, #4]
    9b3e:	6123      	str	r3, [r4, #16]
    9b40:	2300      	movs	r3, #0
    9b42:	9a04      	ldr	r2, [sp, #16]
    9b44:	7013      	strb	r3, [r2, #0]
    9b46:	e041      	b.n	9bcc <_printf_i+0x210>
    9b48:	6923      	ldr	r3, [r4, #16]
    9b4a:	0032      	movs	r2, r6
    9b4c:	9906      	ldr	r1, [sp, #24]
    9b4e:	9805      	ldr	r0, [sp, #20]
    9b50:	9d07      	ldr	r5, [sp, #28]
    9b52:	47a8      	blx	r5
    9b54:	1c43      	adds	r3, r0, #1
    9b56:	d043      	beq.n	9be0 <_printf_i+0x224>
    9b58:	6823      	ldr	r3, [r4, #0]
    9b5a:	2500      	movs	r5, #0
    9b5c:	079b      	lsls	r3, r3, #30
    9b5e:	d40f      	bmi.n	9b80 <_printf_i+0x1c4>
    9b60:	9b09      	ldr	r3, [sp, #36]	; 0x24
    9b62:	68e0      	ldr	r0, [r4, #12]
    9b64:	4298      	cmp	r0, r3
    9b66:	da3d      	bge.n	9be4 <_printf_i+0x228>
    9b68:	0018      	movs	r0, r3
    9b6a:	e03b      	b.n	9be4 <_printf_i+0x228>
    9b6c:	0022      	movs	r2, r4
    9b6e:	2301      	movs	r3, #1
    9b70:	3219      	adds	r2, #25
    9b72:	9906      	ldr	r1, [sp, #24]
    9b74:	9805      	ldr	r0, [sp, #20]
    9b76:	9e07      	ldr	r6, [sp, #28]
    9b78:	47b0      	blx	r6
    9b7a:	1c43      	adds	r3, r0, #1
    9b7c:	d030      	beq.n	9be0 <_printf_i+0x224>
    9b7e:	3501      	adds	r5, #1
    9b80:	68e3      	ldr	r3, [r4, #12]
    9b82:	9a09      	ldr	r2, [sp, #36]	; 0x24
    9b84:	1a9b      	subs	r3, r3, r2
    9b86:	429d      	cmp	r5, r3
    9b88:	dbf0      	blt.n	9b6c <_printf_i+0x1b0>
    9b8a:	e7e9      	b.n	9b60 <_printf_i+0x1a4>
    9b8c:	2d00      	cmp	r5, #0
    9b8e:	d0a9      	beq.n	9ae4 <_printf_i+0x128>
    9b90:	9e04      	ldr	r6, [sp, #16]
    9b92:	0028      	movs	r0, r5
    9b94:	0039      	movs	r1, r7
    9b96:	f7fe fecd 	bl	8934 <__aeabi_uidivmod>
    9b9a:	9b03      	ldr	r3, [sp, #12]
    9b9c:	3e01      	subs	r6, #1
    9b9e:	5c5b      	ldrb	r3, [r3, r1]
    9ba0:	0028      	movs	r0, r5
    9ba2:	7033      	strb	r3, [r6, #0]
    9ba4:	0039      	movs	r1, r7
    9ba6:	f7fe fe3f 	bl	8828 <__udivsi3>
    9baa:	1e05      	subs	r5, r0, #0
    9bac:	d1f1      	bne.n	9b92 <_printf_i+0x1d6>
    9bae:	2f08      	cmp	r7, #8
    9bb0:	d109      	bne.n	9bc6 <_printf_i+0x20a>
    9bb2:	6823      	ldr	r3, [r4, #0]
    9bb4:	07db      	lsls	r3, r3, #31
    9bb6:	d506      	bpl.n	9bc6 <_printf_i+0x20a>
    9bb8:	6863      	ldr	r3, [r4, #4]
    9bba:	6922      	ldr	r2, [r4, #16]
    9bbc:	4293      	cmp	r3, r2
    9bbe:	dc02      	bgt.n	9bc6 <_printf_i+0x20a>
    9bc0:	2330      	movs	r3, #48	; 0x30
    9bc2:	3e01      	subs	r6, #1
    9bc4:	7033      	strb	r3, [r6, #0]
    9bc6:	9b04      	ldr	r3, [sp, #16]
    9bc8:	1b9b      	subs	r3, r3, r6
    9bca:	6123      	str	r3, [r4, #16]
    9bcc:	9b07      	ldr	r3, [sp, #28]
    9bce:	aa09      	add	r2, sp, #36	; 0x24
    9bd0:	9300      	str	r3, [sp, #0]
    9bd2:	0021      	movs	r1, r4
    9bd4:	9b06      	ldr	r3, [sp, #24]
    9bd6:	9805      	ldr	r0, [sp, #20]
    9bd8:	f7ff fe82 	bl	98e0 <_printf_common>
    9bdc:	1c43      	adds	r3, r0, #1
    9bde:	d1b3      	bne.n	9b48 <_printf_i+0x18c>
    9be0:	2001      	movs	r0, #1
    9be2:	4240      	negs	r0, r0
    9be4:	b00b      	add	sp, #44	; 0x2c
    9be6:	bdf0      	pop	{r4, r5, r6, r7, pc}
    9be8:	0000b172 	.word	0x0000b172
    9bec:	0000b161 	.word	0x0000b161

00009bf0 <_putc_r>:
    9bf0:	b570      	push	{r4, r5, r6, lr}
    9bf2:	0006      	movs	r6, r0
    9bf4:	000d      	movs	r5, r1
    9bf6:	0014      	movs	r4, r2
    9bf8:	2800      	cmp	r0, #0
    9bfa:	d004      	beq.n	9c06 <_putc_r+0x16>
    9bfc:	6983      	ldr	r3, [r0, #24]
    9bfe:	2b00      	cmp	r3, #0
    9c00:	d101      	bne.n	9c06 <_putc_r+0x16>
    9c02:	f7ff fb75 	bl	92f0 <__sinit>
    9c06:	4b12      	ldr	r3, [pc, #72]	; (9c50 <_putc_r+0x60>)
    9c08:	429c      	cmp	r4, r3
    9c0a:	d111      	bne.n	9c30 <_putc_r+0x40>
    9c0c:	6874      	ldr	r4, [r6, #4]
    9c0e:	68a3      	ldr	r3, [r4, #8]
    9c10:	3b01      	subs	r3, #1
    9c12:	60a3      	str	r3, [r4, #8]
    9c14:	2b00      	cmp	r3, #0
    9c16:	da05      	bge.n	9c24 <_putc_r+0x34>
    9c18:	69a2      	ldr	r2, [r4, #24]
    9c1a:	4293      	cmp	r3, r2
    9c1c:	db12      	blt.n	9c44 <_putc_r+0x54>
    9c1e:	b2eb      	uxtb	r3, r5
    9c20:	2b0a      	cmp	r3, #10
    9c22:	d00f      	beq.n	9c44 <_putc_r+0x54>
    9c24:	6823      	ldr	r3, [r4, #0]
    9c26:	b2e8      	uxtb	r0, r5
    9c28:	1c5a      	adds	r2, r3, #1
    9c2a:	6022      	str	r2, [r4, #0]
    9c2c:	701d      	strb	r5, [r3, #0]
    9c2e:	bd70      	pop	{r4, r5, r6, pc}
    9c30:	4b08      	ldr	r3, [pc, #32]	; (9c54 <_putc_r+0x64>)
    9c32:	429c      	cmp	r4, r3
    9c34:	d101      	bne.n	9c3a <_putc_r+0x4a>
    9c36:	68b4      	ldr	r4, [r6, #8]
    9c38:	e7e9      	b.n	9c0e <_putc_r+0x1e>
    9c3a:	4b07      	ldr	r3, [pc, #28]	; (9c58 <_putc_r+0x68>)
    9c3c:	429c      	cmp	r4, r3
    9c3e:	d1e6      	bne.n	9c0e <_putc_r+0x1e>
    9c40:	68f4      	ldr	r4, [r6, #12]
    9c42:	e7e4      	b.n	9c0e <_putc_r+0x1e>
    9c44:	0022      	movs	r2, r4
    9c46:	0029      	movs	r1, r5
    9c48:	0030      	movs	r0, r6
    9c4a:	f7ff f98d 	bl	8f68 <__swbuf_r>
    9c4e:	e7ee      	b.n	9c2e <_putc_r+0x3e>
    9c50:	0000b110 	.word	0x0000b110
    9c54:	0000b130 	.word	0x0000b130
    9c58:	0000b0f0 	.word	0x0000b0f0

00009c5c <_sbrk_r>:
    9c5c:	2300      	movs	r3, #0
    9c5e:	b570      	push	{r4, r5, r6, lr}
    9c60:	4c06      	ldr	r4, [pc, #24]	; (9c7c <_sbrk_r+0x20>)
    9c62:	0005      	movs	r5, r0
    9c64:	0008      	movs	r0, r1
    9c66:	6023      	str	r3, [r4, #0]
    9c68:	f7fb fdd4 	bl	5814 <_sbrk>
    9c6c:	1c43      	adds	r3, r0, #1
    9c6e:	d103      	bne.n	9c78 <_sbrk_r+0x1c>
    9c70:	6823      	ldr	r3, [r4, #0]
    9c72:	2b00      	cmp	r3, #0
    9c74:	d000      	beq.n	9c78 <_sbrk_r+0x1c>
    9c76:	602b      	str	r3, [r5, #0]
    9c78:	bd70      	pop	{r4, r5, r6, pc}
    9c7a:	46c0      	nop			; (mov r8, r8)
    9c7c:	20000d58 	.word	0x20000d58

00009c80 <__sread>:
    9c80:	b570      	push	{r4, r5, r6, lr}
    9c82:	000c      	movs	r4, r1
    9c84:	250e      	movs	r5, #14
    9c86:	5f49      	ldrsh	r1, [r1, r5]
    9c88:	f000 f8b2 	bl	9df0 <_read_r>
    9c8c:	2800      	cmp	r0, #0
    9c8e:	db03      	blt.n	9c98 <__sread+0x18>
    9c90:	6d63      	ldr	r3, [r4, #84]	; 0x54
    9c92:	181b      	adds	r3, r3, r0
    9c94:	6563      	str	r3, [r4, #84]	; 0x54
    9c96:	bd70      	pop	{r4, r5, r6, pc}
    9c98:	89a3      	ldrh	r3, [r4, #12]
    9c9a:	4a02      	ldr	r2, [pc, #8]	; (9ca4 <__sread+0x24>)
    9c9c:	4013      	ands	r3, r2
    9c9e:	81a3      	strh	r3, [r4, #12]
    9ca0:	e7f9      	b.n	9c96 <__sread+0x16>
    9ca2:	46c0      	nop			; (mov r8, r8)
    9ca4:	ffffefff 	.word	0xffffefff

00009ca8 <__swrite>:
    9ca8:	b5f8      	push	{r3, r4, r5, r6, r7, lr}
    9caa:	001f      	movs	r7, r3
    9cac:	898b      	ldrh	r3, [r1, #12]
    9cae:	0005      	movs	r5, r0
    9cb0:	000c      	movs	r4, r1
    9cb2:	0016      	movs	r6, r2
    9cb4:	05db      	lsls	r3, r3, #23
    9cb6:	d505      	bpl.n	9cc4 <__swrite+0x1c>
    9cb8:	230e      	movs	r3, #14
    9cba:	5ec9      	ldrsh	r1, [r1, r3]
    9cbc:	2200      	movs	r2, #0
    9cbe:	2302      	movs	r3, #2
    9cc0:	f000 f874 	bl	9dac <_lseek_r>
    9cc4:	89a3      	ldrh	r3, [r4, #12]
    9cc6:	4a05      	ldr	r2, [pc, #20]	; (9cdc <__swrite+0x34>)
    9cc8:	0028      	movs	r0, r5
    9cca:	4013      	ands	r3, r2
    9ccc:	81a3      	strh	r3, [r4, #12]
    9cce:	0032      	movs	r2, r6
    9cd0:	230e      	movs	r3, #14
    9cd2:	5ee1      	ldrsh	r1, [r4, r3]
    9cd4:	003b      	movs	r3, r7
    9cd6:	f000 f81f 	bl	9d18 <_write_r>
    9cda:	bdf8      	pop	{r3, r4, r5, r6, r7, pc}
    9cdc:	ffffefff 	.word	0xffffefff

00009ce0 <__sseek>:
    9ce0:	b570      	push	{r4, r5, r6, lr}
    9ce2:	000c      	movs	r4, r1
    9ce4:	250e      	movs	r5, #14
    9ce6:	5f49      	ldrsh	r1, [r1, r5]
    9ce8:	f000 f860 	bl	9dac <_lseek_r>
    9cec:	89a3      	ldrh	r3, [r4, #12]
    9cee:	1c42      	adds	r2, r0, #1
    9cf0:	d103      	bne.n	9cfa <__sseek+0x1a>
    9cf2:	4a05      	ldr	r2, [pc, #20]	; (9d08 <__sseek+0x28>)
    9cf4:	4013      	ands	r3, r2
    9cf6:	81a3      	strh	r3, [r4, #12]
    9cf8:	bd70      	pop	{r4, r5, r6, pc}
    9cfa:	2280      	movs	r2, #128	; 0x80
    9cfc:	0152      	lsls	r2, r2, #5
    9cfe:	4313      	orrs	r3, r2
    9d00:	81a3      	strh	r3, [r4, #12]
    9d02:	6560      	str	r0, [r4, #84]	; 0x54
    9d04:	e7f8      	b.n	9cf8 <__sseek+0x18>
    9d06:	46c0      	nop			; (mov r8, r8)
    9d08:	ffffefff 	.word	0xffffefff

00009d0c <__sclose>:
    9d0c:	b510      	push	{r4, lr}
    9d0e:	230e      	movs	r3, #14
    9d10:	5ec9      	ldrsh	r1, [r1, r3]
    9d12:	f000 f815 	bl	9d40 <_close_r>
    9d16:	bd10      	pop	{r4, pc}

00009d18 <_write_r>:
    9d18:	b570      	push	{r4, r5, r6, lr}
    9d1a:	0005      	movs	r5, r0
    9d1c:	0008      	movs	r0, r1
    9d1e:	0011      	movs	r1, r2
    9d20:	2200      	movs	r2, #0
    9d22:	4c06      	ldr	r4, [pc, #24]	; (9d3c <_write_r+0x24>)
    9d24:	6022      	str	r2, [r4, #0]
    9d26:	001a      	movs	r2, r3
    9d28:	f7f9 fdf0 	bl	390c <_write>
    9d2c:	1c43      	adds	r3, r0, #1
    9d2e:	d103      	bne.n	9d38 <_write_r+0x20>
    9d30:	6823      	ldr	r3, [r4, #0]
    9d32:	2b00      	cmp	r3, #0
    9d34:	d000      	beq.n	9d38 <_write_r+0x20>
    9d36:	602b      	str	r3, [r5, #0]
    9d38:	bd70      	pop	{r4, r5, r6, pc}
    9d3a:	46c0      	nop			; (mov r8, r8)
    9d3c:	20000d58 	.word	0x20000d58

00009d40 <_close_r>:
    9d40:	2300      	movs	r3, #0
    9d42:	b570      	push	{r4, r5, r6, lr}
    9d44:	4c06      	ldr	r4, [pc, #24]	; (9d60 <_close_r+0x20>)
    9d46:	0005      	movs	r5, r0
    9d48:	0008      	movs	r0, r1
    9d4a:	6023      	str	r3, [r4, #0]
    9d4c:	f7fb fd74 	bl	5838 <_close>
    9d50:	1c43      	adds	r3, r0, #1
    9d52:	d103      	bne.n	9d5c <_close_r+0x1c>
    9d54:	6823      	ldr	r3, [r4, #0]
    9d56:	2b00      	cmp	r3, #0
    9d58:	d000      	beq.n	9d5c <_close_r+0x1c>
    9d5a:	602b      	str	r3, [r5, #0]
    9d5c:	bd70      	pop	{r4, r5, r6, pc}
    9d5e:	46c0      	nop			; (mov r8, r8)
    9d60:	20000d58 	.word	0x20000d58

00009d64 <_fstat_r>:
    9d64:	2300      	movs	r3, #0
    9d66:	b570      	push	{r4, r5, r6, lr}
    9d68:	4c06      	ldr	r4, [pc, #24]	; (9d84 <_fstat_r+0x20>)
    9d6a:	0005      	movs	r5, r0
    9d6c:	0008      	movs	r0, r1
    9d6e:	0011      	movs	r1, r2
    9d70:	6023      	str	r3, [r4, #0]
    9d72:	f7fb fd64 	bl	583e <_fstat>
    9d76:	1c43      	adds	r3, r0, #1
    9d78:	d103      	bne.n	9d82 <_fstat_r+0x1e>
    9d7a:	6823      	ldr	r3, [r4, #0]
    9d7c:	2b00      	cmp	r3, #0
    9d7e:	d000      	beq.n	9d82 <_fstat_r+0x1e>
    9d80:	602b      	str	r3, [r5, #0]
    9d82:	bd70      	pop	{r4, r5, r6, pc}
    9d84:	20000d58 	.word	0x20000d58

00009d88 <_isatty_r>:
    9d88:	2300      	movs	r3, #0
    9d8a:	b570      	push	{r4, r5, r6, lr}
    9d8c:	4c06      	ldr	r4, [pc, #24]	; (9da8 <_isatty_r+0x20>)
    9d8e:	0005      	movs	r5, r0
    9d90:	0008      	movs	r0, r1
    9d92:	6023      	str	r3, [r4, #0]
    9d94:	f7fb fd58 	bl	5848 <_isatty>
    9d98:	1c43      	adds	r3, r0, #1
    9d9a:	d103      	bne.n	9da4 <_isatty_r+0x1c>
    9d9c:	6823      	ldr	r3, [r4, #0]
    9d9e:	2b00      	cmp	r3, #0
    9da0:	d000      	beq.n	9da4 <_isatty_r+0x1c>
    9da2:	602b      	str	r3, [r5, #0]
    9da4:	bd70      	pop	{r4, r5, r6, pc}
    9da6:	46c0      	nop			; (mov r8, r8)
    9da8:	20000d58 	.word	0x20000d58

00009dac <_lseek_r>:
    9dac:	b570      	push	{r4, r5, r6, lr}
    9dae:	0005      	movs	r5, r0
    9db0:	0008      	movs	r0, r1
    9db2:	0011      	movs	r1, r2
    9db4:	2200      	movs	r2, #0
    9db6:	4c06      	ldr	r4, [pc, #24]	; (9dd0 <_lseek_r+0x24>)
    9db8:	6022      	str	r2, [r4, #0]
    9dba:	001a      	movs	r2, r3
    9dbc:	f7fb fd46 	bl	584c <_lseek>
    9dc0:	1c43      	adds	r3, r0, #1
    9dc2:	d103      	bne.n	9dcc <_lseek_r+0x20>
    9dc4:	6823      	ldr	r3, [r4, #0]
    9dc6:	2b00      	cmp	r3, #0
    9dc8:	d000      	beq.n	9dcc <_lseek_r+0x20>
    9dca:	602b      	str	r3, [r5, #0]
    9dcc:	bd70      	pop	{r4, r5, r6, pc}
    9dce:	46c0      	nop			; (mov r8, r8)
    9dd0:	20000d58 	.word	0x20000d58

00009dd4 <memchr>:
    9dd4:	b2c9      	uxtb	r1, r1
    9dd6:	1882      	adds	r2, r0, r2
    9dd8:	4290      	cmp	r0, r2
    9dda:	d101      	bne.n	9de0 <memchr+0xc>
    9ddc:	2000      	movs	r0, #0
    9dde:	4770      	bx	lr
    9de0:	7803      	ldrb	r3, [r0, #0]
    9de2:	428b      	cmp	r3, r1
    9de4:	d0fb      	beq.n	9dde <memchr+0xa>
    9de6:	3001      	adds	r0, #1
    9de8:	e7f6      	b.n	9dd8 <memchr+0x4>

00009dea <__malloc_lock>:
    9dea:	4770      	bx	lr

00009dec <__malloc_unlock>:
    9dec:	4770      	bx	lr
	...

00009df0 <_read_r>:
    9df0:	b570      	push	{r4, r5, r6, lr}
    9df2:	0005      	movs	r5, r0
    9df4:	0008      	movs	r0, r1
    9df6:	0011      	movs	r1, r2
    9df8:	2200      	movs	r2, #0
    9dfa:	4c06      	ldr	r4, [pc, #24]	; (9e14 <_read_r+0x24>)
    9dfc:	6022      	str	r2, [r4, #0]
    9dfe:	001a      	movs	r2, r3
    9e00:	f7f9 fd62 	bl	38c8 <_read>
    9e04:	1c43      	adds	r3, r0, #1
    9e06:	d103      	bne.n	9e10 <_read_r+0x20>
    9e08:	6823      	ldr	r3, [r4, #0]
    9e0a:	2b00      	cmp	r3, #0
    9e0c:	d000      	beq.n	9e10 <_read_r+0x20>
    9e0e:	602b      	str	r3, [r5, #0]
    9e10:	bd70      	pop	{r4, r5, r6, pc}
    9e12:	46c0      	nop			; (mov r8, r8)
    9e14:	20000d58 	.word	0x20000d58

00009e18 <__FUNCTION__.13587>:
    9e18:	625f6d6e 695f7375 6c74636f 00000000     nm_bus_ioctl....
    9e28:	50504128 52452829 255b2952 255b5d73     (APP)(ERR)[%s][%
    9e38:	00005d64 61766e69 6564696c 636f6920     d]..invalide ioc
    9e48:	6320746c 0000646d 00000d84 00000d54     lt cmd......T...
    9e58:	00000d4c 00000d64 00000d5c 00000d7c     L...d...\...|...
    9e68:	00000d6c 00000d74                       l...t...

00009e70 <__FUNCTION__.12256>:
    9e70:	5f666968 646e6573 00000000              hif_send....

00009e7c <__FUNCTION__.12266>:
    9e7c:	5f666968 00727369                       hif_isr.

00009e84 <__FUNCTION__.12272>:
    9e84:	5f666968 646e6168 695f656c 00007273     hif_handle_isr..

00009e94 <__FUNCTION__.12284>:
    9e94:	5f666968 65636572 00657669              hif_receive.

00009ea0 <__FUNCTION__.12300>:
    9ea0:	5f666968 69676572 72657473 0062635f     hif_register_cb.
    9eb0:	66696828 49572029 485f4946 5f54534f     (hif) WIFI_HOST_
    9ec0:	5f564352 4c525443 6220315f 66207375     RCV_CTRL_1 bus f
    9ed0:	006c6961 66696828 64612029 73657264     ail.(hif) addres
    9ee0:	75622073 61662073 00006c69 66696828     s bus fail..(hif
    9ef0:	6f432029 70757272 20646574 6b636170     ) Corrupted pack
    9f00:	53207465 20657a69 7525203d 204c3c20     et Size = %u <L 
    9f10:	7525203d 2047202c 7525203d 504f202c     = %u, G = %u, OP
    9f20:	25203d20 3e583230 0000000a 49464957      = %02X>....WIFI
    9f30:	6c616320 6361626c 7369206b 746f6e20      callback is not
    9f40:	67657220 65747369 00646572 6b6f6353      registered.Scok
    9f50:	63207465 626c6c61 206b6361 6e207369     et callback is n
    9f60:	7220746f 73696765 65726574 00000064     ot registered...
    9f70:	2061744f 6c6c6163 6b636162 20736920     Ota callback is 
    9f80:	20746f6e 69676572 72657473 00006465     not registered..
    9f90:	70797243 63206f74 626c6c61 206b6361     Crypto callback 
    9fa0:	6e207369 7220746f 73696765 65726574     is not registere
    9fb0:	00000064 6d676953 61632061 61626c6c     d...Sigma callba
    9fc0:	69206b63 6f6e2073 65722074 74736967     ck is not regist
    9fd0:	64657265 00000000 66696828 6e692029     ered....(hif) in
    9fe0:	696c6176 72672064 2070756f 00004449     valid group ID..
    9ff0:	66696828 6f682029 61207473 64207070     (hif) host app d
    a000:	276e6469 65732074 58522074 6e6f4420     idn't set RX Don
    a010:	253c2065 253c3e75 000a3e58 66696828     e <%u><%X>..(hif
    a020:	72572029 20676e6f 657a6953 00000000     ) Wrong Size....
    a030:	66696828 61462029 2065736c 65746e69     (hif) False inte
    a040:	70757272 6c252074 00000078 66696828     rrupt %lx...(hif
    a050:	61462029 74206c69 6552206f 69206461     ) Fail to Read i
    a060:	7265746e 74707572 67657220 00000000     nterrupt reg....
    a070:	46494828 61462029 74206c69 6168206f     (HIF) Fail to ha
    a080:	656c646e 746e6920 75727265 25207470     ndle interrupt %
    a090:	72742064 67412079 2e6e6961 00000a2e     d try Again.....
    a0a0:	66696820 6365725f 65766965 6e49203a      hif_receive: In
    a0b0:	696c6176 72612064 656d7567 0000746e     valid argument..
    a0c0:	20505041 75716552 65747365 69532064     APP Requested Si
    a0d0:	6920657a 616c2073 72656772 61687420     ze is larger tha
    a0e0:	6874206e 65722065 65766963 75622064     n the recived bu
    a0f0:	72656666 7a697320 253c2065 253c3e75     ffer size <%u><%
    a100:	0a3e756c 00000000 20505041 75716552     lu>.....APP Requ
    a110:	65747365 64412064 73657264 65622073     ested Address be
    a120:	646e6f79 65687420 63657220 64657669     yond the recived
    a130:	66756220 20726566 72646461 20737365      buffer address 
    a140:	20646e61 676e656c 00006874 20705247     and length..GRp 
    a150:	6425203f 0000000a 50504128 4e492829     ? %d....(APP)(IN
    a160:	00294f46 776f6c53 20676e69 6e776f64     FO).Slowing down
    a170:	002e2e2e 46494828 69614629 6f74206c     ....(HIF)Fail to
    a180:	6b617720 74207075 63206568 00706968      wakup the chip.

0000a190 <__FUNCTION__.12235>:
    a190:	5f6d326d 69666977 0062635f              m2m_wifi_cb.

0000a19c <__FUNCTION__.12264>:
    a19c:	5f6d326d 69666977 696e695f 00000074     m2m_wifi_init...

0000a1ac <__FUNCTION__.12292>:
    a1ac:	5f6d326d 69666977 6e6f635f 7463656e     m2m_wifi_connect
    a1bc:	0063735f 666e6f43 7463696c 49206465     _sc.Conflicted I
    a1cc:	20222050 252e7525 75252e75 2075252e     P " %u.%u.%u.%u 
    a1dc:	000a2022 20514552 20746f4e 69666564     " ..REQ Not defi
    a1ec:	2064656e 000a6425 2079654b 6e207369     ned %d..Key is n
    a1fc:	7620746f 64696c61 00000000 61766e49     ot valid....Inva
    a20c:	2064696c 0079654b 44495353 4e454c20     lid Key.SSID LEN
    a21c:	564e4920 44494c41 00000000 49204843      INVALID....CH I
    a22c:	4c41564e 00004449 61766e49 2064696c     NVALID..Invalid 
    a23c:	20706557 2079656b 65646e69 64252078     Wep key index %d
    a24c:	0000000a 61766e49 2064696c 20706557     ....Invalid Wep 
    a25c:	2079656b 676e656c 25206874 00000a64     key length %d...
    a26c:	6f636e49 63657272 53502074 656b204b     Incorrect PSK ke
    a27c:	656c2079 6874676e 00000000 65646e75     y length....unde
    a28c:	656e6966 65732064 79742063 00006570     fined sec type..
    a29c:	6d726946 65726177 72657620 3a202020     Firmware ver   :
    a2ac:	2e752520 252e7525 76532075 7665726e      %u.%u.%u Svnrev
    a2bc:	0a752520 00000000 6d726946 65726177      %u.....Firmware
    a2cc:	69754220 2520646c 69542073 2520656d      Build %s Time %
    a2dc:	00000a73 6d726946 65726177 6e694d20     s...Firmware Min
    a2ec:	69726420 20726576 20726576 7525203a      driver ver : %u
    a2fc:	2e75252e 000a7525 76697244 76207265     .%u.%u..Driver v
    a30c:	203a7265 252e7525 75252e75 0000000a     er: %u.%u.%u....
    a31c:	303a3031 32323a36 00000000 206e754a     10:06:22....Jun 
    a32c:	32203932 00383130 76697244 62207265     29 2018.Driver b
    a33c:	746c6975 20746120 25097325 00000a73     uilt at %s.%s...
    a34c:	6d73694d 68637461 72694620 7277616d     Mismatch Firmawr
    a35c:	65562065 6f697372 0000006e              e Version...

0000a368 <__FUNCTION__.12098>:
    a368:	70696863 6b61775f 00000065              chip_wake...

0000a374 <__FUNCTION__.12147>:
    a374:	70696863 6965645f 0074696e 6c696166     chip_deinit.fail
    a384:	74206465 6564206f 696e692d 6c616974     ed to de-initial
    a394:	00657a69 20737542 6f727265 35282072     ize.Bus error (5
    a3a4:	64252e29 786c2520 0000000a 6c696146     ).%d %lx....Fail
    a3b4:	74206465 6177206f 2070756b 20656874     ed to wakup the 
    a3c4:	70696863 00000000 76697244 65567265     chip....DriverVe
    a3d4:	666e4972 30203a6f 38302578 000a786c     rInfo: 0x%08lx..

0000a3e4 <__FUNCTION__.12145>:
    a3e4:	645f6d6e 695f7672 0074696e              nm_drv_init.

0000a3f0 <__FUNCTION__.12152>:
    a3f0:	645f6d6e 645f7672 696e6965 00000074     nm_drv_deinit...
    a400:	696d6e5b 6f747320 203a5d70 70696863     [nmi stop]: chip
    a410:	6965645f 2074696e 6c696166 00000000     _deinit fail....
    a420:	696d6e5b 6f747320 203a5d70 20495053     [nmi stop]: SPI 
    a430:	73616c66 69642068 6c626173 61662065     flash disable fa
    a440:	00006c69 696d6e5b 6f747320 203a5d70     il..[nmi stop]: 
    a450:	6c696166 696e6920 75622074 00000073     fail init bus...
    a460:	6c696166 74206465 6e65206f 656c6261     failed to enable
    a470:	746e6920 75727265 2e737470 0000002e      interrupts.....
    a480:	696d6e5b 61747320 3a5d7472 69616620     [nmi start]: fai
    a490:	6e69206c 62207469 00007375 70696843     l init bus..Chip
    a4a0:	20444920 0a786c25 00000000 00001d68      ID %lx.....h...
    a4b0:	00001d68 00001d98 00001d1a 00001d3e     h...........>...
    a4c0:	00001d4c 00001d7e 00001d7e 00001dc6     L...~...~.......
    a4d0:	00001cfe 00001e00 00001e00 00001e00     ................
    a4e0:	00001e00 00001d5a cac4c9c3              ....Z.......

0000a4ec <__FUNCTION__.11451>:
    a4ec:	5f697073 00646d63                       spi_cmd.

0000a4f4 <__FUNCTION__.11458>:
    a4f4:	5f697073 61746164 7073725f 00000000     spi_data_rsp....

0000a504 <__FUNCTION__.11467>:
    a504:	5f697073 5f646d63 00707372              spi_cmd_rsp.

0000a510 <__FUNCTION__.11483>:
    a510:	5f697073 61746164 6165725f 00000064     spi_data_read...

0000a520 <__FUNCTION__.11498>:
    a520:	5f697073 61746164 6972775f 00006574     spi_data_write..

0000a530 <__FUNCTION__.11510>:
    a530:	5f697073 74697277 65725f65 00000067     spi_write_reg...

0000a540 <__FUNCTION__.11521>:
    a540:	735f6d6e 775f6970 65746972 00000000     nm_spi_write....

0000a550 <__FUNCTION__.11533>:
    a550:	5f697073 64616572 6765725f 00000000     spi_read_reg....

0000a560 <__FUNCTION__.11546>:
    a560:	735f6d6e 725f6970 00646165              nm_spi_read.

0000a56c <__FUNCTION__.11567>:
    a56c:	735f6d6e 695f6970 0074696e              nm_spi_init.

0000a578 <crc7_syndrome_table>:
    a578:	1b120900 3f362d24 535a4148 777e656c     ....$-6?HAZSle~w
    a588:	020b1019 262f343d 4a435851 6e677c75     ....=4/&QXCJu|gn
    a598:	29203b32 0d041f16 6168737a 454c575e     2; )....zsha^WLE
    a5a8:	3039222b 141d060f 78716a63 5c554e47     +"90....cjqxGNU\
    a5b8:	7f766d64 5b524940 373e252c 131a0108     dmv.@IR[,%>7....
    a5c8:	666f747d 424b5059 2e273c35 0a031811     }tofYPKB5<'.....
    a5d8:	4d445f56 69607b72 050c171e 2128333a     V_DMr{`i....:3(!
    a5e8:	545d464f 7079626b 1c150e07 38312a23     OF]Tkbyp....#*18
    a5f8:	5a534841 7e776c65 121b0009 363f242d     AHSZelw~....-$?6
    a608:	434a5158 676e757c 0b021910 2f263d34     XQJC|ung....4=&/
    a618:	68617a73 4c455e57 2029323b 040d161f     szahW^EL;2) ....
    a628:	7178636a 555c474e 39302b22 1d140f06     jcxqNG\U"+09....
    a638:	3e372c25 1a130801 767f646d 525b4049     %,7>....md.vI@[R
    a648:	272e353c 030a1118 6f667d74 4b425950     <5.'....t}foPYBK
    a658:	0c051e17 28213a33 444d565f 6069727b     ....3:!(_VMD{ri`
    a668:	151c070e 3138232a 5d544f46 79706b62     ....*#81FOT]bkpy
    a678:	696d6e5b 69707320 46203a5d 656c6961     [nmi spi]: Faile
    a688:	6e692064 6e726574 72206c61 20646165     d internal read 
    a698:	746f7270 6c6f636f 74697720 52432068     protocol with CR
    a6a8:	6e6f2043 6572202c 69727974 7720676e     C on, retyring w
    a6b8:	20687469 20435243 2e66666f 00002e2e     ith CRC off.....
    a6c8:	696d6e5b 69707320 46203a5d 656c6961     [nmi spi]: Faile
    a6d8:	6e692064 6e726574 72206c61 20646165     d internal read 
    a6e8:	746f7270 6c6f636f 002e2e2e 696d6e5b     protocol....[nmi
    a6f8:	69707320 46203a5d 656c6961 6e692064      spi]: Failed in
    a708:	6e726574 77206c61 65746972 6f727020     ternal write pro
    a718:	6f636f74 6572206c 2e2e2e67 00000000     tocol reg.......
    a728:	696d6e5b 69707320 46203a5d 206c6961     [nmi spi]: Fail 
    a738:	20646d63 64616572 69686320 64692070     cmd read chip id
    a748:	002e2e2e 696d6e5b 69707320 46203a5d     ....[nmi spi]: F
    a758:	656c6961 6d632064 72202c64 20646165     ailed cmd, read 
    a768:	636f6c62 2528206b 29783830 0a2e2e2e     block (%08x)....
    a778:	00000000 696d6e5b 69707320 46203a5d     ....[nmi spi]: F
    a788:	656c6961 6d632064 65722064 6e6f7073     ailed cmd respon
    a798:	202c6573 64616572 6f6c6220 28206b63     se, read block (
    a7a8:	78383025 2e2e2e29 0000000a 696d6e5b     %08x).......[nmi
    a7b8:	69707320 46203a5d 656c6961 6c622064      spi]: Failed bl
    a7c8:	206b636f 61746164 61657220 2e2e2e64     ock data read...
    a7d8:	00000000 65736552 6e612074 65722064     ....Reset and re
    a7e8:	20797274 25206425 2520786c 00000a64     try %d %lx %d...
    a7f8:	696d6e5b 69707320 46203a5d 656c6961     [nmi spi]: Faile
    a808:	6d632064 77202c64 65746972 6f6c6220     d cmd, write blo
    a818:	28206b63 78383025 2e2e2e29 0000000a     ck (%08x).......
    a828:	696d6e5b 69707320 203a5d20 6c696146     [nmi spi ]: Fail
    a838:	63206465 7220646d 6f707365 2c65736e     ed cmd response,
    a848:	69727720 62206574 6b636f6c 30252820      write block (%0
    a858:	2e297838 000a2e2e 696d6e5b 69707320     8x).....[nmi spi
    a868:	46203a5d 656c6961 61642064 62206174     ]: Failed data b
    a878:	6b636f6c 646d6320 69727720 202c6574     lock cmd write, 
    a888:	20737562 6f727265 2e2e2e72 00000000     bus error.......
    a898:	696d6e5b 69707320 46203a5d 656c6961     [nmi spi]: Faile
    a8a8:	61642064 62206174 6b636f6c 69727720     d data block wri
    a8b8:	202c6574 20737562 6f727265 2e2e2e72     te, bus error...
    a8c8:	00000000 696d6e5b 69707320 46203a5d     ....[nmi spi]: F
    a8d8:	656c6961 61642064 62206174 6b636f6c     ailed data block
    a8e8:	63726320 69727720 202c6574 20737562      crc write, bus 
    a8f8:	6f727265 2e2e2e72 00000000 696d6e5b     error.......[nmi
    a908:	69707320 46203a5d 656c6961 75622064      spi]: Failed bu
    a918:	72652073 2e726f72 00002e2e 696d6e5b     s error.....[nmi
    a928:	69707320 46203a5d 656c6961 61642064      spi]: Failed da
    a938:	72206174 6f707365 2065736e 64616572     ta response read
    a948:	7825202c 20782520 000a7825 696d6e5b     , %x %x %x..[nmi
    a958:	69707320 46203a5d 656c6961 6c622064      spi]: Failed bl
    a968:	206b636f 61746164 69727720 2e2e6574     ock data write..
    a978:	0000002e 696d6e5b 69707320 46203a5d     ....[nmi spi]: F
    a988:	656c6961 6d632064 72772064 2c657469     ailed cmd write,
    a998:	73756220 72726520 2e2e726f 0000002e      bus error......
    a9a8:	696d6e5b 69707320 46203a5d 656c6961     [nmi spi]: Faile
    a9b8:	6d632064 65722064 6e6f7073 72206573     d cmd response r
    a9c8:	2c646165 73756220 72726520 2e2e726f     ead, bus error..
    a9d8:	0000002e 696d6e5b 69707320 46203a5d     ....[nmi spi]: F
    a9e8:	656c6961 61642064 72206174 6f707365     ailed data respo
    a9f8:	2065736e 64616572 7562202c 72652073     nse read, bus er
    aa08:	2e726f72 00002e2e 696d6e5b 69707320     ror.....[nmi spi
    aa18:	46203a5d 656c6961 61642064 72206174     ]: Failed data r
    aa28:	6f707365 2065736e 64616572 282e2e2e     esponse read...(
    aa38:	78323025 00000a29 696d6e5b 69707320     %02x)...[nmi spi
    aa48:	46203a5d 656c6961 61642064 62206174     ]: Failed data b
    aa58:	6b636f6c 61657220 62202c64 65207375     lock read, bus e
    aa68:	726f7272 002e2e2e 696d6e5b 69707320     rror....[nmi spi
    aa78:	46203a5d 656c6961 61642064 62206174     ]: Failed data b
    aa88:	6b636f6c 63726320 61657220 62202c64     lock crc read, b
    aa98:	65207375 726f7272 002e2e2e 696d6e5b     us error....[nmi
    aaa8:	69707320 46203a5d 656c6961 6d632064      spi]: Failed cm
    aab8:	72202c64 20646165 20676572 38302528     d, read reg (%08
    aac8:	2e2e2978 00000a2e 696d6e5b 69707320     x)......[nmi spi
    aad8:	46203a5d 656c6961 6d632064 65722064     ]: Failed cmd re
    aae8:	6e6f7073 202c6573 64616572 67657220     sponse, read reg
    aaf8:	30252820 2e297838 000a2e2e 696d6e5b      (%08x).....[nmi
    ab08:	69707320 46203a5d 656c6961 61642064      spi]: Failed da
    ab18:	72206174 2e646165 00002e2e 65736552     ta read.....Rese
    ab28:	6e612074 65722064 20797274 25206425     t and retry %d %
    ab38:	000a786c 696d6e5b 69707320 46203a5d     lx..[nmi spi]: F
    ab48:	656c6961 6d632064 77202c64 65746972     ailed cmd, write
    ab58:	67657220 30252820 2e297838 000a2e2e      reg (%08x).....
    ab68:	696d6e5b 69707320 46203a5d 656c6961     [nmi spi]: Faile
    ab78:	6d632064 65722064 6e6f7073 202c6573     d cmd response, 
    ab88:	74697277 65722065 25282067 29783830     write reg (%08x)
    ab98:	0a2e2e2e 00000000 65736552 6e612074     ........Reset an
    aba8:	65722064 20797274 25206425 2520786c     d retry %d %lx %
    abb8:	000a786c 52524528 75432952 6e657272     lx..(ERRR)Curren
    abc8:	253c2074 000a3e64 6b636f53 25207465     t <%d>..Socket %
    abd8:	65732064 6f697373 4449206e 25203d20     d session ID = %
    abe8:	000a0d64                                d...

0000abec <_tcc_intflag>:
    abec:	00000001 00000002 00000004 00000008     ................
    abfc:	00001000 00002000 00004000 00008000     ..... ...@......
    ac0c:	00010000 00020000 00040000 00080000     ................
    ac1c:	30463123 00000000 31463123 00000000     #1F0....#1F1....
    ac2c:	30523123 00000000 31523123 00000000     #1R0....#1R1....
    ac3c:	30463223 00000000 31463223 00000000     #2F0....#2F1....
    ac4c:	30523223 00000000 31523223 00000000     #2R0....#2R1....
    ac5c:	30463323 00000000 31463323 00000000     #3F0....#3F1....
    ac6c:	30523323 00000000 31523323 00000000     #3R0....#3R1....
    ac7c:	30463423 00000000 31463423 00000000     #4F0....#4F1....
    ac8c:	30523423 00000000 31523423 00000000     #4R0....#4R1....
    ac9c:	30463523 00000000 31463523 00000000     #5F0....#5F1....
    acac:	30523523 00000000 31523523 00000000     #5R0....#5R1....
    acbc:	30463623 00000000 31463623 00000000     #6F0....#6F1....
    accc:	30523623 00000000 31523623 00000000     #6R0....#6R1....
    acdc:	42000800 42000c00 42001000 42001400     ...B...B...B...B
    acec:	42001800 42001c00 00004c06 00004c02     ...B...B.L...L..
    acfc:	00004c02 00004c64 00004c64 00004c1a     .L..dL..dL...L..
    ad0c:	00004c0c 00004c20 00004c52 00004de8     .L.. L..RL...M..
    ad1c:	00004dc8 00004dc8 00004e54 00004dda     .M...M..TN...M..
    ad2c:	00004df6 00004dcc 00004e04 00004e44     .M...M...N..DN..
    ad3c:	42002c00 42003000 42003400 00005f4e     .,.B.0.B.4.BN_..
    ad4c:	00005f94 00005f28 00005fb0 00005f28     ._..(_..._..(_..
    ad5c:	00005f20 00005f62 00005f28 00005f28      _..b_..(_..(_..
    ad6c:	00005f28 00005f28 00005f28 00005ed6     (_..(_..(_...^..
    ad7c:	00005f28 00005f28 00005f28 00005f28     (_..(_..(_..(_..
    ad8c:	00005f28 00005f28 00005fee 00005f28     (_..(_..._..(_..
    ad9c:	00005f28 00006032 00005f94 00005f28     (_..2`..._..(_..
    adac:	00005fb0 00005f28 00005f20 00005f62     ._..(_.. _..b_..
    adbc:	00005f28 00005f28 00005f28 00005f28     (_..(_..(_..(_..
    adcc:	00005f28 00005ed6 00005f28 00005f28     (_...^..(_..(_..
    addc:	00005f28 00005f28 00005f28 00005f28     (_..(_..(_..(_..
    adec:	00005fee 00005f28 00005f28 00006032     ._..(_..(_..2`..

0000adfc <tx_pwr_table>:
    adfc:	03030304 00010203 fcfdfeff eff4f8fa     ................
    ae0c:	000069ec 000069d8 000069e8 000069dc     .i...i...i...i..
    ae1c:	000069e8 000069e0 000069e8 000069e4     .i...i...i...i..

0000ae2c <tc_interrupt_vectors.11908>:
    ae2c:	00141312 0000731c 00007254 0000728a     .....s..Tr...r..
    ae3c:	0000731c 000072c2 00007312 0000731e     .s...r...s...s..
    ae4c:	0000797a 000079ae 000079cc 000079ea     zy...y...y...y..
    ae5c:	00007a08 00007a2c 00007a56 00007a7a     .z..,z..Vz..zz..
    ae6c:	00007a9e 00007996 00007996 00007996     .z...y...y...y..
    ae7c:	00007996 00007996 00007996 00007996     .y...y...y...y..
    ae8c:	00007abc 00007ada 00007af8 6e69616d     .z...z...z..main
    ae9c:	326d203a 69775f6d 695f6966 2074696e     : m2m_wifi_init 
    aeac:	6c6c6163 72726520 2821726f 0d296425     call error!(%d).
    aebc:	0000000a 6e69616d 6166203a 64656c69     ....main: failed
    aecc:	206f7420 61657263 54206574 73205043      to create TCP s
    aedc:	65767265 6f732072 74656b63 72726520     erver socket err
    aeec:	0d21726f 00000000 6f727265 00000d72     or!.....error...
    aefc:	6b636f73 635f7465 62203a62 20646e69     socket_cb: bind 
    af0c:	63637573 21737365 0000000d 6b636f73     success!....sock
    af1c:	635f7465 62203a62 20646e69 6f727265     et_cb: bind erro
    af2c:	000d2172 6b636f73 635f7465 6c203a62     r!..socket_cb: l
    af3c:	65747369 7573206e 73656363 000d2173     isten success!..
    af4c:	6b636f73 635f7465 6c203a62 65747369     socket_cb: liste
    af5c:	7265206e 21726f72 0000000d 6b636f73     n error!....sock
    af6c:	635f7465 61203a62 70656363 72652074     et_cb: accept er
    af7c:	21726f72 0000000d 6b636f73 635f7465     ror!....socket_c
    af8c:	63203a62 656e6e6f 65207463 726f7272     b: connect error
    af9c:	00000d21 00423140 00433140 00443140     !...@1B.@1C.@1D.
    afac:	00453140 00423240 00433240 00443240     @1E.@2B.@2C.@2D.
    afbc:	00453240 00423340 00433340 00443340     @2E.@3B.@3C.@3D.
    afcc:	00453340 00423440 00433440 00443440     @3E.@4B.@4C.@4D.
    afdc:	00453440 004f5240 00524840 00544840     @4E.@RO.@HR.@HT.
    afec:	00524540 00544540 00435740 00534140     @ER.@ET.@WC.@AS.
    affc:	004d4540 00434540 00554140 00414d40     @EM.@EC.@AU.@MA.
    b00c:	6b636f73 635f7465 72203a62 20766365     socket_cb: recv 
    b01c:	6f727265 000d2172                       error!..

0000b024 <tc_interrupt_vectors.13045>:
    b024:	00141312 69666977 3a62635f 4d324d20     ....wifi_cb: M2M
    b034:	4649575f 45525f49 435f5053 535f4e4f     _WIFI_RESP_CON_S
    b044:	45544154 4148435f 4445474e 4f43203a     TATE_CHANGED: CO
    b054:	43454e4e 0d444554 00000000 69666977     NNECTED.....wifi
    b064:	3a62635f 4d324d20 4649575f 45525f49     _cb: M2M_WIFI_RE
    b074:	435f5053 535f4e4f 45544154 4148435f     SP_CON_STATE_CHA
    b084:	4445474e 4944203a 4e4f4353 5443454e     NGED: DISCONNECT
    b094:	000d4445 34333231 38373635 00000000     ED..12345678....
    b0a4:	686e7573 325f7473 4847342e 0000007a     sunhst_2.4GHz...
    b0b4:	69666977 3a62635f 4d324d20 4649575f     wifi_cb: M2M_WIF
    b0c4:	45525f49 48445f51 435f5043 3a464e4f     I_REQ_DHCP_CONF:
    b0d4:	20504920 25207369 75252e75 2e75252e      IP is %u.%u.%u.
    b0e4:	0a0d7525 00000000                       %u......

0000b0ec <_global_impure_ptr>:
    b0ec:	20000034                                4.. 

0000b0f0 <__sf_fake_stderr>:
	...

0000b110 <__sf_fake_stdin>:
	...

0000b130 <__sf_fake_stdout>:
	...
    b150:	2b302d23 6c680020 6665004c 47464567     #-0+ .hlL.efgEFG
    b160:	32313000 36353433 41393837 45444342     .0123456789ABCDE
    b170:	31300046 35343332 39383736 64636261     F.0123456789abcd
    b180:	00006665                                ef..

0000b184 <_init>:
    b184:	b5f8      	push	{r3, r4, r5, r6, r7, lr}
    b186:	46c0      	nop			; (mov r8, r8)
    b188:	bcf8      	pop	{r3, r4, r5, r6, r7}
    b18a:	bc08      	pop	{r3}
    b18c:	469e      	mov	lr, r3
    b18e:	4770      	bx	lr

0000b190 <__init_array_start>:
    b190:	000000dd 	.word	0x000000dd

0000b194 <_fini>:
    b194:	b5f8      	push	{r3, r4, r5, r6, r7, lr}
    b196:	46c0      	nop			; (mov r8, r8)
    b198:	bcf8      	pop	{r3, r4, r5, r6, r7}
    b19a:	bc08      	pop	{r3}
    b19c:	469e      	mov	lr, r3
    b19e:	4770      	bx	lr

0000b1a0 <__fini_array_start>:
    b1a0:	000000b5 	.word	0x000000b5
