
APPS_WSN_DEMO_R.elf:     file format elf32-littlearm

Sections:
Idx Name          Size      VMA       LMA       File off  Algn
  0 .text         0000a438  00000000  00000000  00010000  2**2
                  CONTENTS, ALLOC, LOAD, READONLY, CODE
  1 .relocate     000000e0  20000000  0000a438  00020000  2**2
                  CONTENTS, ALLOC, LOAD, DATA
  2 .bss          000019e4  200000e0  0000a518  000200e0  2**3
                  ALLOC
  3 .stack        00002004  20001ac4  0000befc  000200e0  2**0
                  ALLOC
  4 .ARM.attributes 00000028  00000000  00000000  000200e0  2**0
                  CONTENTS, READONLY
  5 .comment      000000e5  00000000  00000000  00020108  2**0
                  CONTENTS, READONLY
  6 .debug_info   0004bcf9  00000000  00000000  000201ed  2**0
                  CONTENTS, READONLY, DEBUGGING
  7 .debug_abbrev 00007b20  00000000  00000000  0006bee6  2**0
                  CONTENTS, READONLY, DEBUGGING
  8 .debug_loc    0000e6d2  00000000  00000000  00073a06  2**0
                  CONTENTS, READONLY, DEBUGGING
  9 .debug_aranges 00000ae8  00000000  00000000  000820d8  2**0
                  CONTENTS, READONLY, DEBUGGING
 10 .debug_ranges 00001200  00000000  00000000  00082bc0  2**0
                  CONTENTS, READONLY, DEBUGGING
 11 .debug_macro  00020f55  00000000  00000000  00083dc0  2**0
                  CONTENTS, READONLY, DEBUGGING
 12 .debug_line   0001aa76  00000000  00000000  000a4d15  2**0
                  CONTENTS, READONLY, DEBUGGING
 13 .debug_str    00088d34  00000000  00000000  000bf78b  2**0
                  CONTENTS, READONLY, DEBUGGING
 14 .debug_frame  000021f8  00000000  00000000  001484c0  2**2
                  CONTENTS, READONLY, DEBUGGING

Disassembly of section .text:

00000000 <exception_table>:
       0:	c8 3a 00 20 a9 1d 00 00 a5 1d 00 00 a5 1d 00 00     .:. ............
	...
      2c:	a5 1d 00 00 00 00 00 00 00 00 00 00 a5 1d 00 00     ................
      3c:	a5 1d 00 00 a5 1d 00 00 a5 1d 00 00 a5 1d 00 00     ................
      4c:	a5 1d 00 00 cd 02 00 00 a5 1d 00 00 a5 1d 00 00     ................
      5c:	a5 1d 00 00 a5 1d 00 00 3d 08 00 00 4d 08 00 00     ........=...M...
      6c:	5d 08 00 00 6d 08 00 00 7d 08 00 00 8d 08 00 00     ]...m...}.......
      7c:	a5 1d 00 00 a5 1d 00 00 a5 1d 00 00 85 1a 00 00     ................
      8c:	95 1a 00 00 a5 1a 00 00 00 00 00 00 00 00 00 00     ................
      9c:	a5 1d 00 00 a5 1d 00 00 00 00 00 00 a5 1d 00 00     ................
	...

000000b4 <__do_global_dtors_aux>:
      b4:	b510      	push	{r4, lr}
      b6:	4c06      	ldr	r4, [pc, #24]	; (d0 <__do_global_dtors_aux+0x1c>)
      b8:	7823      	ldrb	r3, [r4, #0]
      ba:	2b00      	cmp	r3, #0
      bc:	d107      	bne.n	ce <__do_global_dtors_aux+0x1a>
      be:	4b05      	ldr	r3, [pc, #20]	; (d4 <__do_global_dtors_aux+0x20>)
      c0:	2b00      	cmp	r3, #0
      c2:	d002      	beq.n	ca <__do_global_dtors_aux+0x16>
      c4:	4804      	ldr	r0, [pc, #16]	; (d8 <__do_global_dtors_aux+0x24>)
      c6:	e000      	b.n	ca <__do_global_dtors_aux+0x16>
      c8:	bf00      	nop
      ca:	2301      	movs	r3, #1
      cc:	7023      	strb	r3, [r4, #0]
      ce:	bd10      	pop	{r4, pc}
      d0:	200000e0 	.word	0x200000e0
      d4:	00000000 	.word	0x00000000
      d8:	0000a438 	.word	0x0000a438

000000dc <frame_dummy>:
      dc:	4b08      	ldr	r3, [pc, #32]	; (100 <frame_dummy+0x24>)
      de:	b510      	push	{r4, lr}
      e0:	2b00      	cmp	r3, #0
      e2:	d003      	beq.n	ec <frame_dummy+0x10>
      e4:	4907      	ldr	r1, [pc, #28]	; (104 <frame_dummy+0x28>)
      e6:	4808      	ldr	r0, [pc, #32]	; (108 <frame_dummy+0x2c>)
      e8:	e000      	b.n	ec <frame_dummy+0x10>
      ea:	bf00      	nop
      ec:	4807      	ldr	r0, [pc, #28]	; (10c <frame_dummy+0x30>)
      ee:	6803      	ldr	r3, [r0, #0]
      f0:	2b00      	cmp	r3, #0
      f2:	d100      	bne.n	f6 <frame_dummy+0x1a>
      f4:	bd10      	pop	{r4, pc}
      f6:	4b06      	ldr	r3, [pc, #24]	; (110 <frame_dummy+0x34>)
      f8:	2b00      	cmp	r3, #0
      fa:	d0fb      	beq.n	f4 <frame_dummy+0x18>
      fc:	4798      	blx	r3
      fe:	e7f9      	b.n	f4 <frame_dummy+0x18>
     100:	00000000 	.word	0x00000000
     104:	200000e4 	.word	0x200000e4
     108:	0000a438 	.word	0x0000a438
     10c:	0000a438 	.word	0x0000a438
     110:	00000000 	.word	0x00000000

00000114 <delay_init>:
     114:	b570      	push	{r4, r5, r6, lr}
     116:	2000      	movs	r0, #0
     118:	4b08      	ldr	r3, [pc, #32]	; (13c <delay_init+0x28>)
     11a:	4798      	blx	r3
     11c:	0005      	movs	r5, r0
     11e:	4c08      	ldr	r4, [pc, #32]	; (140 <delay_init+0x2c>)
     120:	21fa      	movs	r1, #250	; 0xfa
     122:	0089      	lsls	r1, r1, #2
     124:	47a0      	blx	r4
     126:	4b07      	ldr	r3, [pc, #28]	; (144 <delay_init+0x30>)
     128:	6018      	str	r0, [r3, #0]
     12a:	4907      	ldr	r1, [pc, #28]	; (148 <delay_init+0x34>)
     12c:	0028      	movs	r0, r5
     12e:	47a0      	blx	r4
     130:	4b06      	ldr	r3, [pc, #24]	; (14c <delay_init+0x38>)
     132:	6018      	str	r0, [r3, #0]
     134:	2205      	movs	r2, #5
     136:	4b06      	ldr	r3, [pc, #24]	; (150 <delay_init+0x3c>)
     138:	601a      	str	r2, [r3, #0]
     13a:	bd70      	pop	{r4, r5, r6, pc}
     13c:	0000177d 	.word	0x0000177d
     140:	00009005 	.word	0x00009005
     144:	20000000 	.word	0x20000000
     148:	000f4240 	.word	0x000f4240
     14c:	20000004 	.word	0x20000004
     150:	e000e010 	.word	0xe000e010

00000154 <delay_cycles_us>:
     154:	b530      	push	{r4, r5, lr}
     156:	4b08      	ldr	r3, [pc, #32]	; (178 <delay_cycles_us+0x24>)
     158:	681c      	ldr	r4, [r3, #0]
     15a:	4a08      	ldr	r2, [pc, #32]	; (17c <delay_cycles_us+0x28>)
     15c:	2500      	movs	r5, #0
     15e:	2180      	movs	r1, #128	; 0x80
     160:	0249      	lsls	r1, r1, #9
     162:	3801      	subs	r0, #1
     164:	d307      	bcc.n	176 <delay_cycles_us+0x22>
     166:	2c00      	cmp	r4, #0
     168:	d0fb      	beq.n	162 <delay_cycles_us+0xe>
     16a:	6054      	str	r4, [r2, #4]
     16c:	6095      	str	r5, [r2, #8]
     16e:	6813      	ldr	r3, [r2, #0]
     170:	420b      	tst	r3, r1
     172:	d0fc      	beq.n	16e <delay_cycles_us+0x1a>
     174:	e7f5      	b.n	162 <delay_cycles_us+0xe>
     176:	bd30      	pop	{r4, r5, pc}
     178:	20000004 	.word	0x20000004
     17c:	e000e010 	.word	0xe000e010

00000180 <cpu_irq_enter_critical>:
     180:	4b0c      	ldr	r3, [pc, #48]	; (1b4 <cpu_irq_enter_critical+0x34>)
     182:	681b      	ldr	r3, [r3, #0]
     184:	2b00      	cmp	r3, #0
     186:	d106      	bne.n	196 <cpu_irq_enter_critical+0x16>
     188:	f3ef 8310 	mrs	r3, PRIMASK
     18c:	2b00      	cmp	r3, #0
     18e:	d007      	beq.n	1a0 <cpu_irq_enter_critical+0x20>
     190:	2200      	movs	r2, #0
     192:	4b09      	ldr	r3, [pc, #36]	; (1b8 <cpu_irq_enter_critical+0x38>)
     194:	701a      	strb	r2, [r3, #0]
     196:	4a07      	ldr	r2, [pc, #28]	; (1b4 <cpu_irq_enter_critical+0x34>)
     198:	6813      	ldr	r3, [r2, #0]
     19a:	3301      	adds	r3, #1
     19c:	6013      	str	r3, [r2, #0]
     19e:	4770      	bx	lr
     1a0:	b672      	cpsid	i
     1a2:	f3bf 8f5f 	dmb	sy
     1a6:	2200      	movs	r2, #0
     1a8:	4b04      	ldr	r3, [pc, #16]	; (1bc <cpu_irq_enter_critical+0x3c>)
     1aa:	701a      	strb	r2, [r3, #0]
     1ac:	3201      	adds	r2, #1
     1ae:	4b02      	ldr	r3, [pc, #8]	; (1b8 <cpu_irq_enter_critical+0x38>)
     1b0:	701a      	strb	r2, [r3, #0]
     1b2:	e7f0      	b.n	196 <cpu_irq_enter_critical+0x16>
     1b4:	200000fc 	.word	0x200000fc
     1b8:	20000100 	.word	0x20000100
     1bc:	20000008 	.word	0x20000008

000001c0 <cpu_irq_leave_critical>:
     1c0:	4b08      	ldr	r3, [pc, #32]	; (1e4 <cpu_irq_leave_critical+0x24>)
     1c2:	681a      	ldr	r2, [r3, #0]
     1c4:	3a01      	subs	r2, #1
     1c6:	601a      	str	r2, [r3, #0]
     1c8:	681b      	ldr	r3, [r3, #0]
     1ca:	2b00      	cmp	r3, #0
     1cc:	d109      	bne.n	1e2 <cpu_irq_leave_critical+0x22>
     1ce:	4b06      	ldr	r3, [pc, #24]	; (1e8 <cpu_irq_leave_critical+0x28>)
     1d0:	781b      	ldrb	r3, [r3, #0]
     1d2:	2b00      	cmp	r3, #0
     1d4:	d005      	beq.n	1e2 <cpu_irq_leave_critical+0x22>
     1d6:	2201      	movs	r2, #1
     1d8:	4b04      	ldr	r3, [pc, #16]	; (1ec <cpu_irq_leave_critical+0x2c>)
     1da:	701a      	strb	r2, [r3, #0]
     1dc:	f3bf 8f5f 	dmb	sy
     1e0:	b662      	cpsie	i
     1e2:	4770      	bx	lr
     1e4:	200000fc 	.word	0x200000fc
     1e8:	20000100 	.word	0x20000100
     1ec:	20000008 	.word	0x20000008

000001f0 <system_board_init>:
     1f0:	b570      	push	{r4, r5, r6, lr}
     1f2:	b082      	sub	sp, #8
     1f4:	ac01      	add	r4, sp, #4
     1f6:	2301      	movs	r3, #1
     1f8:	7063      	strb	r3, [r4, #1]
     1fa:	2600      	movs	r6, #0
     1fc:	70a6      	strb	r6, [r4, #2]
     1fe:	7023      	strb	r3, [r4, #0]
     200:	0021      	movs	r1, r4
     202:	2052      	movs	r0, #82	; 0x52
     204:	4d12      	ldr	r5, [pc, #72]	; (250 <system_board_init+0x60>)
     206:	47a8      	blx	r5
     208:	0021      	movs	r1, r4
     20a:	203e      	movs	r0, #62	; 0x3e
     20c:	47a8      	blx	r5
     20e:	0021      	movs	r1, r4
     210:	203f      	movs	r0, #63	; 0x3f
     212:	47a8      	blx	r5
     214:	0021      	movs	r1, r4
     216:	202f      	movs	r0, #47	; 0x2f
     218:	47a8      	blx	r5
     21a:	0021      	movs	r1, r4
     21c:	2014      	movs	r0, #20
     21e:	47a8      	blx	r5
     220:	2280      	movs	r2, #128	; 0x80
     222:	02d2      	lsls	r2, r2, #11
     224:	4b0b      	ldr	r3, [pc, #44]	; (254 <system_board_init+0x64>)
     226:	619a      	str	r2, [r3, #24]
     228:	4b0b      	ldr	r3, [pc, #44]	; (258 <system_board_init+0x68>)
     22a:	2280      	movs	r2, #128	; 0x80
     22c:	05d2      	lsls	r2, r2, #23
     22e:	619a      	str	r2, [r3, #24]
     230:	2280      	movs	r2, #128	; 0x80
     232:	0612      	lsls	r2, r2, #24
     234:	619a      	str	r2, [r3, #24]
     236:	2280      	movs	r2, #128	; 0x80
     238:	0212      	lsls	r2, r2, #8
     23a:	619a      	str	r2, [r3, #24]
     23c:	2280      	movs	r2, #128	; 0x80
     23e:	0352      	lsls	r2, r2, #13
     240:	4b06      	ldr	r3, [pc, #24]	; (25c <system_board_init+0x6c>)
     242:	619a      	str	r2, [r3, #24]
     244:	7026      	strb	r6, [r4, #0]
     246:	0021      	movs	r1, r4
     248:	2053      	movs	r0, #83	; 0x53
     24a:	47a8      	blx	r5
     24c:	b002      	add	sp, #8
     24e:	bd70      	pop	{r4, r5, r6, pc}
     250:	00000431 	.word	0x00000431
     254:	41004500 	.word	0x41004500
     258:	41004480 	.word	0x41004480
     25c:	41004400 	.word	0x41004400

00000260 <extint_register_callback>:
     260:	2317      	movs	r3, #23
     262:	2a00      	cmp	r2, #0
     264:	d001      	beq.n	26a <extint_register_callback+0xa>
     266:	0018      	movs	r0, r3
     268:	4770      	bx	lr
     26a:	008b      	lsls	r3, r1, #2
     26c:	4a06      	ldr	r2, [pc, #24]	; (288 <extint_register_callback+0x28>)
     26e:	589b      	ldr	r3, [r3, r2]
     270:	2b00      	cmp	r3, #0
     272:	d003      	beq.n	27c <extint_register_callback+0x1c>
     274:	4283      	cmp	r3, r0
     276:	d005      	beq.n	284 <extint_register_callback+0x24>
     278:	231d      	movs	r3, #29
     27a:	e7f4      	b.n	266 <extint_register_callback+0x6>
     27c:	0089      	lsls	r1, r1, #2
     27e:	5088      	str	r0, [r1, r2]
     280:	2300      	movs	r3, #0
     282:	e7f0      	b.n	266 <extint_register_callback+0x6>
     284:	2300      	movs	r3, #0
     286:	e7ee      	b.n	266 <extint_register_callback+0x6>
     288:	200003c4 	.word	0x200003c4

0000028c <extint_chan_enable_callback>:
     28c:	2317      	movs	r3, #23
     28e:	2900      	cmp	r1, #0
     290:	d001      	beq.n	296 <extint_chan_enable_callback+0xa>
     292:	0018      	movs	r0, r3
     294:	4770      	bx	lr
     296:	2200      	movs	r2, #0
     298:	281f      	cmp	r0, #31
     29a:	d800      	bhi.n	29e <extint_chan_enable_callback+0x12>
     29c:	4a02      	ldr	r2, [pc, #8]	; (2a8 <extint_chan_enable_callback+0x1c>)
     29e:	2301      	movs	r3, #1
     2a0:	4083      	lsls	r3, r0
     2a2:	60d3      	str	r3, [r2, #12]
     2a4:	2300      	movs	r3, #0
     2a6:	e7f4      	b.n	292 <extint_chan_enable_callback+0x6>
     2a8:	40001800 	.word	0x40001800

000002ac <extint_chan_disable_callback>:
     2ac:	2317      	movs	r3, #23
     2ae:	2900      	cmp	r1, #0
     2b0:	d001      	beq.n	2b6 <extint_chan_disable_callback+0xa>
     2b2:	0018      	movs	r0, r3
     2b4:	4770      	bx	lr
     2b6:	2200      	movs	r2, #0
     2b8:	281f      	cmp	r0, #31
     2ba:	d800      	bhi.n	2be <extint_chan_disable_callback+0x12>
     2bc:	4a02      	ldr	r2, [pc, #8]	; (2c8 <extint_chan_disable_callback+0x1c>)
     2be:	2301      	movs	r3, #1
     2c0:	4083      	lsls	r3, r0
     2c2:	6093      	str	r3, [r2, #8]
     2c4:	2300      	movs	r3, #0
     2c6:	e7f4      	b.n	2b2 <extint_chan_disable_callback+0x6>
     2c8:	40001800 	.word	0x40001800

000002cc <EIC_Handler>:
     2cc:	b570      	push	{r4, r5, r6, lr}
     2ce:	2200      	movs	r2, #0
     2d0:	4b10      	ldr	r3, [pc, #64]	; (314 <EIC_Handler+0x48>)
     2d2:	701a      	strb	r2, [r3, #0]
     2d4:	2300      	movs	r3, #0
     2d6:	4910      	ldr	r1, [pc, #64]	; (318 <EIC_Handler+0x4c>)
     2d8:	251f      	movs	r5, #31
     2da:	4e10      	ldr	r6, [pc, #64]	; (31c <EIC_Handler+0x50>)
     2dc:	4c0d      	ldr	r4, [pc, #52]	; (314 <EIC_Handler+0x48>)
     2de:	e00a      	b.n	2f6 <EIC_Handler+0x2a>
     2e0:	490d      	ldr	r1, [pc, #52]	; (318 <EIC_Handler+0x4c>)
     2e2:	e008      	b.n	2f6 <EIC_Handler+0x2a>
     2e4:	7823      	ldrb	r3, [r4, #0]
     2e6:	3301      	adds	r3, #1
     2e8:	b2db      	uxtb	r3, r3
     2ea:	7023      	strb	r3, [r4, #0]
     2ec:	2b0f      	cmp	r3, #15
     2ee:	d810      	bhi.n	312 <EIC_Handler+0x46>
     2f0:	2100      	movs	r1, #0
     2f2:	2b1f      	cmp	r3, #31
     2f4:	d9f4      	bls.n	2e0 <EIC_Handler+0x14>
     2f6:	0028      	movs	r0, r5
     2f8:	4018      	ands	r0, r3
     2fa:	2201      	movs	r2, #1
     2fc:	4082      	lsls	r2, r0
     2fe:	6908      	ldr	r0, [r1, #16]
     300:	4210      	tst	r0, r2
     302:	d0ef      	beq.n	2e4 <EIC_Handler+0x18>
     304:	610a      	str	r2, [r1, #16]
     306:	009b      	lsls	r3, r3, #2
     308:	599b      	ldr	r3, [r3, r6]
     30a:	2b00      	cmp	r3, #0
     30c:	d0ea      	beq.n	2e4 <EIC_Handler+0x18>
     30e:	4798      	blx	r3
     310:	e7e8      	b.n	2e4 <EIC_Handler+0x18>
     312:	bd70      	pop	{r4, r5, r6, pc}
     314:	200003c0 	.word	0x200003c0
     318:	40001800 	.word	0x40001800
     31c:	200003c4 	.word	0x200003c4

00000320 <_extint_enable>:
     320:	4a04      	ldr	r2, [pc, #16]	; (334 <_extint_enable+0x14>)
     322:	7813      	ldrb	r3, [r2, #0]
     324:	2102      	movs	r1, #2
     326:	430b      	orrs	r3, r1
     328:	7013      	strb	r3, [r2, #0]
     32a:	7853      	ldrb	r3, [r2, #1]
     32c:	b25b      	sxtb	r3, r3
     32e:	2b00      	cmp	r3, #0
     330:	dbfb      	blt.n	32a <_extint_enable+0xa>
     332:	4770      	bx	lr
     334:	40001800 	.word	0x40001800

00000338 <_system_extint_init>:
     338:	b500      	push	{lr}
     33a:	b083      	sub	sp, #12
     33c:	4a12      	ldr	r2, [pc, #72]	; (388 <_system_extint_init+0x50>)
     33e:	6993      	ldr	r3, [r2, #24]
     340:	2140      	movs	r1, #64	; 0x40
     342:	430b      	orrs	r3, r1
     344:	6193      	str	r3, [r2, #24]
     346:	a901      	add	r1, sp, #4
     348:	2300      	movs	r3, #0
     34a:	700b      	strb	r3, [r1, #0]
     34c:	2005      	movs	r0, #5
     34e:	4b0f      	ldr	r3, [pc, #60]	; (38c <_system_extint_init+0x54>)
     350:	4798      	blx	r3
     352:	2005      	movs	r0, #5
     354:	4b0e      	ldr	r3, [pc, #56]	; (390 <_system_extint_init+0x58>)
     356:	4798      	blx	r3
     358:	4a0e      	ldr	r2, [pc, #56]	; (394 <_system_extint_init+0x5c>)
     35a:	7813      	ldrb	r3, [r2, #0]
     35c:	2101      	movs	r1, #1
     35e:	430b      	orrs	r3, r1
     360:	7013      	strb	r3, [r2, #0]
     362:	7853      	ldrb	r3, [r2, #1]
     364:	b25b      	sxtb	r3, r3
     366:	2b00      	cmp	r3, #0
     368:	dbfb      	blt.n	362 <_system_extint_init+0x2a>
     36a:	4b0b      	ldr	r3, [pc, #44]	; (398 <_system_extint_init+0x60>)
     36c:	0019      	movs	r1, r3
     36e:	3140      	adds	r1, #64	; 0x40
     370:	2200      	movs	r2, #0
     372:	c304      	stmia	r3!, {r2}
     374:	4299      	cmp	r1, r3
     376:	d1fc      	bne.n	372 <_system_extint_init+0x3a>
     378:	2210      	movs	r2, #16
     37a:	4b08      	ldr	r3, [pc, #32]	; (39c <_system_extint_init+0x64>)
     37c:	601a      	str	r2, [r3, #0]
     37e:	4b08      	ldr	r3, [pc, #32]	; (3a0 <_system_extint_init+0x68>)
     380:	4798      	blx	r3
     382:	b003      	add	sp, #12
     384:	bd00      	pop	{pc}
     386:	46c0      	nop			; (mov r8, r8)
     388:	40000400 	.word	0x40000400
     38c:	00001895 	.word	0x00001895
     390:	00001809 	.word	0x00001809
     394:	40001800 	.word	0x40001800
     398:	200003c4 	.word	0x200003c4
     39c:	e000e100 	.word	0xe000e100
     3a0:	00000321 	.word	0x00000321

000003a4 <extint_chan_get_config_defaults>:
     3a4:	2300      	movs	r3, #0
     3a6:	6003      	str	r3, [r0, #0]
     3a8:	6043      	str	r3, [r0, #4]
     3aa:	2201      	movs	r2, #1
     3ac:	7202      	strb	r2, [r0, #8]
     3ae:	7242      	strb	r2, [r0, #9]
     3b0:	7283      	strb	r3, [r0, #10]
     3b2:	3302      	adds	r3, #2
     3b4:	72c3      	strb	r3, [r0, #11]
     3b6:	4770      	bx	lr

000003b8 <extint_chan_set_config>:
     3b8:	b5f0      	push	{r4, r5, r6, r7, lr}
     3ba:	b083      	sub	sp, #12
     3bc:	0005      	movs	r5, r0
     3be:	000c      	movs	r4, r1
     3c0:	a901      	add	r1, sp, #4
     3c2:	2300      	movs	r3, #0
     3c4:	704b      	strb	r3, [r1, #1]
     3c6:	70cb      	strb	r3, [r1, #3]
     3c8:	7923      	ldrb	r3, [r4, #4]
     3ca:	700b      	strb	r3, [r1, #0]
     3cc:	7a23      	ldrb	r3, [r4, #8]
     3ce:	708b      	strb	r3, [r1, #2]
     3d0:	7820      	ldrb	r0, [r4, #0]
     3d2:	4b15      	ldr	r3, [pc, #84]	; (428 <extint_chan_set_config+0x70>)
     3d4:	4798      	blx	r3
     3d6:	2000      	movs	r0, #0
     3d8:	2d1f      	cmp	r5, #31
     3da:	d800      	bhi.n	3de <extint_chan_set_config+0x26>
     3dc:	4813      	ldr	r0, [pc, #76]	; (42c <extint_chan_set_config+0x74>)
     3de:	2207      	movs	r2, #7
     3e0:	402a      	ands	r2, r5
     3e2:	0092      	lsls	r2, r2, #2
     3e4:	7ae7      	ldrb	r7, [r4, #11]
     3e6:	7aa3      	ldrb	r3, [r4, #10]
     3e8:	2b00      	cmp	r3, #0
     3ea:	d001      	beq.n	3f0 <extint_chan_set_config+0x38>
     3ec:	2308      	movs	r3, #8
     3ee:	431f      	orrs	r7, r3
     3f0:	08eb      	lsrs	r3, r5, #3
     3f2:	009b      	lsls	r3, r3, #2
     3f4:	18c3      	adds	r3, r0, r3
     3f6:	6999      	ldr	r1, [r3, #24]
     3f8:	260f      	movs	r6, #15
     3fa:	4096      	lsls	r6, r2
     3fc:	43b1      	bics	r1, r6
     3fe:	4097      	lsls	r7, r2
     400:	003a      	movs	r2, r7
     402:	430a      	orrs	r2, r1
     404:	619a      	str	r2, [r3, #24]
     406:	7a63      	ldrb	r3, [r4, #9]
     408:	2b00      	cmp	r3, #0
     40a:	d106      	bne.n	41a <extint_chan_set_config+0x62>
     40c:	6943      	ldr	r3, [r0, #20]
     40e:	2201      	movs	r2, #1
     410:	40aa      	lsls	r2, r5
     412:	4393      	bics	r3, r2
     414:	6143      	str	r3, [r0, #20]
     416:	b003      	add	sp, #12
     418:	bdf0      	pop	{r4, r5, r6, r7, pc}
     41a:	6942      	ldr	r2, [r0, #20]
     41c:	2301      	movs	r3, #1
     41e:	40ab      	lsls	r3, r5
     420:	4313      	orrs	r3, r2
     422:	6143      	str	r3, [r0, #20]
     424:	e7f7      	b.n	416 <extint_chan_set_config+0x5e>
     426:	46c0      	nop			; (mov r8, r8)
     428:	0000198d 	.word	0x0000198d
     42c:	40001800 	.word	0x40001800

00000430 <port_pin_set_config>:
     430:	b500      	push	{lr}
     432:	b083      	sub	sp, #12
     434:	ab01      	add	r3, sp, #4
     436:	2280      	movs	r2, #128	; 0x80
     438:	701a      	strb	r2, [r3, #0]
     43a:	780a      	ldrb	r2, [r1, #0]
     43c:	705a      	strb	r2, [r3, #1]
     43e:	784a      	ldrb	r2, [r1, #1]
     440:	709a      	strb	r2, [r3, #2]
     442:	788a      	ldrb	r2, [r1, #2]
     444:	70da      	strb	r2, [r3, #3]
     446:	0019      	movs	r1, r3
     448:	4b01      	ldr	r3, [pc, #4]	; (450 <port_pin_set_config+0x20>)
     44a:	4798      	blx	r3
     44c:	b003      	add	sp, #12
     44e:	bd00      	pop	{pc}
     450:	0000198d 	.word	0x0000198d

00000454 <long_division>:
     454:	b5f0      	push	{r4, r5, r6, r7, lr}
     456:	46de      	mov	lr, fp
     458:	4657      	mov	r7, sl
     45a:	464e      	mov	r6, r9
     45c:	4645      	mov	r5, r8
     45e:	b5e0      	push	{r5, r6, r7, lr}
     460:	b087      	sub	sp, #28
     462:	4680      	mov	r8, r0
     464:	9104      	str	r1, [sp, #16]
     466:	0016      	movs	r6, r2
     468:	001f      	movs	r7, r3
     46a:	2200      	movs	r2, #0
     46c:	2300      	movs	r3, #0
     46e:	2100      	movs	r1, #0
     470:	468b      	mov	fp, r1
     472:	243f      	movs	r4, #63	; 0x3f
     474:	2001      	movs	r0, #1
     476:	0021      	movs	r1, r4
     478:	9600      	str	r6, [sp, #0]
     47a:	9701      	str	r7, [sp, #4]
     47c:	465c      	mov	r4, fp
     47e:	9403      	str	r4, [sp, #12]
     480:	4644      	mov	r4, r8
     482:	9405      	str	r4, [sp, #20]
     484:	e013      	b.n	4ae <long_division+0x5a>
     486:	2420      	movs	r4, #32
     488:	1a64      	subs	r4, r4, r1
     48a:	0005      	movs	r5, r0
     48c:	40e5      	lsrs	r5, r4
     48e:	46a8      	mov	r8, r5
     490:	e014      	b.n	4bc <long_division+0x68>
     492:	9c00      	ldr	r4, [sp, #0]
     494:	9d01      	ldr	r5, [sp, #4]
     496:	1b12      	subs	r2, r2, r4
     498:	41ab      	sbcs	r3, r5
     49a:	465c      	mov	r4, fp
     49c:	464d      	mov	r5, r9
     49e:	432c      	orrs	r4, r5
     4a0:	46a3      	mov	fp, r4
     4a2:	9c03      	ldr	r4, [sp, #12]
     4a4:	4645      	mov	r5, r8
     4a6:	432c      	orrs	r4, r5
     4a8:	9403      	str	r4, [sp, #12]
     4aa:	3901      	subs	r1, #1
     4ac:	d325      	bcc.n	4fa <long_division+0xa6>
     4ae:	2420      	movs	r4, #32
     4b0:	4264      	negs	r4, r4
     4b2:	190c      	adds	r4, r1, r4
     4b4:	d4e7      	bmi.n	486 <long_division+0x32>
     4b6:	0005      	movs	r5, r0
     4b8:	40a5      	lsls	r5, r4
     4ba:	46a8      	mov	r8, r5
     4bc:	0004      	movs	r4, r0
     4be:	408c      	lsls	r4, r1
     4c0:	46a1      	mov	r9, r4
     4c2:	1892      	adds	r2, r2, r2
     4c4:	415b      	adcs	r3, r3
     4c6:	0014      	movs	r4, r2
     4c8:	001d      	movs	r5, r3
     4ca:	9e05      	ldr	r6, [sp, #20]
     4cc:	464f      	mov	r7, r9
     4ce:	403e      	ands	r6, r7
     4d0:	46b4      	mov	ip, r6
     4d2:	9e04      	ldr	r6, [sp, #16]
     4d4:	4647      	mov	r7, r8
     4d6:	403e      	ands	r6, r7
     4d8:	46b2      	mov	sl, r6
     4da:	4666      	mov	r6, ip
     4dc:	4657      	mov	r7, sl
     4de:	433e      	orrs	r6, r7
     4e0:	d003      	beq.n	4ea <long_division+0x96>
     4e2:	0006      	movs	r6, r0
     4e4:	4326      	orrs	r6, r4
     4e6:	0032      	movs	r2, r6
     4e8:	002b      	movs	r3, r5
     4ea:	9c00      	ldr	r4, [sp, #0]
     4ec:	9d01      	ldr	r5, [sp, #4]
     4ee:	429d      	cmp	r5, r3
     4f0:	d8db      	bhi.n	4aa <long_division+0x56>
     4f2:	d1ce      	bne.n	492 <long_division+0x3e>
     4f4:	4294      	cmp	r4, r2
     4f6:	d8d8      	bhi.n	4aa <long_division+0x56>
     4f8:	e7cb      	b.n	492 <long_division+0x3e>
     4fa:	9b03      	ldr	r3, [sp, #12]
     4fc:	4658      	mov	r0, fp
     4fe:	0019      	movs	r1, r3
     500:	b007      	add	sp, #28
     502:	bc3c      	pop	{r2, r3, r4, r5}
     504:	4690      	mov	r8, r2
     506:	4699      	mov	r9, r3
     508:	46a2      	mov	sl, r4
     50a:	46ab      	mov	fp, r5
     50c:	bdf0      	pop	{r4, r5, r6, r7, pc}

0000050e <_sercom_get_sync_baud_val>:
     50e:	b510      	push	{r4, lr}
     510:	0849      	lsrs	r1, r1, #1
     512:	2340      	movs	r3, #64	; 0x40
     514:	2400      	movs	r4, #0
     516:	4281      	cmp	r1, r0
     518:	d202      	bcs.n	520 <_sercom_get_sync_baud_val+0x12>
     51a:	0018      	movs	r0, r3
     51c:	bd10      	pop	{r4, pc}
     51e:	001c      	movs	r4, r3
     520:	1a09      	subs	r1, r1, r0
     522:	1c63      	adds	r3, r4, #1
     524:	b29b      	uxth	r3, r3
     526:	4288      	cmp	r0, r1
     528:	d9f9      	bls.n	51e <_sercom_get_sync_baud_val+0x10>
     52a:	2340      	movs	r3, #64	; 0x40
     52c:	2cff      	cmp	r4, #255	; 0xff
     52e:	d8f4      	bhi.n	51a <_sercom_get_sync_baud_val+0xc>
     530:	8014      	strh	r4, [r2, #0]
     532:	2300      	movs	r3, #0
     534:	e7f1      	b.n	51a <_sercom_get_sync_baud_val+0xc>
	...

00000538 <_sercom_get_async_baud_val>:
     538:	b5f0      	push	{r4, r5, r6, r7, lr}
     53a:	b083      	sub	sp, #12
     53c:	000f      	movs	r7, r1
     53e:	0016      	movs	r6, r2
     540:	aa08      	add	r2, sp, #32
     542:	7811      	ldrb	r1, [r2, #0]
     544:	0004      	movs	r4, r0
     546:	434c      	muls	r4, r1
     548:	2240      	movs	r2, #64	; 0x40
     54a:	42bc      	cmp	r4, r7
     54c:	d902      	bls.n	554 <_sercom_get_async_baud_val+0x1c>
     54e:	0010      	movs	r0, r2
     550:	b003      	add	sp, #12
     552:	bdf0      	pop	{r4, r5, r6, r7, pc}
     554:	2b00      	cmp	r3, #0
     556:	d114      	bne.n	582 <_sercom_get_async_baud_val+0x4a>
     558:	0002      	movs	r2, r0
     55a:	0008      	movs	r0, r1
     55c:	2100      	movs	r1, #0
     55e:	4c19      	ldr	r4, [pc, #100]	; (5c4 <_sercom_get_async_baud_val+0x8c>)
     560:	47a0      	blx	r4
     562:	0001      	movs	r1, r0
     564:	003a      	movs	r2, r7
     566:	2300      	movs	r3, #0
     568:	2000      	movs	r0, #0
     56a:	4c17      	ldr	r4, [pc, #92]	; (5c8 <_sercom_get_async_baud_val+0x90>)
     56c:	47a0      	blx	r4
     56e:	2200      	movs	r2, #0
     570:	2301      	movs	r3, #1
     572:	1a12      	subs	r2, r2, r0
     574:	418b      	sbcs	r3, r1
     576:	0c12      	lsrs	r2, r2, #16
     578:	041b      	lsls	r3, r3, #16
     57a:	431a      	orrs	r2, r3
     57c:	8032      	strh	r2, [r6, #0]
     57e:	2200      	movs	r2, #0
     580:	e7e5      	b.n	54e <_sercom_get_async_baud_val+0x16>
     582:	2200      	movs	r2, #0
     584:	2b01      	cmp	r3, #1
     586:	d1f9      	bne.n	57c <_sercom_get_async_baud_val+0x44>
     588:	000a      	movs	r2, r1
     58a:	2300      	movs	r3, #0
     58c:	2100      	movs	r1, #0
     58e:	4c0d      	ldr	r4, [pc, #52]	; (5c4 <_sercom_get_async_baud_val+0x8c>)
     590:	47a0      	blx	r4
     592:	0002      	movs	r2, r0
     594:	000b      	movs	r3, r1
     596:	9200      	str	r2, [sp, #0]
     598:	9301      	str	r3, [sp, #4]
     59a:	0038      	movs	r0, r7
     59c:	2100      	movs	r1, #0
     59e:	4c0a      	ldr	r4, [pc, #40]	; (5c8 <_sercom_get_async_baud_val+0x90>)
     5a0:	47a0      	blx	r4
     5a2:	0005      	movs	r5, r0
     5a4:	2380      	movs	r3, #128	; 0x80
     5a6:	019b      	lsls	r3, r3, #6
     5a8:	2240      	movs	r2, #64	; 0x40
     5aa:	4298      	cmp	r0, r3
     5ac:	d8cf      	bhi.n	54e <_sercom_get_async_baud_val+0x16>
     5ae:	0f79      	lsrs	r1, r7, #29
     5b0:	00f8      	lsls	r0, r7, #3
     5b2:	9a00      	ldr	r2, [sp, #0]
     5b4:	9b01      	ldr	r3, [sp, #4]
     5b6:	47a0      	blx	r4
     5b8:	00ea      	lsls	r2, r5, #3
     5ba:	1a82      	subs	r2, r0, r2
     5bc:	b2d2      	uxtb	r2, r2
     5be:	0352      	lsls	r2, r2, #13
     5c0:	432a      	orrs	r2, r5
     5c2:	e7db      	b.n	57c <_sercom_get_async_baud_val+0x44>
     5c4:	000092f1 	.word	0x000092f1
     5c8:	00000455 	.word	0x00000455

000005cc <sercom_set_gclk_generator>:
     5cc:	b510      	push	{r4, lr}
     5ce:	b082      	sub	sp, #8
     5d0:	0004      	movs	r4, r0
     5d2:	4b0e      	ldr	r3, [pc, #56]	; (60c <sercom_set_gclk_generator+0x40>)
     5d4:	781b      	ldrb	r3, [r3, #0]
     5d6:	2b00      	cmp	r3, #0
     5d8:	d007      	beq.n	5ea <sercom_set_gclk_generator+0x1e>
     5da:	2900      	cmp	r1, #0
     5dc:	d105      	bne.n	5ea <sercom_set_gclk_generator+0x1e>
     5de:	4b0b      	ldr	r3, [pc, #44]	; (60c <sercom_set_gclk_generator+0x40>)
     5e0:	785b      	ldrb	r3, [r3, #1]
     5e2:	4283      	cmp	r3, r0
     5e4:	d010      	beq.n	608 <sercom_set_gclk_generator+0x3c>
     5e6:	201d      	movs	r0, #29
     5e8:	e00c      	b.n	604 <sercom_set_gclk_generator+0x38>
     5ea:	a901      	add	r1, sp, #4
     5ec:	700c      	strb	r4, [r1, #0]
     5ee:	2013      	movs	r0, #19
     5f0:	4b07      	ldr	r3, [pc, #28]	; (610 <sercom_set_gclk_generator+0x44>)
     5f2:	4798      	blx	r3
     5f4:	2013      	movs	r0, #19
     5f6:	4b07      	ldr	r3, [pc, #28]	; (614 <sercom_set_gclk_generator+0x48>)
     5f8:	4798      	blx	r3
     5fa:	4b04      	ldr	r3, [pc, #16]	; (60c <sercom_set_gclk_generator+0x40>)
     5fc:	705c      	strb	r4, [r3, #1]
     5fe:	2201      	movs	r2, #1
     600:	701a      	strb	r2, [r3, #0]
     602:	2000      	movs	r0, #0
     604:	b002      	add	sp, #8
     606:	bd10      	pop	{r4, pc}
     608:	2000      	movs	r0, #0
     60a:	e7fb      	b.n	604 <sercom_set_gclk_generator+0x38>
     60c:	20000104 	.word	0x20000104
     610:	00001895 	.word	0x00001895
     614:	00001809 	.word	0x00001809

00000618 <_sercom_get_default_pad>:
     618:	4b40      	ldr	r3, [pc, #256]	; (71c <_sercom_get_default_pad+0x104>)
     61a:	4298      	cmp	r0, r3
     61c:	d031      	beq.n	682 <_sercom_get_default_pad+0x6a>
     61e:	d90a      	bls.n	636 <_sercom_get_default_pad+0x1e>
     620:	4b3f      	ldr	r3, [pc, #252]	; (720 <_sercom_get_default_pad+0x108>)
     622:	4298      	cmp	r0, r3
     624:	d04d      	beq.n	6c2 <_sercom_get_default_pad+0xaa>
     626:	4b3f      	ldr	r3, [pc, #252]	; (724 <_sercom_get_default_pad+0x10c>)
     628:	4298      	cmp	r0, r3
     62a:	d05a      	beq.n	6e2 <_sercom_get_default_pad+0xca>
     62c:	4b3e      	ldr	r3, [pc, #248]	; (728 <_sercom_get_default_pad+0x110>)
     62e:	4298      	cmp	r0, r3
     630:	d037      	beq.n	6a2 <_sercom_get_default_pad+0x8a>
     632:	2000      	movs	r0, #0
     634:	4770      	bx	lr
     636:	4b3d      	ldr	r3, [pc, #244]	; (72c <_sercom_get_default_pad+0x114>)
     638:	4298      	cmp	r0, r3
     63a:	d00c      	beq.n	656 <_sercom_get_default_pad+0x3e>
     63c:	4b3c      	ldr	r3, [pc, #240]	; (730 <_sercom_get_default_pad+0x118>)
     63e:	4298      	cmp	r0, r3
     640:	d1f7      	bne.n	632 <_sercom_get_default_pad+0x1a>
     642:	2901      	cmp	r1, #1
     644:	d017      	beq.n	676 <_sercom_get_default_pad+0x5e>
     646:	2900      	cmp	r1, #0
     648:	d05d      	beq.n	706 <_sercom_get_default_pad+0xee>
     64a:	2902      	cmp	r1, #2
     64c:	d015      	beq.n	67a <_sercom_get_default_pad+0x62>
     64e:	2903      	cmp	r1, #3
     650:	d015      	beq.n	67e <_sercom_get_default_pad+0x66>
     652:	2000      	movs	r0, #0
     654:	e7ee      	b.n	634 <_sercom_get_default_pad+0x1c>
     656:	2901      	cmp	r1, #1
     658:	d007      	beq.n	66a <_sercom_get_default_pad+0x52>
     65a:	2900      	cmp	r1, #0
     65c:	d051      	beq.n	702 <_sercom_get_default_pad+0xea>
     65e:	2902      	cmp	r1, #2
     660:	d005      	beq.n	66e <_sercom_get_default_pad+0x56>
     662:	2903      	cmp	r1, #3
     664:	d005      	beq.n	672 <_sercom_get_default_pad+0x5a>
     666:	2000      	movs	r0, #0
     668:	e7e4      	b.n	634 <_sercom_get_default_pad+0x1c>
     66a:	4832      	ldr	r0, [pc, #200]	; (734 <_sercom_get_default_pad+0x11c>)
     66c:	e7e2      	b.n	634 <_sercom_get_default_pad+0x1c>
     66e:	4832      	ldr	r0, [pc, #200]	; (738 <_sercom_get_default_pad+0x120>)
     670:	e7e0      	b.n	634 <_sercom_get_default_pad+0x1c>
     672:	4832      	ldr	r0, [pc, #200]	; (73c <_sercom_get_default_pad+0x124>)
     674:	e7de      	b.n	634 <_sercom_get_default_pad+0x1c>
     676:	4832      	ldr	r0, [pc, #200]	; (740 <_sercom_get_default_pad+0x128>)
     678:	e7dc      	b.n	634 <_sercom_get_default_pad+0x1c>
     67a:	4832      	ldr	r0, [pc, #200]	; (744 <_sercom_get_default_pad+0x12c>)
     67c:	e7da      	b.n	634 <_sercom_get_default_pad+0x1c>
     67e:	4832      	ldr	r0, [pc, #200]	; (748 <_sercom_get_default_pad+0x130>)
     680:	e7d8      	b.n	634 <_sercom_get_default_pad+0x1c>
     682:	2901      	cmp	r1, #1
     684:	d007      	beq.n	696 <_sercom_get_default_pad+0x7e>
     686:	2900      	cmp	r1, #0
     688:	d03f      	beq.n	70a <_sercom_get_default_pad+0xf2>
     68a:	2902      	cmp	r1, #2
     68c:	d005      	beq.n	69a <_sercom_get_default_pad+0x82>
     68e:	2903      	cmp	r1, #3
     690:	d005      	beq.n	69e <_sercom_get_default_pad+0x86>
     692:	2000      	movs	r0, #0
     694:	e7ce      	b.n	634 <_sercom_get_default_pad+0x1c>
     696:	482d      	ldr	r0, [pc, #180]	; (74c <_sercom_get_default_pad+0x134>)
     698:	e7cc      	b.n	634 <_sercom_get_default_pad+0x1c>
     69a:	482d      	ldr	r0, [pc, #180]	; (750 <_sercom_get_default_pad+0x138>)
     69c:	e7ca      	b.n	634 <_sercom_get_default_pad+0x1c>
     69e:	482d      	ldr	r0, [pc, #180]	; (754 <_sercom_get_default_pad+0x13c>)
     6a0:	e7c8      	b.n	634 <_sercom_get_default_pad+0x1c>
     6a2:	2901      	cmp	r1, #1
     6a4:	d007      	beq.n	6b6 <_sercom_get_default_pad+0x9e>
     6a6:	2900      	cmp	r1, #0
     6a8:	d031      	beq.n	70e <_sercom_get_default_pad+0xf6>
     6aa:	2902      	cmp	r1, #2
     6ac:	d005      	beq.n	6ba <_sercom_get_default_pad+0xa2>
     6ae:	2903      	cmp	r1, #3
     6b0:	d005      	beq.n	6be <_sercom_get_default_pad+0xa6>
     6b2:	2000      	movs	r0, #0
     6b4:	e7be      	b.n	634 <_sercom_get_default_pad+0x1c>
     6b6:	4828      	ldr	r0, [pc, #160]	; (758 <_sercom_get_default_pad+0x140>)
     6b8:	e7bc      	b.n	634 <_sercom_get_default_pad+0x1c>
     6ba:	4828      	ldr	r0, [pc, #160]	; (75c <_sercom_get_default_pad+0x144>)
     6bc:	e7ba      	b.n	634 <_sercom_get_default_pad+0x1c>
     6be:	4828      	ldr	r0, [pc, #160]	; (760 <_sercom_get_default_pad+0x148>)
     6c0:	e7b8      	b.n	634 <_sercom_get_default_pad+0x1c>
     6c2:	2901      	cmp	r1, #1
     6c4:	d007      	beq.n	6d6 <_sercom_get_default_pad+0xbe>
     6c6:	2900      	cmp	r1, #0
     6c8:	d023      	beq.n	712 <_sercom_get_default_pad+0xfa>
     6ca:	2902      	cmp	r1, #2
     6cc:	d005      	beq.n	6da <_sercom_get_default_pad+0xc2>
     6ce:	2903      	cmp	r1, #3
     6d0:	d005      	beq.n	6de <_sercom_get_default_pad+0xc6>
     6d2:	2000      	movs	r0, #0
     6d4:	e7ae      	b.n	634 <_sercom_get_default_pad+0x1c>
     6d6:	4823      	ldr	r0, [pc, #140]	; (764 <_sercom_get_default_pad+0x14c>)
     6d8:	e7ac      	b.n	634 <_sercom_get_default_pad+0x1c>
     6da:	4823      	ldr	r0, [pc, #140]	; (768 <_sercom_get_default_pad+0x150>)
     6dc:	e7aa      	b.n	634 <_sercom_get_default_pad+0x1c>
     6de:	4823      	ldr	r0, [pc, #140]	; (76c <_sercom_get_default_pad+0x154>)
     6e0:	e7a8      	b.n	634 <_sercom_get_default_pad+0x1c>
     6e2:	2901      	cmp	r1, #1
     6e4:	d007      	beq.n	6f6 <_sercom_get_default_pad+0xde>
     6e6:	2900      	cmp	r1, #0
     6e8:	d015      	beq.n	716 <_sercom_get_default_pad+0xfe>
     6ea:	2902      	cmp	r1, #2
     6ec:	d005      	beq.n	6fa <_sercom_get_default_pad+0xe2>
     6ee:	2903      	cmp	r1, #3
     6f0:	d005      	beq.n	6fe <_sercom_get_default_pad+0xe6>
     6f2:	2000      	movs	r0, #0
     6f4:	e79e      	b.n	634 <_sercom_get_default_pad+0x1c>
     6f6:	481e      	ldr	r0, [pc, #120]	; (770 <_sercom_get_default_pad+0x158>)
     6f8:	e79c      	b.n	634 <_sercom_get_default_pad+0x1c>
     6fa:	481e      	ldr	r0, [pc, #120]	; (774 <_sercom_get_default_pad+0x15c>)
     6fc:	e79a      	b.n	634 <_sercom_get_default_pad+0x1c>
     6fe:	481e      	ldr	r0, [pc, #120]	; (778 <_sercom_get_default_pad+0x160>)
     700:	e798      	b.n	634 <_sercom_get_default_pad+0x1c>
     702:	481e      	ldr	r0, [pc, #120]	; (77c <_sercom_get_default_pad+0x164>)
     704:	e796      	b.n	634 <_sercom_get_default_pad+0x1c>
     706:	481e      	ldr	r0, [pc, #120]	; (780 <_sercom_get_default_pad+0x168>)
     708:	e794      	b.n	634 <_sercom_get_default_pad+0x1c>
     70a:	481e      	ldr	r0, [pc, #120]	; (784 <_sercom_get_default_pad+0x16c>)
     70c:	e792      	b.n	634 <_sercom_get_default_pad+0x1c>
     70e:	481e      	ldr	r0, [pc, #120]	; (788 <_sercom_get_default_pad+0x170>)
     710:	e790      	b.n	634 <_sercom_get_default_pad+0x1c>
     712:	481e      	ldr	r0, [pc, #120]	; (78c <_sercom_get_default_pad+0x174>)
     714:	e78e      	b.n	634 <_sercom_get_default_pad+0x1c>
     716:	481e      	ldr	r0, [pc, #120]	; (790 <_sercom_get_default_pad+0x178>)
     718:	e78c      	b.n	634 <_sercom_get_default_pad+0x1c>
     71a:	46c0      	nop			; (mov r8, r8)
     71c:	42001000 	.word	0x42001000
     720:	42001800 	.word	0x42001800
     724:	42001c00 	.word	0x42001c00
     728:	42001400 	.word	0x42001400
     72c:	42000800 	.word	0x42000800
     730:	42000c00 	.word	0x42000c00
     734:	00090002 	.word	0x00090002
     738:	00060003 	.word	0x00060003
     73c:	00070003 	.word	0x00070003
     740:	00110002 	.word	0x00110002
     744:	00120002 	.word	0x00120002
     748:	00130002 	.word	0x00130002
     74c:	00090003 	.word	0x00090003
     750:	000e0002 	.word	0x000e0002
     754:	000f0002 	.word	0x000f0002
     758:	001c0005 	.word	0x001c0005
     75c:	00180002 	.word	0x00180002
     760:	00190002 	.word	0x00190002
     764:	003f0005 	.word	0x003f0005
     768:	003e0005 	.word	0x003e0005
     76c:	00520005 	.word	0x00520005
     770:	003f0003 	.word	0x003f0003
     774:	00180003 	.word	0x00180003
     778:	00190003 	.word	0x00190003
     77c:	00080002 	.word	0x00080002
     780:	00100002 	.word	0x00100002
     784:	00080003 	.word	0x00080003
     788:	001b0005 	.word	0x001b0005
     78c:	00530005 	.word	0x00530005
     790:	003e0003 	.word	0x003e0003

00000794 <_sercom_get_sercom_inst_index>:
     794:	b530      	push	{r4, r5, lr}
     796:	b087      	sub	sp, #28
     798:	4b0b      	ldr	r3, [pc, #44]	; (7c8 <_sercom_get_sercom_inst_index+0x34>)
     79a:	466a      	mov	r2, sp
     79c:	cb32      	ldmia	r3!, {r1, r4, r5}
     79e:	c232      	stmia	r2!, {r1, r4, r5}
     7a0:	cb32      	ldmia	r3!, {r1, r4, r5}
     7a2:	c232      	stmia	r2!, {r1, r4, r5}
     7a4:	9b00      	ldr	r3, [sp, #0]
     7a6:	4283      	cmp	r3, r0
     7a8:	d00b      	beq.n	7c2 <_sercom_get_sercom_inst_index+0x2e>
     7aa:	2301      	movs	r3, #1
     7ac:	009a      	lsls	r2, r3, #2
     7ae:	4669      	mov	r1, sp
     7b0:	5852      	ldr	r2, [r2, r1]
     7b2:	4282      	cmp	r2, r0
     7b4:	d006      	beq.n	7c4 <_sercom_get_sercom_inst_index+0x30>
     7b6:	3301      	adds	r3, #1
     7b8:	2b06      	cmp	r3, #6
     7ba:	d1f7      	bne.n	7ac <_sercom_get_sercom_inst_index+0x18>
     7bc:	2000      	movs	r0, #0
     7be:	b007      	add	sp, #28
     7c0:	bd30      	pop	{r4, r5, pc}
     7c2:	2300      	movs	r3, #0
     7c4:	b2d8      	uxtb	r0, r3
     7c6:	e7fa      	b.n	7be <_sercom_get_sercom_inst_index+0x2a>
     7c8:	0000a2b8 	.word	0x0000a2b8

000007cc <_sercom_default_handler>:
     7cc:	4770      	bx	lr
	...

000007d0 <_sercom_set_handler>:
     7d0:	b5f0      	push	{r4, r5, r6, r7, lr}
     7d2:	4b0a      	ldr	r3, [pc, #40]	; (7fc <_sercom_set_handler+0x2c>)
     7d4:	781b      	ldrb	r3, [r3, #0]
     7d6:	2b00      	cmp	r3, #0
     7d8:	d10c      	bne.n	7f4 <_sercom_set_handler+0x24>
     7da:	4f09      	ldr	r7, [pc, #36]	; (800 <_sercom_set_handler+0x30>)
     7dc:	4e09      	ldr	r6, [pc, #36]	; (804 <_sercom_set_handler+0x34>)
     7de:	4d0a      	ldr	r5, [pc, #40]	; (808 <_sercom_set_handler+0x38>)
     7e0:	2400      	movs	r4, #0
     7e2:	51de      	str	r6, [r3, r7]
     7e4:	195a      	adds	r2, r3, r5
     7e6:	6014      	str	r4, [r2, #0]
     7e8:	3304      	adds	r3, #4
     7ea:	2b18      	cmp	r3, #24
     7ec:	d1f9      	bne.n	7e2 <_sercom_set_handler+0x12>
     7ee:	2201      	movs	r2, #1
     7f0:	4b02      	ldr	r3, [pc, #8]	; (7fc <_sercom_set_handler+0x2c>)
     7f2:	701a      	strb	r2, [r3, #0]
     7f4:	0080      	lsls	r0, r0, #2
     7f6:	4b02      	ldr	r3, [pc, #8]	; (800 <_sercom_set_handler+0x30>)
     7f8:	50c1      	str	r1, [r0, r3]
     7fa:	bdf0      	pop	{r4, r5, r6, r7, pc}
     7fc:	20000106 	.word	0x20000106
     800:	20000108 	.word	0x20000108
     804:	000007cd 	.word	0x000007cd
     808:	20000404 	.word	0x20000404

0000080c <_sercom_get_interrupt_vector>:
     80c:	b500      	push	{lr}
     80e:	b083      	sub	sp, #12
     810:	2309      	movs	r3, #9
     812:	466a      	mov	r2, sp
     814:	7013      	strb	r3, [r2, #0]
     816:	3301      	adds	r3, #1
     818:	7053      	strb	r3, [r2, #1]
     81a:	3301      	adds	r3, #1
     81c:	7093      	strb	r3, [r2, #2]
     81e:	3301      	adds	r3, #1
     820:	70d3      	strb	r3, [r2, #3]
     822:	3301      	adds	r3, #1
     824:	7113      	strb	r3, [r2, #4]
     826:	3301      	adds	r3, #1
     828:	7153      	strb	r3, [r2, #5]
     82a:	4b03      	ldr	r3, [pc, #12]	; (838 <_sercom_get_interrupt_vector+0x2c>)
     82c:	4798      	blx	r3
     82e:	466b      	mov	r3, sp
     830:	5618      	ldrsb	r0, [r3, r0]
     832:	b003      	add	sp, #12
     834:	bd00      	pop	{pc}
     836:	46c0      	nop			; (mov r8, r8)
     838:	00000795 	.word	0x00000795

0000083c <SERCOM0_Handler>:
     83c:	b510      	push	{r4, lr}
     83e:	4b02      	ldr	r3, [pc, #8]	; (848 <SERCOM0_Handler+0xc>)
     840:	681b      	ldr	r3, [r3, #0]
     842:	2000      	movs	r0, #0
     844:	4798      	blx	r3
     846:	bd10      	pop	{r4, pc}
     848:	20000108 	.word	0x20000108

0000084c <SERCOM1_Handler>:
     84c:	b510      	push	{r4, lr}
     84e:	4b02      	ldr	r3, [pc, #8]	; (858 <SERCOM1_Handler+0xc>)
     850:	685b      	ldr	r3, [r3, #4]
     852:	2001      	movs	r0, #1
     854:	4798      	blx	r3
     856:	bd10      	pop	{r4, pc}
     858:	20000108 	.word	0x20000108

0000085c <SERCOM2_Handler>:
     85c:	b510      	push	{r4, lr}
     85e:	4b02      	ldr	r3, [pc, #8]	; (868 <SERCOM2_Handler+0xc>)
     860:	689b      	ldr	r3, [r3, #8]
     862:	2002      	movs	r0, #2
     864:	4798      	blx	r3
     866:	bd10      	pop	{r4, pc}
     868:	20000108 	.word	0x20000108

0000086c <SERCOM3_Handler>:
     86c:	b510      	push	{r4, lr}
     86e:	4b02      	ldr	r3, [pc, #8]	; (878 <SERCOM3_Handler+0xc>)
     870:	68db      	ldr	r3, [r3, #12]
     872:	2003      	movs	r0, #3
     874:	4798      	blx	r3
     876:	bd10      	pop	{r4, pc}
     878:	20000108 	.word	0x20000108

0000087c <SERCOM4_Handler>:
     87c:	b510      	push	{r4, lr}
     87e:	4b02      	ldr	r3, [pc, #8]	; (888 <SERCOM4_Handler+0xc>)
     880:	691b      	ldr	r3, [r3, #16]
     882:	2004      	movs	r0, #4
     884:	4798      	blx	r3
     886:	bd10      	pop	{r4, pc}
     888:	20000108 	.word	0x20000108

0000088c <SERCOM5_Handler>:
     88c:	b510      	push	{r4, lr}
     88e:	4b02      	ldr	r3, [pc, #8]	; (898 <SERCOM5_Handler+0xc>)
     890:	695b      	ldr	r3, [r3, #20]
     892:	2005      	movs	r0, #5
     894:	4798      	blx	r3
     896:	bd10      	pop	{r4, pc}
     898:	20000108 	.word	0x20000108

0000089c <spi_init>:
     89c:	b5f0      	push	{r4, r5, r6, r7, lr}
     89e:	46d6      	mov	lr, sl
     8a0:	464f      	mov	r7, r9
     8a2:	b580      	push	{r7, lr}
     8a4:	b08b      	sub	sp, #44	; 0x2c
     8a6:	4681      	mov	r9, r0
     8a8:	000f      	movs	r7, r1
     8aa:	0014      	movs	r4, r2
     8ac:	0003      	movs	r3, r0
     8ae:	6019      	str	r1, [r3, #0]
     8b0:	680b      	ldr	r3, [r1, #0]
     8b2:	079b      	lsls	r3, r3, #30
     8b4:	d409      	bmi.n	8ca <spi_init+0x2e>
     8b6:	680b      	ldr	r3, [r1, #0]
     8b8:	2005      	movs	r0, #5
     8ba:	07db      	lsls	r3, r3, #31
     8bc:	d400      	bmi.n	8c0 <spi_init+0x24>
     8be:	e098      	b.n	9f2 <spi_init+0x156>
     8c0:	b00b      	add	sp, #44	; 0x2c
     8c2:	bc0c      	pop	{r2, r3}
     8c4:	4691      	mov	r9, r2
     8c6:	469a      	mov	sl, r3
     8c8:	bdf0      	pop	{r4, r5, r6, r7, pc}
     8ca:	6a93      	ldr	r3, [r2, #40]	; 0x28
     8cc:	9305      	str	r3, [sp, #20]
     8ce:	6ad3      	ldr	r3, [r2, #44]	; 0x2c
     8d0:	9306      	str	r3, [sp, #24]
     8d2:	6b13      	ldr	r3, [r2, #48]	; 0x30
     8d4:	9307      	str	r3, [sp, #28]
     8d6:	6b53      	ldr	r3, [r2, #52]	; 0x34
     8d8:	9308      	str	r3, [sp, #32]
     8da:	2600      	movs	r6, #0
     8dc:	ab05      	add	r3, sp, #20
     8de:	9301      	str	r3, [sp, #4]
     8e0:	e00a      	b.n	8f8 <spi_init+0x5c>
     8e2:	0038      	movs	r0, r7
     8e4:	4b93      	ldr	r3, [pc, #588]	; (b34 <spi_init+0x298>)
     8e6:	4798      	blx	r3
     8e8:	e00c      	b.n	904 <spi_init+0x68>
     8ea:	230f      	movs	r3, #15
     8ec:	4018      	ands	r0, r3
     8ee:	4281      	cmp	r1, r0
     8f0:	d12d      	bne.n	94e <spi_init+0xb2>
     8f2:	3601      	adds	r6, #1
     8f4:	2e04      	cmp	r6, #4
     8f6:	d02f      	beq.n	958 <spi_init+0xbc>
     8f8:	b2f1      	uxtb	r1, r6
     8fa:	00b3      	lsls	r3, r6, #2
     8fc:	9a01      	ldr	r2, [sp, #4]
     8fe:	5898      	ldr	r0, [r3, r2]
     900:	2800      	cmp	r0, #0
     902:	d0ee      	beq.n	8e2 <spi_init+0x46>
     904:	1c43      	adds	r3, r0, #1
     906:	d0f4      	beq.n	8f2 <spi_init+0x56>
     908:	0401      	lsls	r1, r0, #16
     90a:	0c09      	lsrs	r1, r1, #16
     90c:	0c00      	lsrs	r0, r0, #16
     90e:	b2c3      	uxtb	r3, r0
     910:	469c      	mov	ip, r3
     912:	2300      	movs	r3, #0
     914:	0602      	lsls	r2, r0, #24
     916:	d405      	bmi.n	924 <spi_init+0x88>
     918:	4663      	mov	r3, ip
     91a:	095b      	lsrs	r3, r3, #5
     91c:	01db      	lsls	r3, r3, #7
     91e:	4a86      	ldr	r2, [pc, #536]	; (b38 <spi_init+0x29c>)
     920:	4692      	mov	sl, r2
     922:	4453      	add	r3, sl
     924:	221f      	movs	r2, #31
     926:	4660      	mov	r0, ip
     928:	4002      	ands	r2, r0
     92a:	1898      	adds	r0, r3, r2
     92c:	3040      	adds	r0, #64	; 0x40
     92e:	7800      	ldrb	r0, [r0, #0]
     930:	4682      	mov	sl, r0
     932:	2080      	movs	r0, #128	; 0x80
     934:	4655      	mov	r5, sl
     936:	07ed      	lsls	r5, r5, #31
     938:	d5d9      	bpl.n	8ee <spi_init+0x52>
     93a:	0852      	lsrs	r2, r2, #1
     93c:	189b      	adds	r3, r3, r2
     93e:	3330      	adds	r3, #48	; 0x30
     940:	7818      	ldrb	r0, [r3, #0]
     942:	b2c0      	uxtb	r0, r0
     944:	4663      	mov	r3, ip
     946:	07db      	lsls	r3, r3, #31
     948:	d5cf      	bpl.n	8ea <spi_init+0x4e>
     94a:	0900      	lsrs	r0, r0, #4
     94c:	e7cf      	b.n	8ee <spi_init+0x52>
     94e:	2300      	movs	r3, #0
     950:	464a      	mov	r2, r9
     952:	6013      	str	r3, [r2, #0]
     954:	201c      	movs	r0, #28
     956:	e7b3      	b.n	8c0 <spi_init+0x24>
     958:	2013      	movs	r0, #19
     95a:	4b78      	ldr	r3, [pc, #480]	; (b3c <spi_init+0x2a0>)
     95c:	4798      	blx	r3
     95e:	7822      	ldrb	r2, [r4, #0]
     960:	2500      	movs	r5, #0
     962:	2a01      	cmp	r2, #1
     964:	d027      	beq.n	9b6 <spi_init+0x11a>
     966:	6863      	ldr	r3, [r4, #4]
     968:	68a2      	ldr	r2, [r4, #8]
     96a:	4313      	orrs	r3, r2
     96c:	68e2      	ldr	r2, [r4, #12]
     96e:	4313      	orrs	r3, r2
     970:	432b      	orrs	r3, r5
     972:	7c22      	ldrb	r2, [r4, #16]
     974:	7c61      	ldrb	r1, [r4, #17]
     976:	2900      	cmp	r1, #0
     978:	d001      	beq.n	97e <spi_init+0xe2>
     97a:	2180      	movs	r1, #128	; 0x80
     97c:	430b      	orrs	r3, r1
     97e:	7ca1      	ldrb	r1, [r4, #18]
     980:	2900      	cmp	r1, #0
     982:	d002      	beq.n	98a <spi_init+0xee>
     984:	2180      	movs	r1, #128	; 0x80
     986:	0289      	lsls	r1, r1, #10
     988:	430a      	orrs	r2, r1
     98a:	7ce1      	ldrb	r1, [r4, #19]
     98c:	2900      	cmp	r1, #0
     98e:	d002      	beq.n	996 <spi_init+0xfa>
     990:	2180      	movs	r1, #128	; 0x80
     992:	0089      	lsls	r1, r1, #2
     994:	430a      	orrs	r2, r1
     996:	7d21      	ldrb	r1, [r4, #20]
     998:	2900      	cmp	r1, #0
     99a:	d002      	beq.n	9a2 <spi_init+0x106>
     99c:	2180      	movs	r1, #128	; 0x80
     99e:	0189      	lsls	r1, r1, #6
     9a0:	430a      	orrs	r2, r1
     9a2:	6839      	ldr	r1, [r7, #0]
     9a4:	2002      	movs	r0, #2
     9a6:	4303      	orrs	r3, r0
     9a8:	428b      	cmp	r3, r1
     9aa:	d018      	beq.n	9de <spi_init+0x142>
     9ac:	2300      	movs	r3, #0
     9ae:	464a      	mov	r2, r9
     9b0:	6013      	str	r3, [r2, #0]
     9b2:	201c      	movs	r0, #28
     9b4:	e784      	b.n	8c0 <spi_init+0x24>
     9b6:	aa04      	add	r2, sp, #16
     9b8:	0001      	movs	r1, r0
     9ba:	69a0      	ldr	r0, [r4, #24]
     9bc:	4b60      	ldr	r3, [pc, #384]	; (b40 <spi_init+0x2a4>)
     9be:	4798      	blx	r3
     9c0:	0003      	movs	r3, r0
     9c2:	2017      	movs	r0, #23
     9c4:	2b00      	cmp	r3, #0
     9c6:	d000      	beq.n	9ca <spi_init+0x12e>
     9c8:	e77a      	b.n	8c0 <spi_init+0x24>
     9ca:	7b3b      	ldrb	r3, [r7, #12]
     9cc:	b2db      	uxtb	r3, r3
     9ce:	aa04      	add	r2, sp, #16
     9d0:	7812      	ldrb	r2, [r2, #0]
     9d2:	3005      	adds	r0, #5
     9d4:	429a      	cmp	r2, r3
     9d6:	d000      	beq.n	9da <spi_init+0x13e>
     9d8:	e772      	b.n	8c0 <spi_init+0x24>
     9da:	350c      	adds	r5, #12
     9dc:	e7c3      	b.n	966 <spi_init+0xca>
     9de:	687b      	ldr	r3, [r7, #4]
     9e0:	4293      	cmp	r3, r2
     9e2:	d1e3      	bne.n	9ac <spi_init+0x110>
     9e4:	7823      	ldrb	r3, [r4, #0]
     9e6:	464a      	mov	r2, r9
     9e8:	7153      	strb	r3, [r2, #5]
     9ea:	7c23      	ldrb	r3, [r4, #16]
     9ec:	7193      	strb	r3, [r2, #6]
     9ee:	2000      	movs	r0, #0
     9f0:	e766      	b.n	8c0 <spi_init+0x24>
     9f2:	0008      	movs	r0, r1
     9f4:	4b53      	ldr	r3, [pc, #332]	; (b44 <spi_init+0x2a8>)
     9f6:	4798      	blx	r3
     9f8:	4a53      	ldr	r2, [pc, #332]	; (b48 <spi_init+0x2ac>)
     9fa:	6a11      	ldr	r1, [r2, #32]
     9fc:	1c85      	adds	r5, r0, #2
     9fe:	2301      	movs	r3, #1
     a00:	40ab      	lsls	r3, r5
     a02:	430b      	orrs	r3, r1
     a04:	6213      	str	r3, [r2, #32]
     a06:	a909      	add	r1, sp, #36	; 0x24
     a08:	2624      	movs	r6, #36	; 0x24
     a0a:	5da3      	ldrb	r3, [r4, r6]
     a0c:	700b      	strb	r3, [r1, #0]
     a0e:	3014      	adds	r0, #20
     a10:	b2c5      	uxtb	r5, r0
     a12:	0028      	movs	r0, r5
     a14:	4b4d      	ldr	r3, [pc, #308]	; (b4c <spi_init+0x2b0>)
     a16:	4798      	blx	r3
     a18:	0028      	movs	r0, r5
     a1a:	4b4d      	ldr	r3, [pc, #308]	; (b50 <spi_init+0x2b4>)
     a1c:	4798      	blx	r3
     a1e:	5da0      	ldrb	r0, [r4, r6]
     a20:	2100      	movs	r1, #0
     a22:	4b4c      	ldr	r3, [pc, #304]	; (b54 <spi_init+0x2b8>)
     a24:	4798      	blx	r3
     a26:	7823      	ldrb	r3, [r4, #0]
     a28:	2b01      	cmp	r3, #1
     a2a:	d019      	beq.n	a60 <spi_init+0x1c4>
     a2c:	464b      	mov	r3, r9
     a2e:	681e      	ldr	r6, [r3, #0]
     a30:	ab04      	add	r3, sp, #16
     a32:	2280      	movs	r2, #128	; 0x80
     a34:	701a      	strb	r2, [r3, #0]
     a36:	2200      	movs	r2, #0
     a38:	705a      	strb	r2, [r3, #1]
     a3a:	2101      	movs	r1, #1
     a3c:	7099      	strb	r1, [r3, #2]
     a3e:	70da      	strb	r2, [r3, #3]
     a40:	7823      	ldrb	r3, [r4, #0]
     a42:	2b00      	cmp	r3, #0
     a44:	d101      	bne.n	a4a <spi_init+0x1ae>
     a46:	ab04      	add	r3, sp, #16
     a48:	709a      	strb	r2, [r3, #2]
     a4a:	6aa3      	ldr	r3, [r4, #40]	; 0x28
     a4c:	9305      	str	r3, [sp, #20]
     a4e:	6ae3      	ldr	r3, [r4, #44]	; 0x2c
     a50:	9306      	str	r3, [sp, #24]
     a52:	6b23      	ldr	r3, [r4, #48]	; 0x30
     a54:	9307      	str	r3, [sp, #28]
     a56:	6b63      	ldr	r3, [r4, #52]	; 0x34
     a58:	9308      	str	r3, [sp, #32]
     a5a:	2700      	movs	r7, #0
     a5c:	ad05      	add	r5, sp, #20
     a5e:	e011      	b.n	a84 <spi_init+0x1e8>
     a60:	683b      	ldr	r3, [r7, #0]
     a62:	220c      	movs	r2, #12
     a64:	4313      	orrs	r3, r2
     a66:	603b      	str	r3, [r7, #0]
     a68:	e7e0      	b.n	a2c <spi_init+0x190>
     a6a:	0030      	movs	r0, r6
     a6c:	4b31      	ldr	r3, [pc, #196]	; (b34 <spi_init+0x298>)
     a6e:	4798      	blx	r3
     a70:	e00d      	b.n	a8e <spi_init+0x1f2>
     a72:	a904      	add	r1, sp, #16
     a74:	7008      	strb	r0, [r1, #0]
     a76:	0c00      	lsrs	r0, r0, #16
     a78:	b2c0      	uxtb	r0, r0
     a7a:	4b37      	ldr	r3, [pc, #220]	; (b58 <spi_init+0x2bc>)
     a7c:	4798      	blx	r3
     a7e:	3701      	adds	r7, #1
     a80:	2f04      	cmp	r7, #4
     a82:	d007      	beq.n	a94 <spi_init+0x1f8>
     a84:	b2f9      	uxtb	r1, r7
     a86:	00bb      	lsls	r3, r7, #2
     a88:	5958      	ldr	r0, [r3, r5]
     a8a:	2800      	cmp	r0, #0
     a8c:	d0ed      	beq.n	a6a <spi_init+0x1ce>
     a8e:	1c43      	adds	r3, r0, #1
     a90:	d1ef      	bne.n	a72 <spi_init+0x1d6>
     a92:	e7f4      	b.n	a7e <spi_init+0x1e2>
     a94:	7823      	ldrb	r3, [r4, #0]
     a96:	464a      	mov	r2, r9
     a98:	7153      	strb	r3, [r2, #5]
     a9a:	7c23      	ldrb	r3, [r4, #16]
     a9c:	7193      	strb	r3, [r2, #6]
     a9e:	7ca3      	ldrb	r3, [r4, #18]
     aa0:	71d3      	strb	r3, [r2, #7]
     aa2:	7d23      	ldrb	r3, [r4, #20]
     aa4:	7213      	strb	r3, [r2, #8]
     aa6:	2200      	movs	r2, #0
     aa8:	ab02      	add	r3, sp, #8
     aaa:	80da      	strh	r2, [r3, #6]
     aac:	7823      	ldrb	r3, [r4, #0]
     aae:	2b01      	cmp	r3, #1
     ab0:	d028      	beq.n	b04 <spi_init+0x268>
     ab2:	6863      	ldr	r3, [r4, #4]
     ab4:	68a2      	ldr	r2, [r4, #8]
     ab6:	4313      	orrs	r3, r2
     ab8:	68e2      	ldr	r2, [r4, #12]
     aba:	4313      	orrs	r3, r2
     abc:	7c21      	ldrb	r1, [r4, #16]
     abe:	7c62      	ldrb	r2, [r4, #17]
     ac0:	2a00      	cmp	r2, #0
     ac2:	d103      	bne.n	acc <spi_init+0x230>
     ac4:	4a25      	ldr	r2, [pc, #148]	; (b5c <spi_init+0x2c0>)
     ac6:	7892      	ldrb	r2, [r2, #2]
     ac8:	0792      	lsls	r2, r2, #30
     aca:	d501      	bpl.n	ad0 <spi_init+0x234>
     acc:	2280      	movs	r2, #128	; 0x80
     ace:	4313      	orrs	r3, r2
     ad0:	7ca2      	ldrb	r2, [r4, #18]
     ad2:	2a00      	cmp	r2, #0
     ad4:	d002      	beq.n	adc <spi_init+0x240>
     ad6:	2280      	movs	r2, #128	; 0x80
     ad8:	0292      	lsls	r2, r2, #10
     ada:	4311      	orrs	r1, r2
     adc:	7ce2      	ldrb	r2, [r4, #19]
     ade:	2a00      	cmp	r2, #0
     ae0:	d002      	beq.n	ae8 <spi_init+0x24c>
     ae2:	2280      	movs	r2, #128	; 0x80
     ae4:	0092      	lsls	r2, r2, #2
     ae6:	4311      	orrs	r1, r2
     ae8:	7d22      	ldrb	r2, [r4, #20]
     aea:	2a00      	cmp	r2, #0
     aec:	d002      	beq.n	af4 <spi_init+0x258>
     aee:	2280      	movs	r2, #128	; 0x80
     af0:	0192      	lsls	r2, r2, #6
     af2:	4311      	orrs	r1, r2
     af4:	6832      	ldr	r2, [r6, #0]
     af6:	4313      	orrs	r3, r2
     af8:	6033      	str	r3, [r6, #0]
     afa:	6873      	ldr	r3, [r6, #4]
     afc:	430b      	orrs	r3, r1
     afe:	6073      	str	r3, [r6, #4]
     b00:	2000      	movs	r0, #0
     b02:	e6dd      	b.n	8c0 <spi_init+0x24>
     b04:	464b      	mov	r3, r9
     b06:	6818      	ldr	r0, [r3, #0]
     b08:	4b0e      	ldr	r3, [pc, #56]	; (b44 <spi_init+0x2a8>)
     b0a:	4798      	blx	r3
     b0c:	3014      	adds	r0, #20
     b0e:	b2c0      	uxtb	r0, r0
     b10:	4b0a      	ldr	r3, [pc, #40]	; (b3c <spi_init+0x2a0>)
     b12:	4798      	blx	r3
     b14:	0001      	movs	r1, r0
     b16:	ab02      	add	r3, sp, #8
     b18:	1d9a      	adds	r2, r3, #6
     b1a:	69a0      	ldr	r0, [r4, #24]
     b1c:	4b08      	ldr	r3, [pc, #32]	; (b40 <spi_init+0x2a4>)
     b1e:	4798      	blx	r3
     b20:	0003      	movs	r3, r0
     b22:	2017      	movs	r0, #23
     b24:	2b00      	cmp	r3, #0
     b26:	d000      	beq.n	b2a <spi_init+0x28e>
     b28:	e6ca      	b.n	8c0 <spi_init+0x24>
     b2a:	ab02      	add	r3, sp, #8
     b2c:	3306      	adds	r3, #6
     b2e:	781b      	ldrb	r3, [r3, #0]
     b30:	7333      	strb	r3, [r6, #12]
     b32:	e7be      	b.n	ab2 <spi_init+0x216>
     b34:	00000619 	.word	0x00000619
     b38:	41004400 	.word	0x41004400
     b3c:	000018b1 	.word	0x000018b1
     b40:	0000050f 	.word	0x0000050f
     b44:	00000795 	.word	0x00000795
     b48:	40000400 	.word	0x40000400
     b4c:	00001895 	.word	0x00001895
     b50:	00001809 	.word	0x00001809
     b54:	000005cd 	.word	0x000005cd
     b58:	0000198d 	.word	0x0000198d
     b5c:	41002000 	.word	0x41002000

00000b60 <spi_select_slave>:
     b60:	b510      	push	{r4, lr}
     b62:	7944      	ldrb	r4, [r0, #5]
     b64:	2315      	movs	r3, #21
     b66:	2c01      	cmp	r4, #1
     b68:	d001      	beq.n	b6e <spi_select_slave+0xe>
     b6a:	0018      	movs	r0, r3
     b6c:	bd10      	pop	{r4, pc}
     b6e:	7a04      	ldrb	r4, [r0, #8]
     b70:	2300      	movs	r3, #0
     b72:	2c00      	cmp	r4, #0
     b74:	d1f9      	bne.n	b6a <spi_select_slave+0xa>
     b76:	2a00      	cmp	r2, #0
     b78:	d058      	beq.n	c2c <spi_select_slave+0xcc>
     b7a:	784b      	ldrb	r3, [r1, #1]
     b7c:	2b00      	cmp	r3, #0
     b7e:	d044      	beq.n	c0a <spi_select_slave+0xaa>
     b80:	6803      	ldr	r3, [r0, #0]
     b82:	7e1b      	ldrb	r3, [r3, #24]
     b84:	07db      	lsls	r3, r3, #31
     b86:	d410      	bmi.n	baa <spi_select_slave+0x4a>
     b88:	780a      	ldrb	r2, [r1, #0]
     b8a:	09d1      	lsrs	r1, r2, #7
     b8c:	2300      	movs	r3, #0
     b8e:	2900      	cmp	r1, #0
     b90:	d104      	bne.n	b9c <spi_select_slave+0x3c>
     b92:	0953      	lsrs	r3, r2, #5
     b94:	01db      	lsls	r3, r3, #7
     b96:	492e      	ldr	r1, [pc, #184]	; (c50 <spi_select_slave+0xf0>)
     b98:	468c      	mov	ip, r1
     b9a:	4463      	add	r3, ip
     b9c:	211f      	movs	r1, #31
     b9e:	4011      	ands	r1, r2
     ba0:	2201      	movs	r2, #1
     ba2:	408a      	lsls	r2, r1
     ba4:	619a      	str	r2, [r3, #24]
     ba6:	2305      	movs	r3, #5
     ba8:	e7df      	b.n	b6a <spi_select_slave+0xa>
     baa:	780a      	ldrb	r2, [r1, #0]
     bac:	09d4      	lsrs	r4, r2, #7
     bae:	2300      	movs	r3, #0
     bb0:	2c00      	cmp	r4, #0
     bb2:	d104      	bne.n	bbe <spi_select_slave+0x5e>
     bb4:	0953      	lsrs	r3, r2, #5
     bb6:	01db      	lsls	r3, r3, #7
     bb8:	4c25      	ldr	r4, [pc, #148]	; (c50 <spi_select_slave+0xf0>)
     bba:	46a4      	mov	ip, r4
     bbc:	4463      	add	r3, ip
     bbe:	241f      	movs	r4, #31
     bc0:	4014      	ands	r4, r2
     bc2:	2201      	movs	r2, #1
     bc4:	40a2      	lsls	r2, r4
     bc6:	615a      	str	r2, [r3, #20]
     bc8:	6803      	ldr	r3, [r0, #0]
     bca:	7e1a      	ldrb	r2, [r3, #24]
     bcc:	07d2      	lsls	r2, r2, #31
     bce:	d501      	bpl.n	bd4 <spi_select_slave+0x74>
     bd0:	788a      	ldrb	r2, [r1, #2]
     bd2:	629a      	str	r2, [r3, #40]	; 0x28
     bd4:	79c2      	ldrb	r2, [r0, #7]
     bd6:	2300      	movs	r3, #0
     bd8:	2a00      	cmp	r2, #0
     bda:	d1c6      	bne.n	b6a <spi_select_slave+0xa>
     bdc:	6802      	ldr	r2, [r0, #0]
     bde:	2104      	movs	r1, #4
     be0:	7e13      	ldrb	r3, [r2, #24]
     be2:	420b      	tst	r3, r1
     be4:	d0fc      	beq.n	be0 <spi_select_slave+0x80>
     be6:	7e11      	ldrb	r1, [r2, #24]
     be8:	2300      	movs	r3, #0
     bea:	0749      	lsls	r1, r1, #29
     bec:	d5bd      	bpl.n	b6a <spi_select_slave+0xa>
     bee:	8b53      	ldrh	r3, [r2, #26]
     bf0:	075b      	lsls	r3, r3, #29
     bf2:	d501      	bpl.n	bf8 <spi_select_slave+0x98>
     bf4:	2304      	movs	r3, #4
     bf6:	8353      	strh	r3, [r2, #26]
     bf8:	7983      	ldrb	r3, [r0, #6]
     bfa:	2b01      	cmp	r3, #1
     bfc:	d002      	beq.n	c04 <spi_select_slave+0xa4>
     bfe:	6a93      	ldr	r3, [r2, #40]	; 0x28
     c00:	2300      	movs	r3, #0
     c02:	e7b2      	b.n	b6a <spi_select_slave+0xa>
     c04:	6a93      	ldr	r3, [r2, #40]	; 0x28
     c06:	2300      	movs	r3, #0
     c08:	e7af      	b.n	b6a <spi_select_slave+0xa>
     c0a:	780a      	ldrb	r2, [r1, #0]
     c0c:	09d1      	lsrs	r1, r2, #7
     c0e:	2300      	movs	r3, #0
     c10:	2900      	cmp	r1, #0
     c12:	d104      	bne.n	c1e <spi_select_slave+0xbe>
     c14:	0953      	lsrs	r3, r2, #5
     c16:	01db      	lsls	r3, r3, #7
     c18:	490d      	ldr	r1, [pc, #52]	; (c50 <spi_select_slave+0xf0>)
     c1a:	468c      	mov	ip, r1
     c1c:	4463      	add	r3, ip
     c1e:	211f      	movs	r1, #31
     c20:	4011      	ands	r1, r2
     c22:	2201      	movs	r2, #1
     c24:	408a      	lsls	r2, r1
     c26:	615a      	str	r2, [r3, #20]
     c28:	2300      	movs	r3, #0
     c2a:	e79e      	b.n	b6a <spi_select_slave+0xa>
     c2c:	780a      	ldrb	r2, [r1, #0]
     c2e:	09d1      	lsrs	r1, r2, #7
     c30:	2300      	movs	r3, #0
     c32:	2900      	cmp	r1, #0
     c34:	d104      	bne.n	c40 <spi_select_slave+0xe0>
     c36:	0953      	lsrs	r3, r2, #5
     c38:	01db      	lsls	r3, r3, #7
     c3a:	4905      	ldr	r1, [pc, #20]	; (c50 <spi_select_slave+0xf0>)
     c3c:	468c      	mov	ip, r1
     c3e:	4463      	add	r3, ip
     c40:	211f      	movs	r1, #31
     c42:	4011      	ands	r1, r2
     c44:	2201      	movs	r2, #1
     c46:	408a      	lsls	r2, r1
     c48:	619a      	str	r2, [r3, #24]
     c4a:	2300      	movs	r3, #0
     c4c:	e78d      	b.n	b6a <spi_select_slave+0xa>
     c4e:	46c0      	nop			; (mov r8, r8)
     c50:	41004400 	.word	0x41004400

00000c54 <usart_init>:
     c54:	b5f0      	push	{r4, r5, r6, r7, lr}
     c56:	46de      	mov	lr, fp
     c58:	4657      	mov	r7, sl
     c5a:	464e      	mov	r6, r9
     c5c:	4645      	mov	r5, r8
     c5e:	b5e0      	push	{r5, r6, r7, lr}
     c60:	b091      	sub	sp, #68	; 0x44
     c62:	0005      	movs	r5, r0
     c64:	000c      	movs	r4, r1
     c66:	0016      	movs	r6, r2
     c68:	6029      	str	r1, [r5, #0]
     c6a:	0008      	movs	r0, r1
     c6c:	4bbc      	ldr	r3, [pc, #752]	; (f60 <usart_init+0x30c>)
     c6e:	4798      	blx	r3
     c70:	0002      	movs	r2, r0
     c72:	6823      	ldr	r3, [r4, #0]
     c74:	2005      	movs	r0, #5
     c76:	07db      	lsls	r3, r3, #31
     c78:	d506      	bpl.n	c88 <usart_init+0x34>
     c7a:	b011      	add	sp, #68	; 0x44
     c7c:	bc3c      	pop	{r2, r3, r4, r5}
     c7e:	4690      	mov	r8, r2
     c80:	4699      	mov	r9, r3
     c82:	46a2      	mov	sl, r4
     c84:	46ab      	mov	fp, r5
     c86:	bdf0      	pop	{r4, r5, r6, r7, pc}
     c88:	6823      	ldr	r3, [r4, #0]
     c8a:	3017      	adds	r0, #23
     c8c:	079b      	lsls	r3, r3, #30
     c8e:	d4f4      	bmi.n	c7a <usart_init+0x26>
     c90:	49b4      	ldr	r1, [pc, #720]	; (f64 <usart_init+0x310>)
     c92:	6a08      	ldr	r0, [r1, #32]
     c94:	1c97      	adds	r7, r2, #2
     c96:	2301      	movs	r3, #1
     c98:	40bb      	lsls	r3, r7
     c9a:	4303      	orrs	r3, r0
     c9c:	620b      	str	r3, [r1, #32]
     c9e:	a90f      	add	r1, sp, #60	; 0x3c
     ca0:	272d      	movs	r7, #45	; 0x2d
     ca2:	5df3      	ldrb	r3, [r6, r7]
     ca4:	700b      	strb	r3, [r1, #0]
     ca6:	3214      	adds	r2, #20
     ca8:	b2d3      	uxtb	r3, r2
     caa:	9302      	str	r3, [sp, #8]
     cac:	0018      	movs	r0, r3
     cae:	4bae      	ldr	r3, [pc, #696]	; (f68 <usart_init+0x314>)
     cb0:	4798      	blx	r3
     cb2:	9802      	ldr	r0, [sp, #8]
     cb4:	4bad      	ldr	r3, [pc, #692]	; (f6c <usart_init+0x318>)
     cb6:	4798      	blx	r3
     cb8:	5df0      	ldrb	r0, [r6, r7]
     cba:	2100      	movs	r1, #0
     cbc:	4bac      	ldr	r3, [pc, #688]	; (f70 <usart_init+0x31c>)
     cbe:	4798      	blx	r3
     cc0:	7af3      	ldrb	r3, [r6, #11]
     cc2:	716b      	strb	r3, [r5, #5]
     cc4:	2324      	movs	r3, #36	; 0x24
     cc6:	5cf3      	ldrb	r3, [r6, r3]
     cc8:	71ab      	strb	r3, [r5, #6]
     cca:	2325      	movs	r3, #37	; 0x25
     ccc:	5cf3      	ldrb	r3, [r6, r3]
     cce:	71eb      	strb	r3, [r5, #7]
     cd0:	7ef3      	ldrb	r3, [r6, #27]
     cd2:	722b      	strb	r3, [r5, #8]
     cd4:	7f33      	ldrb	r3, [r6, #28]
     cd6:	726b      	strb	r3, [r5, #9]
     cd8:	682b      	ldr	r3, [r5, #0]
     cda:	4698      	mov	r8, r3
     cdc:	0018      	movs	r0, r3
     cde:	4ba0      	ldr	r3, [pc, #640]	; (f60 <usart_init+0x30c>)
     ce0:	4798      	blx	r3
     ce2:	3014      	adds	r0, #20
     ce4:	2200      	movs	r2, #0
     ce6:	230e      	movs	r3, #14
     ce8:	a906      	add	r1, sp, #24
     cea:	468c      	mov	ip, r1
     cec:	4463      	add	r3, ip
     cee:	801a      	strh	r2, [r3, #0]
     cf0:	8a32      	ldrh	r2, [r6, #16]
     cf2:	9202      	str	r2, [sp, #8]
     cf4:	2380      	movs	r3, #128	; 0x80
     cf6:	01db      	lsls	r3, r3, #7
     cf8:	429a      	cmp	r2, r3
     cfa:	d100      	bne.n	cfe <usart_init+0xaa>
     cfc:	e09e      	b.n	e3c <usart_init+0x1e8>
     cfe:	d90f      	bls.n	d20 <usart_init+0xcc>
     d00:	23c0      	movs	r3, #192	; 0xc0
     d02:	01db      	lsls	r3, r3, #7
     d04:	9a02      	ldr	r2, [sp, #8]
     d06:	429a      	cmp	r2, r3
     d08:	d100      	bne.n	d0c <usart_init+0xb8>
     d0a:	e092      	b.n	e32 <usart_init+0x1de>
     d0c:	2380      	movs	r3, #128	; 0x80
     d0e:	021b      	lsls	r3, r3, #8
     d10:	429a      	cmp	r2, r3
     d12:	d000      	beq.n	d16 <usart_init+0xc2>
     d14:	e11f      	b.n	f56 <usart_init+0x302>
     d16:	2303      	movs	r3, #3
     d18:	9306      	str	r3, [sp, #24]
     d1a:	2300      	movs	r3, #0
     d1c:	9307      	str	r3, [sp, #28]
     d1e:	e008      	b.n	d32 <usart_init+0xde>
     d20:	2380      	movs	r3, #128	; 0x80
     d22:	019b      	lsls	r3, r3, #6
     d24:	429a      	cmp	r2, r3
     d26:	d000      	beq.n	d2a <usart_init+0xd6>
     d28:	e115      	b.n	f56 <usart_init+0x302>
     d2a:	2310      	movs	r3, #16
     d2c:	9306      	str	r3, [sp, #24]
     d2e:	3b0f      	subs	r3, #15
     d30:	9307      	str	r3, [sp, #28]
     d32:	6833      	ldr	r3, [r6, #0]
     d34:	9305      	str	r3, [sp, #20]
     d36:	68f3      	ldr	r3, [r6, #12]
     d38:	9303      	str	r3, [sp, #12]
     d3a:	6973      	ldr	r3, [r6, #20]
     d3c:	9304      	str	r3, [sp, #16]
     d3e:	7e33      	ldrb	r3, [r6, #24]
     d40:	469b      	mov	fp, r3
     d42:	2326      	movs	r3, #38	; 0x26
     d44:	5cf3      	ldrb	r3, [r6, r3]
     d46:	469a      	mov	sl, r3
     d48:	6873      	ldr	r3, [r6, #4]
     d4a:	4699      	mov	r9, r3
     d4c:	2b00      	cmp	r3, #0
     d4e:	d100      	bne.n	d52 <usart_init+0xfe>
     d50:	e0a0      	b.n	e94 <usart_init+0x240>
     d52:	2380      	movs	r3, #128	; 0x80
     d54:	055b      	lsls	r3, r3, #21
     d56:	4599      	cmp	r9, r3
     d58:	d100      	bne.n	d5c <usart_init+0x108>
     d5a:	e084      	b.n	e66 <usart_init+0x212>
     d5c:	7e73      	ldrb	r3, [r6, #25]
     d5e:	2b00      	cmp	r3, #0
     d60:	d002      	beq.n	d68 <usart_init+0x114>
     d62:	7eb3      	ldrb	r3, [r6, #26]
     d64:	4642      	mov	r2, r8
     d66:	7393      	strb	r3, [r2, #14]
     d68:	682a      	ldr	r2, [r5, #0]
     d6a:	9f02      	ldr	r7, [sp, #8]
     d6c:	69d3      	ldr	r3, [r2, #28]
     d6e:	2b00      	cmp	r3, #0
     d70:	d1fc      	bne.n	d6c <usart_init+0x118>
     d72:	330e      	adds	r3, #14
     d74:	aa06      	add	r2, sp, #24
     d76:	4694      	mov	ip, r2
     d78:	4463      	add	r3, ip
     d7a:	881b      	ldrh	r3, [r3, #0]
     d7c:	4642      	mov	r2, r8
     d7e:	8193      	strh	r3, [r2, #12]
     d80:	9b05      	ldr	r3, [sp, #20]
     d82:	9a03      	ldr	r2, [sp, #12]
     d84:	4313      	orrs	r3, r2
     d86:	9a04      	ldr	r2, [sp, #16]
     d88:	4313      	orrs	r3, r2
     d8a:	464a      	mov	r2, r9
     d8c:	4313      	orrs	r3, r2
     d8e:	431f      	orrs	r7, r3
     d90:	465b      	mov	r3, fp
     d92:	021b      	lsls	r3, r3, #8
     d94:	431f      	orrs	r7, r3
     d96:	4653      	mov	r3, sl
     d98:	075b      	lsls	r3, r3, #29
     d9a:	431f      	orrs	r7, r3
     d9c:	2327      	movs	r3, #39	; 0x27
     d9e:	5cf3      	ldrb	r3, [r6, r3]
     da0:	2b00      	cmp	r3, #0
     da2:	d101      	bne.n	da8 <usart_init+0x154>
     da4:	3304      	adds	r3, #4
     da6:	431f      	orrs	r7, r3
     da8:	7e73      	ldrb	r3, [r6, #25]
     daa:	029b      	lsls	r3, r3, #10
     dac:	7f32      	ldrb	r2, [r6, #28]
     dae:	0252      	lsls	r2, r2, #9
     db0:	4313      	orrs	r3, r2
     db2:	7f72      	ldrb	r2, [r6, #29]
     db4:	0212      	lsls	r2, r2, #8
     db6:	4313      	orrs	r3, r2
     db8:	2224      	movs	r2, #36	; 0x24
     dba:	5cb2      	ldrb	r2, [r6, r2]
     dbc:	0452      	lsls	r2, r2, #17
     dbe:	4313      	orrs	r3, r2
     dc0:	2225      	movs	r2, #37	; 0x25
     dc2:	5cb2      	ldrb	r2, [r6, r2]
     dc4:	0412      	lsls	r2, r2, #16
     dc6:	4313      	orrs	r3, r2
     dc8:	7ab1      	ldrb	r1, [r6, #10]
     dca:	7af2      	ldrb	r2, [r6, #11]
     dcc:	4311      	orrs	r1, r2
     dce:	4319      	orrs	r1, r3
     dd0:	8933      	ldrh	r3, [r6, #8]
     dd2:	2bff      	cmp	r3, #255	; 0xff
     dd4:	d100      	bne.n	dd8 <usart_init+0x184>
     dd6:	e081      	b.n	edc <usart_init+0x288>
     dd8:	2280      	movs	r2, #128	; 0x80
     dda:	0452      	lsls	r2, r2, #17
     ddc:	4317      	orrs	r7, r2
     dde:	4319      	orrs	r1, r3
     de0:	232c      	movs	r3, #44	; 0x2c
     de2:	5cf3      	ldrb	r3, [r6, r3]
     de4:	2b00      	cmp	r3, #0
     de6:	d103      	bne.n	df0 <usart_init+0x19c>
     de8:	4b62      	ldr	r3, [pc, #392]	; (f74 <usart_init+0x320>)
     dea:	789b      	ldrb	r3, [r3, #2]
     dec:	079b      	lsls	r3, r3, #30
     dee:	d501      	bpl.n	df4 <usart_init+0x1a0>
     df0:	2380      	movs	r3, #128	; 0x80
     df2:	431f      	orrs	r7, r3
     df4:	682a      	ldr	r2, [r5, #0]
     df6:	69d3      	ldr	r3, [r2, #28]
     df8:	2b00      	cmp	r3, #0
     dfa:	d1fc      	bne.n	df6 <usart_init+0x1a2>
     dfc:	4643      	mov	r3, r8
     dfe:	6059      	str	r1, [r3, #4]
     e00:	682a      	ldr	r2, [r5, #0]
     e02:	69d3      	ldr	r3, [r2, #28]
     e04:	2b00      	cmp	r3, #0
     e06:	d1fc      	bne.n	e02 <usart_init+0x1ae>
     e08:	4643      	mov	r3, r8
     e0a:	601f      	str	r7, [r3, #0]
     e0c:	ab0e      	add	r3, sp, #56	; 0x38
     e0e:	2280      	movs	r2, #128	; 0x80
     e10:	701a      	strb	r2, [r3, #0]
     e12:	2200      	movs	r2, #0
     e14:	705a      	strb	r2, [r3, #1]
     e16:	70da      	strb	r2, [r3, #3]
     e18:	709a      	strb	r2, [r3, #2]
     e1a:	6b33      	ldr	r3, [r6, #48]	; 0x30
     e1c:	930a      	str	r3, [sp, #40]	; 0x28
     e1e:	6b73      	ldr	r3, [r6, #52]	; 0x34
     e20:	930b      	str	r3, [sp, #44]	; 0x2c
     e22:	6bb3      	ldr	r3, [r6, #56]	; 0x38
     e24:	930c      	str	r3, [sp, #48]	; 0x30
     e26:	6bf3      	ldr	r3, [r6, #60]	; 0x3c
     e28:	9302      	str	r3, [sp, #8]
     e2a:	930d      	str	r3, [sp, #52]	; 0x34
     e2c:	2700      	movs	r7, #0
     e2e:	ae0a      	add	r6, sp, #40	; 0x28
     e30:	e063      	b.n	efa <usart_init+0x2a6>
     e32:	2308      	movs	r3, #8
     e34:	9306      	str	r3, [sp, #24]
     e36:	3b07      	subs	r3, #7
     e38:	9307      	str	r3, [sp, #28]
     e3a:	e77a      	b.n	d32 <usart_init+0xde>
     e3c:	6833      	ldr	r3, [r6, #0]
     e3e:	9305      	str	r3, [sp, #20]
     e40:	68f3      	ldr	r3, [r6, #12]
     e42:	9303      	str	r3, [sp, #12]
     e44:	6973      	ldr	r3, [r6, #20]
     e46:	9304      	str	r3, [sp, #16]
     e48:	7e33      	ldrb	r3, [r6, #24]
     e4a:	469b      	mov	fp, r3
     e4c:	2326      	movs	r3, #38	; 0x26
     e4e:	5cf3      	ldrb	r3, [r6, r3]
     e50:	469a      	mov	sl, r3
     e52:	6873      	ldr	r3, [r6, #4]
     e54:	4699      	mov	r9, r3
     e56:	2b00      	cmp	r3, #0
     e58:	d018      	beq.n	e8c <usart_init+0x238>
     e5a:	2380      	movs	r3, #128	; 0x80
     e5c:	055b      	lsls	r3, r3, #21
     e5e:	4599      	cmp	r9, r3
     e60:	d001      	beq.n	e66 <usart_init+0x212>
     e62:	2000      	movs	r0, #0
     e64:	e025      	b.n	eb2 <usart_init+0x25e>
     e66:	2327      	movs	r3, #39	; 0x27
     e68:	5cf3      	ldrb	r3, [r6, r3]
     e6a:	2b00      	cmp	r3, #0
     e6c:	d000      	beq.n	e70 <usart_init+0x21c>
     e6e:	e775      	b.n	d5c <usart_init+0x108>
     e70:	6a33      	ldr	r3, [r6, #32]
     e72:	001f      	movs	r7, r3
     e74:	b2c0      	uxtb	r0, r0
     e76:	4b40      	ldr	r3, [pc, #256]	; (f78 <usart_init+0x324>)
     e78:	4798      	blx	r3
     e7a:	0001      	movs	r1, r0
     e7c:	220e      	movs	r2, #14
     e7e:	ab06      	add	r3, sp, #24
     e80:	469c      	mov	ip, r3
     e82:	4462      	add	r2, ip
     e84:	0038      	movs	r0, r7
     e86:	4b3d      	ldr	r3, [pc, #244]	; (f7c <usart_init+0x328>)
     e88:	4798      	blx	r3
     e8a:	e012      	b.n	eb2 <usart_init+0x25e>
     e8c:	2308      	movs	r3, #8
     e8e:	9306      	str	r3, [sp, #24]
     e90:	2300      	movs	r3, #0
     e92:	9307      	str	r3, [sp, #28]
     e94:	2327      	movs	r3, #39	; 0x27
     e96:	5cf3      	ldrb	r3, [r6, r3]
     e98:	2b00      	cmp	r3, #0
     e9a:	d00e      	beq.n	eba <usart_init+0x266>
     e9c:	9b06      	ldr	r3, [sp, #24]
     e9e:	9300      	str	r3, [sp, #0]
     ea0:	9b07      	ldr	r3, [sp, #28]
     ea2:	220e      	movs	r2, #14
     ea4:	a906      	add	r1, sp, #24
     ea6:	468c      	mov	ip, r1
     ea8:	4462      	add	r2, ip
     eaa:	6ab1      	ldr	r1, [r6, #40]	; 0x28
     eac:	6a30      	ldr	r0, [r6, #32]
     eae:	4f34      	ldr	r7, [pc, #208]	; (f80 <usart_init+0x32c>)
     eb0:	47b8      	blx	r7
     eb2:	2800      	cmp	r0, #0
     eb4:	d000      	beq.n	eb8 <usart_init+0x264>
     eb6:	e6e0      	b.n	c7a <usart_init+0x26>
     eb8:	e750      	b.n	d5c <usart_init+0x108>
     eba:	6a33      	ldr	r3, [r6, #32]
     ebc:	001f      	movs	r7, r3
     ebe:	b2c0      	uxtb	r0, r0
     ec0:	4b2d      	ldr	r3, [pc, #180]	; (f78 <usart_init+0x324>)
     ec2:	4798      	blx	r3
     ec4:	0001      	movs	r1, r0
     ec6:	9b06      	ldr	r3, [sp, #24]
     ec8:	9300      	str	r3, [sp, #0]
     eca:	9b07      	ldr	r3, [sp, #28]
     ecc:	220e      	movs	r2, #14
     ece:	a806      	add	r0, sp, #24
     ed0:	4684      	mov	ip, r0
     ed2:	4462      	add	r2, ip
     ed4:	0038      	movs	r0, r7
     ed6:	4f2a      	ldr	r7, [pc, #168]	; (f80 <usart_init+0x32c>)
     ed8:	47b8      	blx	r7
     eda:	e7ea      	b.n	eb2 <usart_init+0x25e>
     edc:	7ef3      	ldrb	r3, [r6, #27]
     ede:	2b00      	cmp	r3, #0
     ee0:	d100      	bne.n	ee4 <usart_init+0x290>
     ee2:	e77d      	b.n	de0 <usart_init+0x18c>
     ee4:	2380      	movs	r3, #128	; 0x80
     ee6:	04db      	lsls	r3, r3, #19
     ee8:	431f      	orrs	r7, r3
     eea:	e779      	b.n	de0 <usart_init+0x18c>
     eec:	0020      	movs	r0, r4
     eee:	4b25      	ldr	r3, [pc, #148]	; (f84 <usart_init+0x330>)
     ef0:	4798      	blx	r3
     ef2:	e007      	b.n	f04 <usart_init+0x2b0>
     ef4:	3701      	adds	r7, #1
     ef6:	2f04      	cmp	r7, #4
     ef8:	d00d      	beq.n	f16 <usart_init+0x2c2>
     efa:	b2f9      	uxtb	r1, r7
     efc:	00bb      	lsls	r3, r7, #2
     efe:	5998      	ldr	r0, [r3, r6]
     f00:	2800      	cmp	r0, #0
     f02:	d0f3      	beq.n	eec <usart_init+0x298>
     f04:	1c43      	adds	r3, r0, #1
     f06:	d0f5      	beq.n	ef4 <usart_init+0x2a0>
     f08:	a90e      	add	r1, sp, #56	; 0x38
     f0a:	7008      	strb	r0, [r1, #0]
     f0c:	0c00      	lsrs	r0, r0, #16
     f0e:	b2c0      	uxtb	r0, r0
     f10:	4b1d      	ldr	r3, [pc, #116]	; (f88 <usart_init+0x334>)
     f12:	4798      	blx	r3
     f14:	e7ee      	b.n	ef4 <usart_init+0x2a0>
     f16:	2300      	movs	r3, #0
     f18:	60eb      	str	r3, [r5, #12]
     f1a:	612b      	str	r3, [r5, #16]
     f1c:	616b      	str	r3, [r5, #20]
     f1e:	61ab      	str	r3, [r5, #24]
     f20:	61eb      	str	r3, [r5, #28]
     f22:	622b      	str	r3, [r5, #32]
     f24:	62ab      	str	r3, [r5, #40]	; 0x28
     f26:	626b      	str	r3, [r5, #36]	; 0x24
     f28:	2200      	movs	r2, #0
     f2a:	85eb      	strh	r3, [r5, #46]	; 0x2e
     f2c:	85ab      	strh	r3, [r5, #44]	; 0x2c
     f2e:	3330      	adds	r3, #48	; 0x30
     f30:	54ea      	strb	r2, [r5, r3]
     f32:	3301      	adds	r3, #1
     f34:	54ea      	strb	r2, [r5, r3]
     f36:	3301      	adds	r3, #1
     f38:	54ea      	strb	r2, [r5, r3]
     f3a:	3301      	adds	r3, #1
     f3c:	54ea      	strb	r2, [r5, r3]
     f3e:	6828      	ldr	r0, [r5, #0]
     f40:	4b07      	ldr	r3, [pc, #28]	; (f60 <usart_init+0x30c>)
     f42:	4798      	blx	r3
     f44:	0004      	movs	r4, r0
     f46:	4911      	ldr	r1, [pc, #68]	; (f8c <usart_init+0x338>)
     f48:	4b11      	ldr	r3, [pc, #68]	; (f90 <usart_init+0x33c>)
     f4a:	4798      	blx	r3
     f4c:	00a4      	lsls	r4, r4, #2
     f4e:	4b11      	ldr	r3, [pc, #68]	; (f94 <usart_init+0x340>)
     f50:	50e5      	str	r5, [r4, r3]
     f52:	2000      	movs	r0, #0
     f54:	e691      	b.n	c7a <usart_init+0x26>
     f56:	2310      	movs	r3, #16
     f58:	9306      	str	r3, [sp, #24]
     f5a:	2300      	movs	r3, #0
     f5c:	9307      	str	r3, [sp, #28]
     f5e:	e6e8      	b.n	d32 <usart_init+0xde>
     f60:	00000795 	.word	0x00000795
     f64:	40000400 	.word	0x40000400
     f68:	00001895 	.word	0x00001895
     f6c:	00001809 	.word	0x00001809
     f70:	000005cd 	.word	0x000005cd
     f74:	41002000 	.word	0x41002000
     f78:	000018b1 	.word	0x000018b1
     f7c:	0000050f 	.word	0x0000050f
     f80:	00000539 	.word	0x00000539
     f84:	00000619 	.word	0x00000619
     f88:	0000198d 	.word	0x0000198d
     f8c:	000010cd 	.word	0x000010cd
     f90:	000007d1 	.word	0x000007d1
     f94:	20000404 	.word	0x20000404

00000f98 <usart_write_wait>:
     f98:	79c2      	ldrb	r2, [r0, #7]
     f9a:	231c      	movs	r3, #28
     f9c:	2a00      	cmp	r2, #0
     f9e:	d101      	bne.n	fa4 <usart_write_wait+0xc>
     fa0:	0018      	movs	r0, r3
     fa2:	4770      	bx	lr
     fa4:	8dc2      	ldrh	r2, [r0, #46]	; 0x2e
     fa6:	b292      	uxth	r2, r2
     fa8:	3b17      	subs	r3, #23
     faa:	2a00      	cmp	r2, #0
     fac:	d1f8      	bne.n	fa0 <usart_write_wait+0x8>
     fae:	6803      	ldr	r3, [r0, #0]
     fb0:	69da      	ldr	r2, [r3, #28]
     fb2:	2a00      	cmp	r2, #0
     fb4:	d1fc      	bne.n	fb0 <usart_write_wait+0x18>
     fb6:	8519      	strh	r1, [r3, #40]	; 0x28
     fb8:	2102      	movs	r1, #2
     fba:	7e1a      	ldrb	r2, [r3, #24]
     fbc:	420a      	tst	r2, r1
     fbe:	d0fc      	beq.n	fba <usart_write_wait+0x22>
     fc0:	2300      	movs	r3, #0
     fc2:	e7ed      	b.n	fa0 <usart_write_wait+0x8>

00000fc4 <usart_read_wait>:
     fc4:	7982      	ldrb	r2, [r0, #6]
     fc6:	231c      	movs	r3, #28
     fc8:	2a00      	cmp	r2, #0
     fca:	d101      	bne.n	fd0 <usart_read_wait+0xc>
     fcc:	0018      	movs	r0, r3
     fce:	4770      	bx	lr
     fd0:	8d82      	ldrh	r2, [r0, #44]	; 0x2c
     fd2:	b292      	uxth	r2, r2
     fd4:	3b17      	subs	r3, #23
     fd6:	2a00      	cmp	r2, #0
     fd8:	d1f8      	bne.n	fcc <usart_read_wait+0x8>
     fda:	6802      	ldr	r2, [r0, #0]
     fdc:	7e10      	ldrb	r0, [r2, #24]
     fde:	0740      	lsls	r0, r0, #29
     fe0:	d5f4      	bpl.n	fcc <usart_read_wait+0x8>
     fe2:	69d3      	ldr	r3, [r2, #28]
     fe4:	2b00      	cmp	r3, #0
     fe6:	d1fc      	bne.n	fe2 <usart_read_wait+0x1e>
     fe8:	8b53      	ldrh	r3, [r2, #26]
     fea:	b2db      	uxtb	r3, r3
     fec:	0698      	lsls	r0, r3, #26
     fee:	d01d      	beq.n	102c <usart_read_wait+0x68>
     ff0:	0798      	lsls	r0, r3, #30
     ff2:	d503      	bpl.n	ffc <usart_read_wait+0x38>
     ff4:	2302      	movs	r3, #2
     ff6:	8353      	strh	r3, [r2, #26]
     ff8:	3318      	adds	r3, #24
     ffa:	e7e7      	b.n	fcc <usart_read_wait+0x8>
     ffc:	0758      	lsls	r0, r3, #29
     ffe:	d503      	bpl.n	1008 <usart_read_wait+0x44>
    1000:	2304      	movs	r3, #4
    1002:	8353      	strh	r3, [r2, #26]
    1004:	331a      	adds	r3, #26
    1006:	e7e1      	b.n	fcc <usart_read_wait+0x8>
    1008:	07d8      	lsls	r0, r3, #31
    100a:	d503      	bpl.n	1014 <usart_read_wait+0x50>
    100c:	2301      	movs	r3, #1
    100e:	8353      	strh	r3, [r2, #26]
    1010:	3312      	adds	r3, #18
    1012:	e7db      	b.n	fcc <usart_read_wait+0x8>
    1014:	06d8      	lsls	r0, r3, #27
    1016:	d503      	bpl.n	1020 <usart_read_wait+0x5c>
    1018:	2310      	movs	r3, #16
    101a:	8353      	strh	r3, [r2, #26]
    101c:	3332      	adds	r3, #50	; 0x32
    101e:	e7d5      	b.n	fcc <usart_read_wait+0x8>
    1020:	069b      	lsls	r3, r3, #26
    1022:	d503      	bpl.n	102c <usart_read_wait+0x68>
    1024:	2320      	movs	r3, #32
    1026:	8353      	strh	r3, [r2, #26]
    1028:	3321      	adds	r3, #33	; 0x21
    102a:	e7cf      	b.n	fcc <usart_read_wait+0x8>
    102c:	8d13      	ldrh	r3, [r2, #40]	; 0x28
    102e:	800b      	strh	r3, [r1, #0]
    1030:	2300      	movs	r3, #0
    1032:	e7cb      	b.n	fcc <usart_read_wait+0x8>

00001034 <usart_read_buffer_wait>:
    1034:	b5f0      	push	{r4, r5, r6, r7, lr}
    1036:	46d6      	mov	lr, sl
    1038:	b500      	push	{lr}
    103a:	b084      	sub	sp, #16
    103c:	0004      	movs	r4, r0
    103e:	9101      	str	r1, [sp, #4]
    1040:	2017      	movs	r0, #23
    1042:	2a00      	cmp	r2, #0
    1044:	d103      	bne.n	104e <usart_read_buffer_wait+0x1a>
    1046:	b004      	add	sp, #16
    1048:	bc04      	pop	{r2}
    104a:	4692      	mov	sl, r2
    104c:	bdf0      	pop	{r4, r5, r6, r7, pc}
    104e:	79a3      	ldrb	r3, [r4, #6]
    1050:	3005      	adds	r0, #5
    1052:	2b00      	cmp	r3, #0
    1054:	d0f7      	beq.n	1046 <usart_read_buffer_wait+0x12>
    1056:	6826      	ldr	r6, [r4, #0]
    1058:	3a01      	subs	r2, #1
    105a:	b293      	uxth	r3, r2
    105c:	469a      	mov	sl, r3
    105e:	2500      	movs	r5, #0
    1060:	2704      	movs	r7, #4
    1062:	e019      	b.n	1098 <usart_read_buffer_wait+0x64>
    1064:	2300      	movs	r3, #0
    1066:	aa02      	add	r2, sp, #8
    1068:	80d3      	strh	r3, [r2, #6]
    106a:	1d91      	adds	r1, r2, #6
    106c:	0020      	movs	r0, r4
    106e:	4b15      	ldr	r3, [pc, #84]	; (10c4 <usart_read_buffer_wait+0x90>)
    1070:	4798      	blx	r3
    1072:	2800      	cmp	r0, #0
    1074:	d1e7      	bne.n	1046 <usart_read_buffer_wait+0x12>
    1076:	1c69      	adds	r1, r5, #1
    1078:	b289      	uxth	r1, r1
    107a:	ab02      	add	r3, sp, #8
    107c:	88db      	ldrh	r3, [r3, #6]
    107e:	9a01      	ldr	r2, [sp, #4]
    1080:	5553      	strb	r3, [r2, r5]
    1082:	7962      	ldrb	r2, [r4, #5]
    1084:	2a01      	cmp	r2, #1
    1086:	d014      	beq.n	10b2 <usart_read_buffer_wait+0x7e>
    1088:	000d      	movs	r5, r1
    108a:	4653      	mov	r3, sl
    108c:	3b01      	subs	r3, #1
    108e:	b29b      	uxth	r3, r3
    1090:	469a      	mov	sl, r3
    1092:	4b0d      	ldr	r3, [pc, #52]	; (10c8 <usart_read_buffer_wait+0x94>)
    1094:	459a      	cmp	sl, r3
    1096:	d0d6      	beq.n	1046 <usart_read_buffer_wait+0x12>
    1098:	7e33      	ldrb	r3, [r6, #24]
    109a:	423b      	tst	r3, r7
    109c:	d1e2      	bne.n	1064 <usart_read_buffer_wait+0x30>
    109e:	4b0a      	ldr	r3, [pc, #40]	; (10c8 <usart_read_buffer_wait+0x94>)
    10a0:	7e32      	ldrb	r2, [r6, #24]
    10a2:	423a      	tst	r2, r7
    10a4:	d1de      	bne.n	1064 <usart_read_buffer_wait+0x30>
    10a6:	2b01      	cmp	r3, #1
    10a8:	d009      	beq.n	10be <usart_read_buffer_wait+0x8a>
    10aa:	3b01      	subs	r3, #1
    10ac:	2b00      	cmp	r3, #0
    10ae:	d1f7      	bne.n	10a0 <usart_read_buffer_wait+0x6c>
    10b0:	e7d8      	b.n	1064 <usart_read_buffer_wait+0x30>
    10b2:	3502      	adds	r5, #2
    10b4:	b2ad      	uxth	r5, r5
    10b6:	0a1b      	lsrs	r3, r3, #8
    10b8:	9a01      	ldr	r2, [sp, #4]
    10ba:	5453      	strb	r3, [r2, r1]
    10bc:	e7e5      	b.n	108a <usart_read_buffer_wait+0x56>
    10be:	2012      	movs	r0, #18
    10c0:	e7c1      	b.n	1046 <usart_read_buffer_wait+0x12>
    10c2:	46c0      	nop			; (mov r8, r8)
    10c4:	00000fc5 	.word	0x00000fc5
    10c8:	0000ffff 	.word	0x0000ffff

000010cc <_usart_interrupt_handler>:
    10cc:	b5f8      	push	{r3, r4, r5, r6, r7, lr}
    10ce:	0080      	lsls	r0, r0, #2
    10d0:	4b62      	ldr	r3, [pc, #392]	; (125c <_usart_interrupt_handler+0x190>)
    10d2:	58c5      	ldr	r5, [r0, r3]
    10d4:	682c      	ldr	r4, [r5, #0]
    10d6:	69e3      	ldr	r3, [r4, #28]
    10d8:	2b00      	cmp	r3, #0
    10da:	d1fc      	bne.n	10d6 <_usart_interrupt_handler+0xa>
    10dc:	7e23      	ldrb	r3, [r4, #24]
    10de:	7da6      	ldrb	r6, [r4, #22]
    10e0:	401e      	ands	r6, r3
    10e2:	2330      	movs	r3, #48	; 0x30
    10e4:	5ceb      	ldrb	r3, [r5, r3]
    10e6:	2231      	movs	r2, #49	; 0x31
    10e8:	5caf      	ldrb	r7, [r5, r2]
    10ea:	401f      	ands	r7, r3
    10ec:	07f3      	lsls	r3, r6, #31
    10ee:	d522      	bpl.n	1136 <_usart_interrupt_handler+0x6a>
    10f0:	8deb      	ldrh	r3, [r5, #46]	; 0x2e
    10f2:	b29b      	uxth	r3, r3
    10f4:	2b00      	cmp	r3, #0
    10f6:	d01c      	beq.n	1132 <_usart_interrupt_handler+0x66>
    10f8:	6aaa      	ldr	r2, [r5, #40]	; 0x28
    10fa:	7813      	ldrb	r3, [r2, #0]
    10fc:	b2db      	uxtb	r3, r3
    10fe:	1c51      	adds	r1, r2, #1
    1100:	62a9      	str	r1, [r5, #40]	; 0x28
    1102:	7969      	ldrb	r1, [r5, #5]
    1104:	2901      	cmp	r1, #1
    1106:	d00e      	beq.n	1126 <_usart_interrupt_handler+0x5a>
    1108:	b29b      	uxth	r3, r3
    110a:	05db      	lsls	r3, r3, #23
    110c:	0ddb      	lsrs	r3, r3, #23
    110e:	8523      	strh	r3, [r4, #40]	; 0x28
    1110:	8deb      	ldrh	r3, [r5, #46]	; 0x2e
    1112:	3b01      	subs	r3, #1
    1114:	b29b      	uxth	r3, r3
    1116:	85eb      	strh	r3, [r5, #46]	; 0x2e
    1118:	2b00      	cmp	r3, #0
    111a:	d10c      	bne.n	1136 <_usart_interrupt_handler+0x6a>
    111c:	3301      	adds	r3, #1
    111e:	7523      	strb	r3, [r4, #20]
    1120:	3301      	adds	r3, #1
    1122:	75a3      	strb	r3, [r4, #22]
    1124:	e007      	b.n	1136 <_usart_interrupt_handler+0x6a>
    1126:	7851      	ldrb	r1, [r2, #1]
    1128:	0209      	lsls	r1, r1, #8
    112a:	430b      	orrs	r3, r1
    112c:	3202      	adds	r2, #2
    112e:	62aa      	str	r2, [r5, #40]	; 0x28
    1130:	e7eb      	b.n	110a <_usart_interrupt_handler+0x3e>
    1132:	2301      	movs	r3, #1
    1134:	7523      	strb	r3, [r4, #20]
    1136:	07b3      	lsls	r3, r6, #30
    1138:	d506      	bpl.n	1148 <_usart_interrupt_handler+0x7c>
    113a:	2302      	movs	r3, #2
    113c:	7523      	strb	r3, [r4, #20]
    113e:	2200      	movs	r2, #0
    1140:	3331      	adds	r3, #49	; 0x31
    1142:	54ea      	strb	r2, [r5, r3]
    1144:	07fb      	lsls	r3, r7, #31
    1146:	d41a      	bmi.n	117e <_usart_interrupt_handler+0xb2>
    1148:	0773      	lsls	r3, r6, #29
    114a:	d565      	bpl.n	1218 <_usart_interrupt_handler+0x14c>
    114c:	8dab      	ldrh	r3, [r5, #44]	; 0x2c
    114e:	b29b      	uxth	r3, r3
    1150:	2b00      	cmp	r3, #0
    1152:	d05f      	beq.n	1214 <_usart_interrupt_handler+0x148>
    1154:	8b63      	ldrh	r3, [r4, #26]
    1156:	b2db      	uxtb	r3, r3
    1158:	071a      	lsls	r2, r3, #28
    115a:	d414      	bmi.n	1186 <_usart_interrupt_handler+0xba>
    115c:	223f      	movs	r2, #63	; 0x3f
    115e:	4013      	ands	r3, r2
    1160:	2b00      	cmp	r3, #0
    1162:	d034      	beq.n	11ce <_usart_interrupt_handler+0x102>
    1164:	079a      	lsls	r2, r3, #30
    1166:	d511      	bpl.n	118c <_usart_interrupt_handler+0xc0>
    1168:	221a      	movs	r2, #26
    116a:	2332      	movs	r3, #50	; 0x32
    116c:	54ea      	strb	r2, [r5, r3]
    116e:	3b30      	subs	r3, #48	; 0x30
    1170:	8363      	strh	r3, [r4, #26]
    1172:	077b      	lsls	r3, r7, #29
    1174:	d550      	bpl.n	1218 <_usart_interrupt_handler+0x14c>
    1176:	0028      	movs	r0, r5
    1178:	696b      	ldr	r3, [r5, #20]
    117a:	4798      	blx	r3
    117c:	e04c      	b.n	1218 <_usart_interrupt_handler+0x14c>
    117e:	0028      	movs	r0, r5
    1180:	68eb      	ldr	r3, [r5, #12]
    1182:	4798      	blx	r3
    1184:	e7e0      	b.n	1148 <_usart_interrupt_handler+0x7c>
    1186:	2237      	movs	r2, #55	; 0x37
    1188:	4013      	ands	r3, r2
    118a:	e7e9      	b.n	1160 <_usart_interrupt_handler+0x94>
    118c:	075a      	lsls	r2, r3, #29
    118e:	d505      	bpl.n	119c <_usart_interrupt_handler+0xd0>
    1190:	221e      	movs	r2, #30
    1192:	2332      	movs	r3, #50	; 0x32
    1194:	54ea      	strb	r2, [r5, r3]
    1196:	3b2e      	subs	r3, #46	; 0x2e
    1198:	8363      	strh	r3, [r4, #26]
    119a:	e7ea      	b.n	1172 <_usart_interrupt_handler+0xa6>
    119c:	07da      	lsls	r2, r3, #31
    119e:	d505      	bpl.n	11ac <_usart_interrupt_handler+0xe0>
    11a0:	2213      	movs	r2, #19
    11a2:	2332      	movs	r3, #50	; 0x32
    11a4:	54ea      	strb	r2, [r5, r3]
    11a6:	3b31      	subs	r3, #49	; 0x31
    11a8:	8363      	strh	r3, [r4, #26]
    11aa:	e7e2      	b.n	1172 <_usart_interrupt_handler+0xa6>
    11ac:	06da      	lsls	r2, r3, #27
    11ae:	d505      	bpl.n	11bc <_usart_interrupt_handler+0xf0>
    11b0:	2242      	movs	r2, #66	; 0x42
    11b2:	2332      	movs	r3, #50	; 0x32
    11b4:	54ea      	strb	r2, [r5, r3]
    11b6:	3b22      	subs	r3, #34	; 0x22
    11b8:	8363      	strh	r3, [r4, #26]
    11ba:	e7da      	b.n	1172 <_usart_interrupt_handler+0xa6>
    11bc:	2220      	movs	r2, #32
    11be:	421a      	tst	r2, r3
    11c0:	d0d7      	beq.n	1172 <_usart_interrupt_handler+0xa6>
    11c2:	3221      	adds	r2, #33	; 0x21
    11c4:	2332      	movs	r3, #50	; 0x32
    11c6:	54ea      	strb	r2, [r5, r3]
    11c8:	3b12      	subs	r3, #18
    11ca:	8363      	strh	r3, [r4, #26]
    11cc:	e7d1      	b.n	1172 <_usart_interrupt_handler+0xa6>
    11ce:	8d23      	ldrh	r3, [r4, #40]	; 0x28
    11d0:	05db      	lsls	r3, r3, #23
    11d2:	0ddb      	lsrs	r3, r3, #23
    11d4:	b2da      	uxtb	r2, r3
    11d6:	6a69      	ldr	r1, [r5, #36]	; 0x24
    11d8:	700a      	strb	r2, [r1, #0]
    11da:	6a6a      	ldr	r2, [r5, #36]	; 0x24
    11dc:	1c51      	adds	r1, r2, #1
    11de:	6269      	str	r1, [r5, #36]	; 0x24
    11e0:	7969      	ldrb	r1, [r5, #5]
    11e2:	2901      	cmp	r1, #1
    11e4:	d010      	beq.n	1208 <_usart_interrupt_handler+0x13c>
    11e6:	8dab      	ldrh	r3, [r5, #44]	; 0x2c
    11e8:	3b01      	subs	r3, #1
    11ea:	b29b      	uxth	r3, r3
    11ec:	85ab      	strh	r3, [r5, #44]	; 0x2c
    11ee:	2b00      	cmp	r3, #0
    11f0:	d112      	bne.n	1218 <_usart_interrupt_handler+0x14c>
    11f2:	3304      	adds	r3, #4
    11f4:	7523      	strb	r3, [r4, #20]
    11f6:	2200      	movs	r2, #0
    11f8:	332e      	adds	r3, #46	; 0x2e
    11fa:	54ea      	strb	r2, [r5, r3]
    11fc:	07bb      	lsls	r3, r7, #30
    11fe:	d50b      	bpl.n	1218 <_usart_interrupt_handler+0x14c>
    1200:	0028      	movs	r0, r5
    1202:	692b      	ldr	r3, [r5, #16]
    1204:	4798      	blx	r3
    1206:	e007      	b.n	1218 <_usart_interrupt_handler+0x14c>
    1208:	0a1b      	lsrs	r3, r3, #8
    120a:	7053      	strb	r3, [r2, #1]
    120c:	6a6b      	ldr	r3, [r5, #36]	; 0x24
    120e:	3301      	adds	r3, #1
    1210:	626b      	str	r3, [r5, #36]	; 0x24
    1212:	e7e8      	b.n	11e6 <_usart_interrupt_handler+0x11a>
    1214:	2304      	movs	r3, #4
    1216:	7523      	strb	r3, [r4, #20]
    1218:	06f3      	lsls	r3, r6, #27
    121a:	d504      	bpl.n	1226 <_usart_interrupt_handler+0x15a>
    121c:	2310      	movs	r3, #16
    121e:	7523      	strb	r3, [r4, #20]
    1220:	7623      	strb	r3, [r4, #24]
    1222:	06fb      	lsls	r3, r7, #27
    1224:	d40e      	bmi.n	1244 <_usart_interrupt_handler+0x178>
    1226:	06b3      	lsls	r3, r6, #26
    1228:	d504      	bpl.n	1234 <_usart_interrupt_handler+0x168>
    122a:	2320      	movs	r3, #32
    122c:	7523      	strb	r3, [r4, #20]
    122e:	7623      	strb	r3, [r4, #24]
    1230:	073b      	lsls	r3, r7, #28
    1232:	d40b      	bmi.n	124c <_usart_interrupt_handler+0x180>
    1234:	0733      	lsls	r3, r6, #28
    1236:	d504      	bpl.n	1242 <_usart_interrupt_handler+0x176>
    1238:	2308      	movs	r3, #8
    123a:	7523      	strb	r3, [r4, #20]
    123c:	7623      	strb	r3, [r4, #24]
    123e:	06bb      	lsls	r3, r7, #26
    1240:	d408      	bmi.n	1254 <_usart_interrupt_handler+0x188>
    1242:	bdf8      	pop	{r3, r4, r5, r6, r7, pc}
    1244:	0028      	movs	r0, r5
    1246:	69eb      	ldr	r3, [r5, #28]
    1248:	4798      	blx	r3
    124a:	e7ec      	b.n	1226 <_usart_interrupt_handler+0x15a>
    124c:	0028      	movs	r0, r5
    124e:	69ab      	ldr	r3, [r5, #24]
    1250:	4798      	blx	r3
    1252:	e7ef      	b.n	1234 <_usart_interrupt_handler+0x168>
    1254:	6a2b      	ldr	r3, [r5, #32]
    1256:	0028      	movs	r0, r5
    1258:	4798      	blx	r3
    125a:	e7f2      	b.n	1242 <_usart_interrupt_handler+0x176>
    125c:	20000404 	.word	0x20000404

00001260 <system_clock_source_get_hz>:
    1260:	b510      	push	{r4, lr}
    1262:	2808      	cmp	r0, #8
    1264:	d803      	bhi.n	126e <system_clock_source_get_hz+0xe>
    1266:	0080      	lsls	r0, r0, #2
    1268:	4b1c      	ldr	r3, [pc, #112]	; (12dc <system_clock_source_get_hz+0x7c>)
    126a:	581b      	ldr	r3, [r3, r0]
    126c:	469f      	mov	pc, r3
    126e:	2000      	movs	r0, #0
    1270:	e032      	b.n	12d8 <system_clock_source_get_hz+0x78>
    1272:	4b1b      	ldr	r3, [pc, #108]	; (12e0 <system_clock_source_get_hz+0x80>)
    1274:	6918      	ldr	r0, [r3, #16]
    1276:	e02f      	b.n	12d8 <system_clock_source_get_hz+0x78>
    1278:	4b1a      	ldr	r3, [pc, #104]	; (12e4 <system_clock_source_get_hz+0x84>)
    127a:	6a1b      	ldr	r3, [r3, #32]
    127c:	059b      	lsls	r3, r3, #22
    127e:	0f9b      	lsrs	r3, r3, #30
    1280:	4819      	ldr	r0, [pc, #100]	; (12e8 <system_clock_source_get_hz+0x88>)
    1282:	40d8      	lsrs	r0, r3
    1284:	e028      	b.n	12d8 <system_clock_source_get_hz+0x78>
    1286:	4b16      	ldr	r3, [pc, #88]	; (12e0 <system_clock_source_get_hz+0x80>)
    1288:	6958      	ldr	r0, [r3, #20]
    128a:	e025      	b.n	12d8 <system_clock_source_get_hz+0x78>
    128c:	4b14      	ldr	r3, [pc, #80]	; (12e0 <system_clock_source_get_hz+0x80>)
    128e:	681b      	ldr	r3, [r3, #0]
    1290:	2000      	movs	r0, #0
    1292:	079b      	lsls	r3, r3, #30
    1294:	d520      	bpl.n	12d8 <system_clock_source_get_hz+0x78>
    1296:	4913      	ldr	r1, [pc, #76]	; (12e4 <system_clock_source_get_hz+0x84>)
    1298:	2210      	movs	r2, #16
    129a:	68cb      	ldr	r3, [r1, #12]
    129c:	421a      	tst	r2, r3
    129e:	d0fc      	beq.n	129a <system_clock_source_get_hz+0x3a>
    12a0:	4b0f      	ldr	r3, [pc, #60]	; (12e0 <system_clock_source_get_hz+0x80>)
    12a2:	681a      	ldr	r2, [r3, #0]
    12a4:	2324      	movs	r3, #36	; 0x24
    12a6:	4013      	ands	r3, r2
    12a8:	2b04      	cmp	r3, #4
    12aa:	d001      	beq.n	12b0 <system_clock_source_get_hz+0x50>
    12ac:	480f      	ldr	r0, [pc, #60]	; (12ec <system_clock_source_get_hz+0x8c>)
    12ae:	e013      	b.n	12d8 <system_clock_source_get_hz+0x78>
    12b0:	2000      	movs	r0, #0
    12b2:	4b0f      	ldr	r3, [pc, #60]	; (12f0 <system_clock_source_get_hz+0x90>)
    12b4:	4798      	blx	r3
    12b6:	4b0a      	ldr	r3, [pc, #40]	; (12e0 <system_clock_source_get_hz+0x80>)
    12b8:	689b      	ldr	r3, [r3, #8]
    12ba:	041b      	lsls	r3, r3, #16
    12bc:	0c1b      	lsrs	r3, r3, #16
    12be:	4358      	muls	r0, r3
    12c0:	e00a      	b.n	12d8 <system_clock_source_get_hz+0x78>
    12c2:	2350      	movs	r3, #80	; 0x50
    12c4:	4a07      	ldr	r2, [pc, #28]	; (12e4 <system_clock_source_get_hz+0x84>)
    12c6:	5cd3      	ldrb	r3, [r2, r3]
    12c8:	2000      	movs	r0, #0
    12ca:	075b      	lsls	r3, r3, #29
    12cc:	d504      	bpl.n	12d8 <system_clock_source_get_hz+0x78>
    12ce:	4b04      	ldr	r3, [pc, #16]	; (12e0 <system_clock_source_get_hz+0x80>)
    12d0:	68d8      	ldr	r0, [r3, #12]
    12d2:	e001      	b.n	12d8 <system_clock_source_get_hz+0x78>
    12d4:	2080      	movs	r0, #128	; 0x80
    12d6:	0200      	lsls	r0, r0, #8
    12d8:	bd10      	pop	{r4, pc}
    12da:	46c0      	nop			; (mov r8, r8)
    12dc:	0000a2d0 	.word	0x0000a2d0
    12e0:	20000120 	.word	0x20000120
    12e4:	40000800 	.word	0x40000800
    12e8:	007a1200 	.word	0x007a1200
    12ec:	02dc6c00 	.word	0x02dc6c00
    12f0:	000018b1 	.word	0x000018b1

000012f4 <system_clock_source_osc8m_set_config>:
    12f4:	b570      	push	{r4, r5, r6, lr}
    12f6:	490c      	ldr	r1, [pc, #48]	; (1328 <system_clock_source_osc8m_set_config+0x34>)
    12f8:	6a0b      	ldr	r3, [r1, #32]
    12fa:	7804      	ldrb	r4, [r0, #0]
    12fc:	7885      	ldrb	r5, [r0, #2]
    12fe:	7840      	ldrb	r0, [r0, #1]
    1300:	2201      	movs	r2, #1
    1302:	4010      	ands	r0, r2
    1304:	0180      	lsls	r0, r0, #6
    1306:	2640      	movs	r6, #64	; 0x40
    1308:	43b3      	bics	r3, r6
    130a:	4303      	orrs	r3, r0
    130c:	402a      	ands	r2, r5
    130e:	01d2      	lsls	r2, r2, #7
    1310:	2080      	movs	r0, #128	; 0x80
    1312:	4383      	bics	r3, r0
    1314:	4313      	orrs	r3, r2
    1316:	2203      	movs	r2, #3
    1318:	4022      	ands	r2, r4
    131a:	0212      	lsls	r2, r2, #8
    131c:	4803      	ldr	r0, [pc, #12]	; (132c <system_clock_source_osc8m_set_config+0x38>)
    131e:	4003      	ands	r3, r0
    1320:	4313      	orrs	r3, r2
    1322:	620b      	str	r3, [r1, #32]
    1324:	bd70      	pop	{r4, r5, r6, pc}
    1326:	46c0      	nop			; (mov r8, r8)
    1328:	40000800 	.word	0x40000800
    132c:	fffffcff 	.word	0xfffffcff

00001330 <system_clock_source_osc32k_set_config>:
    1330:	b5f0      	push	{r4, r5, r6, r7, lr}
    1332:	46ce      	mov	lr, r9
    1334:	4647      	mov	r7, r8
    1336:	b580      	push	{r7, lr}
    1338:	4b19      	ldr	r3, [pc, #100]	; (13a0 <system_clock_source_osc32k_set_config+0x70>)
    133a:	4699      	mov	r9, r3
    133c:	699b      	ldr	r3, [r3, #24]
    133e:	7841      	ldrb	r1, [r0, #1]
    1340:	468c      	mov	ip, r1
    1342:	7805      	ldrb	r5, [r0, #0]
    1344:	7906      	ldrb	r6, [r0, #4]
    1346:	78c7      	ldrb	r7, [r0, #3]
    1348:	7944      	ldrb	r4, [r0, #5]
    134a:	7880      	ldrb	r0, [r0, #2]
    134c:	2101      	movs	r1, #1
    134e:	4008      	ands	r0, r1
    1350:	0080      	lsls	r0, r0, #2
    1352:	2204      	movs	r2, #4
    1354:	4393      	bics	r3, r2
    1356:	4303      	orrs	r3, r0
    1358:	4660      	mov	r0, ip
    135a:	4008      	ands	r0, r1
    135c:	00c0      	lsls	r0, r0, #3
    135e:	3204      	adds	r2, #4
    1360:	4393      	bics	r3, r2
    1362:	4303      	orrs	r3, r0
    1364:	0038      	movs	r0, r7
    1366:	4008      	ands	r0, r1
    1368:	0180      	lsls	r0, r0, #6
    136a:	2740      	movs	r7, #64	; 0x40
    136c:	43bb      	bics	r3, r7
    136e:	4303      	orrs	r3, r0
    1370:	0030      	movs	r0, r6
    1372:	4008      	ands	r0, r1
    1374:	01c0      	lsls	r0, r0, #7
    1376:	2680      	movs	r6, #128	; 0x80
    1378:	43b3      	bics	r3, r6
    137a:	4303      	orrs	r3, r0
    137c:	2007      	movs	r0, #7
    137e:	4005      	ands	r5, r0
    1380:	022d      	lsls	r5, r5, #8
    1382:	4808      	ldr	r0, [pc, #32]	; (13a4 <system_clock_source_osc32k_set_config+0x74>)
    1384:	4003      	ands	r3, r0
    1386:	432b      	orrs	r3, r5
    1388:	4021      	ands	r1, r4
    138a:	0309      	lsls	r1, r1, #12
    138c:	4806      	ldr	r0, [pc, #24]	; (13a8 <system_clock_source_osc32k_set_config+0x78>)
    138e:	4003      	ands	r3, r0
    1390:	430b      	orrs	r3, r1
    1392:	464a      	mov	r2, r9
    1394:	6193      	str	r3, [r2, #24]
    1396:	bc0c      	pop	{r2, r3}
    1398:	4690      	mov	r8, r2
    139a:	4699      	mov	r9, r3
    139c:	bdf0      	pop	{r4, r5, r6, r7, pc}
    139e:	46c0      	nop			; (mov r8, r8)
    13a0:	40000800 	.word	0x40000800
    13a4:	fffff8ff 	.word	0xfffff8ff
    13a8:	ffffefff 	.word	0xffffefff

000013ac <system_clock_source_dfll_set_config>:
    13ac:	b510      	push	{r4, lr}
    13ae:	7a03      	ldrb	r3, [r0, #8]
    13b0:	069b      	lsls	r3, r3, #26
    13b2:	0c1b      	lsrs	r3, r3, #16
    13b4:	8942      	ldrh	r2, [r0, #10]
    13b6:	0592      	lsls	r2, r2, #22
    13b8:	0d92      	lsrs	r2, r2, #22
    13ba:	4313      	orrs	r3, r2
    13bc:	4918      	ldr	r1, [pc, #96]	; (1420 <system_clock_source_dfll_set_config+0x74>)
    13be:	604b      	str	r3, [r1, #4]
    13c0:	7983      	ldrb	r3, [r0, #6]
    13c2:	79c2      	ldrb	r2, [r0, #7]
    13c4:	4313      	orrs	r3, r2
    13c6:	8842      	ldrh	r2, [r0, #2]
    13c8:	8884      	ldrh	r4, [r0, #4]
    13ca:	4322      	orrs	r2, r4
    13cc:	4313      	orrs	r3, r2
    13ce:	7842      	ldrb	r2, [r0, #1]
    13d0:	01d2      	lsls	r2, r2, #7
    13d2:	4313      	orrs	r3, r2
    13d4:	600b      	str	r3, [r1, #0]
    13d6:	7803      	ldrb	r3, [r0, #0]
    13d8:	2b04      	cmp	r3, #4
    13da:	d011      	beq.n	1400 <system_clock_source_dfll_set_config+0x54>
    13dc:	2b20      	cmp	r3, #32
    13de:	d10e      	bne.n	13fe <system_clock_source_dfll_set_config+0x52>
    13e0:	7b03      	ldrb	r3, [r0, #12]
    13e2:	069b      	lsls	r3, r3, #26
    13e4:	8a02      	ldrh	r2, [r0, #16]
    13e6:	4313      	orrs	r3, r2
    13e8:	89c2      	ldrh	r2, [r0, #14]
    13ea:	0412      	lsls	r2, r2, #16
    13ec:	490d      	ldr	r1, [pc, #52]	; (1424 <system_clock_source_dfll_set_config+0x78>)
    13ee:	400a      	ands	r2, r1
    13f0:	4313      	orrs	r3, r2
    13f2:	4a0b      	ldr	r2, [pc, #44]	; (1420 <system_clock_source_dfll_set_config+0x74>)
    13f4:	6093      	str	r3, [r2, #8]
    13f6:	6811      	ldr	r1, [r2, #0]
    13f8:	4b0b      	ldr	r3, [pc, #44]	; (1428 <system_clock_source_dfll_set_config+0x7c>)
    13fa:	430b      	orrs	r3, r1
    13fc:	6013      	str	r3, [r2, #0]
    13fe:	bd10      	pop	{r4, pc}
    1400:	7b03      	ldrb	r3, [r0, #12]
    1402:	069b      	lsls	r3, r3, #26
    1404:	8a02      	ldrh	r2, [r0, #16]
    1406:	4313      	orrs	r3, r2
    1408:	89c2      	ldrh	r2, [r0, #14]
    140a:	0412      	lsls	r2, r2, #16
    140c:	4905      	ldr	r1, [pc, #20]	; (1424 <system_clock_source_dfll_set_config+0x78>)
    140e:	400a      	ands	r2, r1
    1410:	4313      	orrs	r3, r2
    1412:	4a03      	ldr	r2, [pc, #12]	; (1420 <system_clock_source_dfll_set_config+0x74>)
    1414:	6093      	str	r3, [r2, #8]
    1416:	6813      	ldr	r3, [r2, #0]
    1418:	2104      	movs	r1, #4
    141a:	430b      	orrs	r3, r1
    141c:	6013      	str	r3, [r2, #0]
    141e:	e7ee      	b.n	13fe <system_clock_source_dfll_set_config+0x52>
    1420:	20000120 	.word	0x20000120
    1424:	03ff0000 	.word	0x03ff0000
    1428:	00000424 	.word	0x00000424

0000142c <system_clock_source_enable>:
    142c:	2808      	cmp	r0, #8
    142e:	d803      	bhi.n	1438 <system_clock_source_enable+0xc>
    1430:	0080      	lsls	r0, r0, #2
    1432:	4b25      	ldr	r3, [pc, #148]	; (14c8 <system_clock_source_enable+0x9c>)
    1434:	581b      	ldr	r3, [r3, r0]
    1436:	469f      	mov	pc, r3
    1438:	2017      	movs	r0, #23
    143a:	e044      	b.n	14c6 <system_clock_source_enable+0x9a>
    143c:	4a23      	ldr	r2, [pc, #140]	; (14cc <system_clock_source_enable+0xa0>)
    143e:	6a13      	ldr	r3, [r2, #32]
    1440:	2102      	movs	r1, #2
    1442:	430b      	orrs	r3, r1
    1444:	6213      	str	r3, [r2, #32]
    1446:	2000      	movs	r0, #0
    1448:	e03d      	b.n	14c6 <system_clock_source_enable+0x9a>
    144a:	4a20      	ldr	r2, [pc, #128]	; (14cc <system_clock_source_enable+0xa0>)
    144c:	6993      	ldr	r3, [r2, #24]
    144e:	2102      	movs	r1, #2
    1450:	430b      	orrs	r3, r1
    1452:	6193      	str	r3, [r2, #24]
    1454:	2000      	movs	r0, #0
    1456:	e036      	b.n	14c6 <system_clock_source_enable+0x9a>
    1458:	4a1c      	ldr	r2, [pc, #112]	; (14cc <system_clock_source_enable+0xa0>)
    145a:	8a13      	ldrh	r3, [r2, #16]
    145c:	2102      	movs	r1, #2
    145e:	430b      	orrs	r3, r1
    1460:	8213      	strh	r3, [r2, #16]
    1462:	2000      	movs	r0, #0
    1464:	e02f      	b.n	14c6 <system_clock_source_enable+0x9a>
    1466:	4a19      	ldr	r2, [pc, #100]	; (14cc <system_clock_source_enable+0xa0>)
    1468:	8a93      	ldrh	r3, [r2, #20]
    146a:	2102      	movs	r1, #2
    146c:	430b      	orrs	r3, r1
    146e:	8293      	strh	r3, [r2, #20]
    1470:	2000      	movs	r0, #0
    1472:	e028      	b.n	14c6 <system_clock_source_enable+0x9a>
    1474:	4916      	ldr	r1, [pc, #88]	; (14d0 <system_clock_source_enable+0xa4>)
    1476:	680b      	ldr	r3, [r1, #0]
    1478:	2202      	movs	r2, #2
    147a:	4313      	orrs	r3, r2
    147c:	600b      	str	r3, [r1, #0]
    147e:	4b13      	ldr	r3, [pc, #76]	; (14cc <system_clock_source_enable+0xa0>)
    1480:	849a      	strh	r2, [r3, #36]	; 0x24
    1482:	0019      	movs	r1, r3
    1484:	320e      	adds	r2, #14
    1486:	68cb      	ldr	r3, [r1, #12]
    1488:	421a      	tst	r2, r3
    148a:	d0fc      	beq.n	1486 <system_clock_source_enable+0x5a>
    148c:	4a10      	ldr	r2, [pc, #64]	; (14d0 <system_clock_source_enable+0xa4>)
    148e:	6891      	ldr	r1, [r2, #8]
    1490:	4b0e      	ldr	r3, [pc, #56]	; (14cc <system_clock_source_enable+0xa0>)
    1492:	62d9      	str	r1, [r3, #44]	; 0x2c
    1494:	6852      	ldr	r2, [r2, #4]
    1496:	629a      	str	r2, [r3, #40]	; 0x28
    1498:	2200      	movs	r2, #0
    149a:	849a      	strh	r2, [r3, #36]	; 0x24
    149c:	0019      	movs	r1, r3
    149e:	3210      	adds	r2, #16
    14a0:	68cb      	ldr	r3, [r1, #12]
    14a2:	421a      	tst	r2, r3
    14a4:	d0fc      	beq.n	14a0 <system_clock_source_enable+0x74>
    14a6:	4b0a      	ldr	r3, [pc, #40]	; (14d0 <system_clock_source_enable+0xa4>)
    14a8:	681b      	ldr	r3, [r3, #0]
    14aa:	b29b      	uxth	r3, r3
    14ac:	4a07      	ldr	r2, [pc, #28]	; (14cc <system_clock_source_enable+0xa0>)
    14ae:	8493      	strh	r3, [r2, #36]	; 0x24
    14b0:	2000      	movs	r0, #0
    14b2:	e008      	b.n	14c6 <system_clock_source_enable+0x9a>
    14b4:	4905      	ldr	r1, [pc, #20]	; (14cc <system_clock_source_enable+0xa0>)
    14b6:	2244      	movs	r2, #68	; 0x44
    14b8:	5c8b      	ldrb	r3, [r1, r2]
    14ba:	2002      	movs	r0, #2
    14bc:	4303      	orrs	r3, r0
    14be:	548b      	strb	r3, [r1, r2]
    14c0:	2000      	movs	r0, #0
    14c2:	e000      	b.n	14c6 <system_clock_source_enable+0x9a>
    14c4:	2000      	movs	r0, #0
    14c6:	4770      	bx	lr
    14c8:	0000a2f4 	.word	0x0000a2f4
    14cc:	40000800 	.word	0x40000800
    14d0:	20000120 	.word	0x20000120

000014d4 <system_clock_init>:
    14d4:	b5f0      	push	{r4, r5, r6, r7, lr}
    14d6:	46ce      	mov	lr, r9
    14d8:	4647      	mov	r7, r8
    14da:	b580      	push	{r7, lr}
    14dc:	b08d      	sub	sp, #52	; 0x34
    14de:	22c2      	movs	r2, #194	; 0xc2
    14e0:	00d2      	lsls	r2, r2, #3
    14e2:	4b50      	ldr	r3, [pc, #320]	; (1624 <system_clock_init+0x150>)
    14e4:	609a      	str	r2, [r3, #8]
    14e6:	4a50      	ldr	r2, [pc, #320]	; (1628 <system_clock_init+0x154>)
    14e8:	6853      	ldr	r3, [r2, #4]
    14ea:	211e      	movs	r1, #30
    14ec:	438b      	bics	r3, r1
    14ee:	391a      	subs	r1, #26
    14f0:	430b      	orrs	r3, r1
    14f2:	6053      	str	r3, [r2, #4]
    14f4:	2203      	movs	r2, #3
    14f6:	ab01      	add	r3, sp, #4
    14f8:	701a      	strb	r2, [r3, #0]
    14fa:	2400      	movs	r4, #0
    14fc:	4d4b      	ldr	r5, [pc, #300]	; (162c <system_clock_init+0x158>)
    14fe:	b2e0      	uxtb	r0, r4
    1500:	a901      	add	r1, sp, #4
    1502:	47a8      	blx	r5
    1504:	3401      	adds	r4, #1
    1506:	2c25      	cmp	r4, #37	; 0x25
    1508:	d1f9      	bne.n	14fe <system_clock_init+0x2a>
    150a:	4d49      	ldr	r5, [pc, #292]	; (1630 <system_clock_init+0x15c>)
    150c:	682b      	ldr	r3, [r5, #0]
    150e:	04db      	lsls	r3, r3, #19
    1510:	4944      	ldr	r1, [pc, #272]	; (1624 <system_clock_init+0x150>)
    1512:	698a      	ldr	r2, [r1, #24]
    1514:	0e5b      	lsrs	r3, r3, #25
    1516:	041b      	lsls	r3, r3, #16
    1518:	4846      	ldr	r0, [pc, #280]	; (1634 <system_clock_init+0x160>)
    151a:	4002      	ands	r2, r0
    151c:	4313      	orrs	r3, r2
    151e:	618b      	str	r3, [r1, #24]
    1520:	a80a      	add	r0, sp, #40	; 0x28
    1522:	2301      	movs	r3, #1
    1524:	7083      	strb	r3, [r0, #2]
    1526:	2207      	movs	r2, #7
    1528:	7002      	strb	r2, [r0, #0]
    152a:	2400      	movs	r4, #0
    152c:	7144      	strb	r4, [r0, #5]
    152e:	7044      	strb	r4, [r0, #1]
    1530:	7104      	strb	r4, [r0, #4]
    1532:	70c3      	strb	r3, [r0, #3]
    1534:	4b40      	ldr	r3, [pc, #256]	; (1638 <system_clock_init+0x164>)
    1536:	4798      	blx	r3
    1538:	2004      	movs	r0, #4
    153a:	4b40      	ldr	r3, [pc, #256]	; (163c <system_clock_init+0x168>)
    153c:	4798      	blx	r3
    153e:	ab05      	add	r3, sp, #20
    1540:	2200      	movs	r2, #0
    1542:	805c      	strh	r4, [r3, #2]
    1544:	809c      	strh	r4, [r3, #4]
    1546:	719a      	strb	r2, [r3, #6]
    1548:	71da      	strb	r2, [r3, #7]
    154a:	213f      	movs	r1, #63	; 0x3f
    154c:	8159      	strh	r1, [r3, #10]
    154e:	393b      	subs	r1, #59	; 0x3b
    1550:	7019      	strb	r1, [r3, #0]
    1552:	705a      	strb	r2, [r3, #1]
    1554:	682b      	ldr	r3, [r5, #0]
    1556:	0e9b      	lsrs	r3, r3, #26
    1558:	2b3f      	cmp	r3, #63	; 0x3f
    155a:	d060      	beq.n	161e <system_clock_init+0x14a>
    155c:	a805      	add	r0, sp, #20
    155e:	7203      	strb	r3, [r0, #8]
    1560:	2304      	movs	r3, #4
    1562:	8203      	strh	r3, [r0, #16]
    1564:	3303      	adds	r3, #3
    1566:	7303      	strb	r3, [r0, #12]
    1568:	3338      	adds	r3, #56	; 0x38
    156a:	81c3      	strh	r3, [r0, #14]
    156c:	4b34      	ldr	r3, [pc, #208]	; (1640 <system_clock_init+0x16c>)
    156e:	4798      	blx	r3
    1570:	a804      	add	r0, sp, #16
    1572:	2500      	movs	r5, #0
    1574:	7045      	strb	r5, [r0, #1]
    1576:	7005      	strb	r5, [r0, #0]
    1578:	7085      	strb	r5, [r0, #2]
    157a:	4b32      	ldr	r3, [pc, #200]	; (1644 <system_clock_init+0x170>)
    157c:	4798      	blx	r3
    157e:	2006      	movs	r0, #6
    1580:	4f2e      	ldr	r7, [pc, #184]	; (163c <system_clock_init+0x168>)
    1582:	47b8      	blx	r7
    1584:	4b30      	ldr	r3, [pc, #192]	; (1648 <system_clock_init+0x174>)
    1586:	4798      	blx	r3
    1588:	ac01      	add	r4, sp, #4
    158a:	2601      	movs	r6, #1
    158c:	9602      	str	r6, [sp, #8]
    158e:	7065      	strb	r5, [r4, #1]
    1590:	2306      	movs	r3, #6
    1592:	7023      	strb	r3, [r4, #0]
    1594:	7225      	strb	r5, [r4, #8]
    1596:	7265      	strb	r5, [r4, #9]
    1598:	0021      	movs	r1, r4
    159a:	2001      	movs	r0, #1
    159c:	4b2b      	ldr	r3, [pc, #172]	; (164c <system_clock_init+0x178>)
    159e:	4699      	mov	r9, r3
    15a0:	4798      	blx	r3
    15a2:	2001      	movs	r0, #1
    15a4:	4b2a      	ldr	r3, [pc, #168]	; (1650 <system_clock_init+0x17c>)
    15a6:	4698      	mov	r8, r3
    15a8:	4798      	blx	r3
    15aa:	7065      	strb	r5, [r4, #1]
    15ac:	7265      	strb	r5, [r4, #9]
    15ae:	2304      	movs	r3, #4
    15b0:	7023      	strb	r3, [r4, #0]
    15b2:	2320      	movs	r3, #32
    15b4:	6063      	str	r3, [r4, #4]
    15b6:	7226      	strb	r6, [r4, #8]
    15b8:	0021      	movs	r1, r4
    15ba:	2002      	movs	r0, #2
    15bc:	47c8      	blx	r9
    15be:	2002      	movs	r0, #2
    15c0:	47c0      	blx	r8
    15c2:	7026      	strb	r6, [r4, #0]
    15c4:	0021      	movs	r1, r4
    15c6:	2000      	movs	r0, #0
    15c8:	4b18      	ldr	r3, [pc, #96]	; (162c <system_clock_init+0x158>)
    15ca:	4798      	blx	r3
    15cc:	2000      	movs	r0, #0
    15ce:	4b21      	ldr	r3, [pc, #132]	; (1654 <system_clock_init+0x180>)
    15d0:	4798      	blx	r3
    15d2:	2007      	movs	r0, #7
    15d4:	47b8      	blx	r7
    15d6:	4913      	ldr	r1, [pc, #76]	; (1624 <system_clock_init+0x150>)
    15d8:	22d0      	movs	r2, #208	; 0xd0
    15da:	68cb      	ldr	r3, [r1, #12]
    15dc:	4013      	ands	r3, r2
    15de:	2bd0      	cmp	r3, #208	; 0xd0
    15e0:	d1fb      	bne.n	15da <system_clock_init+0x106>
    15e2:	4a10      	ldr	r2, [pc, #64]	; (1624 <system_clock_init+0x150>)
    15e4:	8c93      	ldrh	r3, [r2, #36]	; 0x24
    15e6:	2180      	movs	r1, #128	; 0x80
    15e8:	430b      	orrs	r3, r1
    15ea:	8493      	strh	r3, [r2, #36]	; 0x24
    15ec:	4a1a      	ldr	r2, [pc, #104]	; (1658 <system_clock_init+0x184>)
    15ee:	2300      	movs	r3, #0
    15f0:	7213      	strb	r3, [r2, #8]
    15f2:	7253      	strb	r3, [r2, #9]
    15f4:	7293      	strb	r3, [r2, #10]
    15f6:	72d3      	strb	r3, [r2, #11]
    15f8:	a901      	add	r1, sp, #4
    15fa:	2201      	movs	r2, #1
    15fc:	604a      	str	r2, [r1, #4]
    15fe:	704b      	strb	r3, [r1, #1]
    1600:	720b      	strb	r3, [r1, #8]
    1602:	724b      	strb	r3, [r1, #9]
    1604:	3307      	adds	r3, #7
    1606:	700b      	strb	r3, [r1, #0]
    1608:	2000      	movs	r0, #0
    160a:	4b10      	ldr	r3, [pc, #64]	; (164c <system_clock_init+0x178>)
    160c:	4798      	blx	r3
    160e:	2000      	movs	r0, #0
    1610:	4b0f      	ldr	r3, [pc, #60]	; (1650 <system_clock_init+0x17c>)
    1612:	4798      	blx	r3
    1614:	b00d      	add	sp, #52	; 0x34
    1616:	bc0c      	pop	{r2, r3}
    1618:	4690      	mov	r8, r2
    161a:	4699      	mov	r9, r3
    161c:	bdf0      	pop	{r4, r5, r6, r7, pc}
    161e:	3b20      	subs	r3, #32
    1620:	e79c      	b.n	155c <system_clock_init+0x88>
    1622:	46c0      	nop			; (mov r8, r8)
    1624:	40000800 	.word	0x40000800
    1628:	41004000 	.word	0x41004000
    162c:	00001895 	.word	0x00001895
    1630:	00806024 	.word	0x00806024
    1634:	ff80ffff 	.word	0xff80ffff
    1638:	00001331 	.word	0x00001331
    163c:	0000142d 	.word	0x0000142d
    1640:	000013ad 	.word	0x000013ad
    1644:	000012f5 	.word	0x000012f5
    1648:	0000165d 	.word	0x0000165d
    164c:	00001681 	.word	0x00001681
    1650:	00001739 	.word	0x00001739
    1654:	00001809 	.word	0x00001809
    1658:	40000400 	.word	0x40000400

0000165c <system_gclk_init>:
    165c:	4a06      	ldr	r2, [pc, #24]	; (1678 <system_gclk_init+0x1c>)
    165e:	6993      	ldr	r3, [r2, #24]
    1660:	2108      	movs	r1, #8
    1662:	430b      	orrs	r3, r1
    1664:	6193      	str	r3, [r2, #24]
    1666:	2201      	movs	r2, #1
    1668:	4b04      	ldr	r3, [pc, #16]	; (167c <system_gclk_init+0x20>)
    166a:	701a      	strb	r2, [r3, #0]
    166c:	0019      	movs	r1, r3
    166e:	780b      	ldrb	r3, [r1, #0]
    1670:	4213      	tst	r3, r2
    1672:	d1fc      	bne.n	166e <system_gclk_init+0x12>
    1674:	4770      	bx	lr
    1676:	46c0      	nop			; (mov r8, r8)
    1678:	40000400 	.word	0x40000400
    167c:	40000c00 	.word	0x40000c00

00001680 <system_gclk_gen_set_config>:
    1680:	b570      	push	{r4, r5, r6, lr}
    1682:	0006      	movs	r6, r0
    1684:	0004      	movs	r4, r0
    1686:	780d      	ldrb	r5, [r1, #0]
    1688:	022d      	lsls	r5, r5, #8
    168a:	4305      	orrs	r5, r0
    168c:	784b      	ldrb	r3, [r1, #1]
    168e:	2b00      	cmp	r3, #0
    1690:	d002      	beq.n	1698 <system_gclk_gen_set_config+0x18>
    1692:	2380      	movs	r3, #128	; 0x80
    1694:	02db      	lsls	r3, r3, #11
    1696:	431d      	orrs	r5, r3
    1698:	7a4b      	ldrb	r3, [r1, #9]
    169a:	2b00      	cmp	r3, #0
    169c:	d002      	beq.n	16a4 <system_gclk_gen_set_config+0x24>
    169e:	2380      	movs	r3, #128	; 0x80
    16a0:	031b      	lsls	r3, r3, #12
    16a2:	431d      	orrs	r5, r3
    16a4:	6848      	ldr	r0, [r1, #4]
    16a6:	2801      	cmp	r0, #1
    16a8:	d910      	bls.n	16cc <system_gclk_gen_set_config+0x4c>
    16aa:	1e43      	subs	r3, r0, #1
    16ac:	4218      	tst	r0, r3
    16ae:	d134      	bne.n	171a <system_gclk_gen_set_config+0x9a>
    16b0:	2802      	cmp	r0, #2
    16b2:	d930      	bls.n	1716 <system_gclk_gen_set_config+0x96>
    16b4:	2302      	movs	r3, #2
    16b6:	2200      	movs	r2, #0
    16b8:	3201      	adds	r2, #1
    16ba:	005b      	lsls	r3, r3, #1
    16bc:	4298      	cmp	r0, r3
    16be:	d8fb      	bhi.n	16b8 <system_gclk_gen_set_config+0x38>
    16c0:	0212      	lsls	r2, r2, #8
    16c2:	4332      	orrs	r2, r6
    16c4:	0014      	movs	r4, r2
    16c6:	2380      	movs	r3, #128	; 0x80
    16c8:	035b      	lsls	r3, r3, #13
    16ca:	431d      	orrs	r5, r3
    16cc:	7a0b      	ldrb	r3, [r1, #8]
    16ce:	2b00      	cmp	r3, #0
    16d0:	d002      	beq.n	16d8 <system_gclk_gen_set_config+0x58>
    16d2:	2380      	movs	r3, #128	; 0x80
    16d4:	039b      	lsls	r3, r3, #14
    16d6:	431d      	orrs	r5, r3
    16d8:	4a13      	ldr	r2, [pc, #76]	; (1728 <system_gclk_gen_set_config+0xa8>)
    16da:	7853      	ldrb	r3, [r2, #1]
    16dc:	b25b      	sxtb	r3, r3
    16de:	2b00      	cmp	r3, #0
    16e0:	dbfb      	blt.n	16da <system_gclk_gen_set_config+0x5a>
    16e2:	4b12      	ldr	r3, [pc, #72]	; (172c <system_gclk_gen_set_config+0xac>)
    16e4:	4798      	blx	r3
    16e6:	4b12      	ldr	r3, [pc, #72]	; (1730 <system_gclk_gen_set_config+0xb0>)
    16e8:	701e      	strb	r6, [r3, #0]
    16ea:	4a0f      	ldr	r2, [pc, #60]	; (1728 <system_gclk_gen_set_config+0xa8>)
    16ec:	7853      	ldrb	r3, [r2, #1]
    16ee:	b25b      	sxtb	r3, r3
    16f0:	2b00      	cmp	r3, #0
    16f2:	dbfb      	blt.n	16ec <system_gclk_gen_set_config+0x6c>
    16f4:	4b0c      	ldr	r3, [pc, #48]	; (1728 <system_gclk_gen_set_config+0xa8>)
    16f6:	609c      	str	r4, [r3, #8]
    16f8:	001a      	movs	r2, r3
    16fa:	7853      	ldrb	r3, [r2, #1]
    16fc:	b25b      	sxtb	r3, r3
    16fe:	2b00      	cmp	r3, #0
    1700:	dbfb      	blt.n	16fa <system_gclk_gen_set_config+0x7a>
    1702:	4a09      	ldr	r2, [pc, #36]	; (1728 <system_gclk_gen_set_config+0xa8>)
    1704:	6853      	ldr	r3, [r2, #4]
    1706:	2180      	movs	r1, #128	; 0x80
    1708:	0249      	lsls	r1, r1, #9
    170a:	400b      	ands	r3, r1
    170c:	431d      	orrs	r5, r3
    170e:	6055      	str	r5, [r2, #4]
    1710:	4b08      	ldr	r3, [pc, #32]	; (1734 <system_gclk_gen_set_config+0xb4>)
    1712:	4798      	blx	r3
    1714:	bd70      	pop	{r4, r5, r6, pc}
    1716:	2200      	movs	r2, #0
    1718:	e7d2      	b.n	16c0 <system_gclk_gen_set_config+0x40>
    171a:	0204      	lsls	r4, r0, #8
    171c:	4334      	orrs	r4, r6
    171e:	2380      	movs	r3, #128	; 0x80
    1720:	029b      	lsls	r3, r3, #10
    1722:	431d      	orrs	r5, r3
    1724:	e7d2      	b.n	16cc <system_gclk_gen_set_config+0x4c>
    1726:	46c0      	nop			; (mov r8, r8)
    1728:	40000c00 	.word	0x40000c00
    172c:	00000181 	.word	0x00000181
    1730:	40000c08 	.word	0x40000c08
    1734:	000001c1 	.word	0x000001c1

00001738 <system_gclk_gen_enable>:
    1738:	b510      	push	{r4, lr}
    173a:	0004      	movs	r4, r0
    173c:	4a0b      	ldr	r2, [pc, #44]	; (176c <system_gclk_gen_enable+0x34>)
    173e:	7853      	ldrb	r3, [r2, #1]
    1740:	b25b      	sxtb	r3, r3
    1742:	2b00      	cmp	r3, #0
    1744:	dbfb      	blt.n	173e <system_gclk_gen_enable+0x6>
    1746:	4b0a      	ldr	r3, [pc, #40]	; (1770 <system_gclk_gen_enable+0x38>)
    1748:	4798      	blx	r3
    174a:	4b0a      	ldr	r3, [pc, #40]	; (1774 <system_gclk_gen_enable+0x3c>)
    174c:	701c      	strb	r4, [r3, #0]
    174e:	4a07      	ldr	r2, [pc, #28]	; (176c <system_gclk_gen_enable+0x34>)
    1750:	7853      	ldrb	r3, [r2, #1]
    1752:	b25b      	sxtb	r3, r3
    1754:	2b00      	cmp	r3, #0
    1756:	dbfb      	blt.n	1750 <system_gclk_gen_enable+0x18>
    1758:	4a04      	ldr	r2, [pc, #16]	; (176c <system_gclk_gen_enable+0x34>)
    175a:	6851      	ldr	r1, [r2, #4]
    175c:	2380      	movs	r3, #128	; 0x80
    175e:	025b      	lsls	r3, r3, #9
    1760:	430b      	orrs	r3, r1
    1762:	6053      	str	r3, [r2, #4]
    1764:	4b04      	ldr	r3, [pc, #16]	; (1778 <system_gclk_gen_enable+0x40>)
    1766:	4798      	blx	r3
    1768:	bd10      	pop	{r4, pc}
    176a:	46c0      	nop			; (mov r8, r8)
    176c:	40000c00 	.word	0x40000c00
    1770:	00000181 	.word	0x00000181
    1774:	40000c04 	.word	0x40000c04
    1778:	000001c1 	.word	0x000001c1

0000177c <system_gclk_gen_get_hz>:
    177c:	b570      	push	{r4, r5, r6, lr}
    177e:	0004      	movs	r4, r0
    1780:	4a1a      	ldr	r2, [pc, #104]	; (17ec <system_gclk_gen_get_hz+0x70>)
    1782:	7853      	ldrb	r3, [r2, #1]
    1784:	b25b      	sxtb	r3, r3
    1786:	2b00      	cmp	r3, #0
    1788:	dbfb      	blt.n	1782 <system_gclk_gen_get_hz+0x6>
    178a:	4b19      	ldr	r3, [pc, #100]	; (17f0 <system_gclk_gen_get_hz+0x74>)
    178c:	4798      	blx	r3
    178e:	4b19      	ldr	r3, [pc, #100]	; (17f4 <system_gclk_gen_get_hz+0x78>)
    1790:	701c      	strb	r4, [r3, #0]
    1792:	4a16      	ldr	r2, [pc, #88]	; (17ec <system_gclk_gen_get_hz+0x70>)
    1794:	7853      	ldrb	r3, [r2, #1]
    1796:	b25b      	sxtb	r3, r3
    1798:	2b00      	cmp	r3, #0
    179a:	dbfb      	blt.n	1794 <system_gclk_gen_get_hz+0x18>
    179c:	4e13      	ldr	r6, [pc, #76]	; (17ec <system_gclk_gen_get_hz+0x70>)
    179e:	6870      	ldr	r0, [r6, #4]
    17a0:	04c0      	lsls	r0, r0, #19
    17a2:	0ec0      	lsrs	r0, r0, #27
    17a4:	4b14      	ldr	r3, [pc, #80]	; (17f8 <system_gclk_gen_get_hz+0x7c>)
    17a6:	4798      	blx	r3
    17a8:	0005      	movs	r5, r0
    17aa:	4b12      	ldr	r3, [pc, #72]	; (17f4 <system_gclk_gen_get_hz+0x78>)
    17ac:	701c      	strb	r4, [r3, #0]
    17ae:	6876      	ldr	r6, [r6, #4]
    17b0:	02f6      	lsls	r6, r6, #11
    17b2:	0ff6      	lsrs	r6, r6, #31
    17b4:	4b11      	ldr	r3, [pc, #68]	; (17fc <system_gclk_gen_get_hz+0x80>)
    17b6:	701c      	strb	r4, [r3, #0]
    17b8:	4a0c      	ldr	r2, [pc, #48]	; (17ec <system_gclk_gen_get_hz+0x70>)
    17ba:	7853      	ldrb	r3, [r2, #1]
    17bc:	b25b      	sxtb	r3, r3
    17be:	2b00      	cmp	r3, #0
    17c0:	dbfb      	blt.n	17ba <system_gclk_gen_get_hz+0x3e>
    17c2:	4b0a      	ldr	r3, [pc, #40]	; (17ec <system_gclk_gen_get_hz+0x70>)
    17c4:	689c      	ldr	r4, [r3, #8]
    17c6:	0224      	lsls	r4, r4, #8
    17c8:	0c24      	lsrs	r4, r4, #16
    17ca:	4b0d      	ldr	r3, [pc, #52]	; (1800 <system_gclk_gen_get_hz+0x84>)
    17cc:	4798      	blx	r3
    17ce:	2e00      	cmp	r6, #0
    17d0:	d107      	bne.n	17e2 <system_gclk_gen_get_hz+0x66>
    17d2:	2c01      	cmp	r4, #1
    17d4:	d907      	bls.n	17e6 <system_gclk_gen_get_hz+0x6a>
    17d6:	0021      	movs	r1, r4
    17d8:	0028      	movs	r0, r5
    17da:	4b0a      	ldr	r3, [pc, #40]	; (1804 <system_gclk_gen_get_hz+0x88>)
    17dc:	4798      	blx	r3
    17de:	0005      	movs	r5, r0
    17e0:	e001      	b.n	17e6 <system_gclk_gen_get_hz+0x6a>
    17e2:	3401      	adds	r4, #1
    17e4:	40e5      	lsrs	r5, r4
    17e6:	0028      	movs	r0, r5
    17e8:	bd70      	pop	{r4, r5, r6, pc}
    17ea:	46c0      	nop			; (mov r8, r8)
    17ec:	40000c00 	.word	0x40000c00
    17f0:	00000181 	.word	0x00000181
    17f4:	40000c04 	.word	0x40000c04
    17f8:	00001261 	.word	0x00001261
    17fc:	40000c08 	.word	0x40000c08
    1800:	000001c1 	.word	0x000001c1
    1804:	00009005 	.word	0x00009005

00001808 <system_gclk_chan_enable>:
    1808:	b510      	push	{r4, lr}
    180a:	0004      	movs	r4, r0
    180c:	4b06      	ldr	r3, [pc, #24]	; (1828 <system_gclk_chan_enable+0x20>)
    180e:	4798      	blx	r3
    1810:	4b06      	ldr	r3, [pc, #24]	; (182c <system_gclk_chan_enable+0x24>)
    1812:	701c      	strb	r4, [r3, #0]
    1814:	4a06      	ldr	r2, [pc, #24]	; (1830 <system_gclk_chan_enable+0x28>)
    1816:	8853      	ldrh	r3, [r2, #2]
    1818:	2180      	movs	r1, #128	; 0x80
    181a:	01c9      	lsls	r1, r1, #7
    181c:	430b      	orrs	r3, r1
    181e:	8053      	strh	r3, [r2, #2]
    1820:	4b04      	ldr	r3, [pc, #16]	; (1834 <system_gclk_chan_enable+0x2c>)
    1822:	4798      	blx	r3
    1824:	bd10      	pop	{r4, pc}
    1826:	46c0      	nop			; (mov r8, r8)
    1828:	00000181 	.word	0x00000181
    182c:	40000c02 	.word	0x40000c02
    1830:	40000c00 	.word	0x40000c00
    1834:	000001c1 	.word	0x000001c1

00001838 <system_gclk_chan_disable>:
    1838:	b510      	push	{r4, lr}
    183a:	0004      	movs	r4, r0
    183c:	4b0f      	ldr	r3, [pc, #60]	; (187c <system_gclk_chan_disable+0x44>)
    183e:	4798      	blx	r3
    1840:	4b0f      	ldr	r3, [pc, #60]	; (1880 <system_gclk_chan_disable+0x48>)
    1842:	701c      	strb	r4, [r3, #0]
    1844:	4a0f      	ldr	r2, [pc, #60]	; (1884 <system_gclk_chan_disable+0x4c>)
    1846:	8853      	ldrh	r3, [r2, #2]
    1848:	051b      	lsls	r3, r3, #20
    184a:	0f18      	lsrs	r0, r3, #28
    184c:	8853      	ldrh	r3, [r2, #2]
    184e:	490e      	ldr	r1, [pc, #56]	; (1888 <system_gclk_chan_disable+0x50>)
    1850:	400b      	ands	r3, r1
    1852:	8053      	strh	r3, [r2, #2]
    1854:	8853      	ldrh	r3, [r2, #2]
    1856:	490d      	ldr	r1, [pc, #52]	; (188c <system_gclk_chan_disable+0x54>)
    1858:	400b      	ands	r3, r1
    185a:	8053      	strh	r3, [r2, #2]
    185c:	0011      	movs	r1, r2
    185e:	2280      	movs	r2, #128	; 0x80
    1860:	01d2      	lsls	r2, r2, #7
    1862:	884b      	ldrh	r3, [r1, #2]
    1864:	4213      	tst	r3, r2
    1866:	d1fc      	bne.n	1862 <system_gclk_chan_disable+0x2a>
    1868:	4906      	ldr	r1, [pc, #24]	; (1884 <system_gclk_chan_disable+0x4c>)
    186a:	884a      	ldrh	r2, [r1, #2]
    186c:	0203      	lsls	r3, r0, #8
    186e:	4806      	ldr	r0, [pc, #24]	; (1888 <system_gclk_chan_disable+0x50>)
    1870:	4002      	ands	r2, r0
    1872:	4313      	orrs	r3, r2
    1874:	804b      	strh	r3, [r1, #2]
    1876:	4b06      	ldr	r3, [pc, #24]	; (1890 <system_gclk_chan_disable+0x58>)
    1878:	4798      	blx	r3
    187a:	bd10      	pop	{r4, pc}
    187c:	00000181 	.word	0x00000181
    1880:	40000c02 	.word	0x40000c02
    1884:	40000c00 	.word	0x40000c00
    1888:	fffff0ff 	.word	0xfffff0ff
    188c:	ffffbfff 	.word	0xffffbfff
    1890:	000001c1 	.word	0x000001c1

00001894 <system_gclk_chan_set_config>:
    1894:	b510      	push	{r4, lr}
    1896:	780c      	ldrb	r4, [r1, #0]
    1898:	0224      	lsls	r4, r4, #8
    189a:	4304      	orrs	r4, r0
    189c:	4b02      	ldr	r3, [pc, #8]	; (18a8 <system_gclk_chan_set_config+0x14>)
    189e:	4798      	blx	r3
    18a0:	b2a4      	uxth	r4, r4
    18a2:	4b02      	ldr	r3, [pc, #8]	; (18ac <system_gclk_chan_set_config+0x18>)
    18a4:	805c      	strh	r4, [r3, #2]
    18a6:	bd10      	pop	{r4, pc}
    18a8:	00001839 	.word	0x00001839
    18ac:	40000c00 	.word	0x40000c00

000018b0 <system_gclk_chan_get_hz>:
    18b0:	b510      	push	{r4, lr}
    18b2:	0004      	movs	r4, r0
    18b4:	4b06      	ldr	r3, [pc, #24]	; (18d0 <system_gclk_chan_get_hz+0x20>)
    18b6:	4798      	blx	r3
    18b8:	4b06      	ldr	r3, [pc, #24]	; (18d4 <system_gclk_chan_get_hz+0x24>)
    18ba:	701c      	strb	r4, [r3, #0]
    18bc:	4b06      	ldr	r3, [pc, #24]	; (18d8 <system_gclk_chan_get_hz+0x28>)
    18be:	885c      	ldrh	r4, [r3, #2]
    18c0:	0524      	lsls	r4, r4, #20
    18c2:	0f24      	lsrs	r4, r4, #28
    18c4:	4b05      	ldr	r3, [pc, #20]	; (18dc <system_gclk_chan_get_hz+0x2c>)
    18c6:	4798      	blx	r3
    18c8:	0020      	movs	r0, r4
    18ca:	4b05      	ldr	r3, [pc, #20]	; (18e0 <system_gclk_chan_get_hz+0x30>)
    18cc:	4798      	blx	r3
    18ce:	bd10      	pop	{r4, pc}
    18d0:	00000181 	.word	0x00000181
    18d4:	40000c02 	.word	0x40000c02
    18d8:	40000c00 	.word	0x40000c00
    18dc:	000001c1 	.word	0x000001c1
    18e0:	0000177d 	.word	0x0000177d

000018e4 <_system_pinmux_config>:
    18e4:	b530      	push	{r4, r5, lr}
    18e6:	78d3      	ldrb	r3, [r2, #3]
    18e8:	2b00      	cmp	r3, #0
    18ea:	d135      	bne.n	1958 <_system_pinmux_config+0x74>
    18ec:	7813      	ldrb	r3, [r2, #0]
    18ee:	2b80      	cmp	r3, #128	; 0x80
    18f0:	d029      	beq.n	1946 <_system_pinmux_config+0x62>
    18f2:	061b      	lsls	r3, r3, #24
    18f4:	2480      	movs	r4, #128	; 0x80
    18f6:	0264      	lsls	r4, r4, #9
    18f8:	4323      	orrs	r3, r4
    18fa:	7854      	ldrb	r4, [r2, #1]
    18fc:	2502      	movs	r5, #2
    18fe:	43ac      	bics	r4, r5
    1900:	d106      	bne.n	1910 <_system_pinmux_config+0x2c>
    1902:	7894      	ldrb	r4, [r2, #2]
    1904:	2c00      	cmp	r4, #0
    1906:	d120      	bne.n	194a <_system_pinmux_config+0x66>
    1908:	2480      	movs	r4, #128	; 0x80
    190a:	02a4      	lsls	r4, r4, #10
    190c:	4323      	orrs	r3, r4
    190e:	6041      	str	r1, [r0, #4]
    1910:	7854      	ldrb	r4, [r2, #1]
    1912:	3c01      	subs	r4, #1
    1914:	2c01      	cmp	r4, #1
    1916:	d91c      	bls.n	1952 <_system_pinmux_config+0x6e>
    1918:	040d      	lsls	r5, r1, #16
    191a:	0c2d      	lsrs	r5, r5, #16
    191c:	24a0      	movs	r4, #160	; 0xa0
    191e:	05e4      	lsls	r4, r4, #23
    1920:	432c      	orrs	r4, r5
    1922:	431c      	orrs	r4, r3
    1924:	6284      	str	r4, [r0, #40]	; 0x28
    1926:	0c0d      	lsrs	r5, r1, #16
    1928:	24d0      	movs	r4, #208	; 0xd0
    192a:	0624      	lsls	r4, r4, #24
    192c:	432c      	orrs	r4, r5
    192e:	431c      	orrs	r4, r3
    1930:	6284      	str	r4, [r0, #40]	; 0x28
    1932:	78d4      	ldrb	r4, [r2, #3]
    1934:	2c00      	cmp	r4, #0
    1936:	d122      	bne.n	197e <_system_pinmux_config+0x9a>
    1938:	035b      	lsls	r3, r3, #13
    193a:	d51c      	bpl.n	1976 <_system_pinmux_config+0x92>
    193c:	7893      	ldrb	r3, [r2, #2]
    193e:	2b01      	cmp	r3, #1
    1940:	d01e      	beq.n	1980 <_system_pinmux_config+0x9c>
    1942:	6141      	str	r1, [r0, #20]
    1944:	e017      	b.n	1976 <_system_pinmux_config+0x92>
    1946:	2300      	movs	r3, #0
    1948:	e7d7      	b.n	18fa <_system_pinmux_config+0x16>
    194a:	24c0      	movs	r4, #192	; 0xc0
    194c:	02e4      	lsls	r4, r4, #11
    194e:	4323      	orrs	r3, r4
    1950:	e7dd      	b.n	190e <_system_pinmux_config+0x2a>
    1952:	4c0d      	ldr	r4, [pc, #52]	; (1988 <_system_pinmux_config+0xa4>)
    1954:	4023      	ands	r3, r4
    1956:	e7df      	b.n	1918 <_system_pinmux_config+0x34>
    1958:	6041      	str	r1, [r0, #4]
    195a:	040c      	lsls	r4, r1, #16
    195c:	0c24      	lsrs	r4, r4, #16
    195e:	23a0      	movs	r3, #160	; 0xa0
    1960:	05db      	lsls	r3, r3, #23
    1962:	4323      	orrs	r3, r4
    1964:	6283      	str	r3, [r0, #40]	; 0x28
    1966:	0c0c      	lsrs	r4, r1, #16
    1968:	23d0      	movs	r3, #208	; 0xd0
    196a:	061b      	lsls	r3, r3, #24
    196c:	4323      	orrs	r3, r4
    196e:	6283      	str	r3, [r0, #40]	; 0x28
    1970:	78d3      	ldrb	r3, [r2, #3]
    1972:	2b00      	cmp	r3, #0
    1974:	d103      	bne.n	197e <_system_pinmux_config+0x9a>
    1976:	7853      	ldrb	r3, [r2, #1]
    1978:	3b01      	subs	r3, #1
    197a:	2b01      	cmp	r3, #1
    197c:	d902      	bls.n	1984 <_system_pinmux_config+0xa0>
    197e:	bd30      	pop	{r4, r5, pc}
    1980:	6181      	str	r1, [r0, #24]
    1982:	e7f8      	b.n	1976 <_system_pinmux_config+0x92>
    1984:	6081      	str	r1, [r0, #8]
    1986:	e7fa      	b.n	197e <_system_pinmux_config+0x9a>
    1988:	fffbffff 	.word	0xfffbffff

0000198c <system_pinmux_pin_set_config>:
    198c:	b510      	push	{r4, lr}
    198e:	000a      	movs	r2, r1
    1990:	09c1      	lsrs	r1, r0, #7
    1992:	2300      	movs	r3, #0
    1994:	2900      	cmp	r1, #0
    1996:	d104      	bne.n	19a2 <system_pinmux_pin_set_config+0x16>
    1998:	0943      	lsrs	r3, r0, #5
    199a:	01db      	lsls	r3, r3, #7
    199c:	4905      	ldr	r1, [pc, #20]	; (19b4 <system_pinmux_pin_set_config+0x28>)
    199e:	468c      	mov	ip, r1
    19a0:	4463      	add	r3, ip
    19a2:	241f      	movs	r4, #31
    19a4:	4020      	ands	r0, r4
    19a6:	2101      	movs	r1, #1
    19a8:	4081      	lsls	r1, r0
    19aa:	0018      	movs	r0, r3
    19ac:	4b02      	ldr	r3, [pc, #8]	; (19b8 <system_pinmux_pin_set_config+0x2c>)
    19ae:	4798      	blx	r3
    19b0:	bd10      	pop	{r4, pc}
    19b2:	46c0      	nop			; (mov r8, r8)
    19b4:	41004400 	.word	0x41004400
    19b8:	000018e5 	.word	0x000018e5

000019bc <_system_dummy_init>:
    19bc:	4770      	bx	lr
	...

000019c0 <system_init>:
    19c0:	b510      	push	{r4, lr}
    19c2:	4b05      	ldr	r3, [pc, #20]	; (19d8 <system_init+0x18>)
    19c4:	4798      	blx	r3
    19c6:	4b05      	ldr	r3, [pc, #20]	; (19dc <system_init+0x1c>)
    19c8:	4798      	blx	r3
    19ca:	4b05      	ldr	r3, [pc, #20]	; (19e0 <system_init+0x20>)
    19cc:	4798      	blx	r3
    19ce:	4b05      	ldr	r3, [pc, #20]	; (19e4 <system_init+0x24>)
    19d0:	4798      	blx	r3
    19d2:	4b05      	ldr	r3, [pc, #20]	; (19e8 <system_init+0x28>)
    19d4:	4798      	blx	r3
    19d6:	bd10      	pop	{r4, pc}
    19d8:	000014d5 	.word	0x000014d5
    19dc:	000001f1 	.word	0x000001f1
    19e0:	000019bd 	.word	0x000019bd
    19e4:	00000339 	.word	0x00000339
    19e8:	000019bd 	.word	0x000019bd

000019ec <tc_register_callback>:
    19ec:	1c93      	adds	r3, r2, #2
    19ee:	009b      	lsls	r3, r3, #2
    19f0:	5019      	str	r1, [r3, r0]
    19f2:	2a02      	cmp	r2, #2
    19f4:	d009      	beq.n	1a0a <tc_register_callback+0x1e>
    19f6:	2a03      	cmp	r2, #3
    19f8:	d00c      	beq.n	1a14 <tc_register_callback+0x28>
    19fa:	2301      	movs	r3, #1
    19fc:	4093      	lsls	r3, r2
    19fe:	001a      	movs	r2, r3
    1a00:	7e03      	ldrb	r3, [r0, #24]
    1a02:	4313      	orrs	r3, r2
    1a04:	7603      	strb	r3, [r0, #24]
    1a06:	2000      	movs	r0, #0
    1a08:	4770      	bx	lr
    1a0a:	7e03      	ldrb	r3, [r0, #24]
    1a0c:	2210      	movs	r2, #16
    1a0e:	4313      	orrs	r3, r2
    1a10:	7603      	strb	r3, [r0, #24]
    1a12:	e7f8      	b.n	1a06 <tc_register_callback+0x1a>
    1a14:	7e03      	ldrb	r3, [r0, #24]
    1a16:	2220      	movs	r2, #32
    1a18:	4313      	orrs	r3, r2
    1a1a:	7603      	strb	r3, [r0, #24]
    1a1c:	e7f3      	b.n	1a06 <tc_register_callback+0x1a>
	...

00001a20 <_tc_interrupt_handler>:
    1a20:	b570      	push	{r4, r5, r6, lr}
    1a22:	0080      	lsls	r0, r0, #2
    1a24:	4b16      	ldr	r3, [pc, #88]	; (1a80 <_tc_interrupt_handler+0x60>)
    1a26:	58c4      	ldr	r4, [r0, r3]
    1a28:	6823      	ldr	r3, [r4, #0]
    1a2a:	7b9d      	ldrb	r5, [r3, #14]
    1a2c:	7e22      	ldrb	r2, [r4, #24]
    1a2e:	7e63      	ldrb	r3, [r4, #25]
    1a30:	4013      	ands	r3, r2
    1a32:	401d      	ands	r5, r3
    1a34:	07eb      	lsls	r3, r5, #31
    1a36:	d406      	bmi.n	1a46 <_tc_interrupt_handler+0x26>
    1a38:	07ab      	lsls	r3, r5, #30
    1a3a:	d40b      	bmi.n	1a54 <_tc_interrupt_handler+0x34>
    1a3c:	06eb      	lsls	r3, r5, #27
    1a3e:	d410      	bmi.n	1a62 <_tc_interrupt_handler+0x42>
    1a40:	06ab      	lsls	r3, r5, #26
    1a42:	d415      	bmi.n	1a70 <_tc_interrupt_handler+0x50>
    1a44:	bd70      	pop	{r4, r5, r6, pc}
    1a46:	0020      	movs	r0, r4
    1a48:	68a3      	ldr	r3, [r4, #8]
    1a4a:	4798      	blx	r3
    1a4c:	2301      	movs	r3, #1
    1a4e:	6822      	ldr	r2, [r4, #0]
    1a50:	7393      	strb	r3, [r2, #14]
    1a52:	e7f1      	b.n	1a38 <_tc_interrupt_handler+0x18>
    1a54:	0020      	movs	r0, r4
    1a56:	68e3      	ldr	r3, [r4, #12]
    1a58:	4798      	blx	r3
    1a5a:	2302      	movs	r3, #2
    1a5c:	6822      	ldr	r2, [r4, #0]
    1a5e:	7393      	strb	r3, [r2, #14]
    1a60:	e7ec      	b.n	1a3c <_tc_interrupt_handler+0x1c>
    1a62:	0020      	movs	r0, r4
    1a64:	6923      	ldr	r3, [r4, #16]
    1a66:	4798      	blx	r3
    1a68:	2310      	movs	r3, #16
    1a6a:	6822      	ldr	r2, [r4, #0]
    1a6c:	7393      	strb	r3, [r2, #14]
    1a6e:	e7e7      	b.n	1a40 <_tc_interrupt_handler+0x20>
    1a70:	0020      	movs	r0, r4
    1a72:	6963      	ldr	r3, [r4, #20]
    1a74:	4798      	blx	r3
    1a76:	6823      	ldr	r3, [r4, #0]
    1a78:	2220      	movs	r2, #32
    1a7a:	739a      	strb	r2, [r3, #14]
    1a7c:	e7e2      	b.n	1a44 <_tc_interrupt_handler+0x24>
    1a7e:	46c0      	nop			; (mov r8, r8)
    1a80:	2000041c 	.word	0x2000041c

00001a84 <TC3_Handler>:
    1a84:	b510      	push	{r4, lr}
    1a86:	2000      	movs	r0, #0
    1a88:	4b01      	ldr	r3, [pc, #4]	; (1a90 <TC3_Handler+0xc>)
    1a8a:	4798      	blx	r3
    1a8c:	bd10      	pop	{r4, pc}
    1a8e:	46c0      	nop			; (mov r8, r8)
    1a90:	00001a21 	.word	0x00001a21

00001a94 <TC4_Handler>:
    1a94:	b510      	push	{r4, lr}
    1a96:	2001      	movs	r0, #1
    1a98:	4b01      	ldr	r3, [pc, #4]	; (1aa0 <TC4_Handler+0xc>)
    1a9a:	4798      	blx	r3
    1a9c:	bd10      	pop	{r4, pc}
    1a9e:	46c0      	nop			; (mov r8, r8)
    1aa0:	00001a21 	.word	0x00001a21

00001aa4 <TC5_Handler>:
    1aa4:	b510      	push	{r4, lr}
    1aa6:	2002      	movs	r0, #2
    1aa8:	4b01      	ldr	r3, [pc, #4]	; (1ab0 <TC5_Handler+0xc>)
    1aaa:	4798      	blx	r3
    1aac:	bd10      	pop	{r4, pc}
    1aae:	46c0      	nop			; (mov r8, r8)
    1ab0:	00001a21 	.word	0x00001a21

00001ab4 <_tc_get_inst_index>:
    1ab4:	b530      	push	{r4, r5, lr}
    1ab6:	b085      	sub	sp, #20
    1ab8:	aa01      	add	r2, sp, #4
    1aba:	4b0b      	ldr	r3, [pc, #44]	; (1ae8 <_tc_get_inst_index+0x34>)
    1abc:	cb32      	ldmia	r3!, {r1, r4, r5}
    1abe:	c232      	stmia	r2!, {r1, r4, r5}
    1ac0:	9b01      	ldr	r3, [sp, #4]
    1ac2:	4298      	cmp	r0, r3
    1ac4:	d00d      	beq.n	1ae2 <_tc_get_inst_index+0x2e>
    1ac6:	9b02      	ldr	r3, [sp, #8]
    1ac8:	4298      	cmp	r0, r3
    1aca:	d008      	beq.n	1ade <_tc_get_inst_index+0x2a>
    1acc:	2300      	movs	r3, #0
    1ace:	9a03      	ldr	r2, [sp, #12]
    1ad0:	4282      	cmp	r2, r0
    1ad2:	d002      	beq.n	1ada <_tc_get_inst_index+0x26>
    1ad4:	0018      	movs	r0, r3
    1ad6:	b005      	add	sp, #20
    1ad8:	bd30      	pop	{r4, r5, pc}
    1ada:	3302      	adds	r3, #2
    1adc:	e002      	b.n	1ae4 <_tc_get_inst_index+0x30>
    1ade:	2301      	movs	r3, #1
    1ae0:	e000      	b.n	1ae4 <_tc_get_inst_index+0x30>
    1ae2:	2300      	movs	r3, #0
    1ae4:	b2db      	uxtb	r3, r3
    1ae6:	e7f5      	b.n	1ad4 <_tc_get_inst_index+0x20>
    1ae8:	0000a318 	.word	0x0000a318

00001aec <tc_init>:
    1aec:	b5f0      	push	{r4, r5, r6, r7, lr}
    1aee:	b087      	sub	sp, #28
    1af0:	0004      	movs	r4, r0
    1af2:	000d      	movs	r5, r1
    1af4:	0016      	movs	r6, r2
    1af6:	0008      	movs	r0, r1
    1af8:	4b85      	ldr	r3, [pc, #532]	; (1d10 <tc_init+0x224>)
    1afa:	4798      	blx	r3
    1afc:	0007      	movs	r7, r0
    1afe:	ab05      	add	r3, sp, #20
    1b00:	221b      	movs	r2, #27
    1b02:	701a      	strb	r2, [r3, #0]
    1b04:	3201      	adds	r2, #1
    1b06:	705a      	strb	r2, [r3, #1]
    1b08:	709a      	strb	r2, [r3, #2]
    1b0a:	ab03      	add	r3, sp, #12
    1b0c:	2280      	movs	r2, #128	; 0x80
    1b0e:	0112      	lsls	r2, r2, #4
    1b10:	801a      	strh	r2, [r3, #0]
    1b12:	2280      	movs	r2, #128	; 0x80
    1b14:	0152      	lsls	r2, r2, #5
    1b16:	805a      	strh	r2, [r3, #2]
    1b18:	2280      	movs	r2, #128	; 0x80
    1b1a:	0192      	lsls	r2, r2, #6
    1b1c:	809a      	strh	r2, [r3, #4]
    1b1e:	2300      	movs	r3, #0
    1b20:	60a3      	str	r3, [r4, #8]
    1b22:	60e3      	str	r3, [r4, #12]
    1b24:	6123      	str	r3, [r4, #16]
    1b26:	6163      	str	r3, [r4, #20]
    1b28:	7623      	strb	r3, [r4, #24]
    1b2a:	7663      	strb	r3, [r4, #25]
    1b2c:	0082      	lsls	r2, r0, #2
    1b2e:	4b79      	ldr	r3, [pc, #484]	; (1d14 <tc_init+0x228>)
    1b30:	50d4      	str	r4, [r2, r3]
    1b32:	6025      	str	r5, [r4, #0]
    1b34:	78b3      	ldrb	r3, [r6, #2]
    1b36:	2b08      	cmp	r3, #8
    1b38:	d006      	beq.n	1b48 <tc_init+0x5c>
    1b3a:	7123      	strb	r3, [r4, #4]
    1b3c:	882b      	ldrh	r3, [r5, #0]
    1b3e:	2005      	movs	r0, #5
    1b40:	07db      	lsls	r3, r3, #31
    1b42:	d505      	bpl.n	1b50 <tc_init+0x64>
    1b44:	b007      	add	sp, #28
    1b46:	bdf0      	pop	{r4, r5, r6, r7, pc}
    1b48:	2017      	movs	r0, #23
    1b4a:	07fa      	lsls	r2, r7, #31
    1b4c:	d5fa      	bpl.n	1b44 <tc_init+0x58>
    1b4e:	e7f4      	b.n	1b3a <tc_init+0x4e>
    1b50:	7beb      	ldrb	r3, [r5, #15]
    1b52:	3017      	adds	r0, #23
    1b54:	06db      	lsls	r3, r3, #27
    1b56:	d4f5      	bmi.n	1b44 <tc_init+0x58>
    1b58:	882b      	ldrh	r3, [r5, #0]
    1b5a:	079b      	lsls	r3, r3, #30
    1b5c:	d4f2      	bmi.n	1b44 <tc_init+0x58>
    1b5e:	7c33      	ldrb	r3, [r6, #16]
    1b60:	2b00      	cmp	r3, #0
    1b62:	d179      	bne.n	1c58 <tc_init+0x16c>
    1b64:	7f33      	ldrb	r3, [r6, #28]
    1b66:	2b00      	cmp	r3, #0
    1b68:	d000      	beq.n	1b6c <tc_init+0x80>
    1b6a:	e081      	b.n	1c70 <tc_init+0x184>
    1b6c:	496a      	ldr	r1, [pc, #424]	; (1d18 <tc_init+0x22c>)
    1b6e:	6a08      	ldr	r0, [r1, #32]
    1b70:	007a      	lsls	r2, r7, #1
    1b72:	ab03      	add	r3, sp, #12
    1b74:	5ad3      	ldrh	r3, [r2, r3]
    1b76:	4303      	orrs	r3, r0
    1b78:	620b      	str	r3, [r1, #32]
    1b7a:	78b3      	ldrb	r3, [r6, #2]
    1b7c:	2b08      	cmp	r3, #8
    1b7e:	d100      	bne.n	1b82 <tc_init+0x96>
    1b80:	e086      	b.n	1c90 <tc_init+0x1a4>
    1b82:	a901      	add	r1, sp, #4
    1b84:	7833      	ldrb	r3, [r6, #0]
    1b86:	700b      	strb	r3, [r1, #0]
    1b88:	ab05      	add	r3, sp, #20
    1b8a:	5ddf      	ldrb	r7, [r3, r7]
    1b8c:	0038      	movs	r0, r7
    1b8e:	4b63      	ldr	r3, [pc, #396]	; (1d1c <tc_init+0x230>)
    1b90:	4798      	blx	r3
    1b92:	0038      	movs	r0, r7
    1b94:	4b62      	ldr	r3, [pc, #392]	; (1d20 <tc_init+0x234>)
    1b96:	4798      	blx	r3
    1b98:	8931      	ldrh	r1, [r6, #8]
    1b9a:	88b3      	ldrh	r3, [r6, #4]
    1b9c:	430b      	orrs	r3, r1
    1b9e:	78b1      	ldrb	r1, [r6, #2]
    1ba0:	79b2      	ldrb	r2, [r6, #6]
    1ba2:	4311      	orrs	r1, r2
    1ba4:	4319      	orrs	r1, r3
    1ba6:	7873      	ldrb	r3, [r6, #1]
    1ba8:	2b00      	cmp	r3, #0
    1baa:	d002      	beq.n	1bb2 <tc_init+0xc6>
    1bac:	2380      	movs	r3, #128	; 0x80
    1bae:	011b      	lsls	r3, r3, #4
    1bb0:	4319      	orrs	r1, r3
    1bb2:	6822      	ldr	r2, [r4, #0]
    1bb4:	7bd3      	ldrb	r3, [r2, #15]
    1bb6:	b25b      	sxtb	r3, r3
    1bb8:	2b00      	cmp	r3, #0
    1bba:	dbfb      	blt.n	1bb4 <tc_init+0xc8>
    1bbc:	8029      	strh	r1, [r5, #0]
    1bbe:	7b71      	ldrb	r1, [r6, #13]
    1bc0:	1e4b      	subs	r3, r1, #1
    1bc2:	4199      	sbcs	r1, r3
    1bc4:	0089      	lsls	r1, r1, #2
    1bc6:	7bb3      	ldrb	r3, [r6, #14]
    1bc8:	2b00      	cmp	r3, #0
    1bca:	d001      	beq.n	1bd0 <tc_init+0xe4>
    1bcc:	2301      	movs	r3, #1
    1bce:	4319      	orrs	r1, r3
    1bd0:	6822      	ldr	r2, [r4, #0]
    1bd2:	7bd3      	ldrb	r3, [r2, #15]
    1bd4:	b25b      	sxtb	r3, r3
    1bd6:	2b00      	cmp	r3, #0
    1bd8:	dbfb      	blt.n	1bd2 <tc_init+0xe6>
    1bda:	23ff      	movs	r3, #255	; 0xff
    1bdc:	712b      	strb	r3, [r5, #4]
    1bde:	2900      	cmp	r1, #0
    1be0:	d005      	beq.n	1bee <tc_init+0x102>
    1be2:	6822      	ldr	r2, [r4, #0]
    1be4:	7bd3      	ldrb	r3, [r2, #15]
    1be6:	b25b      	sxtb	r3, r3
    1be8:	2b00      	cmp	r3, #0
    1bea:	dbfb      	blt.n	1be4 <tc_init+0xf8>
    1bec:	7169      	strb	r1, [r5, #5]
    1bee:	7ab1      	ldrb	r1, [r6, #10]
    1bf0:	7af3      	ldrb	r3, [r6, #11]
    1bf2:	2b00      	cmp	r3, #0
    1bf4:	d001      	beq.n	1bfa <tc_init+0x10e>
    1bf6:	2310      	movs	r3, #16
    1bf8:	4319      	orrs	r1, r3
    1bfa:	7b33      	ldrb	r3, [r6, #12]
    1bfc:	2b00      	cmp	r3, #0
    1bfe:	d001      	beq.n	1c04 <tc_init+0x118>
    1c00:	2320      	movs	r3, #32
    1c02:	4319      	orrs	r1, r3
    1c04:	6822      	ldr	r2, [r4, #0]
    1c06:	7bd3      	ldrb	r3, [r2, #15]
    1c08:	b25b      	sxtb	r3, r3
    1c0a:	2b00      	cmp	r3, #0
    1c0c:	dbfb      	blt.n	1c06 <tc_init+0x11a>
    1c0e:	71a9      	strb	r1, [r5, #6]
    1c10:	6822      	ldr	r2, [r4, #0]
    1c12:	7bd3      	ldrb	r3, [r2, #15]
    1c14:	b25b      	sxtb	r3, r3
    1c16:	2b00      	cmp	r3, #0
    1c18:	dbfb      	blt.n	1c12 <tc_init+0x126>
    1c1a:	7923      	ldrb	r3, [r4, #4]
    1c1c:	2b04      	cmp	r3, #4
    1c1e:	d03f      	beq.n	1ca0 <tc_init+0x1b4>
    1c20:	2b08      	cmp	r3, #8
    1c22:	d05e      	beq.n	1ce2 <tc_init+0x1f6>
    1c24:	2017      	movs	r0, #23
    1c26:	2b00      	cmp	r3, #0
    1c28:	d000      	beq.n	1c2c <tc_init+0x140>
    1c2a:	e78b      	b.n	1b44 <tc_init+0x58>
    1c2c:	7bd3      	ldrb	r3, [r2, #15]
    1c2e:	b25b      	sxtb	r3, r3
    1c30:	2b00      	cmp	r3, #0
    1c32:	dbfb      	blt.n	1c2c <tc_init+0x140>
    1c34:	8d33      	ldrh	r3, [r6, #40]	; 0x28
    1c36:	822b      	strh	r3, [r5, #16]
    1c38:	6822      	ldr	r2, [r4, #0]
    1c3a:	7bd3      	ldrb	r3, [r2, #15]
    1c3c:	b25b      	sxtb	r3, r3
    1c3e:	2b00      	cmp	r3, #0
    1c40:	dbfb      	blt.n	1c3a <tc_init+0x14e>
    1c42:	8d73      	ldrh	r3, [r6, #42]	; 0x2a
    1c44:	832b      	strh	r3, [r5, #24]
    1c46:	6822      	ldr	r2, [r4, #0]
    1c48:	7bd3      	ldrb	r3, [r2, #15]
    1c4a:	b25b      	sxtb	r3, r3
    1c4c:	2b00      	cmp	r3, #0
    1c4e:	dbfb      	blt.n	1c48 <tc_init+0x15c>
    1c50:	8db3      	ldrh	r3, [r6, #44]	; 0x2c
    1c52:	836b      	strh	r3, [r5, #26]
    1c54:	2000      	movs	r0, #0
    1c56:	e775      	b.n	1b44 <tc_init+0x58>
    1c58:	a902      	add	r1, sp, #8
    1c5a:	2301      	movs	r3, #1
    1c5c:	708b      	strb	r3, [r1, #2]
    1c5e:	2200      	movs	r2, #0
    1c60:	70ca      	strb	r2, [r1, #3]
    1c62:	7e32      	ldrb	r2, [r6, #24]
    1c64:	700a      	strb	r2, [r1, #0]
    1c66:	704b      	strb	r3, [r1, #1]
    1c68:	7d30      	ldrb	r0, [r6, #20]
    1c6a:	4b2e      	ldr	r3, [pc, #184]	; (1d24 <tc_init+0x238>)
    1c6c:	4798      	blx	r3
    1c6e:	e779      	b.n	1b64 <tc_init+0x78>
    1c70:	a902      	add	r1, sp, #8
    1c72:	2301      	movs	r3, #1
    1c74:	708b      	strb	r3, [r1, #2]
    1c76:	2200      	movs	r2, #0
    1c78:	70ca      	strb	r2, [r1, #3]
    1c7a:	3224      	adds	r2, #36	; 0x24
    1c7c:	18b2      	adds	r2, r6, r2
    1c7e:	7812      	ldrb	r2, [r2, #0]
    1c80:	700a      	strb	r2, [r1, #0]
    1c82:	704b      	strb	r3, [r1, #1]
    1c84:	331f      	adds	r3, #31
    1c86:	18f3      	adds	r3, r6, r3
    1c88:	7818      	ldrb	r0, [r3, #0]
    1c8a:	4b26      	ldr	r3, [pc, #152]	; (1d24 <tc_init+0x238>)
    1c8c:	4798      	blx	r3
    1c8e:	e76d      	b.n	1b6c <tc_init+0x80>
    1c90:	6a08      	ldr	r0, [r1, #32]
    1c92:	1c7a      	adds	r2, r7, #1
    1c94:	0052      	lsls	r2, r2, #1
    1c96:	ab03      	add	r3, sp, #12
    1c98:	5ad3      	ldrh	r3, [r2, r3]
    1c9a:	4303      	orrs	r3, r0
    1c9c:	620b      	str	r3, [r1, #32]
    1c9e:	e770      	b.n	1b82 <tc_init+0x96>
    1ca0:	7bd3      	ldrb	r3, [r2, #15]
    1ca2:	b25b      	sxtb	r3, r3
    1ca4:	2b00      	cmp	r3, #0
    1ca6:	dbfb      	blt.n	1ca0 <tc_init+0x1b4>
    1ca8:	2328      	movs	r3, #40	; 0x28
    1caa:	5cf3      	ldrb	r3, [r6, r3]
    1cac:	742b      	strb	r3, [r5, #16]
    1cae:	6822      	ldr	r2, [r4, #0]
    1cb0:	7bd3      	ldrb	r3, [r2, #15]
    1cb2:	b25b      	sxtb	r3, r3
    1cb4:	2b00      	cmp	r3, #0
    1cb6:	dbfb      	blt.n	1cb0 <tc_init+0x1c4>
    1cb8:	2329      	movs	r3, #41	; 0x29
    1cba:	5cf3      	ldrb	r3, [r6, r3]
    1cbc:	752b      	strb	r3, [r5, #20]
    1cbe:	6822      	ldr	r2, [r4, #0]
    1cc0:	7bd3      	ldrb	r3, [r2, #15]
    1cc2:	b25b      	sxtb	r3, r3
    1cc4:	2b00      	cmp	r3, #0
    1cc6:	dbfb      	blt.n	1cc0 <tc_init+0x1d4>
    1cc8:	232a      	movs	r3, #42	; 0x2a
    1cca:	5cf3      	ldrb	r3, [r6, r3]
    1ccc:	762b      	strb	r3, [r5, #24]
    1cce:	6822      	ldr	r2, [r4, #0]
    1cd0:	7bd3      	ldrb	r3, [r2, #15]
    1cd2:	b25b      	sxtb	r3, r3
    1cd4:	2b00      	cmp	r3, #0
    1cd6:	dbfb      	blt.n	1cd0 <tc_init+0x1e4>
    1cd8:	232b      	movs	r3, #43	; 0x2b
    1cda:	5cf3      	ldrb	r3, [r6, r3]
    1cdc:	766b      	strb	r3, [r5, #25]
    1cde:	2000      	movs	r0, #0
    1ce0:	e730      	b.n	1b44 <tc_init+0x58>
    1ce2:	7bd3      	ldrb	r3, [r2, #15]
    1ce4:	b25b      	sxtb	r3, r3
    1ce6:	2b00      	cmp	r3, #0
    1ce8:	dbfb      	blt.n	1ce2 <tc_init+0x1f6>
    1cea:	6ab3      	ldr	r3, [r6, #40]	; 0x28
    1cec:	612b      	str	r3, [r5, #16]
    1cee:	6822      	ldr	r2, [r4, #0]
    1cf0:	7bd3      	ldrb	r3, [r2, #15]
    1cf2:	b25b      	sxtb	r3, r3
    1cf4:	2b00      	cmp	r3, #0
    1cf6:	dbfb      	blt.n	1cf0 <tc_init+0x204>
    1cf8:	6af3      	ldr	r3, [r6, #44]	; 0x2c
    1cfa:	61ab      	str	r3, [r5, #24]
    1cfc:	6822      	ldr	r2, [r4, #0]
    1cfe:	7bd3      	ldrb	r3, [r2, #15]
    1d00:	b25b      	sxtb	r3, r3
    1d02:	2b00      	cmp	r3, #0
    1d04:	dbfb      	blt.n	1cfe <tc_init+0x212>
    1d06:	6b33      	ldr	r3, [r6, #48]	; 0x30
    1d08:	61eb      	str	r3, [r5, #28]
    1d0a:	2000      	movs	r0, #0
    1d0c:	e71a      	b.n	1b44 <tc_init+0x58>
    1d0e:	46c0      	nop			; (mov r8, r8)
    1d10:	00001ab5 	.word	0x00001ab5
    1d14:	2000041c 	.word	0x2000041c
    1d18:	40000400 	.word	0x40000400
    1d1c:	00001895 	.word	0x00001895
    1d20:	00001809 	.word	0x00001809
    1d24:	0000198d 	.word	0x0000198d

00001d28 <tc_get_count_value>:
    1d28:	6802      	ldr	r2, [r0, #0]
    1d2a:	7bd3      	ldrb	r3, [r2, #15]
    1d2c:	b25b      	sxtb	r3, r3
    1d2e:	2b00      	cmp	r3, #0
    1d30:	dbfb      	blt.n	1d2a <tc_get_count_value+0x2>
    1d32:	7903      	ldrb	r3, [r0, #4]
    1d34:	2b04      	cmp	r3, #4
    1d36:	d005      	beq.n	1d44 <tc_get_count_value+0x1c>
    1d38:	2b08      	cmp	r3, #8
    1d3a:	d009      	beq.n	1d50 <tc_get_count_value+0x28>
    1d3c:	2000      	movs	r0, #0
    1d3e:	2b00      	cmp	r3, #0
    1d40:	d003      	beq.n	1d4a <tc_get_count_value+0x22>
    1d42:	4770      	bx	lr
    1d44:	7c10      	ldrb	r0, [r2, #16]
    1d46:	b2c0      	uxtb	r0, r0
    1d48:	e7fb      	b.n	1d42 <tc_get_count_value+0x1a>
    1d4a:	8a10      	ldrh	r0, [r2, #16]
    1d4c:	b280      	uxth	r0, r0
    1d4e:	e7f8      	b.n	1d42 <tc_get_count_value+0x1a>
    1d50:	6910      	ldr	r0, [r2, #16]
    1d52:	e7f6      	b.n	1d42 <tc_get_count_value+0x1a>

00001d54 <tc_set_compare_value>:
    1d54:	b510      	push	{r4, lr}
    1d56:	6804      	ldr	r4, [r0, #0]
    1d58:	7be3      	ldrb	r3, [r4, #15]
    1d5a:	b25b      	sxtb	r3, r3
    1d5c:	2b00      	cmp	r3, #0
    1d5e:	dbfb      	blt.n	1d58 <tc_set_compare_value+0x4>
    1d60:	7903      	ldrb	r3, [r0, #4]
    1d62:	2b04      	cmp	r3, #4
    1d64:	d005      	beq.n	1d72 <tc_set_compare_value+0x1e>
    1d66:	2b08      	cmp	r3, #8
    1d68:	d014      	beq.n	1d94 <tc_set_compare_value+0x40>
    1d6a:	2017      	movs	r0, #23
    1d6c:	2b00      	cmp	r3, #0
    1d6e:	d008      	beq.n	1d82 <tc_set_compare_value+0x2e>
    1d70:	bd10      	pop	{r4, pc}
    1d72:	2017      	movs	r0, #23
    1d74:	2901      	cmp	r1, #1
    1d76:	d8fb      	bhi.n	1d70 <tc_set_compare_value+0x1c>
    1d78:	b2d2      	uxtb	r2, r2
    1d7a:	1861      	adds	r1, r4, r1
    1d7c:	760a      	strb	r2, [r1, #24]
    1d7e:	2000      	movs	r0, #0
    1d80:	e7f6      	b.n	1d70 <tc_set_compare_value+0x1c>
    1d82:	2017      	movs	r0, #23
    1d84:	2901      	cmp	r1, #1
    1d86:	d8f3      	bhi.n	1d70 <tc_set_compare_value+0x1c>
    1d88:	b292      	uxth	r2, r2
    1d8a:	310c      	adds	r1, #12
    1d8c:	0049      	lsls	r1, r1, #1
    1d8e:	530a      	strh	r2, [r1, r4]
    1d90:	2000      	movs	r0, #0
    1d92:	e7ed      	b.n	1d70 <tc_set_compare_value+0x1c>
    1d94:	2017      	movs	r0, #23
    1d96:	2901      	cmp	r1, #1
    1d98:	d8ea      	bhi.n	1d70 <tc_set_compare_value+0x1c>
    1d9a:	3106      	adds	r1, #6
    1d9c:	0089      	lsls	r1, r1, #2
    1d9e:	510a      	str	r2, [r1, r4]
    1da0:	2000      	movs	r0, #0
    1da2:	e7e5      	b.n	1d70 <tc_set_compare_value+0x1c>

00001da4 <Dummy_Handler>:
    1da4:	e7fe      	b.n	1da4 <Dummy_Handler>
	...

00001da8 <Reset_Handler>:
    1da8:	b5f8      	push	{r3, r4, r5, r6, r7, lr}
    1daa:	4a2a      	ldr	r2, [pc, #168]	; (1e54 <Reset_Handler+0xac>)
    1dac:	4b2a      	ldr	r3, [pc, #168]	; (1e58 <Reset_Handler+0xb0>)
    1dae:	429a      	cmp	r2, r3
    1db0:	d011      	beq.n	1dd6 <Reset_Handler+0x2e>
    1db2:	001a      	movs	r2, r3
    1db4:	4b29      	ldr	r3, [pc, #164]	; (1e5c <Reset_Handler+0xb4>)
    1db6:	429a      	cmp	r2, r3
    1db8:	d20d      	bcs.n	1dd6 <Reset_Handler+0x2e>
    1dba:	4a29      	ldr	r2, [pc, #164]	; (1e60 <Reset_Handler+0xb8>)
    1dbc:	3303      	adds	r3, #3
    1dbe:	1a9b      	subs	r3, r3, r2
    1dc0:	089b      	lsrs	r3, r3, #2
    1dc2:	3301      	adds	r3, #1
    1dc4:	009b      	lsls	r3, r3, #2
    1dc6:	2200      	movs	r2, #0
    1dc8:	4823      	ldr	r0, [pc, #140]	; (1e58 <Reset_Handler+0xb0>)
    1dca:	4922      	ldr	r1, [pc, #136]	; (1e54 <Reset_Handler+0xac>)
    1dcc:	588c      	ldr	r4, [r1, r2]
    1dce:	5084      	str	r4, [r0, r2]
    1dd0:	3204      	adds	r2, #4
    1dd2:	429a      	cmp	r2, r3
    1dd4:	d1fa      	bne.n	1dcc <Reset_Handler+0x24>
    1dd6:	4a23      	ldr	r2, [pc, #140]	; (1e64 <Reset_Handler+0xbc>)
    1dd8:	4b23      	ldr	r3, [pc, #140]	; (1e68 <Reset_Handler+0xc0>)
    1dda:	429a      	cmp	r2, r3
    1ddc:	d20a      	bcs.n	1df4 <Reset_Handler+0x4c>
    1dde:	43d3      	mvns	r3, r2
    1de0:	4921      	ldr	r1, [pc, #132]	; (1e68 <Reset_Handler+0xc0>)
    1de2:	185b      	adds	r3, r3, r1
    1de4:	2103      	movs	r1, #3
    1de6:	438b      	bics	r3, r1
    1de8:	3304      	adds	r3, #4
    1dea:	189b      	adds	r3, r3, r2
    1dec:	2100      	movs	r1, #0
    1dee:	c202      	stmia	r2!, {r1}
    1df0:	4293      	cmp	r3, r2
    1df2:	d1fc      	bne.n	1dee <Reset_Handler+0x46>
    1df4:	4a1d      	ldr	r2, [pc, #116]	; (1e6c <Reset_Handler+0xc4>)
    1df6:	21ff      	movs	r1, #255	; 0xff
    1df8:	4b1d      	ldr	r3, [pc, #116]	; (1e70 <Reset_Handler+0xc8>)
    1dfa:	438b      	bics	r3, r1
    1dfc:	6093      	str	r3, [r2, #8]
    1dfe:	39fd      	subs	r1, #253	; 0xfd
    1e00:	2390      	movs	r3, #144	; 0x90
    1e02:	005b      	lsls	r3, r3, #1
    1e04:	4a1b      	ldr	r2, [pc, #108]	; (1e74 <Reset_Handler+0xcc>)
    1e06:	50d1      	str	r1, [r2, r3]
    1e08:	4a1b      	ldr	r2, [pc, #108]	; (1e78 <Reset_Handler+0xd0>)
    1e0a:	78d3      	ldrb	r3, [r2, #3]
    1e0c:	2503      	movs	r5, #3
    1e0e:	43ab      	bics	r3, r5
    1e10:	2402      	movs	r4, #2
    1e12:	4323      	orrs	r3, r4
    1e14:	70d3      	strb	r3, [r2, #3]
    1e16:	78d3      	ldrb	r3, [r2, #3]
    1e18:	270c      	movs	r7, #12
    1e1a:	43bb      	bics	r3, r7
    1e1c:	2608      	movs	r6, #8
    1e1e:	4333      	orrs	r3, r6
    1e20:	70d3      	strb	r3, [r2, #3]
    1e22:	4b16      	ldr	r3, [pc, #88]	; (1e7c <Reset_Handler+0xd4>)
    1e24:	7b98      	ldrb	r0, [r3, #14]
    1e26:	2230      	movs	r2, #48	; 0x30
    1e28:	4390      	bics	r0, r2
    1e2a:	2220      	movs	r2, #32
    1e2c:	4310      	orrs	r0, r2
    1e2e:	7398      	strb	r0, [r3, #14]
    1e30:	7b99      	ldrb	r1, [r3, #14]
    1e32:	43b9      	bics	r1, r7
    1e34:	4331      	orrs	r1, r6
    1e36:	7399      	strb	r1, [r3, #14]
    1e38:	7b9a      	ldrb	r2, [r3, #14]
    1e3a:	43aa      	bics	r2, r5
    1e3c:	4322      	orrs	r2, r4
    1e3e:	739a      	strb	r2, [r3, #14]
    1e40:	4a0f      	ldr	r2, [pc, #60]	; (1e80 <Reset_Handler+0xd8>)
    1e42:	6853      	ldr	r3, [r2, #4]
    1e44:	2180      	movs	r1, #128	; 0x80
    1e46:	430b      	orrs	r3, r1
    1e48:	6053      	str	r3, [r2, #4]
    1e4a:	4b0e      	ldr	r3, [pc, #56]	; (1e84 <Reset_Handler+0xdc>)
    1e4c:	4798      	blx	r3
    1e4e:	4b0e      	ldr	r3, [pc, #56]	; (1e88 <Reset_Handler+0xe0>)
    1e50:	4798      	blx	r3
    1e52:	e7fe      	b.n	1e52 <Reset_Handler+0xaa>
    1e54:	0000a438 	.word	0x0000a438
    1e58:	20000000 	.word	0x20000000
    1e5c:	200000e0 	.word	0x200000e0
    1e60:	20000004 	.word	0x20000004
    1e64:	200000e0 	.word	0x200000e0
    1e68:	20001ac4 	.word	0x20001ac4
    1e6c:	e000ed00 	.word	0xe000ed00
    1e70:	00000000 	.word	0x00000000
    1e74:	41007000 	.word	0x41007000
    1e78:	41005000 	.word	0x41005000
    1e7c:	41004800 	.word	0x41004800
    1e80:	41004000 	.word	0x41004000
    1e84:	00009345 	.word	0x00009345
    1e88:	00004389 	.word	0x00004389

00001e8c <_read>:
    1e8c:	b5f0      	push	{r4, r5, r6, r7, lr}
    1e8e:	46c6      	mov	lr, r8
    1e90:	b500      	push	{lr}
    1e92:	000c      	movs	r4, r1
    1e94:	4690      	mov	r8, r2
    1e96:	2800      	cmp	r0, #0
    1e98:	d10f      	bne.n	1eba <_read+0x2e>
    1e9a:	2a00      	cmp	r2, #0
    1e9c:	dd11      	ble.n	1ec2 <_read+0x36>
    1e9e:	188f      	adds	r7, r1, r2
    1ea0:	4e09      	ldr	r6, [pc, #36]	; (1ec8 <_read+0x3c>)
    1ea2:	4d0a      	ldr	r5, [pc, #40]	; (1ecc <_read+0x40>)
    1ea4:	6830      	ldr	r0, [r6, #0]
    1ea6:	0021      	movs	r1, r4
    1ea8:	682b      	ldr	r3, [r5, #0]
    1eaa:	4798      	blx	r3
    1eac:	3401      	adds	r4, #1
    1eae:	42bc      	cmp	r4, r7
    1eb0:	d1f8      	bne.n	1ea4 <_read+0x18>
    1eb2:	4640      	mov	r0, r8
    1eb4:	bc04      	pop	{r2}
    1eb6:	4690      	mov	r8, r2
    1eb8:	bdf0      	pop	{r4, r5, r6, r7, pc}
    1eba:	2301      	movs	r3, #1
    1ebc:	425b      	negs	r3, r3
    1ebe:	4698      	mov	r8, r3
    1ec0:	e7f7      	b.n	1eb2 <_read+0x26>
    1ec2:	4680      	mov	r8, r0
    1ec4:	e7f5      	b.n	1eb2 <_read+0x26>
    1ec6:	46c0      	nop			; (mov r8, r8)
    1ec8:	20000430 	.word	0x20000430
    1ecc:	20000428 	.word	0x20000428

00001ed0 <_write>:
    1ed0:	b5f0      	push	{r4, r5, r6, r7, lr}
    1ed2:	46c6      	mov	lr, r8
    1ed4:	b500      	push	{lr}
    1ed6:	000e      	movs	r6, r1
    1ed8:	0015      	movs	r5, r2
    1eda:	3801      	subs	r0, #1
    1edc:	2802      	cmp	r0, #2
    1ede:	d810      	bhi.n	1f02 <_write+0x32>
    1ee0:	2a00      	cmp	r2, #0
    1ee2:	d011      	beq.n	1f08 <_write+0x38>
    1ee4:	2400      	movs	r4, #0
    1ee6:	4b0c      	ldr	r3, [pc, #48]	; (1f18 <_write+0x48>)
    1ee8:	4698      	mov	r8, r3
    1eea:	4f0c      	ldr	r7, [pc, #48]	; (1f1c <_write+0x4c>)
    1eec:	4643      	mov	r3, r8
    1eee:	6818      	ldr	r0, [r3, #0]
    1ef0:	5d31      	ldrb	r1, [r6, r4]
    1ef2:	683b      	ldr	r3, [r7, #0]
    1ef4:	4798      	blx	r3
    1ef6:	2800      	cmp	r0, #0
    1ef8:	db08      	blt.n	1f0c <_write+0x3c>
    1efa:	3401      	adds	r4, #1
    1efc:	42a5      	cmp	r5, r4
    1efe:	d1f5      	bne.n	1eec <_write+0x1c>
    1f00:	e006      	b.n	1f10 <_write+0x40>
    1f02:	2401      	movs	r4, #1
    1f04:	4264      	negs	r4, r4
    1f06:	e003      	b.n	1f10 <_write+0x40>
    1f08:	0014      	movs	r4, r2
    1f0a:	e001      	b.n	1f10 <_write+0x40>
    1f0c:	2401      	movs	r4, #1
    1f0e:	4264      	negs	r4, r4
    1f10:	0020      	movs	r0, r4
    1f12:	bc04      	pop	{r2}
    1f14:	4690      	mov	r8, r2
    1f16:	bdf0      	pop	{r4, r5, r6, r7, pc}
    1f18:	20000430 	.word	0x20000430
    1f1c:	2000042c 	.word	0x2000042c

00001f20 <_sbrk>:
    1f20:	0003      	movs	r3, r0
    1f22:	4a06      	ldr	r2, [pc, #24]	; (1f3c <_sbrk+0x1c>)
    1f24:	6812      	ldr	r2, [r2, #0]
    1f26:	2a00      	cmp	r2, #0
    1f28:	d004      	beq.n	1f34 <_sbrk+0x14>
    1f2a:	4a04      	ldr	r2, [pc, #16]	; (1f3c <_sbrk+0x1c>)
    1f2c:	6810      	ldr	r0, [r2, #0]
    1f2e:	18c3      	adds	r3, r0, r3
    1f30:	6013      	str	r3, [r2, #0]
    1f32:	4770      	bx	lr
    1f34:	4902      	ldr	r1, [pc, #8]	; (1f40 <_sbrk+0x20>)
    1f36:	4a01      	ldr	r2, [pc, #4]	; (1f3c <_sbrk+0x1c>)
    1f38:	6011      	str	r1, [r2, #0]
    1f3a:	e7f6      	b.n	1f2a <_sbrk+0xa>
    1f3c:	20000138 	.word	0x20000138
    1f40:	20003ac8 	.word	0x20003ac8

00001f44 <_close>:
    1f44:	2001      	movs	r0, #1
    1f46:	4240      	negs	r0, r0
    1f48:	4770      	bx	lr

00001f4a <_fstat>:
    1f4a:	2380      	movs	r3, #128	; 0x80
    1f4c:	019b      	lsls	r3, r3, #6
    1f4e:	604b      	str	r3, [r1, #4]
    1f50:	2000      	movs	r0, #0
    1f52:	4770      	bx	lr

00001f54 <_lseek>:
    1f54:	2000      	movs	r0, #0
    1f56:	4770      	bx	lr

00001f58 <usart_serial_getchar>:
    1f58:	b570      	push	{r4, r5, r6, lr}
    1f5a:	b082      	sub	sp, #8
    1f5c:	0005      	movs	r5, r0
    1f5e:	000e      	movs	r6, r1
    1f60:	2200      	movs	r2, #0
    1f62:	466b      	mov	r3, sp
    1f64:	80da      	strh	r2, [r3, #6]
    1f66:	4c06      	ldr	r4, [pc, #24]	; (1f80 <usart_serial_getchar+0x28>)
    1f68:	466b      	mov	r3, sp
    1f6a:	1d99      	adds	r1, r3, #6
    1f6c:	0028      	movs	r0, r5
    1f6e:	47a0      	blx	r4
    1f70:	2800      	cmp	r0, #0
    1f72:	d1f9      	bne.n	1f68 <usart_serial_getchar+0x10>
    1f74:	466b      	mov	r3, sp
    1f76:	3306      	adds	r3, #6
    1f78:	881b      	ldrh	r3, [r3, #0]
    1f7a:	7033      	strb	r3, [r6, #0]
    1f7c:	b002      	add	sp, #8
    1f7e:	bd70      	pop	{r4, r5, r6, pc}
    1f80:	00000fc5 	.word	0x00000fc5

00001f84 <usart_serial_putchar>:
    1f84:	b570      	push	{r4, r5, r6, lr}
    1f86:	0005      	movs	r5, r0
    1f88:	b28c      	uxth	r4, r1
    1f8a:	4e03      	ldr	r6, [pc, #12]	; (1f98 <usart_serial_putchar+0x14>)
    1f8c:	0021      	movs	r1, r4
    1f8e:	0028      	movs	r0, r5
    1f90:	47b0      	blx	r6
    1f92:	2800      	cmp	r0, #0
    1f94:	d1fa      	bne.n	1f8c <usart_serial_putchar+0x8>
    1f96:	bd70      	pop	{r4, r5, r6, pc}
    1f98:	00000f99 	.word	0x00000f99

00001f9c <USART_HOST_ISR_VECT>:
    1f9c:	b510      	push	{r4, lr}
    1f9e:	b082      	sub	sp, #8
    1fa0:	466b      	mov	r3, sp
    1fa2:	1ddc      	adds	r4, r3, #7
    1fa4:	2201      	movs	r2, #1
    1fa6:	0021      	movs	r1, r4
    1fa8:	480f      	ldr	r0, [pc, #60]	; (1fe8 <USART_HOST_ISR_VECT+0x4c>)
    1faa:	4b10      	ldr	r3, [pc, #64]	; (1fec <USART_HOST_ISR_VECT+0x50>)
    1fac:	4798      	blx	r3
    1fae:	b672      	cpsid	i
    1fb0:	f3bf 8f5f 	dmb	sy
    1fb4:	2200      	movs	r2, #0
    1fb6:	4b0e      	ldr	r3, [pc, #56]	; (1ff0 <USART_HOST_ISR_VECT+0x54>)
    1fb8:	701a      	strb	r2, [r3, #0]
    1fba:	4b0e      	ldr	r3, [pc, #56]	; (1ff4 <USART_HOST_ISR_VECT+0x58>)
    1fbc:	781b      	ldrb	r3, [r3, #0]
    1fbe:	7821      	ldrb	r1, [r4, #0]
    1fc0:	4a0d      	ldr	r2, [pc, #52]	; (1ff8 <USART_HOST_ISR_VECT+0x5c>)
    1fc2:	54d1      	strb	r1, [r2, r3]
    1fc4:	2b9b      	cmp	r3, #155	; 0x9b
    1fc6:	d00a      	beq.n	1fde <USART_HOST_ISR_VECT+0x42>
    1fc8:	3301      	adds	r3, #1
    1fca:	4a0a      	ldr	r2, [pc, #40]	; (1ff4 <USART_HOST_ISR_VECT+0x58>)
    1fcc:	7013      	strb	r3, [r2, #0]
    1fce:	2201      	movs	r2, #1
    1fd0:	4b07      	ldr	r3, [pc, #28]	; (1ff0 <USART_HOST_ISR_VECT+0x54>)
    1fd2:	701a      	strb	r2, [r3, #0]
    1fd4:	f3bf 8f5f 	dmb	sy
    1fd8:	b662      	cpsie	i
    1fda:	b002      	add	sp, #8
    1fdc:	bd10      	pop	{r4, pc}
    1fde:	2200      	movs	r2, #0
    1fe0:	4b04      	ldr	r3, [pc, #16]	; (1ff4 <USART_HOST_ISR_VECT+0x58>)
    1fe2:	701a      	strb	r2, [r3, #0]
    1fe4:	e7f3      	b.n	1fce <USART_HOST_ISR_VECT+0x32>
    1fe6:	46c0      	nop			; (mov r8, r8)
    1fe8:	2000013c 	.word	0x2000013c
    1fec:	00001035 	.word	0x00001035
    1ff0:	20000008 	.word	0x20000008
    1ff4:	2000020c 	.word	0x2000020c
    1ff8:	20000170 	.word	0x20000170

00001ffc <sio2host_init>:
    1ffc:	b5f0      	push	{r4, r5, r6, r7, lr}
    1ffe:	b091      	sub	sp, #68	; 0x44
    2000:	2380      	movs	r3, #128	; 0x80
    2002:	05db      	lsls	r3, r3, #23
    2004:	9300      	str	r3, [sp, #0]
    2006:	2300      	movs	r3, #0
    2008:	9301      	str	r3, [sp, #4]
    200a:	22ff      	movs	r2, #255	; 0xff
    200c:	4669      	mov	r1, sp
    200e:	810a      	strh	r2, [r1, #8]
    2010:	2200      	movs	r2, #0
    2012:	728b      	strb	r3, [r1, #10]
    2014:	72cb      	strb	r3, [r1, #11]
    2016:	2401      	movs	r4, #1
    2018:	2124      	movs	r1, #36	; 0x24
    201a:	4668      	mov	r0, sp
    201c:	5444      	strb	r4, [r0, r1]
    201e:	3101      	adds	r1, #1
    2020:	5444      	strb	r4, [r0, r1]
    2022:	3101      	adds	r1, #1
    2024:	5443      	strb	r3, [r0, r1]
    2026:	3101      	adds	r1, #1
    2028:	5443      	strb	r3, [r0, r1]
    202a:	930a      	str	r3, [sp, #40]	; 0x28
    202c:	3105      	adds	r1, #5
    202e:	5443      	strb	r3, [r0, r1]
    2030:	3101      	adds	r1, #1
    2032:	5443      	strb	r3, [r0, r1]
    2034:	9305      	str	r3, [sp, #20]
    2036:	8203      	strh	r3, [r0, #16]
    2038:	76c3      	strb	r3, [r0, #27]
    203a:	7602      	strb	r2, [r0, #24]
    203c:	7702      	strb	r2, [r0, #28]
    203e:	7642      	strb	r2, [r0, #25]
    2040:	2313      	movs	r3, #19
    2042:	7683      	strb	r3, [r0, #26]
    2044:	7742      	strb	r2, [r0, #29]
    2046:	23c4      	movs	r3, #196	; 0xc4
    2048:	039b      	lsls	r3, r3, #14
    204a:	9303      	str	r3, [sp, #12]
    204c:	2301      	movs	r3, #1
    204e:	425b      	negs	r3, r3
    2050:	930c      	str	r3, [sp, #48]	; 0x30
    2052:	930d      	str	r3, [sp, #52]	; 0x34
    2054:	4b2d      	ldr	r3, [pc, #180]	; (210c <STACK_SIZE+0x10c>)
    2056:	930e      	str	r3, [sp, #56]	; 0x38
    2058:	4b2d      	ldr	r3, [pc, #180]	; (2110 <STACK_SIZE+0x110>)
    205a:	930f      	str	r3, [sp, #60]	; 0x3c
    205c:	2396      	movs	r3, #150	; 0x96
    205e:	021b      	lsls	r3, r3, #8
    2060:	9308      	str	r3, [sp, #32]
    2062:	4d2c      	ldr	r5, [pc, #176]	; (2114 <STACK_SIZE+0x114>)
    2064:	4b2c      	ldr	r3, [pc, #176]	; (2118 <STACK_SIZE+0x118>)
    2066:	601d      	str	r5, [r3, #0]
    2068:	4a2c      	ldr	r2, [pc, #176]	; (211c <STACK_SIZE+0x11c>)
    206a:	4b2d      	ldr	r3, [pc, #180]	; (2120 <STACK_SIZE+0x120>)
    206c:	601a      	str	r2, [r3, #0]
    206e:	4a2d      	ldr	r2, [pc, #180]	; (2124 <STACK_SIZE+0x124>)
    2070:	4b2d      	ldr	r3, [pc, #180]	; (2128 <STACK_SIZE+0x128>)
    2072:	601a      	str	r2, [r3, #0]
    2074:	466a      	mov	r2, sp
    2076:	492d      	ldr	r1, [pc, #180]	; (212c <STACK_SIZE+0x12c>)
    2078:	0028      	movs	r0, r5
    207a:	4b2d      	ldr	r3, [pc, #180]	; (2130 <STACK_SIZE+0x130>)
    207c:	4798      	blx	r3
    207e:	4f2d      	ldr	r7, [pc, #180]	; (2134 <STACK_SIZE+0x134>)
    2080:	683b      	ldr	r3, [r7, #0]
    2082:	6898      	ldr	r0, [r3, #8]
    2084:	2100      	movs	r1, #0
    2086:	4e2c      	ldr	r6, [pc, #176]	; (2138 <STACK_SIZE+0x138>)
    2088:	47b0      	blx	r6
    208a:	683b      	ldr	r3, [r7, #0]
    208c:	6858      	ldr	r0, [r3, #4]
    208e:	2100      	movs	r1, #0
    2090:	47b0      	blx	r6
    2092:	682e      	ldr	r6, [r5, #0]
    2094:	0030      	movs	r0, r6
    2096:	4b29      	ldr	r3, [pc, #164]	; (213c <STACK_SIZE+0x13c>)
    2098:	4798      	blx	r3
    209a:	231f      	movs	r3, #31
    209c:	4018      	ands	r0, r3
    209e:	4084      	lsls	r4, r0
    20a0:	4b27      	ldr	r3, [pc, #156]	; (2140 <STACK_SIZE+0x140>)
    20a2:	601c      	str	r4, [r3, #0]
    20a4:	682a      	ldr	r2, [r5, #0]
    20a6:	69d3      	ldr	r3, [r2, #28]
    20a8:	2b00      	cmp	r3, #0
    20aa:	d1fc      	bne.n	20a6 <STACK_SIZE+0xa6>
    20ac:	6833      	ldr	r3, [r6, #0]
    20ae:	2202      	movs	r2, #2
    20b0:	4313      	orrs	r3, r2
    20b2:	6033      	str	r3, [r6, #0]
    20b4:	4b17      	ldr	r3, [pc, #92]	; (2114 <STACK_SIZE+0x114>)
    20b6:	681b      	ldr	r3, [r3, #0]
    20b8:	69da      	ldr	r2, [r3, #28]
    20ba:	2a00      	cmp	r2, #0
    20bc:	d1fc      	bne.n	20b8 <STACK_SIZE+0xb8>
    20be:	6859      	ldr	r1, [r3, #4]
    20c0:	2280      	movs	r2, #128	; 0x80
    20c2:	0252      	lsls	r2, r2, #9
    20c4:	430a      	orrs	r2, r1
    20c6:	605a      	str	r2, [r3, #4]
    20c8:	2101      	movs	r1, #1
    20ca:	4a12      	ldr	r2, [pc, #72]	; (2114 <STACK_SIZE+0x114>)
    20cc:	71d1      	strb	r1, [r2, #7]
    20ce:	69da      	ldr	r2, [r3, #28]
    20d0:	2a00      	cmp	r2, #0
    20d2:	d1fc      	bne.n	20ce <STACK_SIZE+0xce>
    20d4:	69da      	ldr	r2, [r3, #28]
    20d6:	2a00      	cmp	r2, #0
    20d8:	d1fc      	bne.n	20d4 <STACK_SIZE+0xd4>
    20da:	6859      	ldr	r1, [r3, #4]
    20dc:	2280      	movs	r2, #128	; 0x80
    20de:	0292      	lsls	r2, r2, #10
    20e0:	430a      	orrs	r2, r1
    20e2:	605a      	str	r2, [r3, #4]
    20e4:	2101      	movs	r1, #1
    20e6:	4a0b      	ldr	r2, [pc, #44]	; (2114 <STACK_SIZE+0x114>)
    20e8:	7191      	strb	r1, [r2, #6]
    20ea:	69da      	ldr	r2, [r3, #28]
    20ec:	2a00      	cmp	r2, #0
    20ee:	d1fc      	bne.n	20ea <STACK_SIZE+0xea>
    20f0:	4914      	ldr	r1, [pc, #80]	; (2144 <STACK_SIZE+0x144>)
    20f2:	2002      	movs	r0, #2
    20f4:	4b14      	ldr	r3, [pc, #80]	; (2148 <STACK_SIZE+0x148>)
    20f6:	4798      	blx	r3
    20f8:	2204      	movs	r2, #4
    20fa:	4b0c      	ldr	r3, [pc, #48]	; (212c <STACK_SIZE+0x12c>)
    20fc:	759a      	strb	r2, [r3, #22]
    20fe:	2280      	movs	r2, #128	; 0x80
    2100:	0112      	lsls	r2, r2, #4
    2102:	4b0f      	ldr	r3, [pc, #60]	; (2140 <STACK_SIZE+0x140>)
    2104:	601a      	str	r2, [r3, #0]
    2106:	b011      	add	sp, #68	; 0x44
    2108:	bdf0      	pop	{r4, r5, r6, r7, pc}
    210a:	46c0      	nop			; (mov r8, r8)
    210c:	000e0002 	.word	0x000e0002
    2110:	000f0002 	.word	0x000f0002
    2114:	2000013c 	.word	0x2000013c
    2118:	20000430 	.word	0x20000430
    211c:	00001f85 	.word	0x00001f85
    2120:	2000042c 	.word	0x2000042c
    2124:	00001f59 	.word	0x00001f59
    2128:	20000428 	.word	0x20000428
    212c:	42001000 	.word	0x42001000
    2130:	00000c55 	.word	0x00000c55
    2134:	2000007c 	.word	0x2000007c
    2138:	00009445 	.word	0x00009445
    213c:	0000080d 	.word	0x0000080d
    2140:	e000e100 	.word	0xe000e100
    2144:	00001f9d 	.word	0x00001f9d
    2148:	000007d1 	.word	0x000007d1

0000214c <MiMAC_SetAltAddress>:
    214c:	b510      	push	{r4, lr}
    214e:	7802      	ldrb	r2, [r0, #0]
    2150:	4b08      	ldr	r3, [pc, #32]	; (2174 <MiMAC_SetAltAddress+0x28>)
    2152:	701a      	strb	r2, [r3, #0]
    2154:	7842      	ldrb	r2, [r0, #1]
    2156:	705a      	strb	r2, [r3, #1]
    2158:	780a      	ldrb	r2, [r1, #0]
    215a:	4c07      	ldr	r4, [pc, #28]	; (2178 <MiMAC_SetAltAddress+0x2c>)
    215c:	7022      	strb	r2, [r4, #0]
    215e:	784a      	ldrb	r2, [r1, #1]
    2160:	7062      	strb	r2, [r4, #1]
    2162:	8818      	ldrh	r0, [r3, #0]
    2164:	4b05      	ldr	r3, [pc, #20]	; (217c <MiMAC_SetAltAddress+0x30>)
    2166:	4798      	blx	r3
    2168:	8820      	ldrh	r0, [r4, #0]
    216a:	4b05      	ldr	r3, [pc, #20]	; (2180 <MiMAC_SetAltAddress+0x34>)
    216c:	4798      	blx	r3
    216e:	2001      	movs	r0, #1
    2170:	bd10      	pop	{r4, pc}
    2172:	46c0      	nop			; (mov r8, r8)
    2174:	20000438 	.word	0x20000438
    2178:	20000450 	.word	0x20000450
    217c:	00002a55 	.word	0x00002a55
    2180:	00002a35 	.word	0x00002a35

00002184 <MiMAC_Set>:
    2184:	b510      	push	{r4, lr}
    2186:	2800      	cmp	r0, #0
    2188:	d109      	bne.n	219e <MiMAC_Set+0x1a>
    218a:	780b      	ldrb	r3, [r1, #0]
    218c:	2b1a      	cmp	r3, #26
    218e:	d807      	bhi.n	21a0 <MiMAC_Set+0x1c>
    2190:	4a04      	ldr	r2, [pc, #16]	; (21a4 <MiMAC_Set+0x20>)
    2192:	7013      	strb	r3, [r2, #0]
    2194:	0018      	movs	r0, r3
    2196:	4b04      	ldr	r3, [pc, #16]	; (21a8 <MiMAC_Set+0x24>)
    2198:	4798      	blx	r3
    219a:	2001      	movs	r0, #1
    219c:	e000      	b.n	21a0 <MiMAC_Set+0x1c>
    219e:	2000      	movs	r0, #0
    21a0:	bd10      	pop	{r4, pc}
    21a2:	46c0      	nop			; (mov r8, r8)
    21a4:	20000452 	.word	0x20000452
    21a8:	00002a11 	.word	0x00002a11

000021ac <MiMAC_Init>:
    21ac:	b530      	push	{r4, r5, lr}
    21ae:	b083      	sub	sp, #12
    21b0:	466c      	mov	r4, sp
    21b2:	9000      	str	r0, [sp, #0]
    21b4:	9101      	str	r1, [sp, #4]
    21b6:	4b10      	ldr	r3, [pc, #64]	; (21f8 <MiMAC_Init+0x4c>)
    21b8:	4798      	blx	r3
    21ba:	4d10      	ldr	r5, [pc, #64]	; (21fc <MiMAC_Init+0x50>)
    21bc:	002b      	movs	r3, r5
    21be:	cc06      	ldmia	r4!, {r1, r2}
    21c0:	c306      	stmia	r3!, {r1, r2}
    21c2:	4b0f      	ldr	r3, [pc, #60]	; (2200 <MiMAC_Init+0x54>)
    21c4:	4798      	blx	r3
    21c6:	0004      	movs	r4, r0
    21c8:	2001      	movs	r0, #1
    21ca:	4b0e      	ldr	r3, [pc, #56]	; (2204 <MiMAC_Init+0x58>)
    21cc:	4798      	blx	r3
    21ce:	4b0e      	ldr	r3, [pc, #56]	; (2208 <MiMAC_Init+0x5c>)
    21d0:	701c      	strb	r4, [r3, #0]
    21d2:	220b      	movs	r2, #11
    21d4:	4b0d      	ldr	r3, [pc, #52]	; (220c <MiMAC_Init+0x60>)
    21d6:	701a      	strb	r2, [r3, #0]
    21d8:	6868      	ldr	r0, [r5, #4]
    21da:	4b0d      	ldr	r3, [pc, #52]	; (2210 <MiMAC_Init+0x64>)
    21dc:	4798      	blx	r3
    21de:	4b0d      	ldr	r3, [pc, #52]	; (2214 <MiMAC_Init+0x68>)
    21e0:	2200      	movs	r2, #0
    21e2:	701a      	strb	r2, [r3, #0]
    21e4:	217f      	movs	r1, #127	; 0x7f
    21e6:	545a      	strb	r2, [r3, r1]
    21e8:	317f      	adds	r1, #127	; 0x7f
    21ea:	545a      	strb	r2, [r3, r1]
    21ec:	217e      	movs	r1, #126	; 0x7e
    21ee:	31ff      	adds	r1, #255	; 0xff
    21f0:	545a      	strb	r2, [r3, r1]
    21f2:	2001      	movs	r0, #1
    21f4:	b003      	add	sp, #12
    21f6:	bd30      	pop	{r4, r5, pc}
    21f8:	000029b1 	.word	0x000029b1
    21fc:	20000440 	.word	0x20000440
    2200:	00002961 	.word	0x00002961
    2204:	000029fd 	.word	0x000029fd
    2208:	20000434 	.word	0x20000434
    220c:	20000452 	.word	0x20000452
    2210:	00002aa5 	.word	0x00002aa5
    2214:	20000454 	.word	0x20000454

00002218 <MiMAC_SendPacket>:
    2218:	b5f0      	push	{r4, r5, r6, r7, lr}
    221a:	46de      	mov	lr, fp
    221c:	4657      	mov	r7, sl
    221e:	464e      	mov	r6, r9
    2220:	4645      	mov	r5, r8
    2222:	b5e0      	push	{r5, r6, r7, lr}
    2224:	b0a5      	sub	sp, #148	; 0x94
    2226:	9001      	str	r0, [sp, #4]
    2228:	000e      	movs	r6, r1
    222a:	9102      	str	r1, [sp, #8]
    222c:	1c11      	adds	r1, r2, #0
    222e:	0014      	movs	r4, r2
    2230:	0a24      	lsrs	r4, r4, #8
    2232:	9203      	str	r2, [sp, #12]
    2234:	9300      	str	r3, [sp, #0]
    2236:	aa2e      	add	r2, sp, #184	; 0xb8
    2238:	7815      	ldrb	r5, [r2, #0]
    223a:	aa2f      	add	r2, sp, #188	; 0xbc
    223c:	7813      	ldrb	r3, [r2, #0]
    223e:	469b      	mov	fp, r3
    2240:	b2c7      	uxtb	r7, r0
    2242:	06b8      	lsls	r0, r7, #26
    2244:	0fc3      	lsrs	r3, r0, #31
    2246:	4699      	mov	r9, r3
    2248:	b2c9      	uxtb	r1, r1
    224a:	b2e2      	uxtb	r2, r4
    224c:	077b      	lsls	r3, r7, #29
    224e:	d500      	bpl.n	2252 <MiMAC_SendPacket+0x3a>
    2250:	2101      	movs	r1, #1
    2252:	2303      	movs	r3, #3
    2254:	403b      	ands	r3, r7
    2256:	2b01      	cmp	r3, #1
    2258:	d03b      	beq.n	22d2 <MiMAC_SendPacket+0xba>
    225a:	425c      	negs	r4, r3
    225c:	415c      	adcs	r4, r3
    225e:	b2e0      	uxtb	r0, r4
    2260:	4682      	mov	sl, r0
    2262:	ac01      	add	r4, sp, #4
    2264:	8964      	ldrh	r4, [r4, #10]
    2266:	487b      	ldr	r0, [pc, #492]	; (2454 <MiMAC_SendPacket+0x23c>)
    2268:	8800      	ldrh	r0, [r0, #0]
    226a:	42a0      	cmp	r0, r4
    226c:	d034      	beq.n	22d8 <MiMAC_SendPacket+0xc0>
    226e:	2400      	movs	r4, #0
    2270:	2007      	movs	r0, #7
    2272:	4684      	mov	ip, r0
    2274:	4688      	mov	r8, r1
    2276:	4661      	mov	r1, ip
    2278:	3108      	adds	r1, #8
    227a:	4640      	mov	r0, r8
    227c:	2800      	cmp	r0, #0
    227e:	d000      	beq.n	2282 <MiMAC_SendPacket+0x6a>
    2280:	3906      	subs	r1, #6
    2282:	2a00      	cmp	r2, #0
    2284:	d037      	beq.n	22f6 <MiMAC_SendPacket+0xde>
    2286:	3102      	adds	r1, #2
    2288:	b2c9      	uxtb	r1, r1
    228a:	468c      	mov	ip, r1
    228c:	2124      	movs	r1, #36	; 0x24
    228e:	4039      	ands	r1, r7
    2290:	2920      	cmp	r1, #32
    2292:	d034      	beq.n	22fe <MiMAC_SendPacket+0xe6>
    2294:	2b03      	cmp	r3, #3
    2296:	d036      	beq.n	2306 <MiMAC_SendPacket+0xee>
    2298:	a904      	add	r1, sp, #16
    229a:	44ac      	add	ip, r5
    229c:	4663      	mov	r3, ip
    229e:	700b      	strb	r3, [r1, #0]
    22a0:	4653      	mov	r3, sl
    22a2:	704b      	strb	r3, [r1, #1]
    22a4:	a901      	add	r1, sp, #4
    22a6:	464b      	mov	r3, r9
    22a8:	015b      	lsls	r3, r3, #5
    22aa:	469c      	mov	ip, r3
    22ac:	7808      	ldrb	r0, [r1, #0]
    22ae:	2320      	movs	r3, #32
    22b0:	4398      	bics	r0, r3
    22b2:	4663      	mov	r3, ip
    22b4:	4318      	orrs	r0, r3
    22b6:	7008      	strb	r0, [r1, #0]
    22b8:	4684      	mov	ip, r0
    22ba:	43c1      	mvns	r1, r0
    22bc:	078b      	lsls	r3, r1, #30
    22be:	d02a      	beq.n	2316 <MiMAC_SendPacket+0xfe>
    22c0:	4643      	mov	r3, r8
    22c2:	2b00      	cmp	r3, #0
    22c4:	d049      	beq.n	235a <MiMAC_SendPacket+0x142>
    22c6:	2a00      	cmp	r2, #0
    22c8:	d02f      	beq.n	232a <MiMAC_SendPacket+0x112>
    22ca:	2088      	movs	r0, #136	; 0x88
    22cc:	a904      	add	r1, sp, #16
    22ce:	7088      	strb	r0, [r1, #2]
    22d0:	e02e      	b.n	2330 <MiMAC_SendPacket+0x118>
    22d2:	2003      	movs	r0, #3
    22d4:	4682      	mov	sl, r0
    22d6:	e7c4      	b.n	2262 <MiMAC_SendPacket+0x4a>
    22d8:	485f      	ldr	r0, [pc, #380]	; (2458 <MiMAC_SendPacket+0x240>)
    22da:	4284      	cmp	r4, r0
    22dc:	d007      	beq.n	22ee <MiMAC_SendPacket+0xd6>
    22de:	2440      	movs	r4, #64	; 0x40
    22e0:	4650      	mov	r0, sl
    22e2:	4320      	orrs	r0, r4
    22e4:	4682      	mov	sl, r0
    22e6:	3c3f      	subs	r4, #63	; 0x3f
    22e8:	2005      	movs	r0, #5
    22ea:	4684      	mov	ip, r0
    22ec:	e7c2      	b.n	2274 <MiMAC_SendPacket+0x5c>
    22ee:	2400      	movs	r4, #0
    22f0:	2007      	movs	r0, #7
    22f2:	4684      	mov	ip, r0
    22f4:	e7be      	b.n	2274 <MiMAC_SendPacket+0x5c>
    22f6:	3108      	adds	r1, #8
    22f8:	b2c9      	uxtb	r1, r1
    22fa:	468c      	mov	ip, r1
    22fc:	e7c6      	b.n	228c <MiMAC_SendPacket+0x74>
    22fe:	4650      	mov	r0, sl
    2300:	4308      	orrs	r0, r1
    2302:	4682      	mov	sl, r0
    2304:	e7c6      	b.n	2294 <MiMAC_SendPacket+0x7c>
    2306:	2201      	movs	r2, #1
    2308:	2300      	movs	r3, #0
    230a:	4699      	mov	r9, r3
    230c:	2400      	movs	r4, #0
    230e:	469a      	mov	sl, r3
    2310:	3307      	adds	r3, #7
    2312:	469c      	mov	ip, r3
    2314:	e7c0      	b.n	2298 <MiMAC_SendPacket+0x80>
    2316:	a904      	add	r1, sp, #16
    2318:	2080      	movs	r0, #128	; 0x80
    231a:	7088      	strb	r0, [r1, #2]
    231c:	4e4f      	ldr	r6, [pc, #316]	; (245c <MiMAC_SendPacket+0x244>)
    231e:	7830      	ldrb	r0, [r6, #0]
    2320:	1c43      	adds	r3, r0, #1
    2322:	7033      	strb	r3, [r6, #0]
    2324:	70c8      	strb	r0, [r1, #3]
    2326:	2104      	movs	r1, #4
    2328:	e02e      	b.n	2388 <MiMAC_SendPacket+0x170>
    232a:	20c8      	movs	r0, #200	; 0xc8
    232c:	a904      	add	r1, sp, #16
    232e:	7088      	strb	r0, [r1, #2]
    2330:	494a      	ldr	r1, [pc, #296]	; (245c <MiMAC_SendPacket+0x244>)
    2332:	7808      	ldrb	r0, [r1, #0]
    2334:	1c43      	adds	r3, r0, #1
    2336:	700b      	strb	r3, [r1, #0]
    2338:	a904      	add	r1, sp, #16
    233a:	70c8      	strb	r0, [r1, #3]
    233c:	a801      	add	r0, sp, #4
    233e:	7a83      	ldrb	r3, [r0, #10]
    2340:	710b      	strb	r3, [r1, #4]
    2342:	7ac0      	ldrb	r0, [r0, #11]
    2344:	7148      	strb	r0, [r1, #5]
    2346:	4663      	mov	r3, ip
    2348:	075b      	lsls	r3, r3, #29
    234a:	d418      	bmi.n	237e <MiMAC_SendPacket+0x166>
    234c:	a904      	add	r1, sp, #16
    234e:	7830      	ldrb	r0, [r6, #0]
    2350:	7188      	strb	r0, [r1, #6]
    2352:	7870      	ldrb	r0, [r6, #1]
    2354:	71c8      	strb	r0, [r1, #7]
    2356:	2108      	movs	r1, #8
    2358:	e016      	b.n	2388 <MiMAC_SendPacket+0x170>
    235a:	2a00      	cmp	r2, #0
    235c:	d05c      	beq.n	2418 <MiMAC_SendPacket+0x200>
    235e:	a904      	add	r1, sp, #16
    2360:	208c      	movs	r0, #140	; 0x8c
    2362:	7088      	strb	r0, [r1, #2]
    2364:	4b3d      	ldr	r3, [pc, #244]	; (245c <MiMAC_SendPacket+0x244>)
    2366:	7818      	ldrb	r0, [r3, #0]
    2368:	1c47      	adds	r7, r0, #1
    236a:	701f      	strb	r7, [r3, #0]
    236c:	70c8      	strb	r0, [r1, #3]
    236e:	ab01      	add	r3, sp, #4
    2370:	7a98      	ldrb	r0, [r3, #10]
    2372:	7108      	strb	r0, [r1, #4]
    2374:	7ad8      	ldrb	r0, [r3, #11]
    2376:	7148      	strb	r0, [r1, #5]
    2378:	4663      	mov	r3, ip
    237a:	075b      	lsls	r3, r3, #29
    237c:	d560      	bpl.n	2440 <MiMAC_SendPacket+0x228>
    237e:	a904      	add	r1, sp, #16
    2380:	20ff      	movs	r0, #255	; 0xff
    2382:	7188      	strb	r0, [r1, #6]
    2384:	71c8      	strb	r0, [r1, #7]
    2386:	2108      	movs	r1, #8
    2388:	2c00      	cmp	r4, #0
    238a:	d109      	bne.n	23a0 <MiMAC_SendPacket+0x188>
    238c:	1c48      	adds	r0, r1, #1
    238e:	b2c0      	uxtb	r0, r0
    2390:	ac04      	add	r4, sp, #16
    2392:	4e30      	ldr	r6, [pc, #192]	; (2454 <MiMAC_SendPacket+0x23c>)
    2394:	7833      	ldrb	r3, [r6, #0]
    2396:	5463      	strb	r3, [r4, r1]
    2398:	3102      	adds	r1, #2
    239a:	b2c9      	uxtb	r1, r1
    239c:	7876      	ldrb	r6, [r6, #1]
    239e:	5426      	strb	r6, [r4, r0]
    23a0:	2a00      	cmp	r2, #0
    23a2:	d02a      	beq.n	23fa <MiMAC_SendPacket+0x1e2>
    23a4:	a804      	add	r0, sp, #16
    23a6:	4c2e      	ldr	r4, [pc, #184]	; (2460 <MiMAC_SendPacket+0x248>)
    23a8:	7822      	ldrb	r2, [r4, #0]
    23aa:	5442      	strb	r2, [r0, r1]
    23ac:	1c8a      	adds	r2, r1, #2
    23ae:	b2d2      	uxtb	r2, r2
    23b0:	3101      	adds	r1, #1
    23b2:	b2c9      	uxtb	r1, r1
    23b4:	7864      	ldrb	r4, [r4, #1]
    23b6:	5444      	strb	r4, [r0, r1]
    23b8:	2d00      	cmp	r5, #0
    23ba:	d00a      	beq.n	23d2 <MiMAC_SendPacket+0x1ba>
    23bc:	9900      	ldr	r1, [sp, #0]
    23be:	1955      	adds	r5, r2, r5
    23c0:	b2ed      	uxtb	r5, r5
    23c2:	ae04      	add	r6, sp, #16
    23c4:	1c50      	adds	r0, r2, #1
    23c6:	780c      	ldrb	r4, [r1, #0]
    23c8:	54b4      	strb	r4, [r6, r2]
    23ca:	3101      	adds	r1, #1
    23cc:	b2c2      	uxtb	r2, r0
    23ce:	4295      	cmp	r5, r2
    23d0:	d1f8      	bne.n	23c4 <MiMAC_SendPacket+0x1ac>
    23d2:	4a24      	ldr	r2, [pc, #144]	; (2464 <MiMAC_SendPacket+0x24c>)
    23d4:	9b00      	ldr	r3, [sp, #0]
    23d6:	6013      	str	r3, [r2, #0]
    23d8:	4b23      	ldr	r3, [pc, #140]	; (2468 <MiMAC_SendPacket+0x250>)
    23da:	9a30      	ldr	r2, [sp, #192]	; 0xc0
    23dc:	601a      	str	r2, [r3, #0]
    23de:	4b23      	ldr	r3, [pc, #140]	; (246c <MiMAC_SendPacket+0x254>)
    23e0:	465a      	mov	r2, fp
    23e2:	701a      	strb	r2, [r3, #0]
    23e4:	a804      	add	r0, sp, #16
    23e6:	4b22      	ldr	r3, [pc, #136]	; (2470 <MiMAC_SendPacket+0x258>)
    23e8:	4798      	blx	r3
    23ea:	2001      	movs	r0, #1
    23ec:	b025      	add	sp, #148	; 0x94
    23ee:	bc3c      	pop	{r2, r3, r4, r5}
    23f0:	4690      	mov	r8, r2
    23f2:	4699      	mov	r9, r3
    23f4:	46a2      	mov	sl, r4
    23f6:	46ab      	mov	fp, r5
    23f8:	bdf0      	pop	{r4, r5, r6, r7, pc}
    23fa:	4a1e      	ldr	r2, [pc, #120]	; (2474 <MiMAC_SendPacket+0x25c>)
    23fc:	6850      	ldr	r0, [r2, #4]
    23fe:	000b      	movs	r3, r1
    2400:	3308      	adds	r3, #8
    2402:	b2db      	uxtb	r3, r3
    2404:	ae04      	add	r6, sp, #16
    2406:	1c4a      	adds	r2, r1, #1
    2408:	b2d2      	uxtb	r2, r2
    240a:	7804      	ldrb	r4, [r0, #0]
    240c:	5474      	strb	r4, [r6, r1]
    240e:	3001      	adds	r0, #1
    2410:	0011      	movs	r1, r2
    2412:	429a      	cmp	r2, r3
    2414:	d1f7      	bne.n	2406 <MiMAC_SendPacket+0x1ee>
    2416:	e7cf      	b.n	23b8 <MiMAC_SendPacket+0x1a0>
    2418:	a904      	add	r1, sp, #16
    241a:	20cc      	movs	r0, #204	; 0xcc
    241c:	7088      	strb	r0, [r1, #2]
    241e:	4b0f      	ldr	r3, [pc, #60]	; (245c <MiMAC_SendPacket+0x244>)
    2420:	4698      	mov	r8, r3
    2422:	7818      	ldrb	r0, [r3, #0]
    2424:	1c43      	adds	r3, r0, #1
    2426:	4699      	mov	r9, r3
    2428:	4643      	mov	r3, r8
    242a:	464f      	mov	r7, r9
    242c:	701f      	strb	r7, [r3, #0]
    242e:	70c8      	strb	r0, [r1, #3]
    2430:	a801      	add	r0, sp, #4
    2432:	7a83      	ldrb	r3, [r0, #10]
    2434:	710b      	strb	r3, [r1, #4]
    2436:	7ac0      	ldrb	r0, [r0, #11]
    2438:	7148      	strb	r0, [r1, #5]
    243a:	4663      	mov	r3, ip
    243c:	075b      	lsls	r3, r3, #29
    243e:	d49e      	bmi.n	237e <MiMAC_SendPacket+0x166>
    2440:	2000      	movs	r0, #0
    2442:	ab04      	add	r3, sp, #16
    2444:	1819      	adds	r1, r3, r0
    2446:	5c33      	ldrb	r3, [r6, r0]
    2448:	718b      	strb	r3, [r1, #6]
    244a:	3001      	adds	r0, #1
    244c:	2808      	cmp	r0, #8
    244e:	d1f8      	bne.n	2442 <MiMAC_SendPacket+0x22a>
    2450:	210e      	movs	r1, #14
    2452:	e799      	b.n	2388 <MiMAC_SendPacket+0x170>
    2454:	20000450 	.word	0x20000450
    2458:	0000ffff 	.word	0x0000ffff
    245c:	20000434 	.word	0x20000434
    2460:	20000438 	.word	0x20000438
    2464:	20000218 	.word	0x20000218
    2468:	20000210 	.word	0x20000210
    246c:	20000214 	.word	0x20000214
    2470:	00002915 	.word	0x00002915
    2474:	20000440 	.word	0x20000440

00002478 <MiMAC_DiscardPacket>:
    2478:	4b04      	ldr	r3, [pc, #16]	; (248c <MiMAC_DiscardPacket+0x14>)
    247a:	781b      	ldrb	r3, [r3, #0]
    247c:	2b03      	cmp	r3, #3
    247e:	d804      	bhi.n	248a <MiMAC_DiscardPacket+0x12>
    2480:	01da      	lsls	r2, r3, #7
    2482:	1ad3      	subs	r3, r2, r3
    2484:	2100      	movs	r1, #0
    2486:	4a02      	ldr	r2, [pc, #8]	; (2490 <MiMAC_DiscardPacket+0x18>)
    2488:	5499      	strb	r1, [r3, r2]
    248a:	4770      	bx	lr
    248c:	20000009 	.word	0x20000009
    2490:	20000454 	.word	0x20000454

00002494 <MiMAC_ReceivedPacket>:
    2494:	b570      	push	{r4, r5, r6, lr}
    2496:	22ff      	movs	r2, #255	; 0xff
    2498:	4bcd      	ldr	r3, [pc, #820]	; (27d0 <MiMAC_ReceivedPacket+0x33c>)
    249a:	701a      	strb	r2, [r3, #0]
    249c:	4bcd      	ldr	r3, [pc, #820]	; (27d4 <MiMAC_ReceivedPacket+0x340>)
    249e:	781b      	ldrb	r3, [r3, #0]
    24a0:	2b00      	cmp	r3, #0
    24a2:	d000      	beq.n	24a6 <MiMAC_ReceivedPacket+0x12>
    24a4:	e1bd      	b.n	2822 <MiMAC_ReceivedPacket+0x38e>
    24a6:	337f      	adds	r3, #127	; 0x7f
    24a8:	4aca      	ldr	r2, [pc, #808]	; (27d4 <MiMAC_ReceivedPacket+0x340>)
    24aa:	5cd3      	ldrb	r3, [r2, r3]
    24ac:	2b00      	cmp	r3, #0
    24ae:	d10b      	bne.n	24c8 <MiMAC_ReceivedPacket+0x34>
    24b0:	33fe      	adds	r3, #254	; 0xfe
    24b2:	5cd3      	ldrb	r3, [r2, r3]
    24b4:	2b00      	cmp	r3, #0
    24b6:	d12e      	bne.n	2516 <MiMAC_ReceivedPacket+0x82>
    24b8:	237e      	movs	r3, #126	; 0x7e
    24ba:	33ff      	adds	r3, #255	; 0xff
    24bc:	5cd3      	ldrb	r3, [r2, r3]
    24be:	2000      	movs	r0, #0
    24c0:	2203      	movs	r2, #3
    24c2:	2b00      	cmp	r3, #0
    24c4:	d101      	bne.n	24ca <MiMAC_ReceivedPacket+0x36>
    24c6:	bd70      	pop	{r4, r5, r6, pc}
    24c8:	2201      	movs	r2, #1
    24ca:	4bc1      	ldr	r3, [pc, #772]	; (27d0 <MiMAC_ReceivedPacket+0x33c>)
    24cc:	701a      	strb	r2, [r3, #0]
    24ce:	2000      	movs	r0, #0
    24d0:	2a03      	cmp	r2, #3
    24d2:	d8f8      	bhi.n	24c6 <MiMAC_ReceivedPacket+0x32>
    24d4:	0010      	movs	r0, r2
    24d6:	01d1      	lsls	r1, r2, #7
    24d8:	1a89      	subs	r1, r1, r2
    24da:	4bbe      	ldr	r3, [pc, #760]	; (27d4 <MiMAC_ReceivedPacket+0x340>)
    24dc:	185b      	adds	r3, r3, r1
    24de:	785d      	ldrb	r5, [r3, #1]
    24e0:	2440      	movs	r4, #64	; 0x40
    24e2:	4025      	ands	r5, r4
    24e4:	49bc      	ldr	r1, [pc, #752]	; (27d8 <MiMAC_ReceivedPacket+0x344>)
    24e6:	2400      	movs	r4, #0
    24e8:	700c      	strb	r4, [r1, #0]
    24ea:	73cc      	strb	r4, [r1, #15]
    24ec:	789b      	ldrb	r3, [r3, #2]
    24ee:	2133      	movs	r1, #51	; 0x33
    24f0:	438b      	bics	r3, r1
    24f2:	b2d9      	uxtb	r1, r3
    24f4:	2988      	cmp	r1, #136	; 0x88
    24f6:	d100      	bne.n	24fa <MiMAC_ReceivedPacket+0x66>
    24f8:	e0c4      	b.n	2684 <MiMAC_ReceivedPacket+0x1f0>
    24fa:	d90e      	bls.n	251a <MiMAC_ReceivedPacket+0x86>
    24fc:	b2d9      	uxtb	r1, r3
    24fe:	29c8      	cmp	r1, #200	; 0xc8
    2500:	d046      	beq.n	2590 <MiMAC_ReceivedPacket+0xfc>
    2502:	29cc      	cmp	r1, #204	; 0xcc
    2504:	d100      	bne.n	2508 <MiMAC_ReceivedPacket+0x74>
    2506:	e08a      	b.n	261e <MiMAC_ReceivedPacket+0x18a>
    2508:	298c      	cmp	r1, #140	; 0x8c
    250a:	d100      	bne.n	250e <MiMAC_ReceivedPacket+0x7a>
    250c:	e104      	b.n	2718 <MiMAC_ReceivedPacket+0x284>
    250e:	4bb3      	ldr	r3, [pc, #716]	; (27dc <MiMAC_ReceivedPacket+0x348>)
    2510:	4798      	blx	r3
    2512:	2000      	movs	r0, #0
    2514:	e7d7      	b.n	24c6 <MiMAC_ReceivedPacket+0x32>
    2516:	2202      	movs	r2, #2
    2518:	e7d7      	b.n	24ca <MiMAC_ReceivedPacket+0x36>
    251a:	2b08      	cmp	r3, #8
    251c:	d100      	bne.n	2520 <MiMAC_ReceivedPacket+0x8c>
    251e:	e131      	b.n	2784 <MiMAC_ReceivedPacket+0x2f0>
    2520:	2980      	cmp	r1, #128	; 0x80
    2522:	d1f4      	bne.n	250e <MiMAC_ReceivedPacket+0x7a>
    2524:	4bac      	ldr	r3, [pc, #688]	; (27d8 <MiMAC_ReceivedPacket+0x344>)
    2526:	7819      	ldrb	r1, [r3, #0]
    2528:	2404      	movs	r4, #4
    252a:	4321      	orrs	r1, r4
    252c:	2480      	movs	r4, #128	; 0x80
    252e:	4264      	negs	r4, r4
    2530:	4321      	orrs	r1, r4
    2532:	7019      	strb	r1, [r3, #0]
    2534:	2101      	movs	r1, #1
    2536:	73d9      	strb	r1, [r3, #15]
    2538:	4ca6      	ldr	r4, [pc, #664]	; (27d4 <MiMAC_ReceivedPacket+0x340>)
    253a:	01d1      	lsls	r1, r2, #7
    253c:	1a88      	subs	r0, r1, r2
    253e:	1821      	adds	r1, r4, r0
    2540:	790d      	ldrb	r5, [r1, #4]
    2542:	741d      	strb	r5, [r3, #16]
    2544:	7949      	ldrb	r1, [r1, #5]
    2546:	7459      	strb	r1, [r3, #17]
    2548:	01d1      	lsls	r1, r2, #7
    254a:	1a8a      	subs	r2, r1, r2
    254c:	1d91      	adds	r1, r2, #6
    254e:	1909      	adds	r1, r1, r4
    2550:	6059      	str	r1, [r3, #4]
    2552:	5d01      	ldrb	r1, [r0, r4]
    2554:	390b      	subs	r1, #11
    2556:	7319      	strb	r1, [r3, #12]
    2558:	3208      	adds	r2, #8
    255a:	1912      	adds	r2, r2, r4
    255c:	609a      	str	r2, [r3, #8]
    255e:	4b9c      	ldr	r3, [pc, #624]	; (27d0 <MiMAC_ReceivedPacket+0x33c>)
    2560:	781b      	ldrb	r3, [r3, #0]
    2562:	01d9      	lsls	r1, r3, #7
    2564:	1ac9      	subs	r1, r1, r3
    2566:	4a9b      	ldr	r2, [pc, #620]	; (27d4 <MiMAC_ReceivedPacket+0x340>)
    2568:	1852      	adds	r2, r2, r1
    256a:	7851      	ldrb	r1, [r2, #1]
    256c:	070a      	lsls	r2, r1, #28
    256e:	d500      	bpl.n	2572 <MiMAC_ReceivedPacket+0xde>
    2570:	e129      	b.n	27c6 <MiMAC_ReceivedPacket+0x332>
    2572:	2207      	movs	r2, #7
    2574:	400a      	ands	r2, r1
    2576:	2a01      	cmp	r2, #1
    2578:	d100      	bne.n	257c <MiMAC_ReceivedPacket+0xe8>
    257a:	e131      	b.n	27e0 <MiMAC_ReceivedPacket+0x34c>
    257c:	2a00      	cmp	r2, #0
    257e:	d100      	bne.n	2582 <MiMAC_ReceivedPacket+0xee>
    2580:	e149      	b.n	2816 <MiMAC_ReceivedPacket+0x382>
    2582:	2a03      	cmp	r2, #3
    2584:	d100      	bne.n	2588 <MiMAC_ReceivedPacket+0xf4>
    2586:	e13e      	b.n	2806 <MiMAC_ReceivedPacket+0x372>
    2588:	4b94      	ldr	r3, [pc, #592]	; (27dc <MiMAC_ReceivedPacket+0x348>)
    258a:	4798      	blx	r3
    258c:	2000      	movs	r0, #0
    258e:	e79a      	b.n	24c6 <MiMAC_ReceivedPacket+0x32>
    2590:	01d1      	lsls	r1, r2, #7
    2592:	1a89      	subs	r1, r1, r2
    2594:	4b8f      	ldr	r3, [pc, #572]	; (27d4 <MiMAC_ReceivedPacket+0x340>)
    2596:	185b      	adds	r3, r3, r1
    2598:	799b      	ldrb	r3, [r3, #6]
    259a:	2bff      	cmp	r3, #255	; 0xff
    259c:	d01c      	beq.n	25d8 <MiMAC_ReceivedPacket+0x144>
    259e:	498e      	ldr	r1, [pc, #568]	; (27d8 <MiMAC_ReceivedPacket+0x344>)
    25a0:	780c      	ldrb	r4, [r1, #0]
    25a2:	2380      	movs	r3, #128	; 0x80
    25a4:	425b      	negs	r3, r3
    25a6:	4323      	orrs	r3, r4
    25a8:	700b      	strb	r3, [r1, #0]
    25aa:	2d00      	cmp	r5, #0
    25ac:	d021      	beq.n	25f2 <MiMAC_ReceivedPacket+0x15e>
    25ae:	4c89      	ldr	r4, [pc, #548]	; (27d4 <MiMAC_ReceivedPacket+0x340>)
    25b0:	01c3      	lsls	r3, r0, #7
    25b2:	1a18      	subs	r0, r3, r0
    25b4:	1823      	adds	r3, r4, r0
    25b6:	791d      	ldrb	r5, [r3, #4]
    25b8:	740d      	strb	r5, [r1, #16]
    25ba:	795b      	ldrb	r3, [r3, #5]
    25bc:	744b      	strb	r3, [r1, #17]
    25be:	01d3      	lsls	r3, r2, #7
    25c0:	1a9a      	subs	r2, r3, r2
    25c2:	0013      	movs	r3, r2
    25c4:	3308      	adds	r3, #8
    25c6:	191b      	adds	r3, r3, r4
    25c8:	604b      	str	r3, [r1, #4]
    25ca:	5d03      	ldrb	r3, [r0, r4]
    25cc:	3b13      	subs	r3, #19
    25ce:	730b      	strb	r3, [r1, #12]
    25d0:	3210      	adds	r2, #16
    25d2:	1912      	adds	r2, r2, r4
    25d4:	608a      	str	r2, [r1, #8]
    25d6:	e7c2      	b.n	255e <MiMAC_ReceivedPacket+0xca>
    25d8:	01d1      	lsls	r1, r2, #7
    25da:	1a89      	subs	r1, r1, r2
    25dc:	4b7d      	ldr	r3, [pc, #500]	; (27d4 <MiMAC_ReceivedPacket+0x340>)
    25de:	185b      	adds	r3, r3, r1
    25e0:	79db      	ldrb	r3, [r3, #7]
    25e2:	2bff      	cmp	r3, #255	; 0xff
    25e4:	d1db      	bne.n	259e <MiMAC_ReceivedPacket+0x10a>
    25e6:	497c      	ldr	r1, [pc, #496]	; (27d8 <MiMAC_ReceivedPacket+0x344>)
    25e8:	780b      	ldrb	r3, [r1, #0]
    25ea:	2404      	movs	r4, #4
    25ec:	4323      	orrs	r3, r4
    25ee:	700b      	strb	r3, [r1, #0]
    25f0:	e7d5      	b.n	259e <MiMAC_ReceivedPacket+0x10a>
    25f2:	4979      	ldr	r1, [pc, #484]	; (27d8 <MiMAC_ReceivedPacket+0x344>)
    25f4:	4c77      	ldr	r4, [pc, #476]	; (27d4 <MiMAC_ReceivedPacket+0x340>)
    25f6:	01c3      	lsls	r3, r0, #7
    25f8:	1a18      	subs	r0, r3, r0
    25fa:	1823      	adds	r3, r4, r0
    25fc:	7a1d      	ldrb	r5, [r3, #8]
    25fe:	740d      	strb	r5, [r1, #16]
    2600:	7a5b      	ldrb	r3, [r3, #9]
    2602:	744b      	strb	r3, [r1, #17]
    2604:	01d3      	lsls	r3, r2, #7
    2606:	1a9a      	subs	r2, r3, r2
    2608:	0013      	movs	r3, r2
    260a:	330a      	adds	r3, #10
    260c:	191b      	adds	r3, r3, r4
    260e:	604b      	str	r3, [r1, #4]
    2610:	5d03      	ldrb	r3, [r0, r4]
    2612:	3b15      	subs	r3, #21
    2614:	730b      	strb	r3, [r1, #12]
    2616:	3212      	adds	r2, #18
    2618:	1912      	adds	r2, r2, r4
    261a:	608a      	str	r2, [r1, #8]
    261c:	e79f      	b.n	255e <MiMAC_ReceivedPacket+0xca>
    261e:	496e      	ldr	r1, [pc, #440]	; (27d8 <MiMAC_ReceivedPacket+0x344>)
    2620:	780c      	ldrb	r4, [r1, #0]
    2622:	2380      	movs	r3, #128	; 0x80
    2624:	425b      	negs	r3, r3
    2626:	4323      	orrs	r3, r4
    2628:	700b      	strb	r3, [r1, #0]
    262a:	2d00      	cmp	r5, #0
    262c:	d014      	beq.n	2658 <MiMAC_ReceivedPacket+0x1c4>
    262e:	4c69      	ldr	r4, [pc, #420]	; (27d4 <MiMAC_ReceivedPacket+0x340>)
    2630:	01d3      	lsls	r3, r2, #7
    2632:	1a98      	subs	r0, r3, r2
    2634:	1823      	adds	r3, r4, r0
    2636:	791d      	ldrb	r5, [r3, #4]
    2638:	740d      	strb	r5, [r1, #16]
    263a:	795b      	ldrb	r3, [r3, #5]
    263c:	744b      	strb	r3, [r1, #17]
    263e:	01d3      	lsls	r3, r2, #7
    2640:	1a9a      	subs	r2, r3, r2
    2642:	0013      	movs	r3, r2
    2644:	330e      	adds	r3, #14
    2646:	191b      	adds	r3, r3, r4
    2648:	604b      	str	r3, [r1, #4]
    264a:	5d03      	ldrb	r3, [r0, r4]
    264c:	3b19      	subs	r3, #25
    264e:	730b      	strb	r3, [r1, #12]
    2650:	3216      	adds	r2, #22
    2652:	1912      	adds	r2, r2, r4
    2654:	608a      	str	r2, [r1, #8]
    2656:	e782      	b.n	255e <MiMAC_ReceivedPacket+0xca>
    2658:	495f      	ldr	r1, [pc, #380]	; (27d8 <MiMAC_ReceivedPacket+0x344>)
    265a:	4c5e      	ldr	r4, [pc, #376]	; (27d4 <MiMAC_ReceivedPacket+0x340>)
    265c:	01d3      	lsls	r3, r2, #7
    265e:	1a98      	subs	r0, r3, r2
    2660:	1823      	adds	r3, r4, r0
    2662:	7b9d      	ldrb	r5, [r3, #14]
    2664:	740d      	strb	r5, [r1, #16]
    2666:	7bdb      	ldrb	r3, [r3, #15]
    2668:	744b      	strb	r3, [r1, #17]
    266a:	01d3      	lsls	r3, r2, #7
    266c:	1a9a      	subs	r2, r3, r2
    266e:	0013      	movs	r3, r2
    2670:	3310      	adds	r3, #16
    2672:	191b      	adds	r3, r3, r4
    2674:	604b      	str	r3, [r1, #4]
    2676:	5d03      	ldrb	r3, [r0, r4]
    2678:	3b1b      	subs	r3, #27
    267a:	730b      	strb	r3, [r1, #12]
    267c:	3218      	adds	r2, #24
    267e:	1912      	adds	r2, r2, r4
    2680:	608a      	str	r2, [r1, #8]
    2682:	e76c      	b.n	255e <MiMAC_ReceivedPacket+0xca>
    2684:	01d1      	lsls	r1, r2, #7
    2686:	1a89      	subs	r1, r1, r2
    2688:	4b52      	ldr	r3, [pc, #328]	; (27d4 <MiMAC_ReceivedPacket+0x340>)
    268a:	185b      	adds	r3, r3, r1
    268c:	799b      	ldrb	r3, [r3, #6]
    268e:	2bff      	cmp	r3, #255	; 0xff
    2690:	d01f      	beq.n	26d2 <MiMAC_ReceivedPacket+0x23e>
    2692:	4b51      	ldr	r3, [pc, #324]	; (27d8 <MiMAC_ReceivedPacket+0x344>)
    2694:	781c      	ldrb	r4, [r3, #0]
    2696:	2180      	movs	r1, #128	; 0x80
    2698:	4249      	negs	r1, r1
    269a:	4321      	orrs	r1, r4
    269c:	7019      	strb	r1, [r3, #0]
    269e:	2101      	movs	r1, #1
    26a0:	73d9      	strb	r1, [r3, #15]
    26a2:	2d00      	cmp	r5, #0
    26a4:	d122      	bne.n	26ec <MiMAC_ReceivedPacket+0x258>
    26a6:	0019      	movs	r1, r3
    26a8:	4c4a      	ldr	r4, [pc, #296]	; (27d4 <MiMAC_ReceivedPacket+0x340>)
    26aa:	01c3      	lsls	r3, r0, #7
    26ac:	1a18      	subs	r0, r3, r0
    26ae:	1823      	adds	r3, r4, r0
    26b0:	7a1d      	ldrb	r5, [r3, #8]
    26b2:	740d      	strb	r5, [r1, #16]
    26b4:	7a5b      	ldrb	r3, [r3, #9]
    26b6:	744b      	strb	r3, [r1, #17]
    26b8:	01d3      	lsls	r3, r2, #7
    26ba:	1a9a      	subs	r2, r3, r2
    26bc:	0013      	movs	r3, r2
    26be:	330a      	adds	r3, #10
    26c0:	191b      	adds	r3, r3, r4
    26c2:	604b      	str	r3, [r1, #4]
    26c4:	5d03      	ldrb	r3, [r0, r4]
    26c6:	3b0f      	subs	r3, #15
    26c8:	730b      	strb	r3, [r1, #12]
    26ca:	320c      	adds	r2, #12
    26cc:	1912      	adds	r2, r2, r4
    26ce:	608a      	str	r2, [r1, #8]
    26d0:	e745      	b.n	255e <MiMAC_ReceivedPacket+0xca>
    26d2:	01d1      	lsls	r1, r2, #7
    26d4:	1a89      	subs	r1, r1, r2
    26d6:	4b3f      	ldr	r3, [pc, #252]	; (27d4 <MiMAC_ReceivedPacket+0x340>)
    26d8:	185b      	adds	r3, r3, r1
    26da:	79db      	ldrb	r3, [r3, #7]
    26dc:	2bff      	cmp	r3, #255	; 0xff
    26de:	d1d8      	bne.n	2692 <MiMAC_ReceivedPacket+0x1fe>
    26e0:	493d      	ldr	r1, [pc, #244]	; (27d8 <MiMAC_ReceivedPacket+0x344>)
    26e2:	780b      	ldrb	r3, [r1, #0]
    26e4:	2404      	movs	r4, #4
    26e6:	4323      	orrs	r3, r4
    26e8:	700b      	strb	r3, [r1, #0]
    26ea:	e7d2      	b.n	2692 <MiMAC_ReceivedPacket+0x1fe>
    26ec:	493a      	ldr	r1, [pc, #232]	; (27d8 <MiMAC_ReceivedPacket+0x344>)
    26ee:	4c39      	ldr	r4, [pc, #228]	; (27d4 <MiMAC_ReceivedPacket+0x340>)
    26f0:	01c3      	lsls	r3, r0, #7
    26f2:	1a18      	subs	r0, r3, r0
    26f4:	1823      	adds	r3, r4, r0
    26f6:	791d      	ldrb	r5, [r3, #4]
    26f8:	740d      	strb	r5, [r1, #16]
    26fa:	795b      	ldrb	r3, [r3, #5]
    26fc:	744b      	strb	r3, [r1, #17]
    26fe:	01d3      	lsls	r3, r2, #7
    2700:	1a9a      	subs	r2, r3, r2
    2702:	0013      	movs	r3, r2
    2704:	3308      	adds	r3, #8
    2706:	191b      	adds	r3, r3, r4
    2708:	604b      	str	r3, [r1, #4]
    270a:	5d03      	ldrb	r3, [r0, r4]
    270c:	3b0d      	subs	r3, #13
    270e:	730b      	strb	r3, [r1, #12]
    2710:	320a      	adds	r2, #10
    2712:	1912      	adds	r2, r2, r4
    2714:	608a      	str	r2, [r1, #8]
    2716:	e722      	b.n	255e <MiMAC_ReceivedPacket+0xca>
    2718:	4b2f      	ldr	r3, [pc, #188]	; (27d8 <MiMAC_ReceivedPacket+0x344>)
    271a:	781c      	ldrb	r4, [r3, #0]
    271c:	2180      	movs	r1, #128	; 0x80
    271e:	4249      	negs	r1, r1
    2720:	4321      	orrs	r1, r4
    2722:	7019      	strb	r1, [r3, #0]
    2724:	2101      	movs	r1, #1
    2726:	73d9      	strb	r1, [r3, #15]
    2728:	2d00      	cmp	r5, #0
    272a:	d015      	beq.n	2758 <MiMAC_ReceivedPacket+0x2c4>
    272c:	0019      	movs	r1, r3
    272e:	4c29      	ldr	r4, [pc, #164]	; (27d4 <MiMAC_ReceivedPacket+0x340>)
    2730:	01d3      	lsls	r3, r2, #7
    2732:	1a98      	subs	r0, r3, r2
    2734:	1823      	adds	r3, r4, r0
    2736:	791d      	ldrb	r5, [r3, #4]
    2738:	740d      	strb	r5, [r1, #16]
    273a:	795b      	ldrb	r3, [r3, #5]
    273c:	744b      	strb	r3, [r1, #17]
    273e:	01d3      	lsls	r3, r2, #7
    2740:	1a9a      	subs	r2, r3, r2
    2742:	0013      	movs	r3, r2
    2744:	330e      	adds	r3, #14
    2746:	191b      	adds	r3, r3, r4
    2748:	604b      	str	r3, [r1, #4]
    274a:	5d03      	ldrb	r3, [r0, r4]
    274c:	3b13      	subs	r3, #19
    274e:	730b      	strb	r3, [r1, #12]
    2750:	3210      	adds	r2, #16
    2752:	1912      	adds	r2, r2, r4
    2754:	608a      	str	r2, [r1, #8]
    2756:	e702      	b.n	255e <MiMAC_ReceivedPacket+0xca>
    2758:	491f      	ldr	r1, [pc, #124]	; (27d8 <MiMAC_ReceivedPacket+0x344>)
    275a:	4c1e      	ldr	r4, [pc, #120]	; (27d4 <MiMAC_ReceivedPacket+0x340>)
    275c:	01d3      	lsls	r3, r2, #7
    275e:	1a98      	subs	r0, r3, r2
    2760:	1823      	adds	r3, r4, r0
    2762:	7b5d      	ldrb	r5, [r3, #13]
    2764:	740d      	strb	r5, [r1, #16]
    2766:	7b9b      	ldrb	r3, [r3, #14]
    2768:	744b      	strb	r3, [r1, #17]
    276a:	01d3      	lsls	r3, r2, #7
    276c:	1a9a      	subs	r2, r3, r2
    276e:	0013      	movs	r3, r2
    2770:	330f      	adds	r3, #15
    2772:	191b      	adds	r3, r3, r4
    2774:	604b      	str	r3, [r1, #4]
    2776:	5d03      	ldrb	r3, [r0, r4]
    2778:	3b15      	subs	r3, #21
    277a:	730b      	strb	r3, [r1, #12]
    277c:	3212      	adds	r2, #18
    277e:	1912      	adds	r2, r2, r4
    2780:	608a      	str	r2, [r1, #8]
    2782:	e6ec      	b.n	255e <MiMAC_ReceivedPacket+0xca>
    2784:	01d1      	lsls	r1, r2, #7
    2786:	1a89      	subs	r1, r1, r2
    2788:	4b12      	ldr	r3, [pc, #72]	; (27d4 <MiMAC_ReceivedPacket+0x340>)
    278a:	185b      	adds	r3, r3, r1
    278c:	799b      	ldrb	r3, [r3, #6]
    278e:	2bff      	cmp	r3, #255	; 0xff
    2790:	d00c      	beq.n	27ac <MiMAC_ReceivedPacket+0x318>
    2792:	4911      	ldr	r1, [pc, #68]	; (27d8 <MiMAC_ReceivedPacket+0x344>)
    2794:	4c0f      	ldr	r4, [pc, #60]	; (27d4 <MiMAC_ReceivedPacket+0x340>)
    2796:	01c3      	lsls	r3, r0, #7
    2798:	1a18      	subs	r0, r3, r0
    279a:	5d03      	ldrb	r3, [r0, r4]
    279c:	3b0a      	subs	r3, #10
    279e:	730b      	strb	r3, [r1, #12]
    27a0:	01d3      	lsls	r3, r2, #7
    27a2:	1a9a      	subs	r2, r3, r2
    27a4:	3208      	adds	r2, #8
    27a6:	1912      	adds	r2, r2, r4
    27a8:	608a      	str	r2, [r1, #8]
    27aa:	e6d8      	b.n	255e <MiMAC_ReceivedPacket+0xca>
    27ac:	01d1      	lsls	r1, r2, #7
    27ae:	1a89      	subs	r1, r1, r2
    27b0:	4b08      	ldr	r3, [pc, #32]	; (27d4 <MiMAC_ReceivedPacket+0x340>)
    27b2:	185b      	adds	r3, r3, r1
    27b4:	79db      	ldrb	r3, [r3, #7]
    27b6:	2bff      	cmp	r3, #255	; 0xff
    27b8:	d1eb      	bne.n	2792 <MiMAC_ReceivedPacket+0x2fe>
    27ba:	4907      	ldr	r1, [pc, #28]	; (27d8 <MiMAC_ReceivedPacket+0x344>)
    27bc:	780b      	ldrb	r3, [r1, #0]
    27be:	2404      	movs	r4, #4
    27c0:	4323      	orrs	r3, r4
    27c2:	700b      	strb	r3, [r1, #0]
    27c4:	e7e5      	b.n	2792 <MiMAC_ReceivedPacket+0x2fe>
    27c6:	4b05      	ldr	r3, [pc, #20]	; (27dc <MiMAC_ReceivedPacket+0x348>)
    27c8:	4798      	blx	r3
    27ca:	2000      	movs	r0, #0
    27cc:	e67b      	b.n	24c6 <MiMAC_ReceivedPacket+0x32>
    27ce:	46c0      	nop			; (mov r8, r8)
    27d0:	20000009 	.word	0x20000009
    27d4:	20000454 	.word	0x20000454
    27d8:	20001a48 	.word	0x20001a48
    27dc:	00002479 	.word	0x00002479
    27e0:	4912      	ldr	r1, [pc, #72]	; (282c <MiMAC_ReceivedPacket+0x398>)
    27e2:	780a      	ldrb	r2, [r1, #0]
    27e4:	2003      	movs	r0, #3
    27e6:	4382      	bics	r2, r0
    27e8:	700a      	strb	r2, [r1, #0]
    27ea:	4a11      	ldr	r2, [pc, #68]	; (2830 <MiMAC_ReceivedPacket+0x39c>)
    27ec:	01d9      	lsls	r1, r3, #7
    27ee:	1acb      	subs	r3, r1, r3
    27f0:	5c98      	ldrb	r0, [r3, r2]
    27f2:	490e      	ldr	r1, [pc, #56]	; (282c <MiMAC_ReceivedPacket+0x398>)
    27f4:	18d3      	adds	r3, r2, r3
    27f6:	181a      	adds	r2, r3, r0
    27f8:	3a01      	subs	r2, #1
    27fa:	7812      	ldrb	r2, [r2, #0]
    27fc:	738a      	strb	r2, [r1, #14]
    27fe:	5c1b      	ldrb	r3, [r3, r0]
    2800:	734b      	strb	r3, [r1, #13]
    2802:	2001      	movs	r0, #1
    2804:	e65f      	b.n	24c6 <MiMAC_ReceivedPacket+0x32>
    2806:	4909      	ldr	r1, [pc, #36]	; (282c <MiMAC_ReceivedPacket+0x398>)
    2808:	780a      	ldrb	r2, [r1, #0]
    280a:	2003      	movs	r0, #3
    280c:	4382      	bics	r2, r0
    280e:	2001      	movs	r0, #1
    2810:	4302      	orrs	r2, r0
    2812:	700a      	strb	r2, [r1, #0]
    2814:	e7e9      	b.n	27ea <MiMAC_ReceivedPacket+0x356>
    2816:	4905      	ldr	r1, [pc, #20]	; (282c <MiMAC_ReceivedPacket+0x398>)
    2818:	780a      	ldrb	r2, [r1, #0]
    281a:	2003      	movs	r0, #3
    281c:	4302      	orrs	r2, r0
    281e:	700a      	strb	r2, [r1, #0]
    2820:	e7e3      	b.n	27ea <MiMAC_ReceivedPacket+0x356>
    2822:	2200      	movs	r2, #0
    2824:	4b03      	ldr	r3, [pc, #12]	; (2834 <MiMAC_ReceivedPacket+0x3a0>)
    2826:	701a      	strb	r2, [r3, #0]
    2828:	e654      	b.n	24d4 <MiMAC_ReceivedPacket+0x40>
    282a:	46c0      	nop			; (mov r8, r8)
    282c:	20001a48 	.word	0x20001a48
    2830:	20000454 	.word	0x20000454
    2834:	20000009 	.word	0x20000009

00002838 <MiMAC_SymbolToTicks>:
    2838:	0100      	lsls	r0, r0, #4
    283a:	4770      	bx	lr

0000283c <MiMAC_GetPHYChannelInfo>:
    283c:	4800      	ldr	r0, [pc, #0]	; (2840 <MiMAC_GetPHYChannelInfo+0x4>)
    283e:	4770      	bx	lr
    2840:	07fff800 	.word	0x07fff800

00002844 <PHY_DataConf>:
    2844:	4b02      	ldr	r3, [pc, #8]	; (2850 <PHY_DataConf+0xc>)
    2846:	7018      	strb	r0, [r3, #0]
    2848:	2201      	movs	r2, #1
    284a:	4b02      	ldr	r3, [pc, #8]	; (2854 <PHY_DataConf+0x10>)
    284c:	701a      	strb	r2, [r3, #0]
    284e:	4770      	bx	lr
    2850:	20000448 	.word	0x20000448
    2854:	2000020d 	.word	0x2000020d

00002858 <MiMAC_Task>:
    2858:	b510      	push	{r4, lr}
    285a:	4b0b      	ldr	r3, [pc, #44]	; (2888 <MiMAC_Task+0x30>)
    285c:	4798      	blx	r3
    285e:	4b0b      	ldr	r3, [pc, #44]	; (288c <MiMAC_Task+0x34>)
    2860:	681b      	ldr	r3, [r3, #0]
    2862:	2b00      	cmp	r3, #0
    2864:	d003      	beq.n	286e <MiMAC_Task+0x16>
    2866:	4a0a      	ldr	r2, [pc, #40]	; (2890 <MiMAC_Task+0x38>)
    2868:	7812      	ldrb	r2, [r2, #0]
    286a:	2a00      	cmp	r2, #0
    286c:	d100      	bne.n	2870 <MiMAC_Task+0x18>
    286e:	bd10      	pop	{r4, pc}
    2870:	4a08      	ldr	r2, [pc, #32]	; (2894 <MiMAC_Task+0x3c>)
    2872:	6812      	ldr	r2, [r2, #0]
    2874:	4908      	ldr	r1, [pc, #32]	; (2898 <MiMAC_Task+0x40>)
    2876:	7809      	ldrb	r1, [r1, #0]
    2878:	4808      	ldr	r0, [pc, #32]	; (289c <MiMAC_Task+0x44>)
    287a:	7800      	ldrb	r0, [r0, #0]
    287c:	4798      	blx	r3
    287e:	2200      	movs	r2, #0
    2880:	4b03      	ldr	r3, [pc, #12]	; (2890 <MiMAC_Task+0x38>)
    2882:	701a      	strb	r2, [r3, #0]
    2884:	e7f3      	b.n	286e <MiMAC_Task+0x16>
    2886:	46c0      	nop			; (mov r8, r8)
    2888:	00002ac5 	.word	0x00002ac5
    288c:	20000210 	.word	0x20000210
    2890:	2000020d 	.word	0x2000020d
    2894:	20000218 	.word	0x20000218
    2898:	20000448 	.word	0x20000448
    289c:	20000214 	.word	0x20000214

000028a0 <phyTrxSetState>:
    28a0:	b5f8      	push	{r3, r4, r5, r6, r7, lr}
    28a2:	0004      	movs	r4, r0
    28a4:	4f0b      	ldr	r7, [pc, #44]	; (28d4 <phyTrxSetState+0x34>)
    28a6:	4e0c      	ldr	r6, [pc, #48]	; (28d8 <phyTrxSetState+0x38>)
    28a8:	251f      	movs	r5, #31
    28aa:	2103      	movs	r1, #3
    28ac:	2002      	movs	r0, #2
    28ae:	47b8      	blx	r7
    28b0:	2001      	movs	r0, #1
    28b2:	47b0      	blx	r6
    28b4:	4028      	ands	r0, r5
    28b6:	2808      	cmp	r0, #8
    28b8:	d1f7      	bne.n	28aa <phyTrxSetState+0xa>
    28ba:	4f06      	ldr	r7, [pc, #24]	; (28d4 <phyTrxSetState+0x34>)
    28bc:	4e06      	ldr	r6, [pc, #24]	; (28d8 <phyTrxSetState+0x38>)
    28be:	251f      	movs	r5, #31
    28c0:	0021      	movs	r1, r4
    28c2:	2002      	movs	r0, #2
    28c4:	47b8      	blx	r7
    28c6:	2001      	movs	r0, #1
    28c8:	47b0      	blx	r6
    28ca:	4028      	ands	r0, r5
    28cc:	4284      	cmp	r4, r0
    28ce:	d1f7      	bne.n	28c0 <phyTrxSetState+0x20>
    28d0:	bdf8      	pop	{r3, r4, r5, r6, r7, pc}
    28d2:	46c0      	nop			; (mov r8, r8)
    28d4:	0000395d 	.word	0x0000395d
    28d8:	00003861 	.word	0x00003861

000028dc <phySetRxState>:
    28dc:	b510      	push	{r4, lr}
    28de:	2008      	movs	r0, #8
    28e0:	4b08      	ldr	r3, [pc, #32]	; (2904 <phySetRxState+0x28>)
    28e2:	4798      	blx	r3
    28e4:	200f      	movs	r0, #15
    28e6:	4b08      	ldr	r3, [pc, #32]	; (2908 <phySetRxState+0x2c>)
    28e8:	4798      	blx	r3
    28ea:	4b08      	ldr	r3, [pc, #32]	; (290c <phySetRxState+0x30>)
    28ec:	781b      	ldrb	r3, [r3, #0]
    28ee:	2b00      	cmp	r3, #0
    28f0:	d100      	bne.n	28f4 <phySetRxState+0x18>
    28f2:	bd10      	pop	{r4, pc}
    28f4:	2016      	movs	r0, #22
    28f6:	4b03      	ldr	r3, [pc, #12]	; (2904 <phySetRxState+0x28>)
    28f8:	4798      	blx	r3
    28fa:	2201      	movs	r2, #1
    28fc:	4b04      	ldr	r3, [pc, #16]	; (2910 <phySetRxState+0x34>)
    28fe:	701a      	strb	r2, [r3, #0]
    2900:	e7f7      	b.n	28f2 <phySetRxState+0x16>
    2902:	46c0      	nop			; (mov r8, r8)
    2904:	000028a1 	.word	0x000028a1
    2908:	00003861 	.word	0x00003861
    290c:	2000029c 	.word	0x2000029c
    2910:	2000029d 	.word	0x2000029d

00002914 <PHY_DataReq>:
    2914:	b510      	push	{r4, lr}
    2916:	0004      	movs	r4, r0
    2918:	2019      	movs	r0, #25
    291a:	4b0c      	ldr	r3, [pc, #48]	; (294c <PHY_DataReq+0x38>)
    291c:	4798      	blx	r3
    291e:	200f      	movs	r0, #15
    2920:	4b0b      	ldr	r3, [pc, #44]	; (2950 <PHY_DataReq+0x3c>)
    2922:	4798      	blx	r3
    2924:	7821      	ldrb	r1, [r4, #0]
    2926:	1c8b      	adds	r3, r1, #2
    2928:	7023      	strb	r3, [r4, #0]
    292a:	3101      	adds	r1, #1
    292c:	b2c9      	uxtb	r1, r1
    292e:	0020      	movs	r0, r4
    2930:	4b08      	ldr	r3, [pc, #32]	; (2954 <PHY_DataReq+0x40>)
    2932:	4798      	blx	r3
    2934:	2203      	movs	r2, #3
    2936:	4b08      	ldr	r3, [pc, #32]	; (2958 <PHY_DataReq+0x44>)
    2938:	701a      	strb	r2, [r3, #0]
    293a:	4b08      	ldr	r3, [pc, #32]	; (295c <PHY_DataReq+0x48>)
    293c:	2280      	movs	r2, #128	; 0x80
    293e:	0352      	lsls	r2, r2, #13
    2940:	619a      	str	r2, [r3, #24]
    2942:	46c0      	nop			; (mov r8, r8)
    2944:	46c0      	nop			; (mov r8, r8)
    2946:	615a      	str	r2, [r3, #20]
    2948:	bd10      	pop	{r4, pc}
    294a:	46c0      	nop			; (mov r8, r8)
    294c:	000028a1 	.word	0x000028a1
    2950:	00003861 	.word	0x00003861
    2954:	00003b8d 	.word	0x00003b8d
    2958:	2000029d 	.word	0x2000029d
    295c:	41004400 	.word	0x41004400

00002960 <PHY_RandomReq>:
    2960:	b5f0      	push	{r4, r5, r6, r7, lr}
    2962:	46c6      	mov	lr, r8
    2964:	b500      	push	{lr}
    2966:	2006      	movs	r0, #6
    2968:	4b0d      	ldr	r3, [pc, #52]	; (29a0 <PHY_RandomReq+0x40>)
    296a:	4798      	blx	r3
    296c:	2400      	movs	r4, #0
    296e:	2500      	movs	r5, #0
    2970:	4f0c      	ldr	r7, [pc, #48]	; (29a4 <PHY_RandomReq+0x44>)
    2972:	4e0d      	ldr	r6, [pc, #52]	; (29a8 <PHY_RandomReq+0x48>)
    2974:	2303      	movs	r3, #3
    2976:	4698      	mov	r8, r3
    2978:	2001      	movs	r0, #1
    297a:	47b8      	blx	r7
    297c:	2006      	movs	r0, #6
    297e:	47b0      	blx	r6
    2980:	0940      	lsrs	r0, r0, #5
    2982:	4643      	mov	r3, r8
    2984:	4018      	ands	r0, r3
    2986:	40a0      	lsls	r0, r4
    2988:	4305      	orrs	r5, r0
    298a:	b2ad      	uxth	r5, r5
    298c:	3402      	adds	r4, #2
    298e:	2c10      	cmp	r4, #16
    2990:	d1f2      	bne.n	2978 <PHY_RandomReq+0x18>
    2992:	4b06      	ldr	r3, [pc, #24]	; (29ac <PHY_RandomReq+0x4c>)
    2994:	4798      	blx	r3
    2996:	0028      	movs	r0, r5
    2998:	bc04      	pop	{r2}
    299a:	4690      	mov	r8, r2
    299c:	bdf0      	pop	{r4, r5, r6, r7, pc}
    299e:	46c0      	nop			; (mov r8, r8)
    29a0:	000028a1 	.word	0x000028a1
    29a4:	00000155 	.word	0x00000155
    29a8:	00003861 	.word	0x00003861
    29ac:	000028dd 	.word	0x000028dd

000029b0 <PHY_Init>:
    29b0:	b570      	push	{r4, r5, r6, lr}
    29b2:	4b0d      	ldr	r3, [pc, #52]	; (29e8 <PHY_Init+0x38>)
    29b4:	4798      	blx	r3
    29b6:	4b0d      	ldr	r3, [pc, #52]	; (29ec <PHY_Init+0x3c>)
    29b8:	4798      	blx	r3
    29ba:	2200      	movs	r2, #0
    29bc:	4b0c      	ldr	r3, [pc, #48]	; (29f0 <PHY_Init+0x40>)
    29be:	701a      	strb	r2, [r3, #0]
    29c0:	4e0c      	ldr	r6, [pc, #48]	; (29f4 <PHY_Init+0x44>)
    29c2:	4d0d      	ldr	r5, [pc, #52]	; (29f8 <PHY_Init+0x48>)
    29c4:	241f      	movs	r4, #31
    29c6:	2108      	movs	r1, #8
    29c8:	2002      	movs	r0, #2
    29ca:	47b0      	blx	r6
    29cc:	2001      	movs	r0, #1
    29ce:	47a8      	blx	r5
    29d0:	4020      	ands	r0, r4
    29d2:	2808      	cmp	r0, #8
    29d4:	d1f7      	bne.n	29c6 <PHY_Init+0x16>
    29d6:	212e      	movs	r1, #46	; 0x2e
    29d8:	3804      	subs	r0, #4
    29da:	4c06      	ldr	r4, [pc, #24]	; (29f4 <PHY_Init+0x44>)
    29dc:	47a0      	blx	r4
    29de:	21a0      	movs	r1, #160	; 0xa0
    29e0:	200c      	movs	r0, #12
    29e2:	47a0      	blx	r4
    29e4:	bd70      	pop	{r4, r5, r6, pc}
    29e6:	46c0      	nop			; (mov r8, r8)
    29e8:	00003715 	.word	0x00003715
    29ec:	00003831 	.word	0x00003831
    29f0:	2000029c 	.word	0x2000029c
    29f4:	0000395d 	.word	0x0000395d
    29f8:	00003861 	.word	0x00003861

000029fc <PHY_SetRxState>:
    29fc:	b510      	push	{r4, lr}
    29fe:	4b02      	ldr	r3, [pc, #8]	; (2a08 <PHY_SetRxState+0xc>)
    2a00:	7018      	strb	r0, [r3, #0]
    2a02:	4b02      	ldr	r3, [pc, #8]	; (2a0c <PHY_SetRxState+0x10>)
    2a04:	4798      	blx	r3
    2a06:	bd10      	pop	{r4, pc}
    2a08:	2000029c 	.word	0x2000029c
    2a0c:	000028dd 	.word	0x000028dd

00002a10 <PHY_SetChannel>:
    2a10:	b510      	push	{r4, lr}
    2a12:	0004      	movs	r4, r0
    2a14:	2008      	movs	r0, #8
    2a16:	4b05      	ldr	r3, [pc, #20]	; (2a2c <PHY_SetChannel+0x1c>)
    2a18:	4798      	blx	r3
    2a1a:	231f      	movs	r3, #31
    2a1c:	0001      	movs	r1, r0
    2a1e:	4399      	bics	r1, r3
    2a20:	4321      	orrs	r1, r4
    2a22:	b2c9      	uxtb	r1, r1
    2a24:	2008      	movs	r0, #8
    2a26:	4b02      	ldr	r3, [pc, #8]	; (2a30 <PHY_SetChannel+0x20>)
    2a28:	4798      	blx	r3
    2a2a:	bd10      	pop	{r4, pc}
    2a2c:	00003861 	.word	0x00003861
    2a30:	0000395d 	.word	0x0000395d

00002a34 <PHY_SetPanId>:
    2a34:	b530      	push	{r4, r5, lr}
    2a36:	b083      	sub	sp, #12
    2a38:	466b      	mov	r3, sp
    2a3a:	1d9d      	adds	r5, r3, #6
    2a3c:	80d8      	strh	r0, [r3, #6]
    2a3e:	b2c1      	uxtb	r1, r0
    2a40:	2022      	movs	r0, #34	; 0x22
    2a42:	4c03      	ldr	r4, [pc, #12]	; (2a50 <PHY_SetPanId+0x1c>)
    2a44:	47a0      	blx	r4
    2a46:	7869      	ldrb	r1, [r5, #1]
    2a48:	2023      	movs	r0, #35	; 0x23
    2a4a:	47a0      	blx	r4
    2a4c:	b003      	add	sp, #12
    2a4e:	bd30      	pop	{r4, r5, pc}
    2a50:	0000395d 	.word	0x0000395d

00002a54 <PHY_SetShortAddr>:
    2a54:	b570      	push	{r4, r5, r6, lr}
    2a56:	b082      	sub	sp, #8
    2a58:	466b      	mov	r3, sp
    2a5a:	1d9e      	adds	r6, r3, #6
    2a5c:	80d8      	strh	r0, [r3, #6]
    2a5e:	b2c4      	uxtb	r4, r0
    2a60:	0021      	movs	r1, r4
    2a62:	2020      	movs	r0, #32
    2a64:	4d05      	ldr	r5, [pc, #20]	; (2a7c <PHY_SetShortAddr+0x28>)
    2a66:	47a8      	blx	r5
    2a68:	7876      	ldrb	r6, [r6, #1]
    2a6a:	0031      	movs	r1, r6
    2a6c:	2021      	movs	r0, #33	; 0x21
    2a6e:	47a8      	blx	r5
    2a70:	19a4      	adds	r4, r4, r6
    2a72:	b2e1      	uxtb	r1, r4
    2a74:	202d      	movs	r0, #45	; 0x2d
    2a76:	47a8      	blx	r5
    2a78:	b002      	add	sp, #8
    2a7a:	bd70      	pop	{r4, r5, r6, pc}
    2a7c:	0000395d 	.word	0x0000395d

00002a80 <PHY_Sleep>:
    2a80:	b510      	push	{r4, lr}
    2a82:	2008      	movs	r0, #8
    2a84:	4b04      	ldr	r3, [pc, #16]	; (2a98 <PHY_Sleep+0x18>)
    2a86:	4798      	blx	r3
    2a88:	2280      	movs	r2, #128	; 0x80
    2a8a:	0352      	lsls	r2, r2, #13
    2a8c:	4b03      	ldr	r3, [pc, #12]	; (2a9c <PHY_Sleep+0x1c>)
    2a8e:	619a      	str	r2, [r3, #24]
    2a90:	2202      	movs	r2, #2
    2a92:	4b03      	ldr	r3, [pc, #12]	; (2aa0 <PHY_Sleep+0x20>)
    2a94:	701a      	strb	r2, [r3, #0]
    2a96:	bd10      	pop	{r4, pc}
    2a98:	000028a1 	.word	0x000028a1
    2a9c:	41004400 	.word	0x41004400
    2aa0:	2000029d 	.word	0x2000029d

00002aa4 <PHY_SetIEEEAddr>:
    2aa4:	b570      	push	{r4, r5, r6, lr}
    2aa6:	0005      	movs	r5, r0
    2aa8:	2424      	movs	r4, #36	; 0x24
    2aaa:	4e05      	ldr	r6, [pc, #20]	; (2ac0 <PHY_SetIEEEAddr+0x1c>)
    2aac:	7829      	ldrb	r1, [r5, #0]
    2aae:	0020      	movs	r0, r4
    2ab0:	47b0      	blx	r6
    2ab2:	3501      	adds	r5, #1
    2ab4:	3401      	adds	r4, #1
    2ab6:	b2e4      	uxtb	r4, r4
    2ab8:	2c2c      	cmp	r4, #44	; 0x2c
    2aba:	d1f7      	bne.n	2aac <PHY_SetIEEEAddr+0x8>
    2abc:	bd70      	pop	{r4, r5, r6, pc}
    2abe:	46c0      	nop			; (mov r8, r8)
    2ac0:	0000395d 	.word	0x0000395d

00002ac4 <PHY_TaskHandler>:
    2ac4:	b570      	push	{r4, r5, r6, lr}
    2ac6:	b082      	sub	sp, #8
    2ac8:	4b36      	ldr	r3, [pc, #216]	; (2ba4 <PHY_TaskHandler+0xe0>)
    2aca:	781b      	ldrb	r3, [r3, #0]
    2acc:	2b02      	cmp	r3, #2
    2ace:	d00a      	beq.n	2ae6 <PHY_TaskHandler+0x22>
    2ad0:	200f      	movs	r0, #15
    2ad2:	4b35      	ldr	r3, [pc, #212]	; (2ba8 <PHY_TaskHandler+0xe4>)
    2ad4:	4798      	blx	r3
    2ad6:	0703      	lsls	r3, r0, #28
    2ad8:	d505      	bpl.n	2ae6 <PHY_TaskHandler+0x22>
    2ada:	4b32      	ldr	r3, [pc, #200]	; (2ba4 <PHY_TaskHandler+0xe0>)
    2adc:	781b      	ldrb	r3, [r3, #0]
    2ade:	2b01      	cmp	r3, #1
    2ae0:	d003      	beq.n	2aea <PHY_TaskHandler+0x26>
    2ae2:	2b03      	cmp	r3, #3
    2ae4:	d045      	beq.n	2b72 <PHY_TaskHandler+0xae>
    2ae6:	b002      	add	sp, #8
    2ae8:	bd70      	pop	{r4, r5, r6, pc}
    2aea:	4b30      	ldr	r3, [pc, #192]	; (2bac <PHY_TaskHandler+0xe8>)
    2aec:	781c      	ldrb	r4, [r3, #0]
    2aee:	2c00      	cmp	r4, #0
    2af0:	d010      	beq.n	2b14 <PHY_TaskHandler+0x50>
    2af2:	237f      	movs	r3, #127	; 0x7f
    2af4:	4a2d      	ldr	r2, [pc, #180]	; (2bac <PHY_TaskHandler+0xe8>)
    2af6:	5cd3      	ldrb	r3, [r2, r3]
    2af8:	2b00      	cmp	r3, #0
    2afa:	d00a      	beq.n	2b12 <PHY_TaskHandler+0x4e>
    2afc:	23fe      	movs	r3, #254	; 0xfe
    2afe:	5cd3      	ldrb	r3, [r2, r3]
    2b00:	2b00      	cmp	r3, #0
    2b02:	d024      	beq.n	2b4e <PHY_TaskHandler+0x8a>
    2b04:	237e      	movs	r3, #126	; 0x7e
    2b06:	33ff      	adds	r3, #255	; 0xff
    2b08:	5cd3      	ldrb	r3, [r2, r3]
    2b0a:	2403      	movs	r4, #3
    2b0c:	2b00      	cmp	r3, #0
    2b0e:	d1ea      	bne.n	2ae6 <PHY_TaskHandler+0x22>
    2b10:	e000      	b.n	2b14 <PHY_TaskHandler+0x50>
    2b12:	2401      	movs	r4, #1
    2b14:	466b      	mov	r3, sp
    2b16:	1ddd      	adds	r5, r3, #7
    2b18:	2101      	movs	r1, #1
    2b1a:	0028      	movs	r0, r5
    2b1c:	4e24      	ldr	r6, [pc, #144]	; (2bb0 <PHY_TaskHandler+0xec>)
    2b1e:	47b0      	blx	r6
    2b20:	7829      	ldrb	r1, [r5, #0]
    2b22:	3102      	adds	r1, #2
    2b24:	b2c9      	uxtb	r1, r1
    2b26:	4823      	ldr	r0, [pc, #140]	; (2bb4 <PHY_TaskHandler+0xf0>)
    2b28:	47b0      	blx	r6
    2b2a:	0021      	movs	r1, r4
    2b2c:	7828      	ldrb	r0, [r5, #0]
    2b2e:	1c83      	adds	r3, r0, #2
    2b30:	b2db      	uxtb	r3, r3
    2b32:	01e2      	lsls	r2, r4, #7
    2b34:	1b14      	subs	r4, r2, r4
    2b36:	4a1d      	ldr	r2, [pc, #116]	; (2bac <PHY_TaskHandler+0xe8>)
    2b38:	54a3      	strb	r3, [r4, r2]
    2b3a:	2b7d      	cmp	r3, #125	; 0x7d
    2b3c:	d909      	bls.n	2b52 <PHY_TaskHandler+0x8e>
    2b3e:	4d1a      	ldr	r5, [pc, #104]	; (2ba8 <PHY_TaskHandler+0xe4>)
    2b40:	241f      	movs	r4, #31
    2b42:	2001      	movs	r0, #1
    2b44:	47a8      	blx	r5
    2b46:	4020      	ands	r0, r4
    2b48:	2816      	cmp	r0, #22
    2b4a:	d1fa      	bne.n	2b42 <PHY_TaskHandler+0x7e>
    2b4c:	e7cb      	b.n	2ae6 <PHY_TaskHandler+0x22>
    2b4e:	2402      	movs	r4, #2
    2b50:	e7e0      	b.n	2b14 <PHY_TaskHandler+0x50>
    2b52:	3002      	adds	r0, #2
    2b54:	2201      	movs	r2, #1
    2b56:	2301      	movs	r3, #1
    2b58:	01cc      	lsls	r4, r1, #7
    2b5a:	1a61      	subs	r1, r4, r1
    2b5c:	4c13      	ldr	r4, [pc, #76]	; (2bac <PHY_TaskHandler+0xe8>)
    2b5e:	1864      	adds	r4, r4, r1
    2b60:	4d14      	ldr	r5, [pc, #80]	; (2bb4 <PHY_TaskHandler+0xf0>)
    2b62:	5ca9      	ldrb	r1, [r5, r2]
    2b64:	54a1      	strb	r1, [r4, r2]
    2b66:	3301      	adds	r3, #1
    2b68:	b2db      	uxtb	r3, r3
    2b6a:	001a      	movs	r2, r3
    2b6c:	4283      	cmp	r3, r0
    2b6e:	ddf8      	ble.n	2b62 <PHY_TaskHandler+0x9e>
    2b70:	e7e5      	b.n	2b3e <PHY_TaskHandler+0x7a>
    2b72:	2002      	movs	r0, #2
    2b74:	4b0c      	ldr	r3, [pc, #48]	; (2ba8 <PHY_TaskHandler+0xe4>)
    2b76:	4798      	blx	r3
    2b78:	0940      	lsrs	r0, r0, #5
    2b7a:	b2c4      	uxtb	r4, r0
    2b7c:	2c00      	cmp	r4, #0
    2b7e:	d004      	beq.n	2b8a <PHY_TaskHandler+0xc6>
    2b80:	2c03      	cmp	r4, #3
    2b82:	d00b      	beq.n	2b9c <PHY_TaskHandler+0xd8>
    2b84:	2c05      	cmp	r4, #5
    2b86:	d00b      	beq.n	2ba0 <PHY_TaskHandler+0xdc>
    2b88:	2401      	movs	r4, #1
    2b8a:	4b0b      	ldr	r3, [pc, #44]	; (2bb8 <PHY_TaskHandler+0xf4>)
    2b8c:	4798      	blx	r3
    2b8e:	2201      	movs	r2, #1
    2b90:	4b04      	ldr	r3, [pc, #16]	; (2ba4 <PHY_TaskHandler+0xe0>)
    2b92:	701a      	strb	r2, [r3, #0]
    2b94:	0020      	movs	r0, r4
    2b96:	4b09      	ldr	r3, [pc, #36]	; (2bbc <PHY_TaskHandler+0xf8>)
    2b98:	4798      	blx	r3
    2b9a:	e7a4      	b.n	2ae6 <PHY_TaskHandler+0x22>
    2b9c:	2402      	movs	r4, #2
    2b9e:	e7f4      	b.n	2b8a <PHY_TaskHandler+0xc6>
    2ba0:	2403      	movs	r4, #3
    2ba2:	e7f2      	b.n	2b8a <PHY_TaskHandler+0xc6>
    2ba4:	2000029d 	.word	0x2000029d
    2ba8:	00003861 	.word	0x00003861
    2bac:	20000454 	.word	0x20000454
    2bb0:	00003a5d 	.word	0x00003a5d
    2bb4:	2000021c 	.word	0x2000021c
    2bb8:	000028dd 	.word	0x000028dd
    2bbc:	00002845 	.word	0x00002845

00002bc0 <stb_init>:
    2bc0:	b510      	push	{r4, lr}
    2bc2:	4b01      	ldr	r3, [pc, #4]	; (2bc8 <stb_init+0x8>)
    2bc4:	4798      	blx	r3
    2bc6:	bd10      	pop	{r4, pc}
    2bc8:	000034e9 	.word	0x000034e9

00002bcc <stb_ccm_secure>:
    2bcc:	b5f0      	push	{r4, r5, r6, r7, lr}
    2bce:	46de      	mov	lr, fp
    2bd0:	4657      	mov	r7, sl
    2bd2:	464e      	mov	r6, r9
    2bd4:	4645      	mov	r5, r8
    2bd6:	b5e0      	push	{r5, r6, r7, lr}
    2bd8:	b08b      	sub	sp, #44	; 0x2c
    2bda:	9003      	str	r0, [sp, #12]
    2bdc:	000d      	movs	r5, r1
    2bde:	0014      	movs	r4, r2
    2be0:	9304      	str	r3, [sp, #16]
    2be2:	ab14      	add	r3, sp, #80	; 0x50
    2be4:	781e      	ldrb	r6, [r3, #0]
    2be6:	ab15      	add	r3, sp, #84	; 0x54
    2be8:	781f      	ldrb	r7, [r3, #0]
    2bea:	ab16      	add	r3, sp, #88	; 0x58
    2bec:	781b      	ldrb	r3, [r3, #0]
    2bee:	469a      	mov	sl, r3
    2bf0:	4b77      	ldr	r3, [pc, #476]	; (2dd0 <stb_ccm_secure+0x204>)
    2bf2:	781b      	ldrb	r3, [r3, #0]
    2bf4:	2b00      	cmp	r3, #0
    2bf6:	d007      	beq.n	2c08 <stb_ccm_secure+0x3c>
    2bf8:	2202      	movs	r2, #2
    2bfa:	4b76      	ldr	r3, [pc, #472]	; (2dd4 <stb_ccm_secure+0x208>)
    2bfc:	701a      	strb	r2, [r3, #0]
    2bfe:	4b76      	ldr	r3, [pc, #472]	; (2dd8 <stb_ccm_secure+0x20c>)
    2c00:	4798      	blx	r3
    2c02:	2200      	movs	r2, #0
    2c04:	4b72      	ldr	r3, [pc, #456]	; (2dd0 <stb_ccm_secure+0x204>)
    2c06:	701a      	strb	r2, [r3, #0]
    2c08:	2f07      	cmp	r7, #7
    2c0a:	d817      	bhi.n	2c3c <stb_ccm_secure+0x70>
    2c0c:	00bb      	lsls	r3, r7, #2
    2c0e:	4a73      	ldr	r2, [pc, #460]	; (2ddc <stb_ccm_secure+0x210>)
    2c10:	58d3      	ldr	r3, [r2, r3]
    2c12:	469f      	mov	pc, r3
    2c14:	2300      	movs	r3, #0
    2c16:	4698      	mov	r8, r3
    2c18:	2708      	movs	r7, #8
    2c1a:	e0bb      	b.n	2d94 <stb_ccm_secure+0x1c8>
    2c1c:	2301      	movs	r3, #1
    2c1e:	4698      	mov	r8, r3
    2c20:	2700      	movs	r7, #0
    2c22:	e0b7      	b.n	2d94 <stb_ccm_secure+0x1c8>
    2c24:	2301      	movs	r3, #1
    2c26:	4698      	mov	r8, r3
    2c28:	2704      	movs	r7, #4
    2c2a:	e0b3      	b.n	2d94 <stb_ccm_secure+0x1c8>
    2c2c:	2301      	movs	r3, #1
    2c2e:	4698      	mov	r8, r3
    2c30:	2708      	movs	r7, #8
    2c32:	e0af      	b.n	2d94 <stb_ccm_secure+0x1c8>
    2c34:	2301      	movs	r3, #1
    2c36:	4698      	mov	r8, r3
    2c38:	2710      	movs	r7, #16
    2c3a:	e0ab      	b.n	2d94 <stb_ccm_secure+0x1c8>
    2c3c:	2307      	movs	r3, #7
    2c3e:	439f      	bics	r7, r3
    2c40:	d000      	beq.n	2c44 <stb_ccm_secure+0x78>
    2c42:	e0b5      	b.n	2db0 <stb_ccm_secure+0x1e4>
    2c44:	46b8      	mov	r8, r7
    2c46:	e0a5      	b.n	2d94 <stb_ccm_secure+0x1c8>
    2c48:	4b65      	ldr	r3, [pc, #404]	; (2de0 <stb_ccm_secure+0x214>)
    2c4a:	4798      	blx	r3
    2c4c:	e0b5      	b.n	2dba <stb_ccm_secure+0x1ee>
    2c4e:	4b65      	ldr	r3, [pc, #404]	; (2de4 <stb_ccm_secure+0x218>)
    2c50:	781b      	ldrb	r3, [r3, #0]
    2c52:	2b00      	cmp	r3, #0
    2c54:	d01a      	beq.n	2c8c <stb_ccm_secure+0xc0>
    2c56:	2c00      	cmp	r4, #0
    2c58:	d00d      	beq.n	2c76 <stb_ccm_secure+0xaa>
    2c5a:	2200      	movs	r2, #0
    2c5c:	2100      	movs	r1, #0
    2c5e:	0020      	movs	r0, r4
    2c60:	4b61      	ldr	r3, [pc, #388]	; (2de8 <stb_ccm_secure+0x21c>)
    2c62:	4798      	blx	r3
    2c64:	2210      	movs	r2, #16
    2c66:	0021      	movs	r1, r4
    2c68:	4860      	ldr	r0, [pc, #384]	; (2dec <stb_ccm_secure+0x220>)
    2c6a:	4b61      	ldr	r3, [pc, #388]	; (2df0 <stb_ccm_secure+0x224>)
    2c6c:	4798      	blx	r3
    2c6e:	2200      	movs	r2, #0
    2c70:	4b5c      	ldr	r3, [pc, #368]	; (2de4 <stb_ccm_secure+0x218>)
    2c72:	701a      	strb	r2, [r3, #0]
    2c74:	e01e      	b.n	2cb4 <stb_ccm_secure+0xe8>
    2c76:	4b57      	ldr	r3, [pc, #348]	; (2dd4 <stb_ccm_secure+0x208>)
    2c78:	781b      	ldrb	r3, [r3, #0]
    2c7a:	2b01      	cmp	r3, #1
    2c7c:	d003      	beq.n	2c86 <stb_ccm_secure+0xba>
    2c7e:	4b5d      	ldr	r3, [pc, #372]	; (2df4 <stb_ccm_secure+0x228>)
    2c80:	4798      	blx	r3
    2c82:	2002      	movs	r0, #2
    2c84:	e09c      	b.n	2dc0 <stb_ccm_secure+0x1f4>
    2c86:	4b56      	ldr	r3, [pc, #344]	; (2de0 <stb_ccm_secure+0x214>)
    2c88:	4798      	blx	r3
    2c8a:	e7f8      	b.n	2c7e <stb_ccm_secure+0xb2>
    2c8c:	2c00      	cmp	r4, #0
    2c8e:	d011      	beq.n	2cb4 <stb_ccm_secure+0xe8>
    2c90:	220f      	movs	r2, #15
    2c92:	4956      	ldr	r1, [pc, #344]	; (2dec <stb_ccm_secure+0x220>)
    2c94:	0018      	movs	r0, r3
    2c96:	46ac      	mov	ip, r5
    2c98:	5c53      	ldrb	r3, [r2, r1]
    2c9a:	5ca5      	ldrb	r5, [r4, r2]
    2c9c:	406b      	eors	r3, r5
    2c9e:	4303      	orrs	r3, r0
    2ca0:	1e58      	subs	r0, r3, #1
    2ca2:	4183      	sbcs	r3, r0
    2ca4:	b2d8      	uxtb	r0, r3
    2ca6:	3a01      	subs	r2, #1
    2ca8:	d2f6      	bcs.n	2c98 <stb_ccm_secure+0xcc>
    2caa:	4665      	mov	r5, ip
    2cac:	4a4d      	ldr	r2, [pc, #308]	; (2de4 <stb_ccm_secure+0x218>)
    2cae:	7010      	strb	r0, [r2, #0]
    2cb0:	2800      	cmp	r0, #0
    2cb2:	d1d2      	bne.n	2c5a <stb_ccm_secure+0x8e>
    2cb4:	2f00      	cmp	r7, #0
    2cb6:	d129      	bne.n	2d0c <stb_ccm_secure+0x140>
    2cb8:	2301      	movs	r3, #1
    2cba:	702b      	strb	r3, [r5, #0]
    2cbc:	9b04      	ldr	r3, [sp, #16]
    2cbe:	2b00      	cmp	r3, #0
    2cc0:	d003      	beq.n	2cca <stb_ccm_secure+0xfe>
    2cc2:	782b      	ldrb	r3, [r5, #0]
    2cc4:	2240      	movs	r2, #64	; 0x40
    2cc6:	4313      	orrs	r3, r2
    2cc8:	702b      	strb	r3, [r5, #0]
    2cca:	782b      	ldrb	r3, [r5, #0]
    2ccc:	4699      	mov	r9, r3
    2cce:	2300      	movs	r3, #0
    2cd0:	73ab      	strb	r3, [r5, #14]
    2cd2:	4653      	mov	r3, sl
    2cd4:	2b00      	cmp	r3, #0
    2cd6:	d12a      	bne.n	2d2e <stb_ccm_secure+0x162>
    2cd8:	2f00      	cmp	r7, #0
    2cda:	d003      	beq.n	2ce4 <stb_ccm_secure+0x118>
    2cdc:	73ee      	strb	r6, [r5, #15]
    2cde:	4643      	mov	r3, r8
    2ce0:	2b01      	cmp	r3, #1
    2ce2:	d01a      	beq.n	2d1a <stb_ccm_secure+0x14e>
    2ce4:	2301      	movs	r3, #1
    2ce6:	702b      	strb	r3, [r5, #0]
    2ce8:	9b03      	ldr	r3, [sp, #12]
    2cea:	9a04      	ldr	r2, [sp, #16]
    2cec:	4694      	mov	ip, r2
    2cee:	4463      	add	r3, ip
    2cf0:	0018      	movs	r0, r3
    2cf2:	0033      	movs	r3, r6
    2cf4:	003a      	movs	r2, r7
    2cf6:	0029      	movs	r1, r5
    2cf8:	4c3f      	ldr	r4, [pc, #252]	; (2df8 <stb_ccm_secure+0x22c>)
    2cfa:	47a0      	blx	r4
    2cfc:	4b35      	ldr	r3, [pc, #212]	; (2dd4 <stb_ccm_secure+0x208>)
    2cfe:	781b      	ldrb	r3, [r3, #0]
    2d00:	2b01      	cmp	r3, #1
    2d02:	d03d      	beq.n	2d80 <stb_ccm_secure+0x1b4>
    2d04:	4b3b      	ldr	r3, [pc, #236]	; (2df4 <stb_ccm_secure+0x228>)
    2d06:	4798      	blx	r3
    2d08:	2000      	movs	r0, #0
    2d0a:	e059      	b.n	2dc0 <stb_ccm_secure+0x1f4>
    2d0c:	9b05      	ldr	r3, [sp, #20]
    2d0e:	3b02      	subs	r3, #2
    2d10:	009b      	lsls	r3, r3, #2
    2d12:	2201      	movs	r2, #1
    2d14:	4313      	orrs	r3, r2
    2d16:	702b      	strb	r3, [r5, #0]
    2d18:	e7d0      	b.n	2cbc <stb_ccm_secure+0xf0>
    2d1a:	9b04      	ldr	r3, [sp, #16]
    2d1c:	1999      	adds	r1, r3, r6
    2d1e:	9803      	ldr	r0, [sp, #12]
    2d20:	4684      	mov	ip, r0
    2d22:	4461      	add	r1, ip
    2d24:	9600      	str	r6, [sp, #0]
    2d26:	002a      	movs	r2, r5
    2d28:	4c34      	ldr	r4, [pc, #208]	; (2dfc <stb_ccm_secure+0x230>)
    2d2a:	47a0      	blx	r4
    2d2c:	e7da      	b.n	2ce4 <stb_ccm_secure+0x118>
    2d2e:	4643      	mov	r3, r8
    2d30:	2b01      	cmp	r3, #1
    2d32:	d00d      	beq.n	2d50 <stb_ccm_secure+0x184>
    2d34:	2f00      	cmp	r7, #0
    2d36:	d0e1      	beq.n	2cfc <stb_ccm_secure+0x130>
    2d38:	73ee      	strb	r6, [r5, #15]
    2d3a:	9b03      	ldr	r3, [sp, #12]
    2d3c:	445b      	add	r3, fp
    2d3e:	0018      	movs	r0, r3
    2d40:	003a      	movs	r2, r7
    2d42:	a906      	add	r1, sp, #24
    2d44:	4b2e      	ldr	r3, [pc, #184]	; (2e00 <stb_ccm_secure+0x234>)
    2d46:	4798      	blx	r3
    2d48:	2800      	cmp	r0, #0
    2d4a:	d0d7      	beq.n	2cfc <stb_ccm_secure+0x130>
    2d4c:	2003      	movs	r0, #3
    2d4e:	e037      	b.n	2dc0 <stb_ccm_secure+0x1f4>
    2d50:	702b      	strb	r3, [r5, #0]
    2d52:	9b03      	ldr	r3, [sp, #12]
    2d54:	9a04      	ldr	r2, [sp, #16]
    2d56:	4694      	mov	ip, r2
    2d58:	4463      	add	r3, ip
    2d5a:	0018      	movs	r0, r3
    2d5c:	0033      	movs	r3, r6
    2d5e:	003a      	movs	r2, r7
    2d60:	0029      	movs	r1, r5
    2d62:	4c25      	ldr	r4, [pc, #148]	; (2df8 <stb_ccm_secure+0x22c>)
    2d64:	47a0      	blx	r4
    2d66:	2f00      	cmp	r7, #0
    2d68:	d0c8      	beq.n	2cfc <stb_ccm_secure+0x130>
    2d6a:	464b      	mov	r3, r9
    2d6c:	702b      	strb	r3, [r5, #0]
    2d6e:	73ee      	strb	r6, [r5, #15]
    2d70:	9600      	str	r6, [sp, #0]
    2d72:	9b04      	ldr	r3, [sp, #16]
    2d74:	002a      	movs	r2, r5
    2d76:	a906      	add	r1, sp, #24
    2d78:	9803      	ldr	r0, [sp, #12]
    2d7a:	4c20      	ldr	r4, [pc, #128]	; (2dfc <stb_ccm_secure+0x230>)
    2d7c:	47a0      	blx	r4
    2d7e:	e7dc      	b.n	2d3a <stb_ccm_secure+0x16e>
    2d80:	4b17      	ldr	r3, [pc, #92]	; (2de0 <stb_ccm_secure+0x214>)
    2d82:	4798      	blx	r3
    2d84:	e7be      	b.n	2d04 <stb_ccm_secure+0x138>
    2d86:	2300      	movs	r3, #0
    2d88:	4698      	mov	r8, r3
    2d8a:	2704      	movs	r7, #4
    2d8c:	e002      	b.n	2d94 <stb_ccm_secure+0x1c8>
    2d8e:	2300      	movs	r3, #0
    2d90:	4698      	mov	r8, r3
    2d92:	2710      	movs	r7, #16
    2d94:	9b03      	ldr	r3, [sp, #12]
    2d96:	2b00      	cmp	r3, #0
    2d98:	d00a      	beq.n	2db0 <stb_ccm_secure+0x1e4>
    2d9a:	2d00      	cmp	r5, #0
    2d9c:	d008      	beq.n	2db0 <stb_ccm_secure+0x1e4>
    2d9e:	9b04      	ldr	r3, [sp, #16]
    2da0:	469b      	mov	fp, r3
    2da2:	44b3      	add	fp, r6
    2da4:	9705      	str	r7, [sp, #20]
    2da6:	465b      	mov	r3, fp
    2da8:	19db      	adds	r3, r3, r7
    2daa:	2b7f      	cmp	r3, #127	; 0x7f
    2dac:	dc00      	bgt.n	2db0 <stb_ccm_secure+0x1e4>
    2dae:	e74e      	b.n	2c4e <stb_ccm_secure+0x82>
    2db0:	4b08      	ldr	r3, [pc, #32]	; (2dd4 <stb_ccm_secure+0x208>)
    2db2:	781b      	ldrb	r3, [r3, #0]
    2db4:	2b01      	cmp	r3, #1
    2db6:	d100      	bne.n	2dba <stb_ccm_secure+0x1ee>
    2db8:	e746      	b.n	2c48 <stb_ccm_secure+0x7c>
    2dba:	4b0e      	ldr	r3, [pc, #56]	; (2df4 <stb_ccm_secure+0x228>)
    2dbc:	4798      	blx	r3
    2dbe:	2001      	movs	r0, #1
    2dc0:	b00b      	add	sp, #44	; 0x2c
    2dc2:	bc3c      	pop	{r2, r3, r4, r5}
    2dc4:	4690      	mov	r8, r2
    2dc6:	4699      	mov	r9, r3
    2dc8:	46a2      	mov	sl, r4
    2dca:	46ab      	mov	fp, r5
    2dcc:	bdf0      	pop	{r4, r5, r6, r7, pc}
    2dce:	46c0      	nop			; (mov r8, r8)
    2dd0:	200002b1 	.word	0x200002b1
    2dd4:	200002b0 	.word	0x200002b0
    2dd8:	000034ed 	.word	0x000034ed
    2ddc:	0000a324 	.word	0x0000a324
    2de0:	00002a81 	.word	0x00002a81
    2de4:	2000006c 	.word	0x2000006c
    2de8:	000035ad 	.word	0x000035ad
    2dec:	200002a0 	.word	0x200002a0
    2df0:	000093ab 	.word	0x000093ab
    2df4:	0000353d 	.word	0x0000353d
    2df8:	00002ef5 	.word	0x00002ef5
    2dfc:	00002e69 	.word	0x00002e69
    2e00:	0000938d 	.word	0x0000938d

00002e04 <encrypt_with_padding>:
    2e04:	b5f0      	push	{r4, r5, r6, r7, lr}
    2e06:	b085      	sub	sp, #20
    2e08:	0004      	movs	r4, r0
    2e0a:	000e      	movs	r6, r1
    2e0c:	290f      	cmp	r1, #15
    2e0e:	d90f      	bls.n	2e30 <encrypt_with_padding+0x2c>
    2e10:	000d      	movs	r5, r1
    2e12:	3d10      	subs	r5, #16
    2e14:	b2ed      	uxtb	r5, r5
    2e16:	092d      	lsrs	r5, r5, #4
    2e18:	3501      	adds	r5, #1
    2e1a:	012d      	lsls	r5, r5, #4
    2e1c:	1945      	adds	r5, r0, r5
    2e1e:	4f0f      	ldr	r7, [pc, #60]	; (2e5c <encrypt_with_padding+0x58>)
    2e20:	2100      	movs	r1, #0
    2e22:	0020      	movs	r0, r4
    2e24:	47b8      	blx	r7
    2e26:	3410      	adds	r4, #16
    2e28:	42ac      	cmp	r4, r5
    2e2a:	d1f9      	bne.n	2e20 <encrypt_with_padding+0x1c>
    2e2c:	230f      	movs	r3, #15
    2e2e:	401e      	ands	r6, r3
    2e30:	2e00      	cmp	r6, #0
    2e32:	d101      	bne.n	2e38 <encrypt_with_padding+0x34>
    2e34:	b005      	add	sp, #20
    2e36:	bdf0      	pop	{r4, r5, r6, r7, pc}
    2e38:	0032      	movs	r2, r6
    2e3a:	0021      	movs	r1, r4
    2e3c:	4668      	mov	r0, sp
    2e3e:	4b08      	ldr	r3, [pc, #32]	; (2e60 <encrypt_with_padding+0x5c>)
    2e40:	4798      	blx	r3
    2e42:	2210      	movs	r2, #16
    2e44:	1b92      	subs	r2, r2, r6
    2e46:	0030      	movs	r0, r6
    2e48:	4468      	add	r0, sp
    2e4a:	2100      	movs	r1, #0
    2e4c:	4b05      	ldr	r3, [pc, #20]	; (2e64 <encrypt_with_padding+0x60>)
    2e4e:	4798      	blx	r3
    2e50:	2100      	movs	r1, #0
    2e52:	4668      	mov	r0, sp
    2e54:	4b01      	ldr	r3, [pc, #4]	; (2e5c <encrypt_with_padding+0x58>)
    2e56:	4798      	blx	r3
    2e58:	e7ec      	b.n	2e34 <encrypt_with_padding+0x30>
    2e5a:	46c0      	nop			; (mov r8, r8)
    2e5c:	00003541 	.word	0x00003541
    2e60:	000093ab 	.word	0x000093ab
    2e64:	000093bd 	.word	0x000093bd

00002e68 <compute_mic>:
    2e68:	b5f0      	push	{r4, r5, r6, r7, lr}
    2e6a:	b087      	sub	sp, #28
    2e6c:	0005      	movs	r5, r0
    2e6e:	9100      	str	r1, [sp, #0]
    2e70:	9201      	str	r2, [sp, #4]
    2e72:	001c      	movs	r4, r3
    2e74:	ab0c      	add	r3, sp, #48	; 0x30
    2e76:	781e      	ldrb	r6, [r3, #0]
    2e78:	2200      	movs	r2, #0
    2e7a:	2100      	movs	r1, #0
    2e7c:	2000      	movs	r0, #0
    2e7e:	4f18      	ldr	r7, [pc, #96]	; (2ee0 <compute_mic+0x78>)
    2e80:	47b8      	blx	r7
    2e82:	2100      	movs	r1, #0
    2e84:	9801      	ldr	r0, [sp, #4]
    2e86:	4b17      	ldr	r3, [pc, #92]	; (2ee4 <compute_mic+0x7c>)
    2e88:	4798      	blx	r3
    2e8a:	2200      	movs	r2, #0
    2e8c:	2102      	movs	r1, #2
    2e8e:	2000      	movs	r0, #0
    2e90:	47b8      	blx	r7
    2e92:	2c00      	cmp	r4, #0
    2e94:	d108      	bne.n	2ea8 <compute_mic+0x40>
    2e96:	1928      	adds	r0, r5, r4
    2e98:	0031      	movs	r1, r6
    2e9a:	4b13      	ldr	r3, [pc, #76]	; (2ee8 <compute_mic+0x80>)
    2e9c:	4798      	blx	r3
    2e9e:	9800      	ldr	r0, [sp, #0]
    2ea0:	4b12      	ldr	r3, [pc, #72]	; (2eec <compute_mic+0x84>)
    2ea2:	4798      	blx	r3
    2ea4:	b007      	add	sp, #28
    2ea6:	bdf0      	pop	{r4, r5, r6, r7, pc}
    2ea8:	1c27      	adds	r7, r4, #0
    2eaa:	2c0e      	cmp	r4, #14
    2eac:	d900      	bls.n	2eb0 <compute_mic+0x48>
    2eae:	270e      	movs	r7, #14
    2eb0:	b2ff      	uxtb	r7, r7
    2eb2:	2300      	movs	r3, #0
    2eb4:	aa02      	add	r2, sp, #8
    2eb6:	7013      	strb	r3, [r2, #0]
    2eb8:	0013      	movs	r3, r2
    2eba:	7054      	strb	r4, [r2, #1]
    2ebc:	003a      	movs	r2, r7
    2ebe:	0029      	movs	r1, r5
    2ec0:	1c98      	adds	r0, r3, #2
    2ec2:	4b0b      	ldr	r3, [pc, #44]	; (2ef0 <compute_mic+0x88>)
    2ec4:	4798      	blx	r3
    2ec6:	1cb9      	adds	r1, r7, #2
    2ec8:	b2c9      	uxtb	r1, r1
    2eca:	a802      	add	r0, sp, #8
    2ecc:	4b06      	ldr	r3, [pc, #24]	; (2ee8 <compute_mic+0x80>)
    2ece:	4798      	blx	r3
    2ed0:	42bc      	cmp	r4, r7
    2ed2:	d9e0      	bls.n	2e96 <compute_mic+0x2e>
    2ed4:	1be1      	subs	r1, r4, r7
    2ed6:	b2c9      	uxtb	r1, r1
    2ed8:	19e8      	adds	r0, r5, r7
    2eda:	4b03      	ldr	r3, [pc, #12]	; (2ee8 <compute_mic+0x80>)
    2edc:	4798      	blx	r3
    2ede:	e7da      	b.n	2e96 <compute_mic+0x2e>
    2ee0:	000035ad 	.word	0x000035ad
    2ee4:	00003541 	.word	0x00003541
    2ee8:	00002e05 	.word	0x00002e05
    2eec:	000036e5 	.word	0x000036e5
    2ef0:	000093ab 	.word	0x000093ab

00002ef4 <encrypt_pldmic>:
    2ef4:	b5f0      	push	{r4, r5, r6, r7, lr}
    2ef6:	46d6      	mov	lr, sl
    2ef8:	464f      	mov	r7, r9
    2efa:	4646      	mov	r6, r8
    2efc:	b5c0      	push	{r6, r7, lr}
    2efe:	b084      	sub	sp, #16
    2f00:	0004      	movs	r4, r0
    2f02:	000f      	movs	r7, r1
    2f04:	0016      	movs	r6, r2
    2f06:	001d      	movs	r5, r3
    2f08:	2200      	movs	r2, #0
    2f0a:	2100      	movs	r1, #0
    2f0c:	2000      	movs	r0, #0
    2f0e:	4b31      	ldr	r3, [pc, #196]	; (2fd4 <encrypt_pldmic+0xe0>)
    2f10:	4798      	blx	r3
    2f12:	2301      	movs	r3, #1
    2f14:	73fb      	strb	r3, [r7, #15]
    2f16:	2d00      	cmp	r5, #0
    2f18:	d106      	bne.n	2f28 <encrypt_pldmic+0x34>
    2f1a:	2301      	movs	r3, #1
    2f1c:	469a      	mov	sl, r3
    2f1e:	4b2e      	ldr	r3, [pc, #184]	; (2fd8 <encrypt_pldmic+0xe4>)
    2f20:	4699      	mov	r9, r3
    2f22:	4b2e      	ldr	r3, [pc, #184]	; (2fdc <encrypt_pldmic+0xe8>)
    2f24:	4698      	mov	r8, r3
    2f26:	e02e      	b.n	2f86 <encrypt_pldmic+0x92>
    2f28:	2100      	movs	r1, #0
    2f2a:	0038      	movs	r0, r7
    2f2c:	4b2b      	ldr	r3, [pc, #172]	; (2fdc <encrypt_pldmic+0xe8>)
    2f2e:	4798      	blx	r3
    2f30:	e7f3      	b.n	2f1a <encrypt_pldmic+0x26>
    2f32:	4668      	mov	r0, sp
    2f34:	47c8      	blx	r9
    2f36:	e02f      	b.n	2f98 <encrypt_pldmic+0xa4>
    2f38:	4653      	mov	r3, sl
    2f3a:	3301      	adds	r3, #1
    2f3c:	b2db      	uxtb	r3, r3
    2f3e:	469a      	mov	sl, r3
    2f40:	73fb      	strb	r3, [r7, #15]
    2f42:	4669      	mov	r1, sp
    2f44:	0038      	movs	r0, r7
    2f46:	4b25      	ldr	r3, [pc, #148]	; (2fdc <encrypt_pldmic+0xe8>)
    2f48:	4798      	blx	r3
    2f4a:	1c2b      	adds	r3, r5, #0
    2f4c:	2d10      	cmp	r5, #16
    2f4e:	d900      	bls.n	2f52 <encrypt_pldmic+0x5e>
    2f50:	2310      	movs	r3, #16
    2f52:	b2db      	uxtb	r3, r3
    2f54:	1e58      	subs	r0, r3, #1
    2f56:	b2c0      	uxtb	r0, r0
    2f58:	2b00      	cmp	r3, #0
    2f5a:	d105      	bne.n	2f68 <encrypt_pldmic+0x74>
    2f5c:	e011      	b.n	2f82 <encrypt_pldmic+0x8e>
    2f5e:	b2db      	uxtb	r3, r3
    2f60:	1e58      	subs	r0, r3, #1
    2f62:	b2c0      	uxtb	r0, r0
    2f64:	2b00      	cmp	r3, #0
    2f66:	d01c      	beq.n	2fa2 <encrypt_pldmic+0xae>
    2f68:	3001      	adds	r0, #1
    2f6a:	2300      	movs	r3, #0
    2f6c:	466a      	mov	r2, sp
    2f6e:	5c9a      	ldrb	r2, [r3, r2]
    2f70:	5ce1      	ldrb	r1, [r4, r3]
    2f72:	404a      	eors	r2, r1
    2f74:	54e2      	strb	r2, [r4, r3]
    2f76:	3301      	adds	r3, #1
    2f78:	4298      	cmp	r0, r3
    2f7a:	d1f7      	bne.n	2f6c <encrypt_pldmic+0x78>
    2f7c:	18e4      	adds	r4, r4, r3
    2f7e:	2d10      	cmp	r5, #16
    2f80:	d90f      	bls.n	2fa2 <encrypt_pldmic+0xae>
    2f82:	3d10      	subs	r5, #16
    2f84:	b2ed      	uxtb	r5, r5
    2f86:	2d10      	cmp	r5, #16
    2f88:	d8d6      	bhi.n	2f38 <encrypt_pldmic+0x44>
    2f8a:	2e00      	cmp	r6, #0
    2f8c:	d0d1      	beq.n	2f32 <encrypt_pldmic+0x3e>
    2f8e:	2300      	movs	r3, #0
    2f90:	73fb      	strb	r3, [r7, #15]
    2f92:	4669      	mov	r1, sp
    2f94:	0038      	movs	r0, r7
    2f96:	47c0      	blx	r8
    2f98:	1c2b      	adds	r3, r5, #0
    2f9a:	2d10      	cmp	r5, #16
    2f9c:	d9df      	bls.n	2f5e <encrypt_pldmic+0x6a>
    2f9e:	2310      	movs	r3, #16
    2fa0:	e7dd      	b.n	2f5e <encrypt_pldmic+0x6a>
    2fa2:	2e00      	cmp	r6, #0
    2fa4:	d105      	bne.n	2fb2 <encrypt_pldmic+0xbe>
    2fa6:	b004      	add	sp, #16
    2fa8:	bc1c      	pop	{r2, r3, r4}
    2faa:	4690      	mov	r8, r2
    2fac:	4699      	mov	r9, r3
    2fae:	46a2      	mov	sl, r4
    2fb0:	bdf0      	pop	{r4, r5, r6, r7, pc}
    2fb2:	4668      	mov	r0, sp
    2fb4:	4b08      	ldr	r3, [pc, #32]	; (2fd8 <encrypt_pldmic+0xe4>)
    2fb6:	4798      	blx	r3
    2fb8:	3e01      	subs	r6, #1
    2fba:	b2f2      	uxtb	r2, r6
    2fbc:	3201      	adds	r2, #1
    2fbe:	2300      	movs	r3, #0
    2fc0:	4669      	mov	r1, sp
    2fc2:	5c59      	ldrb	r1, [r3, r1]
    2fc4:	5ce0      	ldrb	r0, [r4, r3]
    2fc6:	4041      	eors	r1, r0
    2fc8:	54e1      	strb	r1, [r4, r3]
    2fca:	3301      	adds	r3, #1
    2fcc:	4293      	cmp	r3, r2
    2fce:	d1f7      	bne.n	2fc0 <encrypt_pldmic+0xcc>
    2fd0:	e7e9      	b.n	2fa6 <encrypt_pldmic+0xb2>
    2fd2:	46c0      	nop			; (mov r8, r8)
    2fd4:	000035ad 	.word	0x000035ad
    2fd8:	000036e5 	.word	0x000036e5
    2fdc:	00003541 	.word	0x00003541

00002fe0 <MiMem_Alloc>:
    2fe0:	b510      	push	{r4, lr}
    2fe2:	28a0      	cmp	r0, #160	; 0xa0
    2fe4:	d81c      	bhi.n	3020 <MiMem_Alloc+0x40>
    2fe6:	23a4      	movs	r3, #164	; 0xa4
    2fe8:	4a0e      	ldr	r2, [pc, #56]	; (3024 <MiMem_Alloc+0x44>)
    2fea:	5cd3      	ldrb	r3, [r2, r3]
    2fec:	2b00      	cmp	r3, #0
    2fee:	d00d      	beq.n	300c <MiMem_Alloc+0x2c>
    2ff0:	4b0d      	ldr	r3, [pc, #52]	; (3028 <MiMem_Alloc+0x48>)
    2ff2:	4a0e      	ldr	r2, [pc, #56]	; (302c <MiMem_Alloc+0x4c>)
    2ff4:	1898      	adds	r0, r3, r2
    2ff6:	2201      	movs	r2, #1
    2ff8:	0014      	movs	r4, r2
    2ffa:	7819      	ldrb	r1, [r3, #0]
    2ffc:	2900      	cmp	r1, #0
    2ffe:	d006      	beq.n	300e <MiMem_Alloc+0x2e>
    3000:	3201      	adds	r2, #1
    3002:	33a8      	adds	r3, #168	; 0xa8
    3004:	4283      	cmp	r3, r0
    3006:	d1f7      	bne.n	2ff8 <MiMem_Alloc+0x18>
    3008:	2000      	movs	r0, #0
    300a:	bd10      	pop	{r4, pc}
    300c:	2400      	movs	r4, #0
    300e:	20a8      	movs	r0, #168	; 0xa8
    3010:	4344      	muls	r4, r0
    3012:	4804      	ldr	r0, [pc, #16]	; (3024 <MiMem_Alloc+0x44>)
    3014:	1900      	adds	r0, r0, r4
    3016:	0003      	movs	r3, r0
    3018:	33a4      	adds	r3, #164	; 0xa4
    301a:	2201      	movs	r2, #1
    301c:	701a      	strb	r2, [r3, #0]
    301e:	e7f4      	b.n	300a <MiMem_Alloc+0x2a>
    3020:	2000      	movs	r0, #0
    3022:	e7f2      	b.n	300a <MiMem_Alloc+0x2a>
    3024:	20000c34 	.word	0x20000c34
    3028:	20000d80 	.word	0x20000d80
    302c:	00000c78 	.word	0x00000c78

00003030 <MiMem_Free>:
    3030:	b530      	push	{r4, r5, lr}
    3032:	4b0d      	ldr	r3, [pc, #52]	; (3068 <MiMem_Free+0x38>)
    3034:	2200      	movs	r2, #0
    3036:	e003      	b.n	3040 <MiMem_Free+0x10>
    3038:	3201      	adds	r2, #1
    303a:	33a8      	adds	r3, #168	; 0xa8
    303c:	2a14      	cmp	r2, #20
    303e:	d010      	beq.n	3062 <MiMem_Free+0x32>
    3040:	0015      	movs	r5, r2
    3042:	0019      	movs	r1, r3
    3044:	31a4      	adds	r1, #164	; 0xa4
    3046:	7809      	ldrb	r1, [r1, #0]
    3048:	2900      	cmp	r1, #0
    304a:	d0f5      	beq.n	3038 <MiMem_Free+0x8>
    304c:	4298      	cmp	r0, r3
    304e:	d1f3      	bne.n	3038 <MiMem_Free+0x8>
    3050:	23a8      	movs	r3, #168	; 0xa8
    3052:	435d      	muls	r5, r3
    3054:	4b04      	ldr	r3, [pc, #16]	; (3068 <MiMem_Free+0x38>)
    3056:	195d      	adds	r5, r3, r5
    3058:	35a4      	adds	r5, #164	; 0xa4
    305a:	2200      	movs	r2, #0
    305c:	702a      	strb	r2, [r5, #0]
    305e:	2000      	movs	r0, #0
    3060:	e000      	b.n	3064 <MiMem_Free+0x34>
    3062:	20ff      	movs	r0, #255	; 0xff
    3064:	bd30      	pop	{r4, r5, pc}
    3066:	46c0      	nop			; (mov r8, r8)
    3068:	20000c34 	.word	0x20000c34

0000306c <MiMem_PercentageOfFreeBuffers>:
    306c:	b510      	push	{r4, lr}
    306e:	4b0c      	ldr	r3, [pc, #48]	; (30a0 <MiMem_PercentageOfFreeBuffers+0x34>)
    3070:	22d2      	movs	r2, #210	; 0xd2
    3072:	0112      	lsls	r2, r2, #4
    3074:	1899      	adds	r1, r3, r2
    3076:	2000      	movs	r0, #0
    3078:	e002      	b.n	3080 <MiMem_PercentageOfFreeBuffers+0x14>
    307a:	33a8      	adds	r3, #168	; 0xa8
    307c:	428b      	cmp	r3, r1
    307e:	d005      	beq.n	308c <MiMem_PercentageOfFreeBuffers+0x20>
    3080:	781a      	ldrb	r2, [r3, #0]
    3082:	2a00      	cmp	r2, #0
    3084:	d0f9      	beq.n	307a <MiMem_PercentageOfFreeBuffers+0xe>
    3086:	3001      	adds	r0, #1
    3088:	b2c0      	uxtb	r0, r0
    308a:	e7f6      	b.n	307a <MiMem_PercentageOfFreeBuffers+0xe>
    308c:	2314      	movs	r3, #20
    308e:	1a1b      	subs	r3, r3, r0
    3090:	2064      	movs	r0, #100	; 0x64
    3092:	4358      	muls	r0, r3
    3094:	2114      	movs	r1, #20
    3096:	4b03      	ldr	r3, [pc, #12]	; (30a4 <MiMem_PercentageOfFreeBuffers+0x38>)
    3098:	4798      	blx	r3
    309a:	b2c0      	uxtb	r0, r0
    309c:	bd10      	pop	{r4, pc}
    309e:	46c0      	nop			; (mov r8, r8)
    30a0:	20000cd8 	.word	0x20000cd8
    30a4:	00009119 	.word	0x00009119

000030a8 <miQueueReadOrRemove>:
    30a8:	b5f0      	push	{r4, r5, r6, r7, lr}
    30aa:	46c6      	mov	lr, r8
    30ac:	b500      	push	{lr}
    30ae:	0007      	movs	r7, r0
    30b0:	4688      	mov	r8, r1
    30b2:	0015      	movs	r5, r2
    30b4:	b672      	cpsid	i
    30b6:	f3bf 8f5f 	dmb	sy
    30ba:	2200      	movs	r2, #0
    30bc:	4b1f      	ldr	r3, [pc, #124]	; (313c <miQueueReadOrRemove+0x94>)
    30be:	701a      	strb	r2, [r3, #0]
    30c0:	7a03      	ldrb	r3, [r0, #8]
    30c2:	2b00      	cmp	r3, #0
    30c4:	d037      	beq.n	3136 <miQueueReadOrRemove+0x8e>
    30c6:	6804      	ldr	r4, [r0, #0]
    30c8:	2d00      	cmp	r5, #0
    30ca:	d019      	beq.n	3100 <miQueueReadOrRemove+0x58>
    30cc:	2c00      	cmp	r4, #0
    30ce:	d00c      	beq.n	30ea <miQueueReadOrRemove+0x42>
    30d0:	0026      	movs	r6, r4
    30d2:	e000      	b.n	30d6 <miQueueReadOrRemove+0x2e>
    30d4:	001c      	movs	r4, r3
    30d6:	6869      	ldr	r1, [r5, #4]
    30d8:	6860      	ldr	r0, [r4, #4]
    30da:	682b      	ldr	r3, [r5, #0]
    30dc:	4798      	blx	r3
    30de:	2800      	cmp	r0, #0
    30e0:	d10f      	bne.n	3102 <miQueueReadOrRemove+0x5a>
    30e2:	6823      	ldr	r3, [r4, #0]
    30e4:	0026      	movs	r6, r4
    30e6:	2b00      	cmp	r3, #0
    30e8:	d1f4      	bne.n	30d4 <miQueueReadOrRemove+0x2c>
    30ea:	2400      	movs	r4, #0
    30ec:	2201      	movs	r2, #1
    30ee:	4b13      	ldr	r3, [pc, #76]	; (313c <miQueueReadOrRemove+0x94>)
    30f0:	701a      	strb	r2, [r3, #0]
    30f2:	f3bf 8f5f 	dmb	sy
    30f6:	b662      	cpsie	i
    30f8:	0020      	movs	r0, r4
    30fa:	bc04      	pop	{r2}
    30fc:	4690      	mov	r8, r2
    30fe:	bdf0      	pop	{r4, r5, r6, r7, pc}
    3100:	0026      	movs	r6, r4
    3102:	2c00      	cmp	r4, #0
    3104:	d0f2      	beq.n	30ec <miQueueReadOrRemove+0x44>
    3106:	4643      	mov	r3, r8
    3108:	2b00      	cmp	r3, #0
    310a:	d1ef      	bne.n	30ec <miQueueReadOrRemove+0x44>
    310c:	683b      	ldr	r3, [r7, #0]
    310e:	429c      	cmp	r4, r3
    3110:	d00c      	beq.n	312c <miQueueReadOrRemove+0x84>
    3112:	6823      	ldr	r3, [r4, #0]
    3114:	6033      	str	r3, [r6, #0]
    3116:	687b      	ldr	r3, [r7, #4]
    3118:	429c      	cmp	r4, r3
    311a:	d00a      	beq.n	3132 <miQueueReadOrRemove+0x8a>
    311c:	7a3b      	ldrb	r3, [r7, #8]
    311e:	3b01      	subs	r3, #1
    3120:	723b      	strb	r3, [r7, #8]
    3122:	683b      	ldr	r3, [r7, #0]
    3124:	2b00      	cmp	r3, #0
    3126:	d1e1      	bne.n	30ec <miQueueReadOrRemove+0x44>
    3128:	607b      	str	r3, [r7, #4]
    312a:	e7df      	b.n	30ec <miQueueReadOrRemove+0x44>
    312c:	6823      	ldr	r3, [r4, #0]
    312e:	603b      	str	r3, [r7, #0]
    3130:	e7f1      	b.n	3116 <miQueueReadOrRemove+0x6e>
    3132:	607e      	str	r6, [r7, #4]
    3134:	e7f2      	b.n	311c <miQueueReadOrRemove+0x74>
    3136:	2400      	movs	r4, #0
    3138:	e7d8      	b.n	30ec <miQueueReadOrRemove+0x44>
    313a:	46c0      	nop			; (mov r8, r8)
    313c:	20000008 	.word	0x20000008

00003140 <miQueueInit>:
    3140:	2300      	movs	r3, #0
    3142:	6003      	str	r3, [r0, #0]
    3144:	6043      	str	r3, [r0, #4]
    3146:	7203      	strb	r3, [r0, #8]
    3148:	4770      	bx	lr
	...

0000314c <miQueueAppend>:
    314c:	b672      	cpsid	i
    314e:	f3bf 8f5f 	dmb	sy
    3152:	2200      	movs	r2, #0
    3154:	4b0a      	ldr	r3, [pc, #40]	; (3180 <miQueueAppend+0x34>)
    3156:	701a      	strb	r2, [r3, #0]
    3158:	7a03      	ldrb	r3, [r0, #8]
    315a:	2b00      	cmp	r3, #0
    315c:	d00e      	beq.n	317c <miQueueAppend+0x30>
    315e:	6843      	ldr	r3, [r0, #4]
    3160:	6019      	str	r1, [r3, #0]
    3162:	6041      	str	r1, [r0, #4]
    3164:	2300      	movs	r3, #0
    3166:	600b      	str	r3, [r1, #0]
    3168:	7a03      	ldrb	r3, [r0, #8]
    316a:	3301      	adds	r3, #1
    316c:	7203      	strb	r3, [r0, #8]
    316e:	2201      	movs	r2, #1
    3170:	4b03      	ldr	r3, [pc, #12]	; (3180 <miQueueAppend+0x34>)
    3172:	701a      	strb	r2, [r3, #0]
    3174:	f3bf 8f5f 	dmb	sy
    3178:	b662      	cpsie	i
    317a:	4770      	bx	lr
    317c:	6001      	str	r1, [r0, #0]
    317e:	e7f0      	b.n	3162 <miQueueAppend+0x16>
    3180:	20000008 	.word	0x20000008

00003184 <miQueueRemove>:
    3184:	b510      	push	{r4, lr}
    3186:	000a      	movs	r2, r1
    3188:	2100      	movs	r1, #0
    318a:	4b01      	ldr	r3, [pc, #4]	; (3190 <miQueueRemove+0xc>)
    318c:	4798      	blx	r3
    318e:	bd10      	pop	{r4, pc}
    3190:	000030a9 	.word	0x000030a9

00003194 <placeTimer>:
    3194:	b530      	push	{r4, r5, lr}
    3196:	4b14      	ldr	r3, [pc, #80]	; (31e8 <placeTimer+0x54>)
    3198:	681d      	ldr	r5, [r3, #0]
    319a:	2d00      	cmp	r5, #0
    319c:	d01c      	beq.n	31d8 <placeTimer+0x44>
    319e:	6882      	ldr	r2, [r0, #8]
    31a0:	6869      	ldr	r1, [r5, #4]
    31a2:	428a      	cmp	r2, r1
    31a4:	d309      	bcc.n	31ba <placeTimer+0x26>
    31a6:	002c      	movs	r4, r5
    31a8:	1a52      	subs	r2, r2, r1
    31aa:	6823      	ldr	r3, [r4, #0]
    31ac:	2b00      	cmp	r3, #0
    31ae:	d008      	beq.n	31c2 <placeTimer+0x2e>
    31b0:	6859      	ldr	r1, [r3, #4]
    31b2:	4291      	cmp	r1, r2
    31b4:	d803      	bhi.n	31be <placeTimer+0x2a>
    31b6:	001c      	movs	r4, r3
    31b8:	e7f6      	b.n	31a8 <placeTimer+0x14>
    31ba:	002b      	movs	r3, r5
    31bc:	2400      	movs	r4, #0
    31be:	1a89      	subs	r1, r1, r2
    31c0:	6059      	str	r1, [r3, #4]
    31c2:	6042      	str	r2, [r0, #4]
    31c4:	2c00      	cmp	r4, #0
    31c6:	d003      	beq.n	31d0 <placeTimer+0x3c>
    31c8:	6823      	ldr	r3, [r4, #0]
    31ca:	6003      	str	r3, [r0, #0]
    31cc:	6020      	str	r0, [r4, #0]
    31ce:	bd30      	pop	{r4, r5, pc}
    31d0:	6005      	str	r5, [r0, #0]
    31d2:	4b05      	ldr	r3, [pc, #20]	; (31e8 <placeTimer+0x54>)
    31d4:	6018      	str	r0, [r3, #0]
    31d6:	e7fa      	b.n	31ce <placeTimer+0x3a>
    31d8:	2300      	movs	r3, #0
    31da:	6003      	str	r3, [r0, #0]
    31dc:	6883      	ldr	r3, [r0, #8]
    31de:	6043      	str	r3, [r0, #4]
    31e0:	4b01      	ldr	r3, [pc, #4]	; (31e8 <placeTimer+0x54>)
    31e2:	6018      	str	r0, [r3, #0]
    31e4:	e7f3      	b.n	31ce <placeTimer+0x3a>
    31e6:	46c0      	nop			; (mov r8, r8)
    31e8:	200002b4 	.word	0x200002b4

000031ec <SYS_HwExpiry_Cb>:
    31ec:	b510      	push	{r4, lr}
    31ee:	4a04      	ldr	r2, [pc, #16]	; (3200 <SYS_HwExpiry_Cb+0x14>)
    31f0:	7813      	ldrb	r3, [r2, #0]
    31f2:	3301      	adds	r3, #1
    31f4:	b2db      	uxtb	r3, r3
    31f6:	7013      	strb	r3, [r2, #0]
    31f8:	4802      	ldr	r0, [pc, #8]	; (3204 <SYS_HwExpiry_Cb+0x18>)
    31fa:	4b03      	ldr	r3, [pc, #12]	; (3208 <SYS_HwExpiry_Cb+0x1c>)
    31fc:	4798      	blx	r3
    31fe:	bd10      	pop	{r4, pc}
    3200:	20001954 	.word	0x20001954
    3204:	00002710 	.word	0x00002710
    3208:	00004795 	.word	0x00004795

0000320c <SYS_TimerInit>:
    320c:	b510      	push	{r4, lr}
    320e:	2400      	movs	r4, #0
    3210:	4b06      	ldr	r3, [pc, #24]	; (322c <SYS_TimerInit+0x20>)
    3212:	701c      	strb	r4, [r3, #0]
    3214:	4806      	ldr	r0, [pc, #24]	; (3230 <SYS_TimerInit+0x24>)
    3216:	4b07      	ldr	r3, [pc, #28]	; (3234 <SYS_TimerInit+0x28>)
    3218:	4798      	blx	r3
    321a:	4b07      	ldr	r3, [pc, #28]	; (3238 <SYS_TimerInit+0x2c>)
    321c:	4798      	blx	r3
    321e:	4807      	ldr	r0, [pc, #28]	; (323c <SYS_TimerInit+0x30>)
    3220:	4b07      	ldr	r3, [pc, #28]	; (3240 <SYS_TimerInit+0x34>)
    3222:	4798      	blx	r3
    3224:	4b07      	ldr	r3, [pc, #28]	; (3244 <SYS_TimerInit+0x38>)
    3226:	601c      	str	r4, [r3, #0]
    3228:	bd10      	pop	{r4, pc}
    322a:	46c0      	nop			; (mov r8, r8)
    322c:	20001954 	.word	0x20001954
    3230:	000031ed 	.word	0x000031ed
    3234:	00004885 	.word	0x00004885
    3238:	00004801 	.word	0x00004801
    323c:	00002710 	.word	0x00002710
    3240:	00004795 	.word	0x00004795
    3244:	200002b4 	.word	0x200002b4

00003248 <SYS_TimerStop>:
    3248:	4b0e      	ldr	r3, [pc, #56]	; (3284 <SYS_TimerStop+0x3c>)
    324a:	681a      	ldr	r2, [r3, #0]
    324c:	2a00      	cmp	r2, #0
    324e:	d014      	beq.n	327a <SYS_TimerStop+0x32>
    3250:	4282      	cmp	r2, r0
    3252:	d013      	beq.n	327c <SYS_TimerStop+0x34>
    3254:	6813      	ldr	r3, [r2, #0]
    3256:	2b00      	cmp	r3, #0
    3258:	d00f      	beq.n	327a <SYS_TimerStop+0x32>
    325a:	4298      	cmp	r0, r3
    325c:	d001      	beq.n	3262 <SYS_TimerStop+0x1a>
    325e:	001a      	movs	r2, r3
    3260:	e7f8      	b.n	3254 <SYS_TimerStop+0xc>
    3262:	2a00      	cmp	r2, #0
    3264:	d00a      	beq.n	327c <SYS_TimerStop+0x34>
    3266:	6803      	ldr	r3, [r0, #0]
    3268:	6013      	str	r3, [r2, #0]
    326a:	6803      	ldr	r3, [r0, #0]
    326c:	2b00      	cmp	r3, #0
    326e:	d004      	beq.n	327a <SYS_TimerStop+0x32>
    3270:	6842      	ldr	r2, [r0, #4]
    3272:	6859      	ldr	r1, [r3, #4]
    3274:	468c      	mov	ip, r1
    3276:	4462      	add	r2, ip
    3278:	605a      	str	r2, [r3, #4]
    327a:	4770      	bx	lr
    327c:	4b01      	ldr	r3, [pc, #4]	; (3284 <SYS_TimerStop+0x3c>)
    327e:	6802      	ldr	r2, [r0, #0]
    3280:	601a      	str	r2, [r3, #0]
    3282:	e7f2      	b.n	326a <SYS_TimerStop+0x22>
    3284:	200002b4 	.word	0x200002b4

00003288 <SYS_TimerStarted>:
    3288:	4b09      	ldr	r3, [pc, #36]	; (32b0 <SYS_TimerStarted+0x28>)
    328a:	681b      	ldr	r3, [r3, #0]
    328c:	2b00      	cmp	r3, #0
    328e:	d00a      	beq.n	32a6 <SYS_TimerStarted+0x1e>
    3290:	4283      	cmp	r3, r0
    3292:	d00a      	beq.n	32aa <SYS_TimerStarted+0x22>
    3294:	681b      	ldr	r3, [r3, #0]
    3296:	2b00      	cmp	r3, #0
    3298:	d003      	beq.n	32a2 <SYS_TimerStarted+0x1a>
    329a:	4298      	cmp	r0, r3
    329c:	d1fa      	bne.n	3294 <SYS_TimerStarted+0xc>
    329e:	2001      	movs	r0, #1
    32a0:	e000      	b.n	32a4 <SYS_TimerStarted+0x1c>
    32a2:	2000      	movs	r0, #0
    32a4:	4770      	bx	lr
    32a6:	2000      	movs	r0, #0
    32a8:	e7fc      	b.n	32a4 <SYS_TimerStarted+0x1c>
    32aa:	2001      	movs	r0, #1
    32ac:	e7fa      	b.n	32a4 <SYS_TimerStarted+0x1c>
    32ae:	46c0      	nop			; (mov r8, r8)
    32b0:	200002b4 	.word	0x200002b4

000032b4 <SYS_TimerStart>:
    32b4:	b510      	push	{r4, lr}
    32b6:	0004      	movs	r4, r0
    32b8:	4b04      	ldr	r3, [pc, #16]	; (32cc <SYS_TimerStart+0x18>)
    32ba:	4798      	blx	r3
    32bc:	2800      	cmp	r0, #0
    32be:	d000      	beq.n	32c2 <SYS_TimerStart+0xe>
    32c0:	bd10      	pop	{r4, pc}
    32c2:	0020      	movs	r0, r4
    32c4:	4b02      	ldr	r3, [pc, #8]	; (32d0 <SYS_TimerStart+0x1c>)
    32c6:	4798      	blx	r3
    32c8:	e7fa      	b.n	32c0 <SYS_TimerStart+0xc>
    32ca:	46c0      	nop			; (mov r8, r8)
    32cc:	00003289 	.word	0x00003289
    32d0:	00003195 	.word	0x00003195

000032d4 <SYS_TimerTaskHandler>:
    32d4:	b5f0      	push	{r4, r5, r6, r7, lr}
    32d6:	b083      	sub	sp, #12
    32d8:	4b1d      	ldr	r3, [pc, #116]	; (3350 <SYS_TimerTaskHandler+0x7c>)
    32da:	781b      	ldrb	r3, [r3, #0]
    32dc:	2b00      	cmp	r3, #0
    32de:	d035      	beq.n	334c <SYS_TimerTaskHandler+0x78>
    32e0:	f3ef 8210 	mrs	r2, PRIMASK
    32e4:	4253      	negs	r3, r2
    32e6:	4153      	adcs	r3, r2
    32e8:	9301      	str	r3, [sp, #4]
    32ea:	b672      	cpsid	i
    32ec:	f3bf 8f5f 	dmb	sy
    32f0:	2100      	movs	r1, #0
    32f2:	4b18      	ldr	r3, [pc, #96]	; (3354 <SYS_TimerTaskHandler+0x80>)
    32f4:	7019      	strb	r1, [r3, #0]
    32f6:	9801      	ldr	r0, [sp, #4]
    32f8:	4a15      	ldr	r2, [pc, #84]	; (3350 <SYS_TimerTaskHandler+0x7c>)
    32fa:	7813      	ldrb	r3, [r2, #0]
    32fc:	b2db      	uxtb	r3, r3
    32fe:	7011      	strb	r1, [r2, #0]
    3300:	2800      	cmp	r0, #0
    3302:	d005      	beq.n	3310 <SYS_TimerTaskHandler+0x3c>
    3304:	3101      	adds	r1, #1
    3306:	4a13      	ldr	r2, [pc, #76]	; (3354 <SYS_TimerTaskHandler+0x80>)
    3308:	7011      	strb	r1, [r2, #0]
    330a:	f3bf 8f5f 	dmb	sy
    330e:	b662      	cpsie	i
    3310:	009d      	lsls	r5, r3, #2
    3312:	18ed      	adds	r5, r5, r3
    3314:	006d      	lsls	r5, r5, #1
    3316:	4e10      	ldr	r6, [pc, #64]	; (3358 <SYS_TimerTaskHandler+0x84>)
    3318:	0037      	movs	r7, r6
    331a:	e005      	b.n	3328 <SYS_TimerTaskHandler+0x54>
    331c:	0020      	movs	r0, r4
    331e:	4b0f      	ldr	r3, [pc, #60]	; (335c <SYS_TimerTaskHandler+0x88>)
    3320:	4798      	blx	r3
    3322:	e00d      	b.n	3340 <SYS_TimerTaskHandler+0x6c>
    3324:	0020      	movs	r0, r4
    3326:	4798      	blx	r3
    3328:	6834      	ldr	r4, [r6, #0]
    332a:	2c00      	cmp	r4, #0
    332c:	d00e      	beq.n	334c <SYS_TimerTaskHandler+0x78>
    332e:	6863      	ldr	r3, [r4, #4]
    3330:	429d      	cmp	r5, r3
    3332:	d309      	bcc.n	3348 <SYS_TimerTaskHandler+0x74>
    3334:	1aed      	subs	r5, r5, r3
    3336:	6823      	ldr	r3, [r4, #0]
    3338:	603b      	str	r3, [r7, #0]
    333a:	7b23      	ldrb	r3, [r4, #12]
    333c:	2b01      	cmp	r3, #1
    333e:	d0ed      	beq.n	331c <SYS_TimerTaskHandler+0x48>
    3340:	6923      	ldr	r3, [r4, #16]
    3342:	2b00      	cmp	r3, #0
    3344:	d1ee      	bne.n	3324 <SYS_TimerTaskHandler+0x50>
    3346:	e7ef      	b.n	3328 <SYS_TimerTaskHandler+0x54>
    3348:	1b5d      	subs	r5, r3, r5
    334a:	6065      	str	r5, [r4, #4]
    334c:	b003      	add	sp, #12
    334e:	bdf0      	pop	{r4, r5, r6, r7, pc}
    3350:	20001954 	.word	0x20001954
    3354:	20000008 	.word	0x20000008
    3358:	200002b4 	.word	0x200002b4
    335c:	00003195 	.word	0x00003195

00003360 <tc_cca_callback>:
    3360:	b510      	push	{r4, lr}
    3362:	4b01      	ldr	r3, [pc, #4]	; (3368 <tc_cca_callback+0x8>)
    3364:	4798      	blx	r3
    3366:	bd10      	pop	{r4, pc}
    3368:	00004869 	.word	0x00004869

0000336c <tc_ovf_callback>:
    336c:	b510      	push	{r4, lr}
    336e:	4b01      	ldr	r3, [pc, #4]	; (3374 <tc_ovf_callback+0x8>)
    3370:	4798      	blx	r3
    3372:	bd10      	pop	{r4, pc}
    3374:	00004821 	.word	0x00004821

00003378 <tmr_read_count>:
    3378:	b510      	push	{r4, lr}
    337a:	4802      	ldr	r0, [pc, #8]	; (3384 <tmr_read_count+0xc>)
    337c:	4b02      	ldr	r3, [pc, #8]	; (3388 <tmr_read_count+0x10>)
    337e:	4798      	blx	r3
    3380:	b280      	uxth	r0, r0
    3382:	bd10      	pop	{r4, pc}
    3384:	2000198c 	.word	0x2000198c
    3388:	00001d29 	.word	0x00001d29

0000338c <tmr_disable_cc_interrupt>:
    338c:	4b03      	ldr	r3, [pc, #12]	; (339c <tmr_disable_cc_interrupt+0x10>)
    338e:	2110      	movs	r1, #16
    3390:	681a      	ldr	r2, [r3, #0]
    3392:	7311      	strb	r1, [r2, #12]
    3394:	7e5a      	ldrb	r2, [r3, #25]
    3396:	438a      	bics	r2, r1
    3398:	765a      	strb	r2, [r3, #25]
    339a:	4770      	bx	lr
    339c:	2000198c 	.word	0x2000198c

000033a0 <tmr_enable_cc_interrupt>:
    33a0:	b510      	push	{r4, lr}
    33a2:	4c0a      	ldr	r4, [pc, #40]	; (33cc <tmr_enable_cc_interrupt+0x2c>)
    33a4:	6820      	ldr	r0, [r4, #0]
    33a6:	4b0a      	ldr	r3, [pc, #40]	; (33d0 <tmr_enable_cc_interrupt+0x30>)
    33a8:	4798      	blx	r3
    33aa:	4b0a      	ldr	r3, [pc, #40]	; (33d4 <tmr_enable_cc_interrupt+0x34>)
    33ac:	5c1b      	ldrb	r3, [r3, r0]
    33ae:	221f      	movs	r2, #31
    33b0:	401a      	ands	r2, r3
    33b2:	2301      	movs	r3, #1
    33b4:	4093      	lsls	r3, r2
    33b6:	4a08      	ldr	r2, [pc, #32]	; (33d8 <tmr_enable_cc_interrupt+0x38>)
    33b8:	6013      	str	r3, [r2, #0]
    33ba:	7e63      	ldrb	r3, [r4, #25]
    33bc:	2210      	movs	r2, #16
    33be:	4313      	orrs	r3, r2
    33c0:	7663      	strb	r3, [r4, #25]
    33c2:	6823      	ldr	r3, [r4, #0]
    33c4:	2210      	movs	r2, #16
    33c6:	735a      	strb	r2, [r3, #13]
    33c8:	bd10      	pop	{r4, pc}
    33ca:	46c0      	nop			; (mov r8, r8)
    33cc:	2000198c 	.word	0x2000198c
    33d0:	00001ab5 	.word	0x00001ab5
    33d4:	0000a344 	.word	0x0000a344
    33d8:	e000e100 	.word	0xe000e100

000033dc <tmr_write_cmpreg>:
    33dc:	b510      	push	{r4, lr}
    33de:	0002      	movs	r2, r0
    33e0:	2100      	movs	r1, #0
    33e2:	4802      	ldr	r0, [pc, #8]	; (33ec <tmr_write_cmpreg+0x10>)
    33e4:	4b02      	ldr	r3, [pc, #8]	; (33f0 <tmr_write_cmpreg+0x14>)
    33e6:	4798      	blx	r3
    33e8:	bd10      	pop	{r4, pc}
    33ea:	46c0      	nop			; (mov r8, r8)
    33ec:	2000198c 	.word	0x2000198c
    33f0:	00001d55 	.word	0x00001d55

000033f4 <tmr_init>:
    33f4:	b5f8      	push	{r3, r4, r5, r6, r7, lr}
    33f6:	46ce      	mov	lr, r9
    33f8:	4647      	mov	r7, r8
    33fa:	b580      	push	{r7, lr}
    33fc:	4a2d      	ldr	r2, [pc, #180]	; (34b4 <tmr_init+0xc0>)
    33fe:	2300      	movs	r3, #0
    3400:	7013      	strb	r3, [r2, #0]
    3402:	7093      	strb	r3, [r2, #2]
    3404:	2100      	movs	r1, #0
    3406:	8093      	strh	r3, [r2, #4]
    3408:	7191      	strb	r1, [r2, #6]
    340a:	8113      	strh	r3, [r2, #8]
    340c:	7051      	strb	r1, [r2, #1]
    340e:	7291      	strb	r1, [r2, #10]
    3410:	72d1      	strb	r1, [r2, #11]
    3412:	7311      	strb	r1, [r2, #12]
    3414:	7391      	strb	r1, [r2, #14]
    3416:	7351      	strb	r1, [r2, #13]
    3418:	7411      	strb	r1, [r2, #16]
    341a:	6153      	str	r3, [r2, #20]
    341c:	6193      	str	r3, [r2, #24]
    341e:	7711      	strb	r1, [r2, #28]
    3420:	6213      	str	r3, [r2, #32]
    3422:	6253      	str	r3, [r2, #36]	; 0x24
    3424:	8513      	strh	r3, [r2, #40]	; 0x28
    3426:	8593      	strh	r3, [r2, #44]	; 0x2c
    3428:	3b01      	subs	r3, #1
    342a:	8553      	strh	r3, [r2, #42]	; 0x2a
    342c:	4c22      	ldr	r4, [pc, #136]	; (34b8 <tmr_init+0xc4>)
    342e:	4923      	ldr	r1, [pc, #140]	; (34bc <tmr_init+0xc8>)
    3430:	0020      	movs	r0, r4
    3432:	4b23      	ldr	r3, [pc, #140]	; (34c0 <tmr_init+0xcc>)
    3434:	4798      	blx	r3
    3436:	2200      	movs	r2, #0
    3438:	4922      	ldr	r1, [pc, #136]	; (34c4 <tmr_init+0xd0>)
    343a:	0020      	movs	r0, r4
    343c:	4d22      	ldr	r5, [pc, #136]	; (34c8 <tmr_init+0xd4>)
    343e:	47a8      	blx	r5
    3440:	2202      	movs	r2, #2
    3442:	4922      	ldr	r1, [pc, #136]	; (34cc <tmr_init+0xd8>)
    3444:	0020      	movs	r0, r4
    3446:	47a8      	blx	r5
    3448:	6820      	ldr	r0, [r4, #0]
    344a:	4b21      	ldr	r3, [pc, #132]	; (34d0 <tmr_init+0xdc>)
    344c:	4699      	mov	r9, r3
    344e:	4798      	blx	r3
    3450:	4b20      	ldr	r3, [pc, #128]	; (34d4 <tmr_init+0xe0>)
    3452:	4698      	mov	r8, r3
    3454:	5c1b      	ldrb	r3, [r3, r0]
    3456:	261f      	movs	r6, #31
    3458:	4033      	ands	r3, r6
    345a:	2501      	movs	r5, #1
    345c:	002a      	movs	r2, r5
    345e:	409a      	lsls	r2, r3
    3460:	4f1d      	ldr	r7, [pc, #116]	; (34d8 <tmr_init+0xe4>)
    3462:	603a      	str	r2, [r7, #0]
    3464:	7e63      	ldrb	r3, [r4, #25]
    3466:	2201      	movs	r2, #1
    3468:	4313      	orrs	r3, r2
    346a:	7663      	strb	r3, [r4, #25]
    346c:	6823      	ldr	r3, [r4, #0]
    346e:	735d      	strb	r5, [r3, #13]
    3470:	0018      	movs	r0, r3
    3472:	47c8      	blx	r9
    3474:	4643      	mov	r3, r8
    3476:	5c1b      	ldrb	r3, [r3, r0]
    3478:	401e      	ands	r6, r3
    347a:	40b5      	lsls	r5, r6
    347c:	603d      	str	r5, [r7, #0]
    347e:	7e63      	ldrb	r3, [r4, #25]
    3480:	2210      	movs	r2, #16
    3482:	4313      	orrs	r3, r2
    3484:	7663      	strb	r3, [r4, #25]
    3486:	6822      	ldr	r2, [r4, #0]
    3488:	2310      	movs	r3, #16
    348a:	7353      	strb	r3, [r2, #13]
    348c:	7bd3      	ldrb	r3, [r2, #15]
    348e:	b25b      	sxtb	r3, r3
    3490:	2b00      	cmp	r3, #0
    3492:	dbfb      	blt.n	348c <tmr_init+0x98>
    3494:	8813      	ldrh	r3, [r2, #0]
    3496:	2102      	movs	r1, #2
    3498:	430b      	orrs	r3, r1
    349a:	8013      	strh	r3, [r2, #0]
    349c:	2000      	movs	r0, #0
    349e:	4b0f      	ldr	r3, [pc, #60]	; (34dc <tmr_init+0xe8>)
    34a0:	4798      	blx	r3
    34a2:	490f      	ldr	r1, [pc, #60]	; (34e0 <tmr_init+0xec>)
    34a4:	4b0f      	ldr	r3, [pc, #60]	; (34e4 <tmr_init+0xf0>)
    34a6:	4798      	blx	r3
    34a8:	b2c0      	uxtb	r0, r0
    34aa:	bc0c      	pop	{r2, r3}
    34ac:	4690      	mov	r8, r2
    34ae:	4699      	mov	r9, r3
    34b0:	bdf8      	pop	{r3, r4, r5, r6, r7, pc}
    34b2:	46c0      	nop			; (mov r8, r8)
    34b4:	20001958 	.word	0x20001958
    34b8:	2000198c 	.word	0x2000198c
    34bc:	42002c00 	.word	0x42002c00
    34c0:	00001aed 	.word	0x00001aed
    34c4:	0000336d 	.word	0x0000336d
    34c8:	000019ed 	.word	0x000019ed
    34cc:	00003361 	.word	0x00003361
    34d0:	00001ab5 	.word	0x00001ab5
    34d4:	0000a344 	.word	0x0000a344
    34d8:	e000e100 	.word	0xe000e100
    34dc:	0000177d 	.word	0x0000177d
    34e0:	000f4240 	.word	0x000f4240
    34e4:	00009005 	.word	0x00009005

000034e8 <sal_init>:
    34e8:	4770      	bx	lr
	...

000034ec <sal_aes_restart>:
    34ec:	b570      	push	{r4, r5, r6, lr}
    34ee:	4b0c      	ldr	r3, [pc, #48]	; (3520 <sal_aes_restart+0x34>)
    34f0:	781b      	ldrb	r3, [r3, #0]
    34f2:	2b00      	cmp	r3, #0
    34f4:	d012      	beq.n	351c <sal_aes_restart+0x30>
    34f6:	490b      	ldr	r1, [pc, #44]	; (3524 <sal_aes_restart+0x38>)
    34f8:	4c0b      	ldr	r4, [pc, #44]	; (3528 <sal_aes_restart+0x3c>)
    34fa:	7825      	ldrb	r5, [r4, #0]
    34fc:	2310      	movs	r3, #16
    34fe:	7023      	strb	r3, [r4, #0]
    3500:	1c60      	adds	r0, r4, #1
    3502:	2210      	movs	r2, #16
    3504:	4b09      	ldr	r3, [pc, #36]	; (352c <sal_aes_restart+0x40>)
    3506:	4798      	blx	r3
    3508:	2211      	movs	r2, #17
    350a:	0021      	movs	r1, r4
    350c:	2083      	movs	r0, #131	; 0x83
    350e:	4b08      	ldr	r3, [pc, #32]	; (3530 <sal_aes_restart+0x44>)
    3510:	4798      	blx	r3
    3512:	7025      	strb	r5, [r4, #0]
    3514:	2201      	movs	r2, #1
    3516:	4b07      	ldr	r3, [pc, #28]	; (3534 <sal_aes_restart+0x48>)
    3518:	701a      	strb	r2, [r3, #0]
    351a:	bd70      	pop	{r4, r5, r6, pc}
    351c:	4906      	ldr	r1, [pc, #24]	; (3538 <sal_aes_restart+0x4c>)
    351e:	e7eb      	b.n	34f8 <sal_aes_restart+0xc>
    3520:	2000006d 	.word	0x2000006d
    3524:	200002cc 	.word	0x200002cc
    3528:	200002b8 	.word	0x200002b8
    352c:	000093ab 	.word	0x000093ab
    3530:	00003ca9 	.word	0x00003ca9
    3534:	200002ec 	.word	0x200002ec
    3538:	200002dc 	.word	0x200002dc

0000353c <_sal_aes_clean_up>:
    353c:	4770      	bx	lr
	...

00003540 <sal_aes_wrrd>:
    3540:	b570      	push	{r4, r5, r6, lr}
    3542:	0003      	movs	r3, r0
    3544:	000d      	movs	r5, r1
    3546:	4c14      	ldr	r4, [pc, #80]	; (3598 <sal_aes_wrrd+0x58>)
    3548:	1c60      	adds	r0, r4, #1
    354a:	2210      	movs	r2, #16
    354c:	0019      	movs	r1, r3
    354e:	4b13      	ldr	r3, [pc, #76]	; (359c <sal_aes_wrrd+0x5c>)
    3550:	4798      	blx	r3
    3552:	7c64      	ldrb	r4, [r4, #17]
    3554:	4b12      	ldr	r3, [pc, #72]	; (35a0 <sal_aes_wrrd+0x60>)
    3556:	781b      	ldrb	r3, [r3, #0]
    3558:	2b00      	cmp	r3, #0
    355a:	d015      	beq.n	3588 <sal_aes_wrrd+0x48>
    355c:	2212      	movs	r2, #18
    355e:	490e      	ldr	r1, [pc, #56]	; (3598 <sal_aes_wrrd+0x58>)
    3560:	2083      	movs	r0, #131	; 0x83
    3562:	4b10      	ldr	r3, [pc, #64]	; (35a4 <sal_aes_wrrd+0x64>)
    3564:	4798      	blx	r3
    3566:	2200      	movs	r2, #0
    3568:	4b0d      	ldr	r3, [pc, #52]	; (35a0 <sal_aes_wrrd+0x60>)
    356a:	701a      	strb	r2, [r3, #0]
    356c:	2d00      	cmp	r5, #0
    356e:	d005      	beq.n	357c <sal_aes_wrrd+0x3c>
    3570:	2210      	movs	r2, #16
    3572:	4909      	ldr	r1, [pc, #36]	; (3598 <sal_aes_wrrd+0x58>)
    3574:	3101      	adds	r1, #1
    3576:	0028      	movs	r0, r5
    3578:	4b08      	ldr	r3, [pc, #32]	; (359c <sal_aes_wrrd+0x5c>)
    357a:	4798      	blx	r3
    357c:	4b06      	ldr	r3, [pc, #24]	; (3598 <sal_aes_wrrd+0x58>)
    357e:	745c      	strb	r4, [r3, #17]
    3580:	2018      	movs	r0, #24
    3582:	4b09      	ldr	r3, [pc, #36]	; (35a8 <sal_aes_wrrd+0x68>)
    3584:	4798      	blx	r3
    3586:	bd70      	pop	{r4, r5, r6, pc}
    3588:	2211      	movs	r2, #17
    358a:	4903      	ldr	r1, [pc, #12]	; (3598 <sal_aes_wrrd+0x58>)
    358c:	3101      	adds	r1, #1
    358e:	2084      	movs	r0, #132	; 0x84
    3590:	4b04      	ldr	r3, [pc, #16]	; (35a4 <sal_aes_wrrd+0x64>)
    3592:	4798      	blx	r3
    3594:	e7ea      	b.n	356c <sal_aes_wrrd+0x2c>
    3596:	46c0      	nop			; (mov r8, r8)
    3598:	200002b8 	.word	0x200002b8
    359c:	000093ab 	.word	0x000093ab
    35a0:	200002ec 	.word	0x200002ec
    35a4:	00003f9d 	.word	0x00003f9d
    35a8:	00000155 	.word	0x00000155

000035ac <sal_aes_setup>:
    35ac:	b5f0      	push	{r4, r5, r6, r7, lr}
    35ae:	46c6      	mov	lr, r8
    35b0:	b500      	push	{lr}
    35b2:	b084      	sub	sp, #16
    35b4:	0005      	movs	r5, r0
    35b6:	000e      	movs	r6, r1
    35b8:	0014      	movs	r4, r2
    35ba:	2800      	cmp	r0, #0
    35bc:	d017      	beq.n	35ee <sal_aes_setup+0x42>
    35be:	2200      	movs	r2, #0
    35c0:	4b3e      	ldr	r3, [pc, #248]	; (36bc <sal_aes_setup+0x110>)
    35c2:	701a      	strb	r2, [r3, #0]
    35c4:	3202      	adds	r2, #2
    35c6:	4b3e      	ldr	r3, [pc, #248]	; (36c0 <sal_aes_setup+0x114>)
    35c8:	701a      	strb	r2, [r3, #0]
    35ca:	320e      	adds	r2, #14
    35cc:	0001      	movs	r1, r0
    35ce:	483d      	ldr	r0, [pc, #244]	; (36c4 <sal_aes_setup+0x118>)
    35d0:	4b3d      	ldr	r3, [pc, #244]	; (36c8 <sal_aes_setup+0x11c>)
    35d2:	4698      	mov	r8, r3
    35d4:	4798      	blx	r3
    35d6:	4f3d      	ldr	r7, [pc, #244]	; (36cc <sal_aes_setup+0x120>)
    35d8:	2310      	movs	r3, #16
    35da:	703b      	strb	r3, [r7, #0]
    35dc:	1c78      	adds	r0, r7, #1
    35de:	2210      	movs	r2, #16
    35e0:	0029      	movs	r1, r5
    35e2:	47c0      	blx	r8
    35e4:	2211      	movs	r2, #17
    35e6:	0039      	movs	r1, r7
    35e8:	2083      	movs	r0, #131	; 0x83
    35ea:	4b39      	ldr	r3, [pc, #228]	; (36d0 <sal_aes_setup+0x124>)
    35ec:	4798      	blx	r3
    35ee:	2c00      	cmp	r4, #0
    35f0:	d003      	beq.n	35fa <sal_aes_setup+0x4e>
    35f2:	2c01      	cmp	r4, #1
    35f4:	d02f      	beq.n	3656 <sal_aes_setup+0xaa>
    35f6:	2000      	movs	r0, #0
    35f8:	e01b      	b.n	3632 <sal_aes_setup+0x86>
    35fa:	4b31      	ldr	r3, [pc, #196]	; (36c0 <sal_aes_setup+0x114>)
    35fc:	781b      	ldrb	r3, [r3, #0]
    35fe:	2b01      	cmp	r3, #1
    3600:	d01b      	beq.n	363a <sal_aes_setup+0x8e>
    3602:	4b2f      	ldr	r3, [pc, #188]	; (36c0 <sal_aes_setup+0x114>)
    3604:	701c      	strb	r4, [r3, #0]
    3606:	2e00      	cmp	r6, #0
    3608:	d002      	beq.n	3610 <sal_aes_setup+0x64>
    360a:	2000      	movs	r0, #0
    360c:	2e02      	cmp	r6, #2
    360e:	d110      	bne.n	3632 <sal_aes_setup+0x86>
    3610:	0136      	lsls	r6, r6, #4
    3612:	2370      	movs	r3, #112	; 0x70
    3614:	401e      	ands	r6, r3
    3616:	00e4      	lsls	r4, r4, #3
    3618:	3b68      	subs	r3, #104	; 0x68
    361a:	401c      	ands	r4, r3
    361c:	4334      	orrs	r4, r6
    361e:	4b2b      	ldr	r3, [pc, #172]	; (36cc <sal_aes_setup+0x120>)
    3620:	701c      	strb	r4, [r3, #0]
    3622:	2680      	movs	r6, #128	; 0x80
    3624:	4276      	negs	r6, r6
    3626:	4334      	orrs	r4, r6
    3628:	745c      	strb	r4, [r3, #17]
    362a:	2201      	movs	r2, #1
    362c:	4b29      	ldr	r3, [pc, #164]	; (36d4 <sal_aes_setup+0x128>)
    362e:	701a      	strb	r2, [r3, #0]
    3630:	2001      	movs	r0, #1
    3632:	b004      	add	sp, #16
    3634:	bc04      	pop	{r2}
    3636:	4690      	mov	r8, r2
    3638:	bdf0      	pop	{r4, r5, r6, r7, pc}
    363a:	4d24      	ldr	r5, [pc, #144]	; (36cc <sal_aes_setup+0x120>)
    363c:	330f      	adds	r3, #15
    363e:	702b      	strb	r3, [r5, #0]
    3640:	1c68      	adds	r0, r5, #1
    3642:	2210      	movs	r2, #16
    3644:	491f      	ldr	r1, [pc, #124]	; (36c4 <sal_aes_setup+0x118>)
    3646:	4b20      	ldr	r3, [pc, #128]	; (36c8 <sal_aes_setup+0x11c>)
    3648:	4798      	blx	r3
    364a:	2211      	movs	r2, #17
    364c:	0029      	movs	r1, r5
    364e:	2083      	movs	r0, #131	; 0x83
    3650:	4b1f      	ldr	r3, [pc, #124]	; (36d0 <sal_aes_setup+0x124>)
    3652:	4798      	blx	r3
    3654:	e7d5      	b.n	3602 <sal_aes_setup+0x56>
    3656:	4b1a      	ldr	r3, [pc, #104]	; (36c0 <sal_aes_setup+0x114>)
    3658:	781b      	ldrb	r3, [r3, #0]
    365a:	2b01      	cmp	r3, #1
    365c:	d0d1      	beq.n	3602 <sal_aes_setup+0x56>
    365e:	2210      	movs	r2, #16
    3660:	4b1a      	ldr	r3, [pc, #104]	; (36cc <sal_aes_setup+0x120>)
    3662:	701a      	strb	r2, [r3, #0]
    3664:	4b15      	ldr	r3, [pc, #84]	; (36bc <sal_aes_setup+0x110>)
    3666:	781b      	ldrb	r3, [r3, #0]
    3668:	2b00      	cmp	r3, #0
    366a:	d00e      	beq.n	368a <sal_aes_setup+0xde>
    366c:	4d17      	ldr	r5, [pc, #92]	; (36cc <sal_aes_setup+0x120>)
    366e:	1c68      	adds	r0, r5, #1
    3670:	2210      	movs	r2, #16
    3672:	4919      	ldr	r1, [pc, #100]	; (36d8 <sal_aes_setup+0x12c>)
    3674:	4b14      	ldr	r3, [pc, #80]	; (36c8 <sal_aes_setup+0x11c>)
    3676:	4798      	blx	r3
    3678:	2211      	movs	r2, #17
    367a:	0029      	movs	r1, r5
    367c:	2083      	movs	r0, #131	; 0x83
    367e:	4b14      	ldr	r3, [pc, #80]	; (36d0 <sal_aes_setup+0x124>)
    3680:	4798      	blx	r3
    3682:	4b0e      	ldr	r3, [pc, #56]	; (36bc <sal_aes_setup+0x110>)
    3684:	2201      	movs	r2, #1
    3686:	701a      	strb	r2, [r3, #0]
    3688:	e7bb      	b.n	3602 <sal_aes_setup+0x56>
    368a:	4d10      	ldr	r5, [pc, #64]	; (36cc <sal_aes_setup+0x120>)
    368c:	702b      	strb	r3, [r5, #0]
    368e:	3380      	adds	r3, #128	; 0x80
    3690:	746b      	strb	r3, [r5, #17]
    3692:	3a0f      	subs	r2, #15
    3694:	4b0f      	ldr	r3, [pc, #60]	; (36d4 <sal_aes_setup+0x128>)
    3696:	701a      	strb	r2, [r3, #0]
    3698:	2100      	movs	r1, #0
    369a:	4668      	mov	r0, sp
    369c:	4b0f      	ldr	r3, [pc, #60]	; (36dc <sal_aes_setup+0x130>)
    369e:	4798      	blx	r3
    36a0:	2310      	movs	r3, #16
    36a2:	702b      	strb	r3, [r5, #0]
    36a4:	2201      	movs	r2, #1
    36a6:	0029      	movs	r1, r5
    36a8:	2083      	movs	r0, #131	; 0x83
    36aa:	4b09      	ldr	r3, [pc, #36]	; (36d0 <sal_aes_setup+0x124>)
    36ac:	4798      	blx	r3
    36ae:	2210      	movs	r2, #16
    36b0:	4909      	ldr	r1, [pc, #36]	; (36d8 <sal_aes_setup+0x12c>)
    36b2:	2084      	movs	r0, #132	; 0x84
    36b4:	4b0a      	ldr	r3, [pc, #40]	; (36e0 <sal_aes_setup+0x134>)
    36b6:	4798      	blx	r3
    36b8:	e7d8      	b.n	366c <sal_aes_setup+0xc0>
    36ba:	46c0      	nop			; (mov r8, r8)
    36bc:	200002ca 	.word	0x200002ca
    36c0:	2000006d 	.word	0x2000006d
    36c4:	200002dc 	.word	0x200002dc
    36c8:	000093ab 	.word	0x000093ab
    36cc:	200002b8 	.word	0x200002b8
    36d0:	00003ca9 	.word	0x00003ca9
    36d4:	200002ec 	.word	0x200002ec
    36d8:	200002cc 	.word	0x200002cc
    36dc:	00003541 	.word	0x00003541
    36e0:	00003e15 	.word	0x00003e15

000036e4 <sal_aes_read>:
    36e4:	b510      	push	{r4, lr}
    36e6:	0001      	movs	r1, r0
    36e8:	2210      	movs	r2, #16
    36ea:	2084      	movs	r0, #132	; 0x84
    36ec:	4b01      	ldr	r3, [pc, #4]	; (36f4 <sal_aes_read+0x10>)
    36ee:	4798      	blx	r3
    36f0:	bd10      	pop	{r4, pc}
    36f2:	46c0      	nop			; (mov r8, r8)
    36f4:	00003e15 	.word	0x00003e15

000036f8 <AT86RFX_ISR>:
    36f8:	b510      	push	{r4, lr}
    36fa:	2201      	movs	r2, #1
    36fc:	4b03      	ldr	r3, [pc, #12]	; (370c <AT86RFX_ISR+0x14>)
    36fe:	611a      	str	r2, [r3, #16]
    3700:	4b03      	ldr	r3, [pc, #12]	; (3710 <AT86RFX_ISR+0x18>)
    3702:	681b      	ldr	r3, [r3, #0]
    3704:	2b00      	cmp	r3, #0
    3706:	d000      	beq.n	370a <AT86RFX_ISR+0x12>
    3708:	4798      	blx	r3
    370a:	bd10      	pop	{r4, pc}
    370c:	40001800 	.word	0x40001800
    3710:	200002f0 	.word	0x200002f0

00003714 <trx_spi_init>:
    3714:	b530      	push	{r4, r5, lr}
    3716:	b085      	sub	sp, #20
    3718:	4a34      	ldr	r2, [pc, #208]	; (37ec <trx_spi_init+0xd8>)
    371a:	2300      	movs	r3, #0
    371c:	7053      	strb	r3, [r2, #1]
    371e:	7093      	strb	r3, [r2, #2]
    3720:	213f      	movs	r1, #63	; 0x3f
    3722:	7011      	strb	r1, [r2, #0]
    3724:	4c32      	ldr	r4, [pc, #200]	; (37f0 <trx_spi_init+0xdc>)
    3726:	7021      	strb	r1, [r4, #0]
    3728:	7063      	strb	r3, [r4, #1]
    372a:	70a3      	strb	r3, [r4, #2]
    372c:	2201      	movs	r2, #1
    372e:	4669      	mov	r1, sp
    3730:	704a      	strb	r2, [r1, #1]
    3732:	708b      	strb	r3, [r1, #2]
    3734:	700a      	strb	r2, [r1, #0]
    3736:	203f      	movs	r0, #63	; 0x3f
    3738:	4b2e      	ldr	r3, [pc, #184]	; (37f4 <trx_spi_init+0xe0>)
    373a:	4798      	blx	r3
    373c:	7822      	ldrb	r2, [r4, #0]
    373e:	09d1      	lsrs	r1, r2, #7
    3740:	2300      	movs	r3, #0
    3742:	2900      	cmp	r1, #0
    3744:	d104      	bne.n	3750 <trx_spi_init+0x3c>
    3746:	0953      	lsrs	r3, r2, #5
    3748:	01db      	lsls	r3, r3, #7
    374a:	492b      	ldr	r1, [pc, #172]	; (37f8 <trx_spi_init+0xe4>)
    374c:	468c      	mov	ip, r1
    374e:	4463      	add	r3, ip
    3750:	211f      	movs	r1, #31
    3752:	4011      	ands	r1, r2
    3754:	2201      	movs	r2, #1
    3756:	0010      	movs	r0, r2
    3758:	4088      	lsls	r0, r1
    375a:	6198      	str	r0, [r3, #24]
    375c:	4c27      	ldr	r4, [pc, #156]	; (37fc <trx_spi_init+0xe8>)
    375e:	7022      	strb	r2, [r4, #0]
    3760:	2300      	movs	r3, #0
    3762:	6063      	str	r3, [r4, #4]
    3764:	60a3      	str	r3, [r4, #8]
    3766:	7423      	strb	r3, [r4, #16]
    3768:	7463      	strb	r3, [r4, #17]
    376a:	74a2      	strb	r2, [r4, #18]
    376c:	74e2      	strb	r2, [r4, #19]
    376e:	7523      	strb	r3, [r4, #20]
    3770:	3223      	adds	r2, #35	; 0x23
    3772:	54a3      	strb	r3, [r4, r2]
    3774:	0020      	movs	r0, r4
    3776:	3018      	adds	r0, #24
    3778:	3a18      	subs	r2, #24
    377a:	2100      	movs	r1, #0
    377c:	4b20      	ldr	r3, [pc, #128]	; (3800 <trx_spi_init+0xec>)
    377e:	4798      	blx	r3
    3780:	2380      	movs	r3, #128	; 0x80
    3782:	025b      	lsls	r3, r3, #9
    3784:	60e3      	str	r3, [r4, #12]
    3786:	4b1f      	ldr	r3, [pc, #124]	; (3804 <trx_spi_init+0xf0>)
    3788:	61a3      	str	r3, [r4, #24]
    378a:	4b1f      	ldr	r3, [pc, #124]	; (3808 <trx_spi_init+0xf4>)
    378c:	62a3      	str	r3, [r4, #40]	; 0x28
    378e:	2301      	movs	r3, #1
    3790:	425b      	negs	r3, r3
    3792:	62e3      	str	r3, [r4, #44]	; 0x2c
    3794:	4b1d      	ldr	r3, [pc, #116]	; (380c <trx_spi_init+0xf8>)
    3796:	6323      	str	r3, [r4, #48]	; 0x30
    3798:	4b1d      	ldr	r3, [pc, #116]	; (3810 <trx_spi_init+0xfc>)
    379a:	6363      	str	r3, [r4, #52]	; 0x34
    379c:	4d1d      	ldr	r5, [pc, #116]	; (3814 <trx_spi_init+0x100>)
    379e:	0022      	movs	r2, r4
    37a0:	491d      	ldr	r1, [pc, #116]	; (3818 <trx_spi_init+0x104>)
    37a2:	0028      	movs	r0, r5
    37a4:	4b1d      	ldr	r3, [pc, #116]	; (381c <trx_spi_init+0x108>)
    37a6:	4798      	blx	r3
    37a8:	682a      	ldr	r2, [r5, #0]
    37aa:	69d3      	ldr	r3, [r2, #28]
    37ac:	2b00      	cmp	r3, #0
    37ae:	d1fc      	bne.n	37aa <trx_spi_init+0x96>
    37b0:	6813      	ldr	r3, [r2, #0]
    37b2:	2502      	movs	r5, #2
    37b4:	432b      	orrs	r3, r5
    37b6:	6013      	str	r3, [r2, #0]
    37b8:	ac01      	add	r4, sp, #4
    37ba:	0020      	movs	r0, r4
    37bc:	4b18      	ldr	r3, [pc, #96]	; (3820 <trx_spi_init+0x10c>)
    37be:	4798      	blx	r3
    37c0:	2320      	movs	r3, #32
    37c2:	9301      	str	r3, [sp, #4]
    37c4:	2380      	movs	r3, #128	; 0x80
    37c6:	039b      	lsls	r3, r3, #14
    37c8:	6063      	str	r3, [r4, #4]
    37ca:	7225      	strb	r5, [r4, #8]
    37cc:	2301      	movs	r3, #1
    37ce:	7263      	strb	r3, [r4, #9]
    37d0:	2200      	movs	r2, #0
    37d2:	72a2      	strb	r2, [r4, #10]
    37d4:	72e3      	strb	r3, [r4, #11]
    37d6:	0021      	movs	r1, r4
    37d8:	2000      	movs	r0, #0
    37da:	4b12      	ldr	r3, [pc, #72]	; (3824 <trx_spi_init+0x110>)
    37dc:	4798      	blx	r3
    37de:	2200      	movs	r2, #0
    37e0:	2100      	movs	r1, #0
    37e2:	4811      	ldr	r0, [pc, #68]	; (3828 <trx_spi_init+0x114>)
    37e4:	4b11      	ldr	r3, [pc, #68]	; (382c <trx_spi_init+0x118>)
    37e6:	4798      	blx	r3
    37e8:	b005      	add	sp, #20
    37ea:	bd30      	pop	{r4, r5, pc}
    37ec:	200019ac 	.word	0x200019ac
    37f0:	200019b0 	.word	0x200019b0
    37f4:	00000431 	.word	0x00000431
    37f8:	41004400 	.word	0x41004400
    37fc:	200019b4 	.word	0x200019b4
    3800:	000093bd 	.word	0x000093bd
    3804:	003d0900 	.word	0x003d0900
    3808:	00530005 	.word	0x00530005
    380c:	003e0005 	.word	0x003e0005
    3810:	00520005 	.word	0x00520005
    3814:	200019ec 	.word	0x200019ec
    3818:	42001800 	.word	0x42001800
    381c:	0000089d 	.word	0x0000089d
    3820:	000003a5 	.word	0x000003a5
    3824:	000003b9 	.word	0x000003b9
    3828:	000036f9 	.word	0x000036f9
    382c:	00000261 	.word	0x00000261

00003830 <PhyReset>:
    3830:	b570      	push	{r4, r5, r6, lr}
    3832:	4c08      	ldr	r4, [pc, #32]	; (3854 <PhyReset+0x24>)
    3834:	2580      	movs	r5, #128	; 0x80
    3836:	022d      	lsls	r5, r5, #8
    3838:	61a5      	str	r5, [r4, #24]
    383a:	2280      	movs	r2, #128	; 0x80
    383c:	0352      	lsls	r2, r2, #13
    383e:	4b06      	ldr	r3, [pc, #24]	; (3858 <PhyReset+0x28>)
    3840:	615a      	str	r2, [r3, #20]
    3842:	20a5      	movs	r0, #165	; 0xa5
    3844:	0040      	lsls	r0, r0, #1
    3846:	4e05      	ldr	r6, [pc, #20]	; (385c <PhyReset+0x2c>)
    3848:	47b0      	blx	r6
    384a:	6165      	str	r5, [r4, #20]
    384c:	200a      	movs	r0, #10
    384e:	47b0      	blx	r6
    3850:	61a5      	str	r5, [r4, #24]
    3852:	bd70      	pop	{r4, r5, r6, pc}
    3854:	41004480 	.word	0x41004480
    3858:	41004400 	.word	0x41004400
    385c:	00000155 	.word	0x00000155

00003860 <trx_reg_read>:
    3860:	b570      	push	{r4, r5, r6, lr}
    3862:	b082      	sub	sp, #8
    3864:	0005      	movs	r5, r0
    3866:	f3ef 8310 	mrs	r3, PRIMASK
    386a:	425a      	negs	r2, r3
    386c:	4153      	adcs	r3, r2
    386e:	9301      	str	r3, [sp, #4]
    3870:	b672      	cpsid	i
    3872:	f3bf 8f5f 	dmb	sy
    3876:	2200      	movs	r2, #0
    3878:	4b33      	ldr	r3, [pc, #204]	; (3948 <trx_reg_read+0xe8>)
    387a:	701a      	strb	r2, [r3, #0]
    387c:	9c01      	ldr	r4, [sp, #4]
    387e:	4e33      	ldr	r6, [pc, #204]	; (394c <trx_reg_read+0xec>)
    3880:	3201      	adds	r2, #1
    3882:	4933      	ldr	r1, [pc, #204]	; (3950 <trx_reg_read+0xf0>)
    3884:	0030      	movs	r0, r6
    3886:	4b33      	ldr	r3, [pc, #204]	; (3954 <trx_reg_read+0xf4>)
    3888:	4798      	blx	r3
    388a:	6833      	ldr	r3, [r6, #0]
    388c:	2101      	movs	r1, #1
    388e:	7e1a      	ldrb	r2, [r3, #24]
    3890:	420a      	tst	r2, r1
    3892:	d0fc      	beq.n	388e <trx_reg_read+0x2e>
    3894:	7e1a      	ldrb	r2, [r3, #24]
    3896:	07d2      	lsls	r2, r2, #31
    3898:	d502      	bpl.n	38a0 <trx_reg_read+0x40>
    389a:	2280      	movs	r2, #128	; 0x80
    389c:	4315      	orrs	r5, r2
    389e:	629d      	str	r5, [r3, #40]	; 0x28
    38a0:	2102      	movs	r1, #2
    38a2:	7e1a      	ldrb	r2, [r3, #24]
    38a4:	420a      	tst	r2, r1
    38a6:	d0fc      	beq.n	38a2 <trx_reg_read+0x42>
    38a8:	2104      	movs	r1, #4
    38aa:	7e1a      	ldrb	r2, [r3, #24]
    38ac:	420a      	tst	r2, r1
    38ae:	d0fc      	beq.n	38aa <trx_reg_read+0x4a>
    38b0:	7e1a      	ldrb	r2, [r3, #24]
    38b2:	0752      	lsls	r2, r2, #29
    38b4:	d50c      	bpl.n	38d0 <trx_reg_read+0x70>
    38b6:	8b5a      	ldrh	r2, [r3, #26]
    38b8:	0752      	lsls	r2, r2, #29
    38ba:	d501      	bpl.n	38c0 <trx_reg_read+0x60>
    38bc:	2204      	movs	r2, #4
    38be:	835a      	strh	r2, [r3, #26]
    38c0:	4a22      	ldr	r2, [pc, #136]	; (394c <trx_reg_read+0xec>)
    38c2:	7992      	ldrb	r2, [r2, #6]
    38c4:	2a01      	cmp	r2, #1
    38c6:	d034      	beq.n	3932 <trx_reg_read+0xd2>
    38c8:	6a9a      	ldr	r2, [r3, #40]	; 0x28
    38ca:	b2d2      	uxtb	r2, r2
    38cc:	4922      	ldr	r1, [pc, #136]	; (3958 <trx_reg_read+0xf8>)
    38ce:	800a      	strh	r2, [r1, #0]
    38d0:	2101      	movs	r1, #1
    38d2:	7e1a      	ldrb	r2, [r3, #24]
    38d4:	420a      	tst	r2, r1
    38d6:	d0fc      	beq.n	38d2 <trx_reg_read+0x72>
    38d8:	7e1a      	ldrb	r2, [r3, #24]
    38da:	07d2      	lsls	r2, r2, #31
    38dc:	d501      	bpl.n	38e2 <trx_reg_read+0x82>
    38de:	2200      	movs	r2, #0
    38e0:	629a      	str	r2, [r3, #40]	; 0x28
    38e2:	2102      	movs	r1, #2
    38e4:	7e1a      	ldrb	r2, [r3, #24]
    38e6:	420a      	tst	r2, r1
    38e8:	d0fc      	beq.n	38e4 <trx_reg_read+0x84>
    38ea:	2104      	movs	r1, #4
    38ec:	7e1a      	ldrb	r2, [r3, #24]
    38ee:	420a      	tst	r2, r1
    38f0:	d0fc      	beq.n	38ec <trx_reg_read+0x8c>
    38f2:	7e1a      	ldrb	r2, [r3, #24]
    38f4:	2500      	movs	r5, #0
    38f6:	0752      	lsls	r2, r2, #29
    38f8:	d50a      	bpl.n	3910 <trx_reg_read+0xb0>
    38fa:	8b5a      	ldrh	r2, [r3, #26]
    38fc:	0752      	lsls	r2, r2, #29
    38fe:	d501      	bpl.n	3904 <trx_reg_read+0xa4>
    3900:	2204      	movs	r2, #4
    3902:	835a      	strh	r2, [r3, #26]
    3904:	4a11      	ldr	r2, [pc, #68]	; (394c <trx_reg_read+0xec>)
    3906:	7992      	ldrb	r2, [r2, #6]
    3908:	2a01      	cmp	r2, #1
    390a:	d018      	beq.n	393e <trx_reg_read+0xde>
    390c:	6a9d      	ldr	r5, [r3, #40]	; 0x28
    390e:	b2ed      	uxtb	r5, r5
    3910:	2200      	movs	r2, #0
    3912:	490f      	ldr	r1, [pc, #60]	; (3950 <trx_reg_read+0xf0>)
    3914:	480d      	ldr	r0, [pc, #52]	; (394c <trx_reg_read+0xec>)
    3916:	4b0f      	ldr	r3, [pc, #60]	; (3954 <trx_reg_read+0xf4>)
    3918:	4798      	blx	r3
    391a:	23ff      	movs	r3, #255	; 0xff
    391c:	4223      	tst	r3, r4
    391e:	d005      	beq.n	392c <trx_reg_read+0xcc>
    3920:	2201      	movs	r2, #1
    3922:	4b09      	ldr	r3, [pc, #36]	; (3948 <trx_reg_read+0xe8>)
    3924:	701a      	strb	r2, [r3, #0]
    3926:	f3bf 8f5f 	dmb	sy
    392a:	b662      	cpsie	i
    392c:	b2e8      	uxtb	r0, r5
    392e:	b002      	add	sp, #8
    3930:	bd70      	pop	{r4, r5, r6, pc}
    3932:	6a9a      	ldr	r2, [r3, #40]	; 0x28
    3934:	05d2      	lsls	r2, r2, #23
    3936:	0dd2      	lsrs	r2, r2, #23
    3938:	4907      	ldr	r1, [pc, #28]	; (3958 <trx_reg_read+0xf8>)
    393a:	800a      	strh	r2, [r1, #0]
    393c:	e7c8      	b.n	38d0 <trx_reg_read+0x70>
    393e:	6a9d      	ldr	r5, [r3, #40]	; 0x28
    3940:	05ed      	lsls	r5, r5, #23
    3942:	0ded      	lsrs	r5, r5, #23
    3944:	e7e4      	b.n	3910 <trx_reg_read+0xb0>
    3946:	46c0      	nop			; (mov r8, r8)
    3948:	20000008 	.word	0x20000008
    394c:	200019ec 	.word	0x200019ec
    3950:	200019b0 	.word	0x200019b0
    3954:	00000b61 	.word	0x00000b61
    3958:	200019a8 	.word	0x200019a8

0000395c <trx_reg_write>:
    395c:	b5f0      	push	{r4, r5, r6, r7, lr}
    395e:	b083      	sub	sp, #12
    3960:	0006      	movs	r6, r0
    3962:	000c      	movs	r4, r1
    3964:	f3ef 8310 	mrs	r3, PRIMASK
    3968:	425a      	negs	r2, r3
    396a:	4153      	adcs	r3, r2
    396c:	9301      	str	r3, [sp, #4]
    396e:	b672      	cpsid	i
    3970:	f3bf 8f5f 	dmb	sy
    3974:	2200      	movs	r2, #0
    3976:	4b34      	ldr	r3, [pc, #208]	; (3a48 <trx_reg_write+0xec>)
    3978:	701a      	strb	r2, [r3, #0]
    397a:	9d01      	ldr	r5, [sp, #4]
    397c:	4f33      	ldr	r7, [pc, #204]	; (3a4c <trx_reg_write+0xf0>)
    397e:	3201      	adds	r2, #1
    3980:	4933      	ldr	r1, [pc, #204]	; (3a50 <trx_reg_write+0xf4>)
    3982:	0038      	movs	r0, r7
    3984:	4b33      	ldr	r3, [pc, #204]	; (3a54 <trx_reg_write+0xf8>)
    3986:	4798      	blx	r3
    3988:	683b      	ldr	r3, [r7, #0]
    398a:	2101      	movs	r1, #1
    398c:	7e1a      	ldrb	r2, [r3, #24]
    398e:	420a      	tst	r2, r1
    3990:	d0fc      	beq.n	398c <trx_reg_write+0x30>
    3992:	7e1a      	ldrb	r2, [r3, #24]
    3994:	07d2      	lsls	r2, r2, #31
    3996:	d502      	bpl.n	399e <trx_reg_write+0x42>
    3998:	22c0      	movs	r2, #192	; 0xc0
    399a:	4316      	orrs	r6, r2
    399c:	629e      	str	r6, [r3, #40]	; 0x28
    399e:	2102      	movs	r1, #2
    39a0:	7e1a      	ldrb	r2, [r3, #24]
    39a2:	420a      	tst	r2, r1
    39a4:	d0fc      	beq.n	39a0 <trx_reg_write+0x44>
    39a6:	2104      	movs	r1, #4
    39a8:	7e1a      	ldrb	r2, [r3, #24]
    39aa:	420a      	tst	r2, r1
    39ac:	d0fc      	beq.n	39a8 <trx_reg_write+0x4c>
    39ae:	7e1a      	ldrb	r2, [r3, #24]
    39b0:	0752      	lsls	r2, r2, #29
    39b2:	d50c      	bpl.n	39ce <trx_reg_write+0x72>
    39b4:	8b5a      	ldrh	r2, [r3, #26]
    39b6:	0752      	lsls	r2, r2, #29
    39b8:	d501      	bpl.n	39be <trx_reg_write+0x62>
    39ba:	2204      	movs	r2, #4
    39bc:	835a      	strh	r2, [r3, #26]
    39be:	4a23      	ldr	r2, [pc, #140]	; (3a4c <trx_reg_write+0xf0>)
    39c0:	7992      	ldrb	r2, [r2, #6]
    39c2:	2a01      	cmp	r2, #1
    39c4:	d033      	beq.n	3a2e <trx_reg_write+0xd2>
    39c6:	6a9a      	ldr	r2, [r3, #40]	; 0x28
    39c8:	b2d2      	uxtb	r2, r2
    39ca:	4923      	ldr	r1, [pc, #140]	; (3a58 <trx_reg_write+0xfc>)
    39cc:	800a      	strh	r2, [r1, #0]
    39ce:	2101      	movs	r1, #1
    39d0:	7e1a      	ldrb	r2, [r3, #24]
    39d2:	420a      	tst	r2, r1
    39d4:	d0fc      	beq.n	39d0 <trx_reg_write+0x74>
    39d6:	7e1a      	ldrb	r2, [r3, #24]
    39d8:	07d2      	lsls	r2, r2, #31
    39da:	d500      	bpl.n	39de <trx_reg_write+0x82>
    39dc:	629c      	str	r4, [r3, #40]	; 0x28
    39de:	2102      	movs	r1, #2
    39e0:	7e1a      	ldrb	r2, [r3, #24]
    39e2:	420a      	tst	r2, r1
    39e4:	d0fc      	beq.n	39e0 <trx_reg_write+0x84>
    39e6:	2104      	movs	r1, #4
    39e8:	7e1a      	ldrb	r2, [r3, #24]
    39ea:	420a      	tst	r2, r1
    39ec:	d0fc      	beq.n	39e8 <trx_reg_write+0x8c>
    39ee:	7e1a      	ldrb	r2, [r3, #24]
    39f0:	0752      	lsls	r2, r2, #29
    39f2:	d50c      	bpl.n	3a0e <trx_reg_write+0xb2>
    39f4:	8b5a      	ldrh	r2, [r3, #26]
    39f6:	0752      	lsls	r2, r2, #29
    39f8:	d501      	bpl.n	39fe <trx_reg_write+0xa2>
    39fa:	2204      	movs	r2, #4
    39fc:	835a      	strh	r2, [r3, #26]
    39fe:	4a13      	ldr	r2, [pc, #76]	; (3a4c <trx_reg_write+0xf0>)
    3a00:	7992      	ldrb	r2, [r2, #6]
    3a02:	2a01      	cmp	r2, #1
    3a04:	d019      	beq.n	3a3a <trx_reg_write+0xde>
    3a06:	6a9b      	ldr	r3, [r3, #40]	; 0x28
    3a08:	b2db      	uxtb	r3, r3
    3a0a:	4a13      	ldr	r2, [pc, #76]	; (3a58 <trx_reg_write+0xfc>)
    3a0c:	8013      	strh	r3, [r2, #0]
    3a0e:	2200      	movs	r2, #0
    3a10:	490f      	ldr	r1, [pc, #60]	; (3a50 <trx_reg_write+0xf4>)
    3a12:	480e      	ldr	r0, [pc, #56]	; (3a4c <trx_reg_write+0xf0>)
    3a14:	4b0f      	ldr	r3, [pc, #60]	; (3a54 <trx_reg_write+0xf8>)
    3a16:	4798      	blx	r3
    3a18:	23ff      	movs	r3, #255	; 0xff
    3a1a:	422b      	tst	r3, r5
    3a1c:	d005      	beq.n	3a2a <trx_reg_write+0xce>
    3a1e:	2201      	movs	r2, #1
    3a20:	4b09      	ldr	r3, [pc, #36]	; (3a48 <trx_reg_write+0xec>)
    3a22:	701a      	strb	r2, [r3, #0]
    3a24:	f3bf 8f5f 	dmb	sy
    3a28:	b662      	cpsie	i
    3a2a:	b003      	add	sp, #12
    3a2c:	bdf0      	pop	{r4, r5, r6, r7, pc}
    3a2e:	6a9a      	ldr	r2, [r3, #40]	; 0x28
    3a30:	05d2      	lsls	r2, r2, #23
    3a32:	0dd2      	lsrs	r2, r2, #23
    3a34:	4908      	ldr	r1, [pc, #32]	; (3a58 <trx_reg_write+0xfc>)
    3a36:	800a      	strh	r2, [r1, #0]
    3a38:	e7c9      	b.n	39ce <trx_reg_write+0x72>
    3a3a:	6a9b      	ldr	r3, [r3, #40]	; 0x28
    3a3c:	05db      	lsls	r3, r3, #23
    3a3e:	0ddb      	lsrs	r3, r3, #23
    3a40:	4a05      	ldr	r2, [pc, #20]	; (3a58 <trx_reg_write+0xfc>)
    3a42:	8013      	strh	r3, [r2, #0]
    3a44:	e7e3      	b.n	3a0e <trx_reg_write+0xb2>
    3a46:	46c0      	nop			; (mov r8, r8)
    3a48:	20000008 	.word	0x20000008
    3a4c:	200019ec 	.word	0x200019ec
    3a50:	200019b0 	.word	0x200019b0
    3a54:	00000b61 	.word	0x00000b61
    3a58:	200019a8 	.word	0x200019a8

00003a5c <trx_frame_read>:
    3a5c:	b5f0      	push	{r4, r5, r6, r7, lr}
    3a5e:	46d6      	mov	lr, sl
    3a60:	464f      	mov	r7, r9
    3a62:	4646      	mov	r6, r8
    3a64:	b5c0      	push	{r6, r7, lr}
    3a66:	b082      	sub	sp, #8
    3a68:	0005      	movs	r5, r0
    3a6a:	000c      	movs	r4, r1
    3a6c:	f3ef 8310 	mrs	r3, PRIMASK
    3a70:	425a      	negs	r2, r3
    3a72:	4153      	adcs	r3, r2
    3a74:	9301      	str	r3, [sp, #4]
    3a76:	b672      	cpsid	i
    3a78:	f3bf 8f5f 	dmb	sy
    3a7c:	2200      	movs	r2, #0
    3a7e:	4b3e      	ldr	r3, [pc, #248]	; (3b78 <trx_frame_read+0x11c>)
    3a80:	701a      	strb	r2, [r3, #0]
    3a82:	9b01      	ldr	r3, [sp, #4]
    3a84:	4698      	mov	r8, r3
    3a86:	4f3d      	ldr	r7, [pc, #244]	; (3b7c <trx_frame_read+0x120>)
    3a88:	3201      	adds	r2, #1
    3a8a:	493d      	ldr	r1, [pc, #244]	; (3b80 <trx_frame_read+0x124>)
    3a8c:	0038      	movs	r0, r7
    3a8e:	4b3d      	ldr	r3, [pc, #244]	; (3b84 <trx_frame_read+0x128>)
    3a90:	4798      	blx	r3
    3a92:	683b      	ldr	r3, [r7, #0]
    3a94:	2101      	movs	r1, #1
    3a96:	7e1a      	ldrb	r2, [r3, #24]
    3a98:	420a      	tst	r2, r1
    3a9a:	d0fc      	beq.n	3a96 <trx_frame_read+0x3a>
    3a9c:	7e1a      	ldrb	r2, [r3, #24]
    3a9e:	07d2      	lsls	r2, r2, #31
    3aa0:	d501      	bpl.n	3aa6 <trx_frame_read+0x4a>
    3aa2:	2220      	movs	r2, #32
    3aa4:	629a      	str	r2, [r3, #40]	; 0x28
    3aa6:	2102      	movs	r1, #2
    3aa8:	7e1a      	ldrb	r2, [r3, #24]
    3aaa:	420a      	tst	r2, r1
    3aac:	d0fc      	beq.n	3aa8 <trx_frame_read+0x4c>
    3aae:	2104      	movs	r1, #4
    3ab0:	7e1a      	ldrb	r2, [r3, #24]
    3ab2:	420a      	tst	r2, r1
    3ab4:	d0fc      	beq.n	3ab0 <trx_frame_read+0x54>
    3ab6:	7e1a      	ldrb	r2, [r3, #24]
    3ab8:	0752      	lsls	r2, r2, #29
    3aba:	d50c      	bpl.n	3ad6 <trx_frame_read+0x7a>
    3abc:	8b5a      	ldrh	r2, [r3, #26]
    3abe:	0752      	lsls	r2, r2, #29
    3ac0:	d501      	bpl.n	3ac6 <trx_frame_read+0x6a>
    3ac2:	2204      	movs	r2, #4
    3ac4:	835a      	strh	r2, [r3, #26]
    3ac6:	4a2d      	ldr	r2, [pc, #180]	; (3b7c <trx_frame_read+0x120>)
    3ac8:	7992      	ldrb	r2, [r2, #6]
    3aca:	2a01      	cmp	r2, #1
    3acc:	d013      	beq.n	3af6 <trx_frame_read+0x9a>
    3ace:	6a9b      	ldr	r3, [r3, #40]	; 0x28
    3ad0:	b2db      	uxtb	r3, r3
    3ad2:	4a2d      	ldr	r2, [pc, #180]	; (3b88 <trx_frame_read+0x12c>)
    3ad4:	8013      	strh	r3, [r2, #0]
    3ad6:	1e63      	subs	r3, r4, #1
    3ad8:	b2db      	uxtb	r3, r3
    3ada:	2c00      	cmp	r4, #0
    3adc:	d036      	beq.n	3b4c <trx_frame_read+0xf0>
    3ade:	3301      	adds	r3, #1
    3ae0:	469c      	mov	ip, r3
    3ae2:	44ac      	add	ip, r5
    3ae4:	2720      	movs	r7, #32
    3ae6:	4e25      	ldr	r6, [pc, #148]	; (3b7c <trx_frame_read+0x120>)
    3ae8:	2001      	movs	r0, #1
    3aea:	2300      	movs	r3, #0
    3aec:	469a      	mov	sl, r3
    3aee:	2402      	movs	r4, #2
    3af0:	2104      	movs	r1, #4
    3af2:	46b1      	mov	r9, r6
    3af4:	e00f      	b.n	3b16 <trx_frame_read+0xba>
    3af6:	6a9b      	ldr	r3, [r3, #40]	; 0x28
    3af8:	05db      	lsls	r3, r3, #23
    3afa:	0ddb      	lsrs	r3, r3, #23
    3afc:	4a22      	ldr	r2, [pc, #136]	; (3b88 <trx_frame_read+0x12c>)
    3afe:	8013      	strh	r3, [r2, #0]
    3b00:	e7e9      	b.n	3ad6 <trx_frame_read+0x7a>
    3b02:	464a      	mov	r2, r9
    3b04:	7992      	ldrb	r2, [r2, #6]
    3b06:	2a01      	cmp	r2, #1
    3b08:	d01c      	beq.n	3b44 <trx_frame_read+0xe8>
    3b0a:	6a9f      	ldr	r7, [r3, #40]	; 0x28
    3b0c:	b2ff      	uxtb	r7, r7
    3b0e:	702f      	strb	r7, [r5, #0]
    3b10:	3501      	adds	r5, #1
    3b12:	4565      	cmp	r5, ip
    3b14:	d01a      	beq.n	3b4c <trx_frame_read+0xf0>
    3b16:	6833      	ldr	r3, [r6, #0]
    3b18:	7e1a      	ldrb	r2, [r3, #24]
    3b1a:	4202      	tst	r2, r0
    3b1c:	d0fc      	beq.n	3b18 <trx_frame_read+0xbc>
    3b1e:	7e1a      	ldrb	r2, [r3, #24]
    3b20:	4202      	tst	r2, r0
    3b22:	d001      	beq.n	3b28 <trx_frame_read+0xcc>
    3b24:	4652      	mov	r2, sl
    3b26:	629a      	str	r2, [r3, #40]	; 0x28
    3b28:	7e1a      	ldrb	r2, [r3, #24]
    3b2a:	4222      	tst	r2, r4
    3b2c:	d0fc      	beq.n	3b28 <trx_frame_read+0xcc>
    3b2e:	7e1a      	ldrb	r2, [r3, #24]
    3b30:	420a      	tst	r2, r1
    3b32:	d0fc      	beq.n	3b2e <trx_frame_read+0xd2>
    3b34:	7e1a      	ldrb	r2, [r3, #24]
    3b36:	420a      	tst	r2, r1
    3b38:	d0e9      	beq.n	3b0e <trx_frame_read+0xb2>
    3b3a:	8b5a      	ldrh	r2, [r3, #26]
    3b3c:	420a      	tst	r2, r1
    3b3e:	d0e0      	beq.n	3b02 <trx_frame_read+0xa6>
    3b40:	8359      	strh	r1, [r3, #26]
    3b42:	e7de      	b.n	3b02 <trx_frame_read+0xa6>
    3b44:	6a9f      	ldr	r7, [r3, #40]	; 0x28
    3b46:	05ff      	lsls	r7, r7, #23
    3b48:	0dff      	lsrs	r7, r7, #23
    3b4a:	e7e0      	b.n	3b0e <trx_frame_read+0xb2>
    3b4c:	2200      	movs	r2, #0
    3b4e:	490c      	ldr	r1, [pc, #48]	; (3b80 <trx_frame_read+0x124>)
    3b50:	480a      	ldr	r0, [pc, #40]	; (3b7c <trx_frame_read+0x120>)
    3b52:	4b0c      	ldr	r3, [pc, #48]	; (3b84 <trx_frame_read+0x128>)
    3b54:	4798      	blx	r3
    3b56:	23ff      	movs	r3, #255	; 0xff
    3b58:	4642      	mov	r2, r8
    3b5a:	4213      	tst	r3, r2
    3b5c:	d005      	beq.n	3b6a <trx_frame_read+0x10e>
    3b5e:	2201      	movs	r2, #1
    3b60:	4b05      	ldr	r3, [pc, #20]	; (3b78 <trx_frame_read+0x11c>)
    3b62:	701a      	strb	r2, [r3, #0]
    3b64:	f3bf 8f5f 	dmb	sy
    3b68:	b662      	cpsie	i
    3b6a:	b002      	add	sp, #8
    3b6c:	bc1c      	pop	{r2, r3, r4}
    3b6e:	4690      	mov	r8, r2
    3b70:	4699      	mov	r9, r3
    3b72:	46a2      	mov	sl, r4
    3b74:	bdf0      	pop	{r4, r5, r6, r7, pc}
    3b76:	46c0      	nop			; (mov r8, r8)
    3b78:	20000008 	.word	0x20000008
    3b7c:	200019ec 	.word	0x200019ec
    3b80:	200019b0 	.word	0x200019b0
    3b84:	00000b61 	.word	0x00000b61
    3b88:	200019a8 	.word	0x200019a8

00003b8c <trx_frame_write>:
    3b8c:	b5f0      	push	{r4, r5, r6, r7, lr}
    3b8e:	46c6      	mov	lr, r8
    3b90:	b500      	push	{lr}
    3b92:	b082      	sub	sp, #8
    3b94:	0004      	movs	r4, r0
    3b96:	000d      	movs	r5, r1
    3b98:	f3ef 8310 	mrs	r3, PRIMASK
    3b9c:	425a      	negs	r2, r3
    3b9e:	4153      	adcs	r3, r2
    3ba0:	9301      	str	r3, [sp, #4]
    3ba2:	b672      	cpsid	i
    3ba4:	f3bf 8f5f 	dmb	sy
    3ba8:	2200      	movs	r2, #0
    3baa:	4b3a      	ldr	r3, [pc, #232]	; (3c94 <trx_frame_write+0x108>)
    3bac:	701a      	strb	r2, [r3, #0]
    3bae:	9b01      	ldr	r3, [sp, #4]
    3bb0:	4698      	mov	r8, r3
    3bb2:	4f39      	ldr	r7, [pc, #228]	; (3c98 <trx_frame_write+0x10c>)
    3bb4:	3201      	adds	r2, #1
    3bb6:	4939      	ldr	r1, [pc, #228]	; (3c9c <trx_frame_write+0x110>)
    3bb8:	0038      	movs	r0, r7
    3bba:	4b39      	ldr	r3, [pc, #228]	; (3ca0 <trx_frame_write+0x114>)
    3bbc:	4798      	blx	r3
    3bbe:	683b      	ldr	r3, [r7, #0]
    3bc0:	2101      	movs	r1, #1
    3bc2:	7e1a      	ldrb	r2, [r3, #24]
    3bc4:	420a      	tst	r2, r1
    3bc6:	d0fc      	beq.n	3bc2 <trx_frame_write+0x36>
    3bc8:	7e1a      	ldrb	r2, [r3, #24]
    3bca:	07d2      	lsls	r2, r2, #31
    3bcc:	d501      	bpl.n	3bd2 <trx_frame_write+0x46>
    3bce:	2260      	movs	r2, #96	; 0x60
    3bd0:	629a      	str	r2, [r3, #40]	; 0x28
    3bd2:	2102      	movs	r1, #2
    3bd4:	7e1a      	ldrb	r2, [r3, #24]
    3bd6:	420a      	tst	r2, r1
    3bd8:	d0fc      	beq.n	3bd4 <trx_frame_write+0x48>
    3bda:	2104      	movs	r1, #4
    3bdc:	7e1a      	ldrb	r2, [r3, #24]
    3bde:	420a      	tst	r2, r1
    3be0:	d0fc      	beq.n	3bdc <trx_frame_write+0x50>
    3be2:	7e1a      	ldrb	r2, [r3, #24]
    3be4:	0752      	lsls	r2, r2, #29
    3be6:	d50c      	bpl.n	3c02 <trx_frame_write+0x76>
    3be8:	8b5a      	ldrh	r2, [r3, #26]
    3bea:	0752      	lsls	r2, r2, #29
    3bec:	d501      	bpl.n	3bf2 <trx_frame_write+0x66>
    3bee:	2204      	movs	r2, #4
    3bf0:	835a      	strh	r2, [r3, #26]
    3bf2:	4a29      	ldr	r2, [pc, #164]	; (3c98 <trx_frame_write+0x10c>)
    3bf4:	7992      	ldrb	r2, [r2, #6]
    3bf6:	2a01      	cmp	r2, #1
    3bf8:	d00b      	beq.n	3c12 <trx_frame_write+0x86>
    3bfa:	6a9a      	ldr	r2, [r3, #40]	; 0x28
    3bfc:	b2d2      	uxtb	r2, r2
    3bfe:	4929      	ldr	r1, [pc, #164]	; (3ca4 <trx_frame_write+0x118>)
    3c00:	800a      	strh	r2, [r1, #0]
    3c02:	4a25      	ldr	r2, [pc, #148]	; (3c98 <trx_frame_write+0x10c>)
    3c04:	7992      	ldrb	r2, [r2, #6]
    3c06:	4694      	mov	ip, r2
    3c08:	0021      	movs	r1, r4
    3c0a:	2701      	movs	r7, #1
    3c0c:	2002      	movs	r0, #2
    3c0e:	2404      	movs	r4, #4
    3c10:	e00d      	b.n	3c2e <trx_frame_write+0xa2>
    3c12:	6a9a      	ldr	r2, [r3, #40]	; 0x28
    3c14:	05d2      	lsls	r2, r2, #23
    3c16:	0dd2      	lsrs	r2, r2, #23
    3c18:	4922      	ldr	r1, [pc, #136]	; (3ca4 <trx_frame_write+0x118>)
    3c1a:	800a      	strh	r2, [r1, #0]
    3c1c:	e7f1      	b.n	3c02 <trx_frame_write+0x76>
    3c1e:	4662      	mov	r2, ip
    3c20:	2a01      	cmp	r2, #1
    3c22:	d01e      	beq.n	3c62 <trx_frame_write+0xd6>
    3c24:	6a9a      	ldr	r2, [r3, #40]	; 0x28
    3c26:	b2d2      	uxtb	r2, r2
    3c28:	4e1e      	ldr	r6, [pc, #120]	; (3ca4 <trx_frame_write+0x118>)
    3c2a:	8032      	strh	r2, [r6, #0]
    3c2c:	3101      	adds	r1, #1
    3c2e:	3d01      	subs	r5, #1
    3c30:	b2ed      	uxtb	r5, r5
    3c32:	2dff      	cmp	r5, #255	; 0xff
    3c34:	d01b      	beq.n	3c6e <trx_frame_write+0xe2>
    3c36:	7e1a      	ldrb	r2, [r3, #24]
    3c38:	423a      	tst	r2, r7
    3c3a:	d0fc      	beq.n	3c36 <trx_frame_write+0xaa>
    3c3c:	7e1a      	ldrb	r2, [r3, #24]
    3c3e:	423a      	tst	r2, r7
    3c40:	d001      	beq.n	3c46 <trx_frame_write+0xba>
    3c42:	780a      	ldrb	r2, [r1, #0]
    3c44:	629a      	str	r2, [r3, #40]	; 0x28
    3c46:	7e1a      	ldrb	r2, [r3, #24]
    3c48:	4202      	tst	r2, r0
    3c4a:	d0fc      	beq.n	3c46 <trx_frame_write+0xba>
    3c4c:	7e1a      	ldrb	r2, [r3, #24]
    3c4e:	4222      	tst	r2, r4
    3c50:	d0fc      	beq.n	3c4c <trx_frame_write+0xc0>
    3c52:	7e1a      	ldrb	r2, [r3, #24]
    3c54:	4222      	tst	r2, r4
    3c56:	d0e9      	beq.n	3c2c <trx_frame_write+0xa0>
    3c58:	8b5a      	ldrh	r2, [r3, #26]
    3c5a:	4222      	tst	r2, r4
    3c5c:	d0df      	beq.n	3c1e <trx_frame_write+0x92>
    3c5e:	835c      	strh	r4, [r3, #26]
    3c60:	e7dd      	b.n	3c1e <trx_frame_write+0x92>
    3c62:	6a9a      	ldr	r2, [r3, #40]	; 0x28
    3c64:	05d2      	lsls	r2, r2, #23
    3c66:	0dd2      	lsrs	r2, r2, #23
    3c68:	4e0e      	ldr	r6, [pc, #56]	; (3ca4 <trx_frame_write+0x118>)
    3c6a:	8032      	strh	r2, [r6, #0]
    3c6c:	e7de      	b.n	3c2c <trx_frame_write+0xa0>
    3c6e:	2200      	movs	r2, #0
    3c70:	490a      	ldr	r1, [pc, #40]	; (3c9c <trx_frame_write+0x110>)
    3c72:	4809      	ldr	r0, [pc, #36]	; (3c98 <trx_frame_write+0x10c>)
    3c74:	4b0a      	ldr	r3, [pc, #40]	; (3ca0 <trx_frame_write+0x114>)
    3c76:	4798      	blx	r3
    3c78:	23ff      	movs	r3, #255	; 0xff
    3c7a:	4642      	mov	r2, r8
    3c7c:	4213      	tst	r3, r2
    3c7e:	d005      	beq.n	3c8c <trx_frame_write+0x100>
    3c80:	2201      	movs	r2, #1
    3c82:	4b04      	ldr	r3, [pc, #16]	; (3c94 <trx_frame_write+0x108>)
    3c84:	701a      	strb	r2, [r3, #0]
    3c86:	f3bf 8f5f 	dmb	sy
    3c8a:	b662      	cpsie	i
    3c8c:	b002      	add	sp, #8
    3c8e:	bc04      	pop	{r2}
    3c90:	4690      	mov	r8, r2
    3c92:	bdf0      	pop	{r4, r5, r6, r7, pc}
    3c94:	20000008 	.word	0x20000008
    3c98:	200019ec 	.word	0x200019ec
    3c9c:	200019b0 	.word	0x200019b0
    3ca0:	00000b61 	.word	0x00000b61
    3ca4:	200019a8 	.word	0x200019a8

00003ca8 <trx_sram_write>:
    3ca8:	b5f0      	push	{r4, r5, r6, r7, lr}
    3caa:	46c6      	mov	lr, r8
    3cac:	b500      	push	{lr}
    3cae:	b082      	sub	sp, #8
    3cb0:	0006      	movs	r6, r0
    3cb2:	000d      	movs	r5, r1
    3cb4:	0014      	movs	r4, r2
    3cb6:	f3ef 8310 	mrs	r3, PRIMASK
    3cba:	425a      	negs	r2, r3
    3cbc:	4153      	adcs	r3, r2
    3cbe:	9301      	str	r3, [sp, #4]
    3cc0:	b672      	cpsid	i
    3cc2:	f3bf 8f5f 	dmb	sy
    3cc6:	2200      	movs	r2, #0
    3cc8:	4b4d      	ldr	r3, [pc, #308]	; (3e00 <trx_sram_write+0x158>)
    3cca:	701a      	strb	r2, [r3, #0]
    3ccc:	9b01      	ldr	r3, [sp, #4]
    3cce:	4698      	mov	r8, r3
    3cd0:	4f4c      	ldr	r7, [pc, #304]	; (3e04 <trx_sram_write+0x15c>)
    3cd2:	3201      	adds	r2, #1
    3cd4:	494c      	ldr	r1, [pc, #304]	; (3e08 <trx_sram_write+0x160>)
    3cd6:	0038      	movs	r0, r7
    3cd8:	4b4c      	ldr	r3, [pc, #304]	; (3e0c <trx_sram_write+0x164>)
    3cda:	4798      	blx	r3
    3cdc:	683b      	ldr	r3, [r7, #0]
    3cde:	2101      	movs	r1, #1
    3ce0:	7e1a      	ldrb	r2, [r3, #24]
    3ce2:	420a      	tst	r2, r1
    3ce4:	d0fc      	beq.n	3ce0 <trx_sram_write+0x38>
    3ce6:	7e1a      	ldrb	r2, [r3, #24]
    3ce8:	07d2      	lsls	r2, r2, #31
    3cea:	d501      	bpl.n	3cf0 <trx_sram_write+0x48>
    3cec:	2240      	movs	r2, #64	; 0x40
    3cee:	629a      	str	r2, [r3, #40]	; 0x28
    3cf0:	2102      	movs	r1, #2
    3cf2:	7e1a      	ldrb	r2, [r3, #24]
    3cf4:	420a      	tst	r2, r1
    3cf6:	d0fc      	beq.n	3cf2 <trx_sram_write+0x4a>
    3cf8:	2104      	movs	r1, #4
    3cfa:	7e1a      	ldrb	r2, [r3, #24]
    3cfc:	420a      	tst	r2, r1
    3cfe:	d0fc      	beq.n	3cfa <trx_sram_write+0x52>
    3d00:	7e1a      	ldrb	r2, [r3, #24]
    3d02:	0752      	lsls	r2, r2, #29
    3d04:	d50c      	bpl.n	3d20 <trx_sram_write+0x78>
    3d06:	8b5a      	ldrh	r2, [r3, #26]
    3d08:	0752      	lsls	r2, r2, #29
    3d0a:	d501      	bpl.n	3d10 <trx_sram_write+0x68>
    3d0c:	2204      	movs	r2, #4
    3d0e:	835a      	strh	r2, [r3, #26]
    3d10:	4a3c      	ldr	r2, [pc, #240]	; (3e04 <trx_sram_write+0x15c>)
    3d12:	7992      	ldrb	r2, [r2, #6]
    3d14:	2a01      	cmp	r2, #1
    3d16:	d02b      	beq.n	3d70 <trx_sram_write+0xc8>
    3d18:	6a9a      	ldr	r2, [r3, #40]	; 0x28
    3d1a:	b2d2      	uxtb	r2, r2
    3d1c:	493c      	ldr	r1, [pc, #240]	; (3e10 <trx_sram_write+0x168>)
    3d1e:	800a      	strh	r2, [r1, #0]
    3d20:	2101      	movs	r1, #1
    3d22:	7e1a      	ldrb	r2, [r3, #24]
    3d24:	420a      	tst	r2, r1
    3d26:	d0fc      	beq.n	3d22 <trx_sram_write+0x7a>
    3d28:	7e1a      	ldrb	r2, [r3, #24]
    3d2a:	07d2      	lsls	r2, r2, #31
    3d2c:	d500      	bpl.n	3d30 <trx_sram_write+0x88>
    3d2e:	629e      	str	r6, [r3, #40]	; 0x28
    3d30:	2102      	movs	r1, #2
    3d32:	7e1a      	ldrb	r2, [r3, #24]
    3d34:	420a      	tst	r2, r1
    3d36:	d0fc      	beq.n	3d32 <trx_sram_write+0x8a>
    3d38:	2104      	movs	r1, #4
    3d3a:	7e1a      	ldrb	r2, [r3, #24]
    3d3c:	420a      	tst	r2, r1
    3d3e:	d0fc      	beq.n	3d3a <trx_sram_write+0x92>
    3d40:	7e1a      	ldrb	r2, [r3, #24]
    3d42:	0752      	lsls	r2, r2, #29
    3d44:	d50c      	bpl.n	3d60 <trx_sram_write+0xb8>
    3d46:	8b5a      	ldrh	r2, [r3, #26]
    3d48:	0752      	lsls	r2, r2, #29
    3d4a:	d501      	bpl.n	3d50 <trx_sram_write+0xa8>
    3d4c:	2204      	movs	r2, #4
    3d4e:	835a      	strh	r2, [r3, #26]
    3d50:	4a2c      	ldr	r2, [pc, #176]	; (3e04 <trx_sram_write+0x15c>)
    3d52:	7992      	ldrb	r2, [r2, #6]
    3d54:	2a01      	cmp	r2, #1
    3d56:	d011      	beq.n	3d7c <trx_sram_write+0xd4>
    3d58:	6a9a      	ldr	r2, [r3, #40]	; 0x28
    3d5a:	b2d2      	uxtb	r2, r2
    3d5c:	492c      	ldr	r1, [pc, #176]	; (3e10 <trx_sram_write+0x168>)
    3d5e:	800a      	strh	r2, [r1, #0]
    3d60:	4a28      	ldr	r2, [pc, #160]	; (3e04 <trx_sram_write+0x15c>)
    3d62:	7992      	ldrb	r2, [r2, #6]
    3d64:	4694      	mov	ip, r2
    3d66:	0028      	movs	r0, r5
    3d68:	2601      	movs	r6, #1
    3d6a:	2502      	movs	r5, #2
    3d6c:	2104      	movs	r1, #4
    3d6e:	e013      	b.n	3d98 <trx_sram_write+0xf0>
    3d70:	6a9a      	ldr	r2, [r3, #40]	; 0x28
    3d72:	05d2      	lsls	r2, r2, #23
    3d74:	0dd2      	lsrs	r2, r2, #23
    3d76:	4926      	ldr	r1, [pc, #152]	; (3e10 <trx_sram_write+0x168>)
    3d78:	800a      	strh	r2, [r1, #0]
    3d7a:	e7d1      	b.n	3d20 <trx_sram_write+0x78>
    3d7c:	6a9a      	ldr	r2, [r3, #40]	; 0x28
    3d7e:	05d2      	lsls	r2, r2, #23
    3d80:	0dd2      	lsrs	r2, r2, #23
    3d82:	4923      	ldr	r1, [pc, #140]	; (3e10 <trx_sram_write+0x168>)
    3d84:	800a      	strh	r2, [r1, #0]
    3d86:	e7eb      	b.n	3d60 <trx_sram_write+0xb8>
    3d88:	4662      	mov	r2, ip
    3d8a:	2a01      	cmp	r2, #1
    3d8c:	d01e      	beq.n	3dcc <trx_sram_write+0x124>
    3d8e:	6a9a      	ldr	r2, [r3, #40]	; 0x28
    3d90:	b2d2      	uxtb	r2, r2
    3d92:	4f1f      	ldr	r7, [pc, #124]	; (3e10 <trx_sram_write+0x168>)
    3d94:	803a      	strh	r2, [r7, #0]
    3d96:	3001      	adds	r0, #1
    3d98:	3c01      	subs	r4, #1
    3d9a:	b2e4      	uxtb	r4, r4
    3d9c:	2cff      	cmp	r4, #255	; 0xff
    3d9e:	d01b      	beq.n	3dd8 <trx_sram_write+0x130>
    3da0:	7e1a      	ldrb	r2, [r3, #24]
    3da2:	4232      	tst	r2, r6
    3da4:	d0fc      	beq.n	3da0 <trx_sram_write+0xf8>
    3da6:	7e1a      	ldrb	r2, [r3, #24]
    3da8:	4232      	tst	r2, r6
    3daa:	d001      	beq.n	3db0 <trx_sram_write+0x108>
    3dac:	7802      	ldrb	r2, [r0, #0]
    3dae:	629a      	str	r2, [r3, #40]	; 0x28
    3db0:	7e1a      	ldrb	r2, [r3, #24]
    3db2:	422a      	tst	r2, r5
    3db4:	d0fc      	beq.n	3db0 <trx_sram_write+0x108>
    3db6:	7e1a      	ldrb	r2, [r3, #24]
    3db8:	420a      	tst	r2, r1
    3dba:	d0fc      	beq.n	3db6 <trx_sram_write+0x10e>
    3dbc:	7e1a      	ldrb	r2, [r3, #24]
    3dbe:	420a      	tst	r2, r1
    3dc0:	d0e9      	beq.n	3d96 <trx_sram_write+0xee>
    3dc2:	8b5a      	ldrh	r2, [r3, #26]
    3dc4:	420a      	tst	r2, r1
    3dc6:	d0df      	beq.n	3d88 <trx_sram_write+0xe0>
    3dc8:	8359      	strh	r1, [r3, #26]
    3dca:	e7dd      	b.n	3d88 <trx_sram_write+0xe0>
    3dcc:	6a9a      	ldr	r2, [r3, #40]	; 0x28
    3dce:	05d2      	lsls	r2, r2, #23
    3dd0:	0dd2      	lsrs	r2, r2, #23
    3dd2:	4f0f      	ldr	r7, [pc, #60]	; (3e10 <trx_sram_write+0x168>)
    3dd4:	803a      	strh	r2, [r7, #0]
    3dd6:	e7de      	b.n	3d96 <trx_sram_write+0xee>
    3dd8:	2200      	movs	r2, #0
    3dda:	490b      	ldr	r1, [pc, #44]	; (3e08 <trx_sram_write+0x160>)
    3ddc:	4809      	ldr	r0, [pc, #36]	; (3e04 <trx_sram_write+0x15c>)
    3dde:	4b0b      	ldr	r3, [pc, #44]	; (3e0c <trx_sram_write+0x164>)
    3de0:	4798      	blx	r3
    3de2:	23ff      	movs	r3, #255	; 0xff
    3de4:	4642      	mov	r2, r8
    3de6:	4213      	tst	r3, r2
    3de8:	d005      	beq.n	3df6 <trx_sram_write+0x14e>
    3dea:	2201      	movs	r2, #1
    3dec:	4b04      	ldr	r3, [pc, #16]	; (3e00 <trx_sram_write+0x158>)
    3dee:	701a      	strb	r2, [r3, #0]
    3df0:	f3bf 8f5f 	dmb	sy
    3df4:	b662      	cpsie	i
    3df6:	b002      	add	sp, #8
    3df8:	bc04      	pop	{r2}
    3dfa:	4690      	mov	r8, r2
    3dfc:	bdf0      	pop	{r4, r5, r6, r7, pc}
    3dfe:	46c0      	nop			; (mov r8, r8)
    3e00:	20000008 	.word	0x20000008
    3e04:	200019ec 	.word	0x200019ec
    3e08:	200019b0 	.word	0x200019b0
    3e0c:	00000b61 	.word	0x00000b61
    3e10:	200019a8 	.word	0x200019a8

00003e14 <trx_sram_read>:
    3e14:	b5f0      	push	{r4, r5, r6, r7, lr}
    3e16:	46d6      	mov	lr, sl
    3e18:	464f      	mov	r7, r9
    3e1a:	4646      	mov	r6, r8
    3e1c:	b5c0      	push	{r6, r7, lr}
    3e1e:	b082      	sub	sp, #8
    3e20:	0004      	movs	r4, r0
    3e22:	000d      	movs	r5, r1
    3e24:	0017      	movs	r7, r2
    3e26:	2001      	movs	r0, #1
    3e28:	4b56      	ldr	r3, [pc, #344]	; (3f84 <trx_sram_read+0x170>)
    3e2a:	4798      	blx	r3
    3e2c:	f3ef 8310 	mrs	r3, PRIMASK
    3e30:	425a      	negs	r2, r3
    3e32:	4153      	adcs	r3, r2
    3e34:	9301      	str	r3, [sp, #4]
    3e36:	b672      	cpsid	i
    3e38:	f3bf 8f5f 	dmb	sy
    3e3c:	2200      	movs	r2, #0
    3e3e:	4b52      	ldr	r3, [pc, #328]	; (3f88 <trx_sram_read+0x174>)
    3e40:	701a      	strb	r2, [r3, #0]
    3e42:	9b01      	ldr	r3, [sp, #4]
    3e44:	4698      	mov	r8, r3
    3e46:	4e51      	ldr	r6, [pc, #324]	; (3f8c <trx_sram_read+0x178>)
    3e48:	3201      	adds	r2, #1
    3e4a:	4951      	ldr	r1, [pc, #324]	; (3f90 <trx_sram_read+0x17c>)
    3e4c:	0030      	movs	r0, r6
    3e4e:	4b51      	ldr	r3, [pc, #324]	; (3f94 <trx_sram_read+0x180>)
    3e50:	4798      	blx	r3
    3e52:	6833      	ldr	r3, [r6, #0]
    3e54:	2101      	movs	r1, #1
    3e56:	7e1a      	ldrb	r2, [r3, #24]
    3e58:	420a      	tst	r2, r1
    3e5a:	d0fc      	beq.n	3e56 <trx_sram_read+0x42>
    3e5c:	7e1a      	ldrb	r2, [r3, #24]
    3e5e:	07d2      	lsls	r2, r2, #31
    3e60:	d501      	bpl.n	3e66 <trx_sram_read+0x52>
    3e62:	2200      	movs	r2, #0
    3e64:	629a      	str	r2, [r3, #40]	; 0x28
    3e66:	2102      	movs	r1, #2
    3e68:	7e1a      	ldrb	r2, [r3, #24]
    3e6a:	420a      	tst	r2, r1
    3e6c:	d0fc      	beq.n	3e68 <trx_sram_read+0x54>
    3e6e:	2104      	movs	r1, #4
    3e70:	7e1a      	ldrb	r2, [r3, #24]
    3e72:	420a      	tst	r2, r1
    3e74:	d0fc      	beq.n	3e70 <trx_sram_read+0x5c>
    3e76:	7e1a      	ldrb	r2, [r3, #24]
    3e78:	0752      	lsls	r2, r2, #29
    3e7a:	d50c      	bpl.n	3e96 <trx_sram_read+0x82>
    3e7c:	8b5a      	ldrh	r2, [r3, #26]
    3e7e:	0752      	lsls	r2, r2, #29
    3e80:	d501      	bpl.n	3e86 <trx_sram_read+0x72>
    3e82:	2204      	movs	r2, #4
    3e84:	835a      	strh	r2, [r3, #26]
    3e86:	4a41      	ldr	r2, [pc, #260]	; (3f8c <trx_sram_read+0x178>)
    3e88:	7992      	ldrb	r2, [r2, #6]
    3e8a:	2a01      	cmp	r2, #1
    3e8c:	d033      	beq.n	3ef6 <trx_sram_read+0xe2>
    3e8e:	6a9a      	ldr	r2, [r3, #40]	; 0x28
    3e90:	b2d2      	uxtb	r2, r2
    3e92:	4941      	ldr	r1, [pc, #260]	; (3f98 <trx_sram_read+0x184>)
    3e94:	800a      	strh	r2, [r1, #0]
    3e96:	2101      	movs	r1, #1
    3e98:	7e1a      	ldrb	r2, [r3, #24]
    3e9a:	420a      	tst	r2, r1
    3e9c:	d0fc      	beq.n	3e98 <trx_sram_read+0x84>
    3e9e:	7e1a      	ldrb	r2, [r3, #24]
    3ea0:	07d2      	lsls	r2, r2, #31
    3ea2:	d500      	bpl.n	3ea6 <trx_sram_read+0x92>
    3ea4:	629c      	str	r4, [r3, #40]	; 0x28
    3ea6:	2102      	movs	r1, #2
    3ea8:	7e1a      	ldrb	r2, [r3, #24]
    3eaa:	420a      	tst	r2, r1
    3eac:	d0fc      	beq.n	3ea8 <trx_sram_read+0x94>
    3eae:	2104      	movs	r1, #4
    3eb0:	7e1a      	ldrb	r2, [r3, #24]
    3eb2:	420a      	tst	r2, r1
    3eb4:	d0fc      	beq.n	3eb0 <trx_sram_read+0x9c>
    3eb6:	7e1a      	ldrb	r2, [r3, #24]
    3eb8:	0752      	lsls	r2, r2, #29
    3eba:	d50c      	bpl.n	3ed6 <trx_sram_read+0xc2>
    3ebc:	8b5a      	ldrh	r2, [r3, #26]
    3ebe:	0752      	lsls	r2, r2, #29
    3ec0:	d501      	bpl.n	3ec6 <trx_sram_read+0xb2>
    3ec2:	2204      	movs	r2, #4
    3ec4:	835a      	strh	r2, [r3, #26]
    3ec6:	4a31      	ldr	r2, [pc, #196]	; (3f8c <trx_sram_read+0x178>)
    3ec8:	7992      	ldrb	r2, [r2, #6]
    3eca:	2a01      	cmp	r2, #1
    3ecc:	d019      	beq.n	3f02 <trx_sram_read+0xee>
    3ece:	6a9b      	ldr	r3, [r3, #40]	; 0x28
    3ed0:	b2db      	uxtb	r3, r3
    3ed2:	4a31      	ldr	r2, [pc, #196]	; (3f98 <trx_sram_read+0x184>)
    3ed4:	8013      	strh	r3, [r2, #0]
    3ed6:	1e7b      	subs	r3, r7, #1
    3ed8:	b2db      	uxtb	r3, r3
    3eda:	2f00      	cmp	r7, #0
    3edc:	d03c      	beq.n	3f58 <trx_sram_read+0x144>
    3ede:	3301      	adds	r3, #1
    3ee0:	469c      	mov	ip, r3
    3ee2:	44ac      	add	ip, r5
    3ee4:	2700      	movs	r7, #0
    3ee6:	4e29      	ldr	r6, [pc, #164]	; (3f8c <trx_sram_read+0x178>)
    3ee8:	2001      	movs	r0, #1
    3eea:	2300      	movs	r3, #0
    3eec:	469a      	mov	sl, r3
    3eee:	2402      	movs	r4, #2
    3ef0:	2104      	movs	r1, #4
    3ef2:	46b1      	mov	r9, r6
    3ef4:	e015      	b.n	3f22 <trx_sram_read+0x10e>
    3ef6:	6a9a      	ldr	r2, [r3, #40]	; 0x28
    3ef8:	05d2      	lsls	r2, r2, #23
    3efa:	0dd2      	lsrs	r2, r2, #23
    3efc:	4926      	ldr	r1, [pc, #152]	; (3f98 <trx_sram_read+0x184>)
    3efe:	800a      	strh	r2, [r1, #0]
    3f00:	e7c9      	b.n	3e96 <trx_sram_read+0x82>
    3f02:	6a9b      	ldr	r3, [r3, #40]	; 0x28
    3f04:	05db      	lsls	r3, r3, #23
    3f06:	0ddb      	lsrs	r3, r3, #23
    3f08:	4a23      	ldr	r2, [pc, #140]	; (3f98 <trx_sram_read+0x184>)
    3f0a:	8013      	strh	r3, [r2, #0]
    3f0c:	e7e3      	b.n	3ed6 <trx_sram_read+0xc2>
    3f0e:	464a      	mov	r2, r9
    3f10:	7992      	ldrb	r2, [r2, #6]
    3f12:	2a01      	cmp	r2, #1
    3f14:	d01c      	beq.n	3f50 <trx_sram_read+0x13c>
    3f16:	6a9f      	ldr	r7, [r3, #40]	; 0x28
    3f18:	b2ff      	uxtb	r7, r7
    3f1a:	702f      	strb	r7, [r5, #0]
    3f1c:	3501      	adds	r5, #1
    3f1e:	4565      	cmp	r5, ip
    3f20:	d01a      	beq.n	3f58 <trx_sram_read+0x144>
    3f22:	6833      	ldr	r3, [r6, #0]
    3f24:	7e1a      	ldrb	r2, [r3, #24]
    3f26:	4202      	tst	r2, r0
    3f28:	d0fc      	beq.n	3f24 <trx_sram_read+0x110>
    3f2a:	7e1a      	ldrb	r2, [r3, #24]
    3f2c:	4202      	tst	r2, r0
    3f2e:	d001      	beq.n	3f34 <trx_sram_read+0x120>
    3f30:	4652      	mov	r2, sl
    3f32:	629a      	str	r2, [r3, #40]	; 0x28
    3f34:	7e1a      	ldrb	r2, [r3, #24]
    3f36:	4222      	tst	r2, r4
    3f38:	d0fc      	beq.n	3f34 <trx_sram_read+0x120>
    3f3a:	7e1a      	ldrb	r2, [r3, #24]
    3f3c:	420a      	tst	r2, r1
    3f3e:	d0fc      	beq.n	3f3a <trx_sram_read+0x126>
    3f40:	7e1a      	ldrb	r2, [r3, #24]
    3f42:	420a      	tst	r2, r1
    3f44:	d0e9      	beq.n	3f1a <trx_sram_read+0x106>
    3f46:	8b5a      	ldrh	r2, [r3, #26]
    3f48:	420a      	tst	r2, r1
    3f4a:	d0e0      	beq.n	3f0e <trx_sram_read+0xfa>
    3f4c:	8359      	strh	r1, [r3, #26]
    3f4e:	e7de      	b.n	3f0e <trx_sram_read+0xfa>
    3f50:	6a9f      	ldr	r7, [r3, #40]	; 0x28
    3f52:	05ff      	lsls	r7, r7, #23
    3f54:	0dff      	lsrs	r7, r7, #23
    3f56:	e7e0      	b.n	3f1a <trx_sram_read+0x106>
    3f58:	2200      	movs	r2, #0
    3f5a:	490d      	ldr	r1, [pc, #52]	; (3f90 <trx_sram_read+0x17c>)
    3f5c:	480b      	ldr	r0, [pc, #44]	; (3f8c <trx_sram_read+0x178>)
    3f5e:	4b0d      	ldr	r3, [pc, #52]	; (3f94 <trx_sram_read+0x180>)
    3f60:	4798      	blx	r3
    3f62:	23ff      	movs	r3, #255	; 0xff
    3f64:	4642      	mov	r2, r8
    3f66:	4213      	tst	r3, r2
    3f68:	d005      	beq.n	3f76 <trx_sram_read+0x162>
    3f6a:	2201      	movs	r2, #1
    3f6c:	4b06      	ldr	r3, [pc, #24]	; (3f88 <trx_sram_read+0x174>)
    3f6e:	701a      	strb	r2, [r3, #0]
    3f70:	f3bf 8f5f 	dmb	sy
    3f74:	b662      	cpsie	i
    3f76:	b002      	add	sp, #8
    3f78:	bc1c      	pop	{r2, r3, r4}
    3f7a:	4690      	mov	r8, r2
    3f7c:	4699      	mov	r9, r3
    3f7e:	46a2      	mov	sl, r4
    3f80:	bdf0      	pop	{r4, r5, r6, r7, pc}
    3f82:	46c0      	nop			; (mov r8, r8)
    3f84:	00000155 	.word	0x00000155
    3f88:	20000008 	.word	0x20000008
    3f8c:	200019ec 	.word	0x200019ec
    3f90:	200019b0 	.word	0x200019b0
    3f94:	00000b61 	.word	0x00000b61
    3f98:	200019a8 	.word	0x200019a8

00003f9c <trx_aes_wrrd>:
    3f9c:	b5f0      	push	{r4, r5, r6, r7, lr}
    3f9e:	46d6      	mov	lr, sl
    3fa0:	464f      	mov	r7, r9
    3fa2:	4646      	mov	r6, r8
    3fa4:	b5c0      	push	{r6, r7, lr}
    3fa6:	0006      	movs	r6, r0
    3fa8:	468a      	mov	sl, r1
    3faa:	0014      	movs	r4, r2
    3fac:	2001      	movs	r0, #1
    3fae:	4b76      	ldr	r3, [pc, #472]	; (4188 <trx_aes_wrrd+0x1ec>)
    3fb0:	4798      	blx	r3
    3fb2:	2100      	movs	r1, #0
    3fb4:	2000      	movs	r0, #0
    3fb6:	4b75      	ldr	r3, [pc, #468]	; (418c <trx_aes_wrrd+0x1f0>)
    3fb8:	4798      	blx	r3
    3fba:	4f75      	ldr	r7, [pc, #468]	; (4190 <trx_aes_wrrd+0x1f4>)
    3fbc:	2201      	movs	r2, #1
    3fbe:	4975      	ldr	r1, [pc, #468]	; (4194 <trx_aes_wrrd+0x1f8>)
    3fc0:	0038      	movs	r0, r7
    3fc2:	4b75      	ldr	r3, [pc, #468]	; (4198 <trx_aes_wrrd+0x1fc>)
    3fc4:	4798      	blx	r3
    3fc6:	683b      	ldr	r3, [r7, #0]
    3fc8:	2101      	movs	r1, #1
    3fca:	7e1a      	ldrb	r2, [r3, #24]
    3fcc:	420a      	tst	r2, r1
    3fce:	d0fc      	beq.n	3fca <trx_aes_wrrd+0x2e>
    3fd0:	7e1a      	ldrb	r2, [r3, #24]
    3fd2:	07d2      	lsls	r2, r2, #31
    3fd4:	d501      	bpl.n	3fda <trx_aes_wrrd+0x3e>
    3fd6:	2240      	movs	r2, #64	; 0x40
    3fd8:	629a      	str	r2, [r3, #40]	; 0x28
    3fda:	2102      	movs	r1, #2
    3fdc:	7e1a      	ldrb	r2, [r3, #24]
    3fde:	420a      	tst	r2, r1
    3fe0:	d0fc      	beq.n	3fdc <trx_aes_wrrd+0x40>
    3fe2:	2104      	movs	r1, #4
    3fe4:	7e1a      	ldrb	r2, [r3, #24]
    3fe6:	420a      	tst	r2, r1
    3fe8:	d0fc      	beq.n	3fe4 <trx_aes_wrrd+0x48>
    3fea:	7e1a      	ldrb	r2, [r3, #24]
    3fec:	0752      	lsls	r2, r2, #29
    3fee:	d50c      	bpl.n	400a <trx_aes_wrrd+0x6e>
    3ff0:	8b5a      	ldrh	r2, [r3, #26]
    3ff2:	0752      	lsls	r2, r2, #29
    3ff4:	d501      	bpl.n	3ffa <trx_aes_wrrd+0x5e>
    3ff6:	2204      	movs	r2, #4
    3ff8:	835a      	strh	r2, [r3, #26]
    3ffa:	4a65      	ldr	r2, [pc, #404]	; (4190 <trx_aes_wrrd+0x1f4>)
    3ffc:	7992      	ldrb	r2, [r2, #6]
    3ffe:	2a01      	cmp	r2, #1
    4000:	d055      	beq.n	40ae <trx_aes_wrrd+0x112>
    4002:	6a9a      	ldr	r2, [r3, #40]	; 0x28
    4004:	b2d2      	uxtb	r2, r2
    4006:	4965      	ldr	r1, [pc, #404]	; (419c <trx_aes_wrrd+0x200>)
    4008:	800a      	strh	r2, [r1, #0]
    400a:	2101      	movs	r1, #1
    400c:	7e1a      	ldrb	r2, [r3, #24]
    400e:	420a      	tst	r2, r1
    4010:	d0fc      	beq.n	400c <trx_aes_wrrd+0x70>
    4012:	7e1a      	ldrb	r2, [r3, #24]
    4014:	07d2      	lsls	r2, r2, #31
    4016:	d500      	bpl.n	401a <trx_aes_wrrd+0x7e>
    4018:	629e      	str	r6, [r3, #40]	; 0x28
    401a:	2102      	movs	r1, #2
    401c:	7e1a      	ldrb	r2, [r3, #24]
    401e:	420a      	tst	r2, r1
    4020:	d0fc      	beq.n	401c <trx_aes_wrrd+0x80>
    4022:	2104      	movs	r1, #4
    4024:	7e1a      	ldrb	r2, [r3, #24]
    4026:	420a      	tst	r2, r1
    4028:	d0fc      	beq.n	4024 <trx_aes_wrrd+0x88>
    402a:	7e1a      	ldrb	r2, [r3, #24]
    402c:	0752      	lsls	r2, r2, #29
    402e:	d50c      	bpl.n	404a <trx_aes_wrrd+0xae>
    4030:	8b5a      	ldrh	r2, [r3, #26]
    4032:	0752      	lsls	r2, r2, #29
    4034:	d501      	bpl.n	403a <trx_aes_wrrd+0x9e>
    4036:	2204      	movs	r2, #4
    4038:	835a      	strh	r2, [r3, #26]
    403a:	4a55      	ldr	r2, [pc, #340]	; (4190 <trx_aes_wrrd+0x1f4>)
    403c:	7992      	ldrb	r2, [r2, #6]
    403e:	2a01      	cmp	r2, #1
    4040:	d03b      	beq.n	40ba <trx_aes_wrrd+0x11e>
    4042:	6a9a      	ldr	r2, [r3, #40]	; 0x28
    4044:	b2d2      	uxtb	r2, r2
    4046:	4955      	ldr	r1, [pc, #340]	; (419c <trx_aes_wrrd+0x200>)
    4048:	800a      	strh	r2, [r1, #0]
    404a:	2101      	movs	r1, #1
    404c:	7e1a      	ldrb	r2, [r3, #24]
    404e:	420a      	tst	r2, r1
    4050:	d0fc      	beq.n	404c <trx_aes_wrrd+0xb0>
    4052:	7e1a      	ldrb	r2, [r3, #24]
    4054:	07d2      	lsls	r2, r2, #31
    4056:	d502      	bpl.n	405e <trx_aes_wrrd+0xc2>
    4058:	4652      	mov	r2, sl
    405a:	7812      	ldrb	r2, [r2, #0]
    405c:	629a      	str	r2, [r3, #40]	; 0x28
    405e:	2102      	movs	r1, #2
    4060:	7e1a      	ldrb	r2, [r3, #24]
    4062:	420a      	tst	r2, r1
    4064:	d0fc      	beq.n	4060 <trx_aes_wrrd+0xc4>
    4066:	2104      	movs	r1, #4
    4068:	7e1a      	ldrb	r2, [r3, #24]
    406a:	420a      	tst	r2, r1
    406c:	d0fc      	beq.n	4068 <trx_aes_wrrd+0xcc>
    406e:	7e1a      	ldrb	r2, [r3, #24]
    4070:	0752      	lsls	r2, r2, #29
    4072:	d50c      	bpl.n	408e <trx_aes_wrrd+0xf2>
    4074:	8b5a      	ldrh	r2, [r3, #26]
    4076:	0752      	lsls	r2, r2, #29
    4078:	d501      	bpl.n	407e <trx_aes_wrrd+0xe2>
    407a:	2204      	movs	r2, #4
    407c:	835a      	strh	r2, [r3, #26]
    407e:	4a44      	ldr	r2, [pc, #272]	; (4190 <trx_aes_wrrd+0x1f4>)
    4080:	7992      	ldrb	r2, [r2, #6]
    4082:	2a01      	cmp	r2, #1
    4084:	d01f      	beq.n	40c6 <trx_aes_wrrd+0x12a>
    4086:	6a9b      	ldr	r3, [r3, #40]	; 0x28
    4088:	b2db      	uxtb	r3, r3
    408a:	4a44      	ldr	r2, [pc, #272]	; (419c <trx_aes_wrrd+0x200>)
    408c:	8013      	strh	r3, [r2, #0]
    408e:	2700      	movs	r7, #0
    4090:	2c00      	cmp	r4, #0
    4092:	d043      	beq.n	411c <trx_aes_wrrd+0x180>
    4094:	4656      	mov	r6, sl
    4096:	3c01      	subs	r4, #1
    4098:	b2e4      	uxtb	r4, r4
    409a:	3401      	adds	r4, #1
    409c:	44a2      	add	sl, r4
    409e:	46d0      	mov	r8, sl
    40a0:	2700      	movs	r7, #0
    40a2:	4d3b      	ldr	r5, [pc, #236]	; (4190 <trx_aes_wrrd+0x1f4>)
    40a4:	2001      	movs	r0, #1
    40a6:	2402      	movs	r4, #2
    40a8:	2104      	movs	r1, #4
    40aa:	46a9      	mov	r9, r5
    40ac:	e01b      	b.n	40e6 <trx_aes_wrrd+0x14a>
    40ae:	6a9a      	ldr	r2, [r3, #40]	; 0x28
    40b0:	05d2      	lsls	r2, r2, #23
    40b2:	0dd2      	lsrs	r2, r2, #23
    40b4:	4939      	ldr	r1, [pc, #228]	; (419c <trx_aes_wrrd+0x200>)
    40b6:	800a      	strh	r2, [r1, #0]
    40b8:	e7a7      	b.n	400a <trx_aes_wrrd+0x6e>
    40ba:	6a9a      	ldr	r2, [r3, #40]	; 0x28
    40bc:	05d2      	lsls	r2, r2, #23
    40be:	0dd2      	lsrs	r2, r2, #23
    40c0:	4936      	ldr	r1, [pc, #216]	; (419c <trx_aes_wrrd+0x200>)
    40c2:	800a      	strh	r2, [r1, #0]
    40c4:	e7c1      	b.n	404a <trx_aes_wrrd+0xae>
    40c6:	6a9b      	ldr	r3, [r3, #40]	; 0x28
    40c8:	05db      	lsls	r3, r3, #23
    40ca:	0ddb      	lsrs	r3, r3, #23
    40cc:	4a33      	ldr	r2, [pc, #204]	; (419c <trx_aes_wrrd+0x200>)
    40ce:	8013      	strh	r3, [r2, #0]
    40d0:	e7dd      	b.n	408e <trx_aes_wrrd+0xf2>
    40d2:	464a      	mov	r2, r9
    40d4:	7992      	ldrb	r2, [r2, #6]
    40d6:	2a01      	cmp	r2, #1
    40d8:	d01c      	beq.n	4114 <trx_aes_wrrd+0x178>
    40da:	6a9f      	ldr	r7, [r3, #40]	; 0x28
    40dc:	b2ff      	uxtb	r7, r7
    40de:	7037      	strb	r7, [r6, #0]
    40e0:	3601      	adds	r6, #1
    40e2:	45b0      	cmp	r8, r6
    40e4:	d01a      	beq.n	411c <trx_aes_wrrd+0x180>
    40e6:	682b      	ldr	r3, [r5, #0]
    40e8:	7e1a      	ldrb	r2, [r3, #24]
    40ea:	4202      	tst	r2, r0
    40ec:	d0fc      	beq.n	40e8 <trx_aes_wrrd+0x14c>
    40ee:	7e1a      	ldrb	r2, [r3, #24]
    40f0:	4202      	tst	r2, r0
    40f2:	d001      	beq.n	40f8 <trx_aes_wrrd+0x15c>
    40f4:	7872      	ldrb	r2, [r6, #1]
    40f6:	629a      	str	r2, [r3, #40]	; 0x28
    40f8:	7e1a      	ldrb	r2, [r3, #24]
    40fa:	4222      	tst	r2, r4
    40fc:	d0fc      	beq.n	40f8 <trx_aes_wrrd+0x15c>
    40fe:	7e1a      	ldrb	r2, [r3, #24]
    4100:	420a      	tst	r2, r1
    4102:	d0fc      	beq.n	40fe <trx_aes_wrrd+0x162>
    4104:	7e1a      	ldrb	r2, [r3, #24]
    4106:	420a      	tst	r2, r1
    4108:	d0e9      	beq.n	40de <trx_aes_wrrd+0x142>
    410a:	8b5a      	ldrh	r2, [r3, #26]
    410c:	420a      	tst	r2, r1
    410e:	d0e0      	beq.n	40d2 <trx_aes_wrrd+0x136>
    4110:	8359      	strh	r1, [r3, #26]
    4112:	e7de      	b.n	40d2 <trx_aes_wrrd+0x136>
    4114:	6a9f      	ldr	r7, [r3, #40]	; 0x28
    4116:	05ff      	lsls	r7, r7, #23
    4118:	0dff      	lsrs	r7, r7, #23
    411a:	e7e0      	b.n	40de <trx_aes_wrrd+0x142>
    411c:	4b1c      	ldr	r3, [pc, #112]	; (4190 <trx_aes_wrrd+0x1f4>)
    411e:	681b      	ldr	r3, [r3, #0]
    4120:	2101      	movs	r1, #1
    4122:	7e1a      	ldrb	r2, [r3, #24]
    4124:	420a      	tst	r2, r1
    4126:	d0fc      	beq.n	4122 <trx_aes_wrrd+0x186>
    4128:	7e1a      	ldrb	r2, [r3, #24]
    412a:	07d2      	lsls	r2, r2, #31
    412c:	d501      	bpl.n	4132 <trx_aes_wrrd+0x196>
    412e:	2200      	movs	r2, #0
    4130:	629a      	str	r2, [r3, #40]	; 0x28
    4132:	2102      	movs	r1, #2
    4134:	7e1a      	ldrb	r2, [r3, #24]
    4136:	420a      	tst	r2, r1
    4138:	d0fc      	beq.n	4134 <trx_aes_wrrd+0x198>
    413a:	2104      	movs	r1, #4
    413c:	7e1a      	ldrb	r2, [r3, #24]
    413e:	420a      	tst	r2, r1
    4140:	d0fc      	beq.n	413c <trx_aes_wrrd+0x1a0>
    4142:	7e1a      	ldrb	r2, [r3, #24]
    4144:	0752      	lsls	r2, r2, #29
    4146:	d50a      	bpl.n	415e <trx_aes_wrrd+0x1c2>
    4148:	8b5a      	ldrh	r2, [r3, #26]
    414a:	0752      	lsls	r2, r2, #29
    414c:	d501      	bpl.n	4152 <trx_aes_wrrd+0x1b6>
    414e:	2204      	movs	r2, #4
    4150:	835a      	strh	r2, [r3, #26]
    4152:	4a0f      	ldr	r2, [pc, #60]	; (4190 <trx_aes_wrrd+0x1f4>)
    4154:	7992      	ldrb	r2, [r2, #6]
    4156:	2a01      	cmp	r2, #1
    4158:	d011      	beq.n	417e <trx_aes_wrrd+0x1e2>
    415a:	6a9f      	ldr	r7, [r3, #40]	; 0x28
    415c:	b2ff      	uxtb	r7, r7
    415e:	4653      	mov	r3, sl
    4160:	701f      	strb	r7, [r3, #0]
    4162:	2200      	movs	r2, #0
    4164:	490b      	ldr	r1, [pc, #44]	; (4194 <trx_aes_wrrd+0x1f8>)
    4166:	480a      	ldr	r0, [pc, #40]	; (4190 <trx_aes_wrrd+0x1f4>)
    4168:	4b0b      	ldr	r3, [pc, #44]	; (4198 <trx_aes_wrrd+0x1fc>)
    416a:	4798      	blx	r3
    416c:	2100      	movs	r1, #0
    416e:	2000      	movs	r0, #0
    4170:	4b0b      	ldr	r3, [pc, #44]	; (41a0 <trx_aes_wrrd+0x204>)
    4172:	4798      	blx	r3
    4174:	bc1c      	pop	{r2, r3, r4}
    4176:	4690      	mov	r8, r2
    4178:	4699      	mov	r9, r3
    417a:	46a2      	mov	sl, r4
    417c:	bdf0      	pop	{r4, r5, r6, r7, pc}
    417e:	6a9f      	ldr	r7, [r3, #40]	; 0x28
    4180:	05ff      	lsls	r7, r7, #23
    4182:	0dff      	lsrs	r7, r7, #23
    4184:	e7eb      	b.n	415e <trx_aes_wrrd+0x1c2>
    4186:	46c0      	nop			; (mov r8, r8)
    4188:	00000155 	.word	0x00000155
    418c:	000002ad 	.word	0x000002ad
    4190:	200019ec 	.word	0x200019ec
    4194:	200019b0 	.word	0x200019b0
    4198:	00000b61 	.word	0x00000b61
    419c:	200019a8 	.word	0x200019a8
    41a0:	0000028d 	.word	0x0000028d

000041a4 <appCmdIdentifyPeriodTimerHandler>:
{
	PortGroup *const port_base = port_get_group_from_gpio_pin(gpio_pin);
	uint32_t pin_mask  = (1UL << (gpio_pin % 32));

	/* Toggle pin output level */
	port_base->OUTTGL.reg = pin_mask;
    41a4:	2280      	movs	r2, #128	; 0x80
    41a6:	0312      	lsls	r2, r2, #12
    41a8:	4b01      	ldr	r3, [pc, #4]	; (41b0 <appCmdIdentifyPeriodTimerHandler+0xc>)
    41aa:	61da      	str	r2, [r3, #28]
{
#if (LED_COUNT > 0)
	LED_Toggle(LED_IDENTIFY);
#endif
	(void)timer;
}
    41ac:	4770      	bx	lr
    41ae:	46c0      	nop			; (mov r8, r8)
    41b0:	41004400 	.word	0x41004400

000041b4 <appCmdIdentifyDurationTimerHandler>:
{
    41b4:	b510      	push	{r4, lr}
		port_base->OUTSET.reg = pin_mask;
    41b6:	2280      	movs	r2, #128	; 0x80
    41b8:	0312      	lsls	r2, r2, #12
    41ba:	4b03      	ldr	r3, [pc, #12]	; (41c8 <appCmdIdentifyDurationTimerHandler+0x14>)
    41bc:	619a      	str	r2, [r3, #24]
	SYS_TimerStop(&appCmdIdentifyPeriodTimer);
    41be:	4803      	ldr	r0, [pc, #12]	; (41cc <appCmdIdentifyDurationTimerHandler+0x18>)
    41c0:	4b03      	ldr	r3, [pc, #12]	; (41d0 <appCmdIdentifyDurationTimerHandler+0x1c>)
    41c2:	4798      	blx	r3
}
    41c4:	bd10      	pop	{r4, pc}
    41c6:	46c0      	nop			; (mov r8, r8)
    41c8:	41004400 	.word	0x41004400
    41cc:	20000308 	.word	0x20000308
    41d0:	00003249 	.word	0x00003249

000041d4 <appCmdHandle>:
{
    41d4:	b5f0      	push	{r4, r5, r6, r7, lr}
    41d6:	46c6      	mov	lr, r8
    41d8:	b500      	push	{lr}
    41da:	b082      	sub	sp, #8
    41dc:	0004      	movs	r4, r0
		return false;
    41de:	2000      	movs	r0, #0
	if (size < sizeof(AppCmdHeader_t)) {
    41e0:	2900      	cmp	r1, #0
    41e2:	d007      	beq.n	41f4 <appCmdHandle+0x20>
	if (APP_COMMAND_ID_IDENTIFY == header->id) {
    41e4:	7823      	ldrb	r3, [r4, #0]
    41e6:	2b10      	cmp	r3, #16
    41e8:	d008      	beq.n	41fc <appCmdHandle+0x28>
	else if (APP_COMMAND_ID_TOPOLOGY_SIMULATION_RESET == header->id) {
    41ea:	2b20      	cmp	r3, #32
    41ec:	d02c      	beq.n	4248 <appCmdHandle+0x74>
	return false;
    41ee:	2000      	movs	r0, #0
	else if (APP_COMMAND_ID_SIMULATE_LINE_TOPOLOGY == header->id) {
    41f0:	2b21      	cmp	r3, #33	; 0x21
    41f2:	d03a      	beq.n	426a <appCmdHandle+0x96>
}
    41f4:	b002      	add	sp, #8
    41f6:	bc04      	pop	{r2}
    41f8:	4690      	mov	r8, r2
    41fa:	bdf0      	pop	{r4, r5, r6, r7, pc}
		if (sizeof(AppCmdIdentify_t) != size) {
    41fc:	2905      	cmp	r1, #5
    41fe:	d1f9      	bne.n	41f4 <appCmdHandle+0x20>
		SYS_TimerStop(&appCmdIdentifyDurationTimer);
    4200:	4e3c      	ldr	r6, [pc, #240]	; (42f4 <appCmdHandle+0x120>)
    4202:	0030      	movs	r0, r6
    4204:	4f3c      	ldr	r7, [pc, #240]	; (42f8 <appCmdHandle+0x124>)
    4206:	47b8      	blx	r7
		SYS_TimerStop(&appCmdIdentifyPeriodTimer);
    4208:	4d3c      	ldr	r5, [pc, #240]	; (42fc <appCmdHandle+0x128>)
    420a:	0028      	movs	r0, r5
    420c:	47b8      	blx	r7
		appCmdIdentifyDurationTimer.interval = req->duration;
    420e:	7862      	ldrb	r2, [r4, #1]
    4210:	78a3      	ldrb	r3, [r4, #2]
    4212:	021b      	lsls	r3, r3, #8
    4214:	4313      	orrs	r3, r2
    4216:	60b3      	str	r3, [r6, #8]
		appCmdIdentifyDurationTimer.mode = SYS_TIMER_INTERVAL_MODE;
    4218:	2300      	movs	r3, #0
    421a:	7333      	strb	r3, [r6, #12]
			= appCmdIdentifyDurationTimerHandler;
    421c:	4b38      	ldr	r3, [pc, #224]	; (4300 <appCmdHandle+0x12c>)
    421e:	6133      	str	r3, [r6, #16]
		SYS_TimerStart(&appCmdIdentifyDurationTimer);
    4220:	0030      	movs	r0, r6
    4222:	4e38      	ldr	r6, [pc, #224]	; (4304 <appCmdHandle+0x130>)
    4224:	47b0      	blx	r6
		appCmdIdentifyPeriodTimer.interval = req->period;
    4226:	78e2      	ldrb	r2, [r4, #3]
    4228:	7923      	ldrb	r3, [r4, #4]
    422a:	021b      	lsls	r3, r3, #8
    422c:	4313      	orrs	r3, r2
    422e:	60ab      	str	r3, [r5, #8]
		appCmdIdentifyPeriodTimer.mode = SYS_TIMER_PERIODIC_MODE;
    4230:	2301      	movs	r3, #1
    4232:	732b      	strb	r3, [r5, #12]
			= appCmdIdentifyPeriodTimerHandler;
    4234:	4b34      	ldr	r3, [pc, #208]	; (4308 <appCmdHandle+0x134>)
    4236:	612b      	str	r3, [r5, #16]
		SYS_TimerStart(&appCmdIdentifyPeriodTimer);
    4238:	0028      	movs	r0, r5
    423a:	47b0      	blx	r6
		port_base->OUTCLR.reg = pin_mask;
    423c:	2280      	movs	r2, #128	; 0x80
    423e:	0312      	lsls	r2, r2, #12
    4240:	4b32      	ldr	r3, [pc, #200]	; (430c <appCmdHandle+0x138>)
    4242:	615a      	str	r2, [r3, #20]
		return true;
    4244:	2001      	movs	r0, #1
    4246:	e7d5      	b.n	41f4 <appCmdHandle+0x20>
		bool routeTest = false;
    4248:	a901      	add	r1, sp, #4
    424a:	2300      	movs	r3, #0
    424c:	700b      	strb	r3, [r1, #0]
		MiApp_Set(ROUTE_TEST_MODE, (uint8_t *)&routeTest);
    424e:	2081      	movs	r0, #129	; 0x81
    4250:	4b2f      	ldr	r3, [pc, #188]	; (4310 <appCmdHandle+0x13c>)
    4252:	4798      	blx	r3
		SYS_TimerStop(&appDataSendingTimer);
    4254:	4c2f      	ldr	r4, [pc, #188]	; (4314 <appCmdHandle+0x140>)
    4256:	0020      	movs	r0, r4
    4258:	4b27      	ldr	r3, [pc, #156]	; (42f8 <appCmdHandle+0x124>)
    425a:	4798      	blx	r3
		appDataSendingTimer.interval = APP_SENDING_INTERVAL;
    425c:	4b2e      	ldr	r3, [pc, #184]	; (4318 <appCmdHandle+0x144>)
    425e:	60a3      	str	r3, [r4, #8]
		SYS_TimerStart(&appDataSendingTimer);
    4260:	0020      	movs	r0, r4
    4262:	4b28      	ldr	r3, [pc, #160]	; (4304 <appCmdHandle+0x130>)
    4264:	4798      	blx	r3
	return false;
    4266:	2000      	movs	r0, #0
    4268:	e7c4      	b.n	41f4 <appCmdHandle+0x20>
		uint16_t shortAddr = 0xFFFF;
    426a:	466b      	mov	r3, sp
    426c:	1c9c      	adds	r4, r3, #2
    426e:	2301      	movs	r3, #1
    4270:	425b      	negs	r3, r3
    4272:	8023      	strh	r3, [r4, #0]
		bool routeTest = true;
    4274:	466b      	mov	r3, sp
    4276:	1c5e      	adds	r6, r3, #1
    4278:	2301      	movs	r3, #1
    427a:	7033      	strb	r3, [r6, #0]
		routeEntry.coordNextHopLQI = 3;
    427c:	ab01      	add	r3, sp, #4
    427e:	2203      	movs	r2, #3
    4280:	709a      	strb	r2, [r3, #2]
		routeEntry.coordScore = 3;
    4282:	70da      	strb	r2, [r3, #3]
		SYS_TimerStop(&appDataSendingTimer);
    4284:	4d23      	ldr	r5, [pc, #140]	; (4314 <appCmdHandle+0x140>)
    4286:	0028      	movs	r0, r5
    4288:	4b1b      	ldr	r3, [pc, #108]	; (42f8 <appCmdHandle+0x124>)
    428a:	4798      	blx	r3
		appDataSendingTimer.interval = APP_SENDING_INTERVAL_IN_SIMULATION;
    428c:	4b23      	ldr	r3, [pc, #140]	; (431c <appCmdHandle+0x148>)
    428e:	60ab      	str	r3, [r5, #8]
		SYS_TimerStart(&appDataSendingTimer);
    4290:	0028      	movs	r0, r5
    4292:	4b1c      	ldr	r3, [pc, #112]	; (4304 <appCmdHandle+0x130>)
    4294:	4798      	blx	r3
		MiApp_Set(ROUTE_TEST_MODE, (uint8_t *)&routeTest);
    4296:	0031      	movs	r1, r6
    4298:	2081      	movs	r0, #129	; 0x81
    429a:	4b1d      	ldr	r3, [pc, #116]	; (4310 <appCmdHandle+0x13c>)
    429c:	4798      	blx	r3
		MiApp_Get(SHORT_ADDRESS, (uint8_t *)&shortAddr);
    429e:	0021      	movs	r1, r4
    42a0:	2002      	movs	r0, #2
    42a2:	4b1f      	ldr	r3, [pc, #124]	; (4320 <appCmdHandle+0x14c>)
    42a4:	4798      	blx	r3
		if (shortAddr & COORDINATOR_ADDRESS_MASK)
    42a6:	8825      	ldrh	r5, [r4, #0]
    42a8:	23ff      	movs	r3, #255	; 0xff
    42aa:	002a      	movs	r2, r5
    42ac:	439a      	bics	r2, r3
    42ae:	d01e      	beq.n	42ee <appCmdHandle+0x11a>
			shortAddrIndex = shortAddr >> 8;
    42b0:	0a2d      	lsrs	r5, r5, #8
			for (coordIndex = 0; coordIndex < NUM_OF_COORDINATORS; coordIndex++)
    42b2:	2400      	movs	r4, #0
					routeEntry.coordNextHop = shortAddrIndex + 1;
    42b4:	ae01      	add	r6, sp, #4
    42b6:	1c6b      	adds	r3, r5, #1
    42b8:	4698      	mov	r8, r3
				MiApp_MeshSetRouteEntry(coordIndex, &routeEntry);
    42ba:	4f1a      	ldr	r7, [pc, #104]	; (4324 <appCmdHandle+0x150>)
    42bc:	e00c      	b.n	42d8 <appCmdHandle+0x104>
				else if(coordIndex == shortAddrIndex)
    42be:	42a5      	cmp	r5, r4
    42c0:	d011      	beq.n	42e6 <appCmdHandle+0x112>
					routeEntry.coordNextHop = shortAddrIndex + 1;
    42c2:	4643      	mov	r3, r8
    42c4:	7033      	strb	r3, [r6, #0]
					routeEntry.coordHopCount = coordIndex - shortAddrIndex;
    42c6:	1b63      	subs	r3, r4, r5
    42c8:	7073      	strb	r3, [r6, #1]
				MiApp_MeshSetRouteEntry(coordIndex, &routeEntry);
    42ca:	0031      	movs	r1, r6
    42cc:	0020      	movs	r0, r4
    42ce:	47b8      	blx	r7
			for (coordIndex = 0; coordIndex < NUM_OF_COORDINATORS; coordIndex++)
    42d0:	3401      	adds	r4, #1
    42d2:	b2e4      	uxtb	r4, r4
    42d4:	2c40      	cmp	r4, #64	; 0x40
    42d6:	d00a      	beq.n	42ee <appCmdHandle+0x11a>
				if (coordIndex < shortAddrIndex)
    42d8:	42a5      	cmp	r5, r4
    42da:	d9f0      	bls.n	42be <appCmdHandle+0xea>
					routeEntry.coordNextHop = shortAddrIndex - 1;
    42dc:	1e6b      	subs	r3, r5, #1
    42de:	7033      	strb	r3, [r6, #0]
					routeEntry.coordHopCount = shortAddrIndex - coordIndex;
    42e0:	1b2b      	subs	r3, r5, r4
    42e2:	7073      	strb	r3, [r6, #1]
    42e4:	e7f1      	b.n	42ca <appCmdHandle+0xf6>
					routeEntry.coordNextHop = 0;
    42e6:	2300      	movs	r3, #0
    42e8:	7033      	strb	r3, [r6, #0]
					routeEntry.coordHopCount = 0;
    42ea:	7073      	strb	r3, [r6, #1]
    42ec:	e7ed      	b.n	42ca <appCmdHandle+0xf6>
	return false;
    42ee:	2000      	movs	r0, #0
    42f0:	e780      	b.n	41f4 <appCmdHandle+0x20>
    42f2:	46c0      	nop			; (mov r8, r8)
    42f4:	200002f4 	.word	0x200002f4
    42f8:	00003249 	.word	0x00003249
    42fc:	20000308 	.word	0x20000308
    4300:	000041b5 	.word	0x000041b5
    4304:	000032b5 	.word	0x000032b5
    4308:	000041a5 	.word	0x000041a5
    430c:	41004400 	.word	0x41004400
    4310:	00004cc5 	.word	0x00004cc5
    4314:	200019f8 	.word	0x200019f8
    4318:	00002710 	.word	0x00002710
    431c:	0000ea60 	.word	0x0000ea60
    4320:	00004fed 	.word	0x00004fed
    4324:	00008db1 	.word	0x00008db1

00004328 <APP_CommandsInit>:
	appCmdIdentifyDurationTimer.mode = SYS_TIMER_INTERVAL_MODE;
    4328:	4b05      	ldr	r3, [pc, #20]	; (4340 <APP_CommandsInit+0x18>)
    432a:	2200      	movs	r2, #0
    432c:	731a      	strb	r2, [r3, #12]
	appCmdIdentifyDurationTimer.handler = appCmdIdentifyDurationTimerHandler;
    432e:	4a05      	ldr	r2, [pc, #20]	; (4344 <APP_CommandsInit+0x1c>)
    4330:	611a      	str	r2, [r3, #16]
	appCmdIdentifyPeriodTimer.mode = SYS_TIMER_PERIODIC_MODE;
    4332:	4b05      	ldr	r3, [pc, #20]	; (4348 <APP_CommandsInit+0x20>)
    4334:	2201      	movs	r2, #1
    4336:	731a      	strb	r2, [r3, #12]
	appCmdIdentifyPeriodTimer.handler = appCmdIdentifyPeriodTimerHandler;
    4338:	4a04      	ldr	r2, [pc, #16]	; (434c <APP_CommandsInit+0x24>)
    433a:	611a      	str	r2, [r3, #16]
}
    433c:	4770      	bx	lr
    433e:	46c0      	nop			; (mov r8, r8)
    4340:	200002f4 	.word	0x200002f4
    4344:	000041b5 	.word	0x000041b5
    4348:	20000308 	.word	0x20000308
    434c:	000041a5 	.word	0x000041a5

00004350 <appCmdDataInd>:
{
    4350:	b510      	push	{r4, lr}
	appCmdHandle(ind->payload, ind->payloadSize);
    4352:	7a01      	ldrb	r1, [r0, #8]
    4354:	6840      	ldr	r0, [r0, #4]
    4356:	4b01      	ldr	r3, [pc, #4]	; (435c <appCmdDataInd+0xc>)
    4358:	4798      	blx	r3
}
    435a:	bd10      	pop	{r4, pc}
    435c:	000041d5 	.word	0x000041d5

00004360 <ReadMacAddress>:
    }

}

void ReadMacAddress(void){
	myLongAddress[0] = 16;
    4360:	4b08      	ldr	r3, [pc, #32]	; (4384 <ReadMacAddress+0x24>)
    4362:	2210      	movs	r2, #16
    4364:	701a      	strb	r2, [r3, #0]
	myLongAddress[1] = 53;
    4366:	3225      	adds	r2, #37	; 0x25
    4368:	705a      	strb	r2, [r3, #1]
	myLongAddress[2] = 0;
    436a:	2200      	movs	r2, #0
    436c:	709a      	strb	r2, [r3, #2]
	myLongAddress[3] = 32;
    436e:	3220      	adds	r2, #32
    4370:	70da      	strb	r2, [r3, #3]
	myLongAddress[4] = 89;
    4372:	3239      	adds	r2, #57	; 0x39
    4374:	711a      	strb	r2, [r3, #4]
	myLongAddress[5] = 37;
    4376:	3a34      	subs	r2, #52	; 0x34
    4378:	715a      	strb	r2, [r3, #5]
	myLongAddress[6] = 128;
    437a:	325b      	adds	r2, #91	; 0x5b
    437c:	719a      	strb	r2, [r3, #6]
	myLongAddress[7] = 130 - ID_ROUTER;
    437e:	3201      	adds	r2, #1
    4380:	71da      	strb	r2, [r3, #7]
}
    4382:	4770      	bx	lr
    4384:	20000070 	.word	0x20000070

00004388 <main>:
{
    4388:	b510      	push	{r4, lr}
	system_init();
    438a:	4b09      	ldr	r3, [pc, #36]	; (43b0 <main+0x28>)
    438c:	4798      	blx	r3
	delay_init();
    438e:	4b09      	ldr	r3, [pc, #36]	; (43b4 <main+0x2c>)
    4390:	4798      	blx	r3
	cpu_irq_enable();	
    4392:	2201      	movs	r2, #1
    4394:	4b08      	ldr	r3, [pc, #32]	; (43b8 <main+0x30>)
    4396:	701a      	strb	r2, [r3, #0]
    This function ensures the apparent order of the explicit memory operations before
    and after the instruction, without ensuring their completion.
 */
__attribute__( ( always_inline ) ) __STATIC_INLINE void __DMB(void)
{
  __ASM volatile ("dmb");
    4398:	f3bf 8f5f 	dmb	sy
  This function enables IRQ interrupts by clearing the I-bit in the CPSR.
  Can only be executed in Privileged modes.
 */
__attribute__( ( always_inline ) ) __STATIC_INLINE void __enable_irq(void)
{
  __ASM volatile ("cpsie i" : : : "memory");
    439c:	b662      	cpsie	i
	sio2host_init();
    439e:	4b07      	ldr	r3, [pc, #28]	; (43bc <main+0x34>)
    43a0:	4798      	blx	r3
	ReadMacAddress();
    43a2:	4b07      	ldr	r3, [pc, #28]	; (43c0 <main+0x38>)
    43a4:	4798      	blx	r3
	wsndemo_init();
    43a6:	4b07      	ldr	r3, [pc, #28]	; (43c4 <main+0x3c>)
    43a8:	4798      	blx	r3
		wsndemo_task();
    43aa:	4c07      	ldr	r4, [pc, #28]	; (43c8 <main+0x40>)
    43ac:	47a0      	blx	r4
    43ae:	e7fd      	b.n	43ac <main+0x24>
    43b0:	000019c1 	.word	0x000019c1
    43b4:	00000115 	.word	0x00000115
    43b8:	20000008 	.word	0x20000008
    43bc:	00001ffd 	.word	0x00001ffd
    43c0:	00004361 	.word	0x00004361
    43c4:	00004535 	.word	0x00004535
    43c8:	0000454d 	.word	0x0000454d

000043cc <appNetworkStatusTimerHandler>:
	port_base->OUTTGL.reg = pin_mask;
    43cc:	2280      	movs	r2, #128	; 0x80
    43ce:	0312      	lsls	r2, r2, #12
    43d0:	4b01      	ldr	r3, [pc, #4]	; (43d8 <appNetworkStatusTimerHandler+0xc>)
    43d2:	61da      	str	r2, [r3, #28]
{
#if (LED_COUNT > 0)
	LED_Toggle(LED_NETWORK);
#endif
	(void)timer;
}
    43d4:	4770      	bx	lr
    43d6:	46c0      	nop			; (mov r8, r8)
    43d8:	41004400 	.word	0x41004400

000043dc <Connection_Confirm>:
/**
 * Connection confirmation
 */
static void Connection_Confirm(miwi_status_t status)
{
	if (SUCCESS == status)
    43dc:	2800      	cmp	r0, #0
    43de:	d003      	beq.n	43e8 <Connection_Confirm+0xc>
	else
	{
#if defined(PAN_COORDINATOR)
		appState = APP_STATE_START_NETWORK;
#else
        appState = APP_STATE_CONNECT_NETWORK;
    43e0:	2202      	movs	r2, #2
    43e2:	4b03      	ldr	r3, [pc, #12]	; (43f0 <Connection_Confirm+0x14>)
    43e4:	701a      	strb	r2, [r3, #0]
#endif
	}
}
    43e6:	4770      	bx	lr
        appState = APP_STATE_SEND;
    43e8:	2205      	movs	r2, #5
    43ea:	4b01      	ldr	r3, [pc, #4]	; (43f0 <Connection_Confirm+0x14>)
    43ec:	701a      	strb	r2, [r3, #0]
    43ee:	e7fa      	b.n	43e6 <Connection_Confirm+0xa>
    43f0:	2000036c 	.word	0x2000036c

000043f4 <searchConfim>:
{
    43f4:	b530      	push	{r4, r5, lr}
    43f6:	b083      	sub	sp, #12
	if (foundScanResults)
    43f8:	2800      	cmp	r0, #0
    43fa:	d024      	beq.n	4446 <searchConfim+0x52>
			if (searchConfRes->beaconList[loopindex].connectionPermit)
    43fc:	7a4b      	ldrb	r3, [r1, #9]
    43fe:	2b00      	cmp	r3, #0
    4400:	d11b      	bne.n	443a <searchConfim+0x46>
    4402:	000a      	movs	r2, r1
    4404:	321b      	adds	r2, #27
    4406:	2301      	movs	r3, #1
		for (uint8_t loopindex = 0; loopindex < foundScanResults; loopindex++)
    4408:	b2dc      	uxtb	r4, r3
    440a:	42a0      	cmp	r0, r4
    440c:	d917      	bls.n	443e <searchConfim+0x4a>
			if (searchConfRes->beaconList[loopindex].connectionPermit)
    440e:	001d      	movs	r5, r3
    4410:	7814      	ldrb	r4, [r2, #0]
    4412:	3301      	adds	r3, #1
    4414:	3212      	adds	r2, #18
    4416:	2c00      	cmp	r4, #0
    4418:	d0f6      	beq.n	4408 <searchConfim+0x14>
				SHORT_ADDR_LEN, (uint8_t*)&searchConfRes->beaconList[loopindex].shortAddress, CAPABILITY_INFO, Connection_Confirm);
    441a:	00eb      	lsls	r3, r5, #3
    441c:	195a      	adds	r2, r3, r5
    441e:	0052      	lsls	r2, r2, #1
    4420:	3210      	adds	r2, #16
    4422:	188a      	adds	r2, r1, r2
				MiApp_EstablishConnection(searchConfRes->beaconList[loopindex].logicalChannel,
    4424:	195b      	adds	r3, r3, r5
    4426:	005b      	lsls	r3, r3, #1
    4428:	18c9      	adds	r1, r1, r3
    442a:	7b08      	ldrb	r0, [r1, #12]
    442c:	4b08      	ldr	r3, [pc, #32]	; (4450 <searchConfim+0x5c>)
    442e:	9300      	str	r3, [sp, #0]
    4430:	2305      	movs	r3, #5
    4432:	2102      	movs	r1, #2
    4434:	4c07      	ldr	r4, [pc, #28]	; (4454 <searchConfim+0x60>)
    4436:	47a0      	blx	r4
				return;
    4438:	e008      	b.n	444c <searchConfim+0x58>
			if (searchConfRes->beaconList[loopindex].connectionPermit)
    443a:	2500      	movs	r5, #0
    443c:	e7ed      	b.n	441a <searchConfim+0x26>
		appState = APP_STATE_CONNECT_NETWORK;
    443e:	2202      	movs	r2, #2
    4440:	4b05      	ldr	r3, [pc, #20]	; (4458 <searchConfim+0x64>)
    4442:	701a      	strb	r2, [r3, #0]
    4444:	e002      	b.n	444c <searchConfim+0x58>
		appState = APP_STATE_CONNECT_NETWORK;
    4446:	2202      	movs	r2, #2
    4448:	4b03      	ldr	r3, [pc, #12]	; (4458 <searchConfim+0x64>)
    444a:	701a      	strb	r2, [r3, #0]
}
    444c:	b003      	add	sp, #12
    444e:	bd30      	pop	{r4, r5, pc}
    4450:	000043dd 	.word	0x000043dd
    4454:	0000782d 	.word	0x0000782d
    4458:	2000036c 	.word	0x2000036c

0000445c <appDataSendingTimerHandler>:
{
    445c:	b510      	push	{r4, lr}
	if (APP_STATE_WAIT_SEND_TIMER == appState) {
    445e:	4b06      	ldr	r3, [pc, #24]	; (4478 <appDataSendingTimerHandler+0x1c>)
    4460:	781b      	ldrb	r3, [r3, #0]
    4462:	2b08      	cmp	r3, #8
    4464:	d003      	beq.n	446e <appDataSendingTimerHandler+0x12>
		SYS_TimerStart(&appDataSendingTimer);
    4466:	4805      	ldr	r0, [pc, #20]	; (447c <appDataSendingTimerHandler+0x20>)
    4468:	4b05      	ldr	r3, [pc, #20]	; (4480 <appDataSendingTimerHandler+0x24>)
    446a:	4798      	blx	r3
}
    446c:	bd10      	pop	{r4, pc}
		appState = APP_STATE_SEND;
    446e:	2205      	movs	r2, #5
    4470:	4b01      	ldr	r3, [pc, #4]	; (4478 <appDataSendingTimerHandler+0x1c>)
    4472:	701a      	strb	r2, [r3, #0]
    4474:	e7fa      	b.n	446c <appDataSendingTimerHandler+0x10>
    4476:	46c0      	nop			; (mov r8, r8)
    4478:	2000036c 	.word	0x2000036c
    447c:	200019f8 	.word	0x200019f8
    4480:	000032b5 	.word	0x000032b5

00004484 <appDataInd>:
{
    4484:	b510      	push	{r4, lr}
	AppMessage_t *msg = (AppMessage_t *)ind->payload;
    4486:	6843      	ldr	r3, [r0, #4]
    4488:	2180      	movs	r1, #128	; 0x80
    448a:	0309      	lsls	r1, r1, #12
    448c:	4a04      	ldr	r2, [pc, #16]	; (44a0 <appDataInd+0x1c>)
    448e:	61d1      	str	r1, [r2, #28]
	msg->lqi = ind->packetLQI;
    4490:	7a82      	ldrb	r2, [r0, #10]
    4492:	765a      	strb	r2, [r3, #25]
	msg->rssi = ind->packetRSSI;
    4494:	7a42      	ldrb	r2, [r0, #9]
    4496:	769a      	strb	r2, [r3, #26]
    appCmdDataInd(ind);
    4498:	4b02      	ldr	r3, [pc, #8]	; (44a4 <appDataInd+0x20>)
    449a:	4798      	blx	r3
}
    449c:	bd10      	pop	{r4, pc}
    449e:	46c0      	nop			; (mov r8, r8)
    44a0:	41004400 	.word	0x41004400
    44a4:	00004351 	.word	0x00004351

000044a8 <appDataConf>:
{
    44a8:	b510      	push	{r4, lr}
		port_base->OUTSET.reg = pin_mask;
    44aa:	2280      	movs	r2, #128	; 0x80
    44ac:	0312      	lsls	r2, r2, #12
    44ae:	4b14      	ldr	r3, [pc, #80]	; (4500 <appDataConf+0x58>)
    44b0:	619a      	str	r2, [r3, #24]
	if (SUCCESS == status) {
    44b2:	2900      	cmp	r1, #0
    44b4:	d111      	bne.n	44da <appDataConf+0x32>
		if (!appNetworkStatus) {
    44b6:	4b13      	ldr	r3, [pc, #76]	; (4504 <appDataConf+0x5c>)
    44b8:	781b      	ldrb	r3, [r3, #0]
    44ba:	2b00      	cmp	r3, #0
    44bc:	d004      	beq.n	44c8 <appDataConf+0x20>
	if (APP_STATE_WAIT_CONF == appState)
    44be:	4b12      	ldr	r3, [pc, #72]	; (4508 <appDataConf+0x60>)
    44c0:	781b      	ldrb	r3, [r3, #0]
    44c2:	2b06      	cmp	r3, #6
    44c4:	d018      	beq.n	44f8 <appDataConf+0x50>
}
    44c6:	bd10      	pop	{r4, pc}
		port_base->OUTCLR.reg = pin_mask;
    44c8:	4b0d      	ldr	r3, [pc, #52]	; (4500 <appDataConf+0x58>)
    44ca:	615a      	str	r2, [r3, #20]
			SYS_TimerStop(&appNetworkStatusTimer);
    44cc:	480f      	ldr	r0, [pc, #60]	; (450c <appDataConf+0x64>)
    44ce:	4b10      	ldr	r3, [pc, #64]	; (4510 <appDataConf+0x68>)
    44d0:	4798      	blx	r3
			appNetworkStatus = true;
    44d2:	2201      	movs	r2, #1
    44d4:	4b0b      	ldr	r3, [pc, #44]	; (4504 <appDataConf+0x5c>)
    44d6:	701a      	strb	r2, [r3, #0]
    44d8:	e7f1      	b.n	44be <appDataConf+0x16>
		if (appNetworkStatus) {
    44da:	4b0a      	ldr	r3, [pc, #40]	; (4504 <appDataConf+0x5c>)
    44dc:	781b      	ldrb	r3, [r3, #0]
    44de:	2b00      	cmp	r3, #0
    44e0:	d0ed      	beq.n	44be <appDataConf+0x16>
		port_base->OUTSET.reg = pin_mask;
    44e2:	2280      	movs	r2, #128	; 0x80
    44e4:	0312      	lsls	r2, r2, #12
    44e6:	4b06      	ldr	r3, [pc, #24]	; (4500 <appDataConf+0x58>)
    44e8:	619a      	str	r2, [r3, #24]
			SYS_TimerStart(&appNetworkStatusTimer);
    44ea:	4808      	ldr	r0, [pc, #32]	; (450c <appDataConf+0x64>)
    44ec:	4b09      	ldr	r3, [pc, #36]	; (4514 <appDataConf+0x6c>)
    44ee:	4798      	blx	r3
			appNetworkStatus = false;
    44f0:	2200      	movs	r2, #0
    44f2:	4b04      	ldr	r3, [pc, #16]	; (4504 <appDataConf+0x5c>)
    44f4:	701a      	strb	r2, [r3, #0]
    44f6:	e7e2      	b.n	44be <appDataConf+0x16>
		appState = APP_STATE_SENDING_DONE;
    44f8:	2207      	movs	r2, #7
    44fa:	4b03      	ldr	r3, [pc, #12]	; (4508 <appDataConf+0x60>)
    44fc:	701a      	strb	r2, [r3, #0]
}
    44fe:	e7e2      	b.n	44c6 <appDataConf+0x1e>
    4500:	41004400 	.word	0x41004400
    4504:	20000356 	.word	0x20000356
    4508:	2000036c 	.word	0x2000036c
    450c:	20000358 	.word	0x20000358
    4510:	00003249 	.word	0x00003249
    4514:	000032b5 	.word	0x000032b5

00004518 <appLinkFailureCallback>:
	APP_TaskHandler();
}

#ifndef PAN_COORDINATOR
void appLinkFailureCallback(void)
{
    4518:	b510      	push	{r4, lr}
	/* On link failure initiate search to establish connection */
	appState = APP_STATE_CONNECT_NETWORK;
    451a:	2202      	movs	r2, #2
    451c:	4b02      	ldr	r3, [pc, #8]	; (4528 <appLinkFailureCallback+0x10>)
    451e:	701a      	strb	r2, [r3, #0]
	SYS_TimerStop(&appDataSendingTimer);
    4520:	4802      	ldr	r0, [pc, #8]	; (452c <appLinkFailureCallback+0x14>)
    4522:	4b03      	ldr	r3, [pc, #12]	; (4530 <appLinkFailureCallback+0x18>)
    4524:	4798      	blx	r3
}
    4526:	bd10      	pop	{r4, pc}
    4528:	2000036c 	.word	0x2000036c
    452c:	200019f8 	.word	0x200019f8
    4530:	00003249 	.word	0x00003249

00004534 <wsndemo_init>:
{
    4534:	b510      	push	{r4, lr}
	MiApp_ProtocolInit(&defaultParamsRomOrRam, &defaultParamsRamOnly);
    4536:	4902      	ldr	r1, [pc, #8]	; (4540 <wsndemo_init+0xc>)
    4538:	4802      	ldr	r0, [pc, #8]	; (4544 <wsndemo_init+0x10>)
    453a:	4b03      	ldr	r3, [pc, #12]	; (4548 <wsndemo_init+0x14>)
    453c:	4798      	blx	r3
}
    453e:	bd10      	pop	{r4, pc}
    4540:	2000000c 	.word	0x2000000c
    4544:	20000030 	.word	0x20000030
    4548:	00004bd1 	.word	0x00004bd1

0000454c <wsndemo_task>:
{
    454c:	b5f0      	push	{r4, r5, r6, r7, lr}
    454e:	46c6      	mov	lr, r8
    4550:	b500      	push	{lr}
    4552:	b086      	sub	sp, #24
	MeshTasks();
    4554:	4b73      	ldr	r3, [pc, #460]	; (4724 <wsndemo_task+0x1d8>)
    4556:	4798      	blx	r3
	switch (appState) {
    4558:	4b73      	ldr	r3, [pc, #460]	; (4728 <wsndemo_task+0x1dc>)
    455a:	781b      	ldrb	r3, [r3, #0]
    455c:	2b02      	cmp	r3, #2
    455e:	d064      	beq.n	462a <wsndemo_task+0xde>
    4560:	b2da      	uxtb	r2, r3
    4562:	2a02      	cmp	r2, #2
    4564:	d90a      	bls.n	457c <wsndemo_task+0x30>
    4566:	2b05      	cmp	r3, #5
    4568:	d069      	beq.n	463e <wsndemo_task+0xf2>
    456a:	2b07      	cmp	r3, #7
    456c:	d159      	bne.n	4622 <wsndemo_task+0xd6>
		SYS_TimerStart(&appDataSendingTimer);
    456e:	486f      	ldr	r0, [pc, #444]	; (472c <wsndemo_task+0x1e0>)
    4570:	4b6f      	ldr	r3, [pc, #444]	; (4730 <wsndemo_task+0x1e4>)
    4572:	4798      	blx	r3
		appState = APP_STATE_WAIT_SEND_TIMER;
    4574:	2208      	movs	r2, #8
    4576:	4b6c      	ldr	r3, [pc, #432]	; (4728 <wsndemo_task+0x1dc>)
    4578:	701a      	strb	r2, [r3, #0]
}
    457a:	e052      	b.n	4622 <wsndemo_task+0xd6>
	switch (appState) {
    457c:	2b00      	cmp	r3, #0
    457e:	d150      	bne.n	4622 <wsndemo_task+0xd6>
	appMsg.commandId            = APP_COMMAND_ID_NETWORK_INFO;
    4580:	486c      	ldr	r0, [pc, #432]	; (4734 <wsndemo_task+0x1e8>)
    4582:	2401      	movs	r4, #1
    4584:	7004      	strb	r4, [r0, #0]
	appMsg.nodeType             = APP_NODE_TYPE;
    4586:	7044      	strb	r4, [r0, #1]
	appMsg.extAddr              = 0;
    4588:	2500      	movs	r5, #0
    458a:	2200      	movs	r2, #0
    458c:	8042      	strh	r2, [r0, #2]
    458e:	8082      	strh	r2, [r0, #4]
    4590:	80c2      	strh	r2, [r0, #6]
    4592:	8102      	strh	r2, [r0, #8]
	appMsg.shortAddr            = 0;
    4594:	2300      	movs	r3, #0
    4596:	8143      	strh	r3, [r0, #10]
	appMsg.softVersion          = 0x01100000;
    4598:	2388      	movs	r3, #136	; 0x88
    459a:	045b      	lsls	r3, r3, #17
    459c:	60c3      	str	r3, [r0, #12]
	appMsg.channelMask          = CHANNEL_MAP;
    459e:	2380      	movs	r3, #128	; 0x80
    45a0:	049b      	lsls	r3, r3, #18
    45a2:	6103      	str	r3, [r0, #16]
	appMsg.nextHopAddr          = 0;
    45a4:	75c2      	strb	r2, [r0, #23]
    45a6:	7602      	strb	r2, [r0, #24]
	appMsg.lqi                  = 0;
    45a8:	7645      	strb	r5, [r0, #25]
	appMsg.rssi                 = 0;
    45aa:	7685      	strb	r5, [r0, #26]
	appMsg.sensors.type        = 1;
    45ac:	76c4      	strb	r4, [r0, #27]
	appMsg.sensors.size        = sizeof(int32_t) * 3;
    45ae:	230c      	movs	r3, #12
    45b0:	7703      	strb	r3, [r0, #28]
	appMsg.sensors.battery     = 0;
    45b2:	0003      	movs	r3, r0
    45b4:	7742      	strb	r2, [r0, #29]
    45b6:	7782      	strb	r2, [r0, #30]
    45b8:	77c2      	strb	r2, [r0, #31]
    45ba:	331d      	adds	r3, #29
    45bc:	70da      	strb	r2, [r3, #3]
	appMsg.sensors.temperature = 0;
    45be:	0003      	movs	r3, r0
    45c0:	3321      	adds	r3, #33	; 0x21
    45c2:	701a      	strb	r2, [r3, #0]
    45c4:	705a      	strb	r2, [r3, #1]
    45c6:	709a      	strb	r2, [r3, #2]
    45c8:	70da      	strb	r2, [r3, #3]
	appMsg.sensors.light       = 0;
    45ca:	0003      	movs	r3, r0
    45cc:	3325      	adds	r3, #37	; 0x25
    45ce:	701a      	strb	r2, [r3, #0]
    45d0:	705a      	strb	r2, [r3, #1]
    45d2:	709a      	strb	r2, [r3, #2]
    45d4:	70da      	strb	r2, [r3, #3]
	appMsg.caption.type         = 32;
    45d6:	3220      	adds	r2, #32
    45d8:	2329      	movs	r3, #41	; 0x29
    45da:	54c2      	strb	r2, [r0, r3]
	appMsg.caption.size         = APP_CAPTION_SIZE;
    45dc:	3a11      	subs	r2, #17
    45de:	3301      	adds	r3, #1
    45e0:	54c2      	strb	r2, [r0, r3]
	memcpy(appMsg.caption.text, APP_CAPTION, APP_CAPTION_SIZE);
    45e2:	302b      	adds	r0, #43	; 0x2b
    45e4:	4954      	ldr	r1, [pc, #336]	; (4738 <wsndemo_task+0x1ec>)
    45e6:	4b55      	ldr	r3, [pc, #340]	; (473c <wsndemo_task+0x1f0>)
    45e8:	4798      	blx	r3
	appDataSendingTimer.interval = APP_SENDING_INTERVAL;
    45ea:	4b50      	ldr	r3, [pc, #320]	; (472c <wsndemo_task+0x1e0>)
    45ec:	4a54      	ldr	r2, [pc, #336]	; (4740 <wsndemo_task+0x1f4>)
    45ee:	609a      	str	r2, [r3, #8]
	appDataSendingTimer.mode = SYS_TIMER_INTERVAL_MODE;
    45f0:	731d      	strb	r5, [r3, #12]
	appDataSendingTimer.handler = appDataSendingTimerHandler;
    45f2:	4a54      	ldr	r2, [pc, #336]	; (4744 <wsndemo_task+0x1f8>)
    45f4:	611a      	str	r2, [r3, #16]
	appNetworkStatus = false;
    45f6:	4b54      	ldr	r3, [pc, #336]	; (4748 <wsndemo_task+0x1fc>)
    45f8:	701d      	strb	r5, [r3, #0]
	appNetworkStatusTimer.interval = APP_NWKSTATUS_INTERVAL;
    45fa:	4854      	ldr	r0, [pc, #336]	; (474c <wsndemo_task+0x200>)
    45fc:	23fa      	movs	r3, #250	; 0xfa
    45fe:	009b      	lsls	r3, r3, #2
    4600:	6083      	str	r3, [r0, #8]
	appNetworkStatusTimer.mode = SYS_TIMER_PERIODIC_MODE;
    4602:	7304      	strb	r4, [r0, #12]
	appNetworkStatusTimer.handler = appNetworkStatusTimerHandler;
    4604:	4b52      	ldr	r3, [pc, #328]	; (4750 <wsndemo_task+0x204>)
    4606:	6103      	str	r3, [r0, #16]
	SYS_TimerStart(&appNetworkStatusTimer);
    4608:	4b49      	ldr	r3, [pc, #292]	; (4730 <wsndemo_task+0x1e4>)
    460a:	4798      	blx	r3
	APP_CommandsInit();
    460c:	4b51      	ldr	r3, [pc, #324]	; (4754 <wsndemo_task+0x208>)
    460e:	4798      	blx	r3
	MiApp_SubscribeDataIndicationCallback(appDataInd);
    4610:	4851      	ldr	r0, [pc, #324]	; (4758 <wsndemo_task+0x20c>)
    4612:	4b52      	ldr	r3, [pc, #328]	; (475c <wsndemo_task+0x210>)
    4614:	4798      	blx	r3
	MiApp_SubscribeLinkFailureCallback(appLinkFailureCallback);
    4616:	4852      	ldr	r0, [pc, #328]	; (4760 <wsndemo_task+0x214>)
    4618:	4b52      	ldr	r3, [pc, #328]	; (4764 <wsndemo_task+0x218>)
    461a:	4798      	blx	r3
	appState = APP_STATE_CONNECT_NETWORK;
    461c:	2202      	movs	r2, #2
    461e:	4b42      	ldr	r3, [pc, #264]	; (4728 <wsndemo_task+0x1dc>)
    4620:	701a      	strb	r2, [r3, #0]
}
    4622:	b006      	add	sp, #24
    4624:	bc04      	pop	{r2}
    4626:	4690      	mov	r8, r2
    4628:	bdf0      	pop	{r4, r5, r6, r7, pc}
		MiApp_SearchConnection(APP_SCAN_DURATION, CHANNEL_MAP, searchConfim);
    462a:	4a4f      	ldr	r2, [pc, #316]	; (4768 <wsndemo_task+0x21c>)
    462c:	2180      	movs	r1, #128	; 0x80
    462e:	0489      	lsls	r1, r1, #18
    4630:	200a      	movs	r0, #10
    4632:	4b4e      	ldr	r3, [pc, #312]	; (476c <wsndemo_task+0x220>)
    4634:	4798      	blx	r3
		appState = APP_STATE_CONNECTING_NETWORK;
    4636:	2203      	movs	r2, #3
    4638:	4b3b      	ldr	r3, [pc, #236]	; (4728 <wsndemo_task+0x1dc>)
    463a:	701a      	strb	r2, [r3, #0]
    463c:	e7f1      	b.n	4622 <wsndemo_task+0xd6>
    uint16_t shortAddressLocal = 0xFFFF;
    463e:	2512      	movs	r5, #18
    4640:	446d      	add	r5, sp
    4642:	2301      	movs	r3, #1
    4644:	425b      	negs	r3, r3
    4646:	802b      	strh	r3, [r5, #0]
    uint16_t shortAddressPanId = 0xFFFF;
    4648:	ae05      	add	r6, sp, #20
    464a:	8033      	strh	r3, [r6, #0]
    uint16_t dstAddr = 0; /* PAN Coordinator Address */
    464c:	2716      	movs	r7, #22
    464e:	446f      	add	r7, sp
    4650:	2300      	movs	r3, #0
    4652:	803b      	strh	r3, [r7, #0]
	appMsg.sensors.battery     = rand() & 0xffff;
    4654:	4b46      	ldr	r3, [pc, #280]	; (4770 <wsndemo_task+0x224>)
    4656:	4698      	mov	r8, r3
    4658:	4798      	blx	r3
    465a:	4c36      	ldr	r4, [pc, #216]	; (4734 <wsndemo_task+0x1e8>)
    465c:	0023      	movs	r3, r4
    465e:	7760      	strb	r0, [r4, #29]
    4660:	0a00      	lsrs	r0, r0, #8
    4662:	77a0      	strb	r0, [r4, #30]
    4664:	2200      	movs	r2, #0
    4666:	77e2      	strb	r2, [r4, #31]
    4668:	331d      	adds	r3, #29
    466a:	70da      	strb	r2, [r3, #3]
	appMsg.sensors.temperature = rand() & 0x7f;
    466c:	47c0      	blx	r8
    466e:	237f      	movs	r3, #127	; 0x7f
    4670:	4018      	ands	r0, r3
    4672:	0023      	movs	r3, r4
    4674:	3321      	adds	r3, #33	; 0x21
    4676:	7018      	strb	r0, [r3, #0]
    4678:	2200      	movs	r2, #0
    467a:	705a      	strb	r2, [r3, #1]
    467c:	709a      	strb	r2, [r3, #2]
    467e:	0e00      	lsrs	r0, r0, #24
    4680:	70d8      	strb	r0, [r3, #3]
	appMsg.sensors.light       = rand() & 0xff;
    4682:	47c0      	blx	r8
    4684:	23ff      	movs	r3, #255	; 0xff
    4686:	4018      	ands	r0, r3
    4688:	0023      	movs	r3, r4
    468a:	3325      	adds	r3, #37	; 0x25
    468c:	7018      	strb	r0, [r3, #0]
    468e:	0a02      	lsrs	r2, r0, #8
    4690:	705a      	strb	r2, [r3, #1]
    4692:	0c02      	lsrs	r2, r0, #16
    4694:	709a      	strb	r2, [r3, #2]
    4696:	0e00      	lsrs	r0, r0, #24
    4698:	70d8      	strb	r0, [r3, #3]
	MiApp_Get(SHORT_ADDRESS, (uint8_t *)&shortAddressLocal);
    469a:	0029      	movs	r1, r5
    469c:	2002      	movs	r0, #2
    469e:	4b35      	ldr	r3, [pc, #212]	; (4774 <wsndemo_task+0x228>)
    46a0:	4698      	mov	r8, r3
    46a2:	4798      	blx	r3
    appMsg.shortAddr = shortAddressLocal;
    46a4:	882b      	ldrh	r3, [r5, #0]
    46a6:	8163      	strh	r3, [r4, #10]
	appMsg.extAddr   = appMsg.shortAddr;
    46a8:	8063      	strh	r3, [r4, #2]
    46aa:	0c1b      	lsrs	r3, r3, #16
    46ac:	80a3      	strh	r3, [r4, #4]
    46ae:	2300      	movs	r3, #0
    46b0:	80e3      	strh	r3, [r4, #6]
    46b2:	8123      	strh	r3, [r4, #8]
	appMsg.nextHopAddr = MiApp_MeshGetNextHopAddr(PAN_COORDINATOR_SHORT_ADDRESS);
    46b4:	2000      	movs	r0, #0
    46b6:	4b30      	ldr	r3, [pc, #192]	; (4778 <wsndemo_task+0x22c>)
    46b8:	4798      	blx	r3
    46ba:	75e0      	strb	r0, [r4, #23]
    46bc:	0a00      	lsrs	r0, r0, #8
    46be:	7620      	strb	r0, [r4, #24]
	MiApp_Get(CHANNEL, (uint8_t *)&appMsg.workingChannel);
    46c0:	0021      	movs	r1, r4
    46c2:	3116      	adds	r1, #22
    46c4:	2000      	movs	r0, #0
    46c6:	47c0      	blx	r8
	MiApp_Get(PANID, (uint8_t *)&shortAddressPanId);
    46c8:	0031      	movs	r1, r6
    46ca:	2001      	movs	r0, #1
    46cc:	47c0      	blx	r8
        appMsg.panId = shortAddressPanId;
    46ce:	8833      	ldrh	r3, [r6, #0]
    46d0:	82a3      	strh	r3, [r4, #20]
		port_base->OUTCLR.reg = pin_mask;
    46d2:	2280      	movs	r2, #128	; 0x80
    46d4:	0312      	lsls	r2, r2, #12
    46d6:	4b29      	ldr	r3, [pc, #164]	; (477c <wsndemo_task+0x230>)
    46d8:	615a      	str	r2, [r3, #20]
	appMsg.caption.type         = 32;
    46da:	2220      	movs	r2, #32
    46dc:	2329      	movs	r3, #41	; 0x29
    46de:	54e2      	strb	r2, [r4, r3]
	sprintf(appMsg.caption.text, "R%03d -0x%04x", ID_ROUTER, shortAddressLocal);
    46e0:	882b      	ldrh	r3, [r5, #0]
    46e2:	0020      	movs	r0, r4
    46e4:	302b      	adds	r0, #43	; 0x2b
    46e6:	3a1f      	subs	r2, #31
    46e8:	4925      	ldr	r1, [pc, #148]	; (4780 <wsndemo_task+0x234>)
    46ea:	4d26      	ldr	r5, [pc, #152]	; (4784 <wsndemo_task+0x238>)
    46ec:	47a8      	blx	r5
	if (MiApp_SendData(2, (uint8_t *)&dstAddr, sizeof(appMsg), (uint8_t *)&appMsg, wsnmsghandle, true, appDataConf))
    46ee:	4b26      	ldr	r3, [pc, #152]	; (4788 <wsndemo_task+0x23c>)
    46f0:	9302      	str	r3, [sp, #8]
    46f2:	2301      	movs	r3, #1
    46f4:	9301      	str	r3, [sp, #4]
    46f6:	4b25      	ldr	r3, [pc, #148]	; (478c <wsndemo_task+0x240>)
    46f8:	781b      	ldrb	r3, [r3, #0]
    46fa:	9300      	str	r3, [sp, #0]
    46fc:	0023      	movs	r3, r4
    46fe:	223a      	movs	r2, #58	; 0x3a
    4700:	0039      	movs	r1, r7
    4702:	2002      	movs	r0, #2
    4704:	4c22      	ldr	r4, [pc, #136]	; (4790 <wsndemo_task+0x244>)
    4706:	47a0      	blx	r4
    4708:	2800      	cmp	r0, #0
    470a:	d103      	bne.n	4714 <wsndemo_task+0x1c8>
		appState = APP_STATE_SENDING_DONE;
    470c:	2207      	movs	r2, #7
    470e:	4b06      	ldr	r3, [pc, #24]	; (4728 <wsndemo_task+0x1dc>)
    4710:	701a      	strb	r2, [r3, #0]
    4712:	e786      	b.n	4622 <wsndemo_task+0xd6>
		++wsnmsghandle;
    4714:	4a1d      	ldr	r2, [pc, #116]	; (478c <wsndemo_task+0x240>)
    4716:	7813      	ldrb	r3, [r2, #0]
    4718:	3301      	adds	r3, #1
    471a:	7013      	strb	r3, [r2, #0]
		appState = APP_STATE_WAIT_CONF;
    471c:	2206      	movs	r2, #6
    471e:	4b02      	ldr	r3, [pc, #8]	; (4728 <wsndemo_task+0x1dc>)
    4720:	701a      	strb	r2, [r3, #0]
    4722:	e77e      	b.n	4622 <wsndemo_task+0xd6>
    4724:	00004d4d 	.word	0x00004d4d
    4728:	2000036c 	.word	0x2000036c
    472c:	200019f8 	.word	0x200019f8
    4730:	000032b5 	.word	0x000032b5
    4734:	2000031c 	.word	0x2000031c
    4738:	0000a348 	.word	0x0000a348
    473c:	000093ab 	.word	0x000093ab
    4740:	00002710 	.word	0x00002710
    4744:	0000445d 	.word	0x0000445d
    4748:	20000356 	.word	0x20000356
    474c:	20000358 	.word	0x20000358
    4750:	000043cd 	.word	0x000043cd
    4754:	00004329 	.word	0x00004329
    4758:	00004485 	.word	0x00004485
    475c:	000060ed 	.word	0x000060ed
    4760:	00004519 	.word	0x00004519
    4764:	00008511 	.word	0x00008511
    4768:	000043f5 	.word	0x000043f5
    476c:	00007911 	.word	0x00007911
    4770:	000093cd 	.word	0x000093cd
    4774:	00004fed 	.word	0x00004fed
    4778:	00005035 	.word	0x00005035
    477c:	41004400 	.word	0x41004400
    4780:	0000a34c 	.word	0x0000a34c
    4784:	000095b1 	.word	0x000095b1
    4788:	000044a9 	.word	0x000044a9
    478c:	2000036d 	.word	0x2000036d
    4790:	00004de1 	.word	0x00004de1

00004794 <common_tc_delay>:
    4794:	b510      	push	{r4, lr}
    4796:	1c04      	adds	r4, r0, #0
    4798:	4b13      	ldr	r3, [pc, #76]	; (47e8 <common_tc_delay+0x54>)
    479a:	4798      	blx	r3
    479c:	4b13      	ldr	r3, [pc, #76]	; (47ec <common_tc_delay+0x58>)
    479e:	781a      	ldrb	r2, [r3, #0]
    47a0:	4362      	muls	r2, r4
    47a2:	1881      	adds	r1, r0, r2
    47a4:	4b12      	ldr	r3, [pc, #72]	; (47f0 <common_tc_delay+0x5c>)
    47a6:	6059      	str	r1, [r3, #4]
    47a8:	6859      	ldr	r1, [r3, #4]
    47aa:	0c09      	lsrs	r1, r1, #16
    47ac:	6059      	str	r1, [r3, #4]
    47ae:	685b      	ldr	r3, [r3, #4]
    47b0:	2b00      	cmp	r3, #0
    47b2:	d007      	beq.n	47c4 <common_tc_delay+0x30>
    47b4:	4b0e      	ldr	r3, [pc, #56]	; (47f0 <common_tc_delay+0x5c>)
    47b6:	6859      	ldr	r1, [r3, #4]
    47b8:	3201      	adds	r2, #1
    47ba:	1880      	adds	r0, r0, r2
    47bc:	8118      	strh	r0, [r3, #8]
    47be:	4b0d      	ldr	r3, [pc, #52]	; (47f4 <common_tc_delay+0x60>)
    47c0:	4798      	blx	r3
    47c2:	e004      	b.n	47ce <common_tc_delay+0x3a>
    47c4:	1882      	adds	r2, r0, r2
    47c6:	4b0a      	ldr	r3, [pc, #40]	; (47f0 <common_tc_delay+0x5c>)
    47c8:	811a      	strh	r2, [r3, #8]
    47ca:	4b0b      	ldr	r3, [pc, #44]	; (47f8 <common_tc_delay+0x64>)
    47cc:	4798      	blx	r3
    47ce:	4b08      	ldr	r3, [pc, #32]	; (47f0 <common_tc_delay+0x5c>)
    47d0:	891b      	ldrh	r3, [r3, #8]
    47d2:	2b63      	cmp	r3, #99	; 0x63
    47d4:	d802      	bhi.n	47dc <common_tc_delay+0x48>
    47d6:	3364      	adds	r3, #100	; 0x64
    47d8:	4a05      	ldr	r2, [pc, #20]	; (47f0 <common_tc_delay+0x5c>)
    47da:	8113      	strh	r3, [r2, #8]
    47dc:	4b04      	ldr	r3, [pc, #16]	; (47f0 <common_tc_delay+0x5c>)
    47de:	8918      	ldrh	r0, [r3, #8]
    47e0:	4b06      	ldr	r3, [pc, #24]	; (47fc <common_tc_delay+0x68>)
    47e2:	4798      	blx	r3
    47e4:	bd10      	pop	{r4, pc}
    47e6:	46c0      	nop			; (mov r8, r8)
    47e8:	00003379 	.word	0x00003379
    47ec:	20001a0c 	.word	0x20001a0c
    47f0:	20000370 	.word	0x20000370
    47f4:	0000338d 	.word	0x0000338d
    47f8:	000033a1 	.word	0x000033a1
    47fc:	000033dd 	.word	0x000033dd

00004800 <common_tc_init>:
    4800:	b508      	push	{r3, lr}
    4802:	2200      	movs	r2, #0
    4804:	4b03      	ldr	r3, [pc, #12]	; (4814 <common_tc_init+0x14>)
    4806:	701a      	strb	r2, [r3, #0]
    4808:	4b03      	ldr	r3, [pc, #12]	; (4818 <common_tc_init+0x18>)
    480a:	4798      	blx	r3
    480c:	4b03      	ldr	r3, [pc, #12]	; (481c <common_tc_init+0x1c>)
    480e:	7018      	strb	r0, [r3, #0]
    4810:	bd08      	pop	{r3, pc}
    4812:	46c0      	nop			; (mov r8, r8)
    4814:	20000370 	.word	0x20000370
    4818:	000033f5 	.word	0x000033f5
    481c:	20001a0c 	.word	0x20001a0c

00004820 <tmr_ovf_callback>:
    4820:	b508      	push	{r3, lr}
    4822:	4b0e      	ldr	r3, [pc, #56]	; (485c <tmr_ovf_callback+0x3c>)
    4824:	685b      	ldr	r3, [r3, #4]
    4826:	2b00      	cmp	r3, #0
    4828:	d007      	beq.n	483a <tmr_ovf_callback+0x1a>
    482a:	4a0c      	ldr	r2, [pc, #48]	; (485c <tmr_ovf_callback+0x3c>)
    482c:	6853      	ldr	r3, [r2, #4]
    482e:	3b01      	subs	r3, #1
    4830:	6053      	str	r3, [r2, #4]
    4832:	2b00      	cmp	r3, #0
    4834:	d101      	bne.n	483a <tmr_ovf_callback+0x1a>
    4836:	4b0a      	ldr	r3, [pc, #40]	; (4860 <tmr_ovf_callback+0x40>)
    4838:	4798      	blx	r3
    483a:	4a08      	ldr	r2, [pc, #32]	; (485c <tmr_ovf_callback+0x3c>)
    483c:	7813      	ldrb	r3, [r2, #0]
    483e:	3301      	adds	r3, #1
    4840:	b2db      	uxtb	r3, r3
    4842:	7013      	strb	r3, [r2, #0]
    4844:	4a07      	ldr	r2, [pc, #28]	; (4864 <tmr_ovf_callback+0x44>)
    4846:	7812      	ldrb	r2, [r2, #0]
    4848:	429a      	cmp	r2, r3
    484a:	d806      	bhi.n	485a <tmr_ovf_callback+0x3a>
    484c:	4b03      	ldr	r3, [pc, #12]	; (485c <tmr_ovf_callback+0x3c>)
    484e:	2200      	movs	r2, #0
    4850:	701a      	strb	r2, [r3, #0]
    4852:	68db      	ldr	r3, [r3, #12]
    4854:	2b00      	cmp	r3, #0
    4856:	d000      	beq.n	485a <tmr_ovf_callback+0x3a>
    4858:	4798      	blx	r3
    485a:	bd08      	pop	{r3, pc}
    485c:	20000370 	.word	0x20000370
    4860:	000033a1 	.word	0x000033a1
    4864:	20001a0c 	.word	0x20001a0c

00004868 <tmr_cca_callback>:
    4868:	b508      	push	{r3, lr}
    486a:	4b04      	ldr	r3, [pc, #16]	; (487c <tmr_cca_callback+0x14>)
    486c:	4798      	blx	r3
    486e:	4b04      	ldr	r3, [pc, #16]	; (4880 <tmr_cca_callback+0x18>)
    4870:	691b      	ldr	r3, [r3, #16]
    4872:	2b00      	cmp	r3, #0
    4874:	d000      	beq.n	4878 <tmr_cca_callback+0x10>
    4876:	4798      	blx	r3
    4878:	bd08      	pop	{r3, pc}
    487a:	46c0      	nop			; (mov r8, r8)
    487c:	0000338d 	.word	0x0000338d
    4880:	20000370 	.word	0x20000370

00004884 <set_common_tc_expiry_callback>:
    4884:	4b01      	ldr	r3, [pc, #4]	; (488c <set_common_tc_expiry_callback+0x8>)
    4886:	6118      	str	r0, [r3, #16]
    4888:	4770      	bx	lr
    488a:	46c0      	nop			; (mov r8, r8)
    488c:	20000370 	.word	0x20000370

00004890 <frameTxCallback>:
    4890:	b570      	push	{r4, r5, r6, lr}
    4892:	2401      	movs	r4, #1
    4894:	4b07      	ldr	r3, [pc, #28]	; (48b4 <frameTxCallback+0x24>)
    4896:	701c      	strb	r4, [r3, #0]
    4898:	4c07      	ldr	r4, [pc, #28]	; (48b8 <frameTxCallback+0x28>)
    489a:	6823      	ldr	r3, [r4, #0]
    489c:	691b      	ldr	r3, [r3, #16]
    489e:	2b00      	cmp	r3, #0
    48a0:	d004      	beq.n	48ac <frameTxCallback+0x1c>
    48a2:	4798      	blx	r3
    48a4:	4d05      	ldr	r5, [pc, #20]	; (48bc <frameTxCallback+0x2c>)
    48a6:	6820      	ldr	r0, [r4, #0]
    48a8:	47a8      	blx	r5
    48aa:	bd70      	pop	{r4, r5, r6, pc}
    48ac:	0010      	movs	r0, r2
    48ae:	4d03      	ldr	r5, [pc, #12]	; (48bc <frameTxCallback+0x2c>)
    48b0:	47a8      	blx	r5
    48b2:	e7f8      	b.n	48a6 <frameTxCallback+0x16>
    48b4:	2000006e 	.word	0x2000006e
    48b8:	20001a40 	.word	0x20001a40
    48bc:	00003031 	.word	0x00003031

000048c0 <dataTimerHandler>:
    48c0:	b5f8      	push	{r3, r4, r5, r6, r7, lr}
    48c2:	464e      	mov	r6, r9
    48c4:	46de      	mov	lr, fp
    48c6:	4657      	mov	r7, sl
    48c8:	4645      	mov	r5, r8
    48ca:	b5e0      	push	{r5, r6, r7, lr}
    48cc:	4e40      	ldr	r6, [pc, #256]	; (49d0 <dataTimerHandler+0x110>)
    48ce:	7a33      	ldrb	r3, [r6, #8]
    48d0:	2b00      	cmp	r3, #0
    48d2:	d049      	beq.n	4968 <dataTimerHandler+0xa8>
    48d4:	4b3f      	ldr	r3, [pc, #252]	; (49d4 <dataTimerHandler+0x114>)
    48d6:	2500      	movs	r5, #0
    48d8:	4698      	mov	r8, r3
    48da:	4b3f      	ldr	r3, [pc, #252]	; (49d8 <dataTimerHandler+0x118>)
    48dc:	46c1      	mov	r9, r8
    48de:	469a      	mov	sl, r3
    48e0:	4f3e      	ldr	r7, [pc, #248]	; (49dc <dataTimerHandler+0x11c>)
    48e2:	2100      	movs	r1, #0
    48e4:	0030      	movs	r0, r6
    48e6:	47b8      	blx	r7
    48e8:	1e04      	subs	r4, r0, #0
    48ea:	d03d      	beq.n	4968 <dataTimerHandler+0xa8>
    48ec:	7c03      	ldrb	r3, [r0, #16]
    48ee:	2b00      	cmp	r3, #0
    48f0:	d046      	beq.n	4980 <dataTimerHandler+0xc0>
    48f2:	3b01      	subs	r3, #1
    48f4:	b2db      	uxtb	r3, r3
    48f6:	7403      	strb	r3, [r0, #16]
    48f8:	2b00      	cmp	r3, #0
    48fa:	d141      	bne.n	4980 <dataTimerHandler+0xc0>
    48fc:	7c43      	ldrb	r3, [r0, #17]
    48fe:	2b00      	cmp	r3, #0
    4900:	d047      	beq.n	4992 <dataTimerHandler+0xd2>
    4902:	3b01      	subs	r3, #1
    4904:	b2db      	uxtb	r3, r3
    4906:	7443      	strb	r3, [r0, #17]
    4908:	2b00      	cmp	r3, #0
    490a:	d142      	bne.n	4992 <dataTimerHandler+0xd2>
    490c:	6883      	ldr	r3, [r0, #8]
    490e:	2b00      	cmp	r3, #0
    4910:	d003      	beq.n	491a <dataTimerHandler+0x5a>
    4912:	7c80      	ldrb	r0, [r0, #18]
    4914:	0022      	movs	r2, r4
    4916:	2103      	movs	r1, #3
    4918:	4798      	blx	r3
    491a:	4b31      	ldr	r3, [pc, #196]	; (49e0 <dataTimerHandler+0x120>)
    491c:	0020      	movs	r0, r4
    491e:	4798      	blx	r3
    4920:	23ff      	movs	r3, #255	; 0xff
    4922:	8ba0      	ldrh	r0, [r4, #28]
    4924:	4398      	bics	r0, r3
    4926:	4b2f      	ldr	r3, [pc, #188]	; (49e4 <dataTimerHandler+0x124>)
    4928:	881b      	ldrh	r3, [r3, #0]
    492a:	4298      	cmp	r0, r3
    492c:	d017      	beq.n	495e <dataTimerHandler+0x9e>
    492e:	4b2a      	ldr	r3, [pc, #168]	; (49d8 <dataTimerHandler+0x118>)
    4930:	0a02      	lsrs	r2, r0, #8
    4932:	681b      	ldr	r3, [r3, #0]
    4934:	0052      	lsls	r2, r2, #1
    4936:	689b      	ldr	r3, [r3, #8]
    4938:	189a      	adds	r2, r3, r2
    493a:	7854      	ldrb	r4, [r2, #1]
    493c:	230f      	movs	r3, #15
    493e:	0021      	movs	r1, r4
    4940:	469b      	mov	fp, r3
    4942:	4399      	bics	r1, r3
    4944:	d00b      	beq.n	495e <dataTimerHandler+0x9e>
    4946:	0921      	lsrs	r1, r4, #4
    4948:	310f      	adds	r1, #15
    494a:	4019      	ands	r1, r3
    494c:	010b      	lsls	r3, r1, #4
    494e:	469c      	mov	ip, r3
    4950:	465b      	mov	r3, fp
    4952:	4023      	ands	r3, r4
    4954:	4664      	mov	r4, ip
    4956:	4323      	orrs	r3, r4
    4958:	7053      	strb	r3, [r2, #1]
    495a:	2900      	cmp	r1, #0
    495c:	d028      	beq.n	49b0 <dataTimerHandler+0xf0>
    495e:	3501      	adds	r5, #1
    4960:	7a33      	ldrb	r3, [r6, #8]
    4962:	b2ed      	uxtb	r5, r5
    4964:	42ab      	cmp	r3, r5
    4966:	d8bc      	bhi.n	48e2 <dataTimerHandler+0x22>
    4968:	4b1f      	ldr	r3, [pc, #124]	; (49e8 <dataTimerHandler+0x128>)
    496a:	781b      	ldrb	r3, [r3, #0]
    496c:	2b06      	cmp	r3, #6
    496e:	d028      	beq.n	49c2 <dataTimerHandler+0x102>
    4970:	4b1e      	ldr	r3, [pc, #120]	; (49ec <dataTimerHandler+0x12c>)
    4972:	4798      	blx	r3
    4974:	bc3c      	pop	{r2, r3, r4, r5}
    4976:	4690      	mov	r8, r2
    4978:	4699      	mov	r9, r3
    497a:	46a2      	mov	sl, r4
    497c:	46ab      	mov	fp, r5
    497e:	bdf8      	pop	{r3, r4, r5, r6, r7, pc}
    4980:	0021      	movs	r1, r4
    4982:	0030      	movs	r0, r6
    4984:	47c0      	blx	r8
    4986:	3501      	adds	r5, #1
    4988:	7a33      	ldrb	r3, [r6, #8]
    498a:	b2ed      	uxtb	r5, r5
    498c:	42ab      	cmp	r3, r5
    498e:	d8a8      	bhi.n	48e2 <dataTimerHandler+0x22>
    4990:	e7ea      	b.n	4968 <dataTimerHandler+0xa8>
    4992:	4652      	mov	r2, sl
    4994:	232f      	movs	r3, #47	; 0x2f
    4996:	6812      	ldr	r2, [r2, #0]
    4998:	0021      	movs	r1, r4
    499a:	5cd3      	ldrb	r3, [r2, r3]
    499c:	0030      	movs	r0, r6
    499e:	3301      	adds	r3, #1
    49a0:	7423      	strb	r3, [r4, #16]
    49a2:	47c8      	blx	r9
    49a4:	3501      	adds	r5, #1
    49a6:	7a33      	ldrb	r3, [r6, #8]
    49a8:	b2ed      	uxtb	r5, r5
    49aa:	42ab      	cmp	r3, r5
    49ac:	d899      	bhi.n	48e2 <dataTimerHandler+0x22>
    49ae:	e7db      	b.n	4968 <dataTimerHandler+0xa8>
    49b0:	4b0f      	ldr	r3, [pc, #60]	; (49f0 <dataTimerHandler+0x130>)
    49b2:	4798      	blx	r3
    49b4:	3501      	adds	r5, #1
    49b6:	7a33      	ldrb	r3, [r6, #8]
    49b8:	b2ed      	uxtb	r5, r5
    49ba:	42ab      	cmp	r3, r5
    49bc:	d900      	bls.n	49c0 <dataTimerHandler+0x100>
    49be:	e790      	b.n	48e2 <dataTimerHandler+0x22>
    49c0:	e7d2      	b.n	4968 <dataTimerHandler+0xa8>
    49c2:	4b0c      	ldr	r3, [pc, #48]	; (49f4 <dataTimerHandler+0x134>)
    49c4:	4798      	blx	r3
    49c6:	4b0c      	ldr	r3, [pc, #48]	; (49f8 <dataTimerHandler+0x138>)
    49c8:	4798      	blx	r3
    49ca:	4b0c      	ldr	r3, [pc, #48]	; (49fc <dataTimerHandler+0x13c>)
    49cc:	4798      	blx	r3
    49ce:	e7cf      	b.n	4970 <dataTimerHandler+0xb0>
    49d0:	20001a30 	.word	0x20001a30
    49d4:	0000314d 	.word	0x0000314d
    49d8:	20001a28 	.word	0x20001a28
    49dc:	00003185 	.word	0x00003185
    49e0:	00003031 	.word	0x00003031
    49e4:	20001a70 	.word	0x20001a70
    49e8:	20000384 	.word	0x20000384
    49ec:	0000842d 	.word	0x0000842d
    49f0:	00008aa9 	.word	0x00008aa9
    49f4:	00008b29 	.word	0x00008b29
    49f8:	0000671d 	.word	0x0000671d
    49fc:	000071c5 	.word	0x000071c5

00004a00 <ackReqDataConfcb>:
    4a00:	b5f0      	push	{r4, r5, r6, r7, lr}
    4a02:	46de      	mov	lr, fp
    4a04:	4645      	mov	r5, r8
    4a06:	4657      	mov	r7, sl
    4a08:	464e      	mov	r6, r9
    4a0a:	0013      	movs	r3, r2
    4a0c:	b5e0      	push	{r5, r6, r7, lr}
    4a0e:	b085      	sub	sp, #20
    4a10:	9202      	str	r2, [sp, #8]
    4a12:	7892      	ldrb	r2, [r2, #2]
    4a14:	4683      	mov	fp, r0
    4a16:	0018      	movs	r0, r3
    4a18:	4b45      	ldr	r3, [pc, #276]	; (4b30 <ackReqDataConfcb+0x130>)
    4a1a:	4690      	mov	r8, r2
    4a1c:	9101      	str	r1, [sp, #4]
    4a1e:	4798      	blx	r3
    4a20:	22ff      	movs	r2, #255	; 0xff
    4a22:	4b44      	ldr	r3, [pc, #272]	; (4b34 <ackReqDataConfcb+0x134>)
    4a24:	881b      	ldrh	r3, [r3, #0]
    4a26:	421a      	tst	r2, r3
    4a28:	d15c      	bne.n	4ae4 <ackReqDataConfcb+0xe4>
    4a2a:	4e43      	ldr	r6, [pc, #268]	; (4b38 <ackReqDataConfcb+0x138>)
    4a2c:	7a33      	ldrb	r3, [r6, #8]
    4a2e:	2b00      	cmp	r3, #0
    4a30:	d035      	beq.n	4a9e <ackReqDataConfcb+0x9e>
    4a32:	4b42      	ldr	r3, [pc, #264]	; (4b3c <ackReqDataConfcb+0x13c>)
    4a34:	2400      	movs	r4, #0
    4a36:	4f42      	ldr	r7, [pc, #264]	; (4b40 <ackReqDataConfcb+0x140>)
    4a38:	4699      	mov	r9, r3
    4a3a:	e007      	b.n	4a4c <ackReqDataConfcb+0x4c>
    4a3c:	0029      	movs	r1, r5
    4a3e:	0030      	movs	r0, r6
    4a40:	47c8      	blx	r9
    4a42:	3401      	adds	r4, #1
    4a44:	7a33      	ldrb	r3, [r6, #8]
    4a46:	b2e4      	uxtb	r4, r4
    4a48:	42a3      	cmp	r3, r4
    4a4a:	d928      	bls.n	4a9e <ackReqDataConfcb+0x9e>
    4a4c:	2100      	movs	r1, #0
    4a4e:	0030      	movs	r0, r6
    4a50:	47b8      	blx	r7
    4a52:	1e05      	subs	r5, r0, #0
    4a54:	d023      	beq.n	4a9e <ackReqDataConfcb+0x9e>
    4a56:	2320      	movs	r3, #32
    4a58:	5cc3      	ldrb	r3, [r0, r3]
    4a5a:	4543      	cmp	r3, r8
    4a5c:	d1ee      	bne.n	4a3c <ackReqDataConfcb+0x3c>
    4a5e:	7c83      	ldrb	r3, [r0, #18]
    4a60:	469a      	mov	sl, r3
    4a62:	455b      	cmp	r3, fp
    4a64:	d1ea      	bne.n	4a3c <ackReqDataConfcb+0x3c>
    4a66:	9b01      	ldr	r3, [sp, #4]
    4a68:	2b00      	cmp	r3, #0
    4a6a:	d02d      	beq.n	4ac8 <ackReqDataConfcb+0xc8>
    4a6c:	2b03      	cmp	r3, #3
    4a6e:	d03d      	beq.n	4aec <ackReqDataConfcb+0xec>
    4a70:	7c6b      	ldrb	r3, [r5, #17]
    4a72:	2b00      	cmp	r3, #0
    4a74:	d01a      	beq.n	4aac <ackReqDataConfcb+0xac>
    4a76:	3b01      	subs	r3, #1
    4a78:	b2db      	uxtb	r3, r3
    4a7a:	746b      	strb	r3, [r5, #17]
    4a7c:	2b00      	cmp	r3, #0
    4a7e:	d115      	bne.n	4aac <ackReqDataConfcb+0xac>
    4a80:	68ab      	ldr	r3, [r5, #8]
    4a82:	2b00      	cmp	r3, #0
    4a84:	d003      	beq.n	4a8e <ackReqDataConfcb+0x8e>
    4a86:	9a02      	ldr	r2, [sp, #8]
    4a88:	9901      	ldr	r1, [sp, #4]
    4a8a:	4650      	mov	r0, sl
    4a8c:	4798      	blx	r3
    4a8e:	4b28      	ldr	r3, [pc, #160]	; (4b30 <ackReqDataConfcb+0x130>)
    4a90:	0028      	movs	r0, r5
    4a92:	4798      	blx	r3
    4a94:	3401      	adds	r4, #1
    4a96:	7a33      	ldrb	r3, [r6, #8]
    4a98:	b2e4      	uxtb	r4, r4
    4a9a:	42a3      	cmp	r3, r4
    4a9c:	d8d6      	bhi.n	4a4c <ackReqDataConfcb+0x4c>
    4a9e:	b005      	add	sp, #20
    4aa0:	bc3c      	pop	{r2, r3, r4, r5}
    4aa2:	4690      	mov	r8, r2
    4aa4:	4699      	mov	r9, r3
    4aa6:	46a2      	mov	sl, r4
    4aa8:	46ab      	mov	fp, r5
    4aaa:	bdf0      	pop	{r4, r5, r6, r7, pc}
    4aac:	4b25      	ldr	r3, [pc, #148]	; (4b44 <ackReqDataConfcb+0x144>)
    4aae:	781b      	ldrb	r3, [r3, #0]
    4ab0:	2b08      	cmp	r3, #8
    4ab2:	d0e5      	beq.n	4a80 <ackReqDataConfcb+0x80>
    4ab4:	0029      	movs	r1, r5
    4ab6:	0030      	movs	r0, r6
    4ab8:	4b20      	ldr	r3, [pc, #128]	; (4b3c <ackReqDataConfcb+0x13c>)
    4aba:	4798      	blx	r3
    4abc:	89a9      	ldrh	r1, [r5, #12]
    4abe:	4a22      	ldr	r2, [pc, #136]	; (4b48 <ackReqDataConfcb+0x148>)
    4ac0:	0028      	movs	r0, r5
    4ac2:	4b22      	ldr	r3, [pc, #136]	; (4b4c <ackReqDataConfcb+0x14c>)
    4ac4:	4798      	blx	r3
    4ac6:	e7bc      	b.n	4a42 <ackReqDataConfcb+0x42>
    4ac8:	4b21      	ldr	r3, [pc, #132]	; (4b50 <ackReqDataConfcb+0x150>)
    4aca:	0001      	movs	r1, r0
    4acc:	681a      	ldr	r2, [r3, #0]
    4ace:	232f      	movs	r3, #47	; 0x2f
    4ad0:	5cd3      	ldrb	r3, [r2, r3]
    4ad2:	3301      	adds	r3, #1
    4ad4:	7403      	strb	r3, [r0, #16]
    4ad6:	2330      	movs	r3, #48	; 0x30
    4ad8:	5cd3      	ldrb	r3, [r2, r3]
    4ada:	7443      	strb	r3, [r0, #17]
    4adc:	0030      	movs	r0, r6
    4ade:	4b17      	ldr	r3, [pc, #92]	; (4b3c <ackReqDataConfcb+0x13c>)
    4ae0:	4798      	blx	r3
    4ae2:	e7ae      	b.n	4a42 <ackReqDataConfcb+0x42>
    4ae4:	9801      	ldr	r0, [sp, #4]
    4ae6:	4b1b      	ldr	r3, [pc, #108]	; (4b54 <ackReqDataConfcb+0x154>)
    4ae8:	4798      	blx	r3
    4aea:	e79e      	b.n	4a2a <ackReqDataConfcb+0x2a>
    4aec:	8b80      	ldrh	r0, [r0, #28]
    4aee:	33fc      	adds	r3, #252	; 0xfc
    4af0:	4398      	bics	r0, r3
    4af2:	4b10      	ldr	r3, [pc, #64]	; (4b34 <ackReqDataConfcb+0x134>)
    4af4:	4684      	mov	ip, r0
    4af6:	881b      	ldrh	r3, [r3, #0]
    4af8:	4298      	cmp	r0, r3
    4afa:	d0b9      	beq.n	4a70 <ackReqDataConfcb+0x70>
    4afc:	4b14      	ldr	r3, [pc, #80]	; (4b50 <ackReqDataConfcb+0x150>)
    4afe:	0a02      	lsrs	r2, r0, #8
    4b00:	681b      	ldr	r3, [r3, #0]
    4b02:	0052      	lsls	r2, r2, #1
    4b04:	689b      	ldr	r3, [r3, #8]
    4b06:	189a      	adds	r2, r3, r2
    4b08:	7850      	ldrb	r0, [r2, #1]
    4b0a:	230f      	movs	r3, #15
    4b0c:	0001      	movs	r1, r0
    4b0e:	9203      	str	r2, [sp, #12]
    4b10:	4399      	bics	r1, r3
    4b12:	d0ad      	beq.n	4a70 <ackReqDataConfcb+0x70>
    4b14:	0901      	lsrs	r1, r0, #4
    4b16:	310f      	adds	r1, #15
    4b18:	4019      	ands	r1, r3
    4b1a:	010a      	lsls	r2, r1, #4
    4b1c:	4003      	ands	r3, r0
    4b1e:	4313      	orrs	r3, r2
    4b20:	9a03      	ldr	r2, [sp, #12]
    4b22:	7053      	strb	r3, [r2, #1]
    4b24:	2900      	cmp	r1, #0
    4b26:	d1a3      	bne.n	4a70 <ackReqDataConfcb+0x70>
    4b28:	4660      	mov	r0, ip
    4b2a:	4b0b      	ldr	r3, [pc, #44]	; (4b58 <ackReqDataConfcb+0x158>)
    4b2c:	4798      	blx	r3
    4b2e:	e79f      	b.n	4a70 <ackReqDataConfcb+0x70>
    4b30:	00003031 	.word	0x00003031
    4b34:	20001a70 	.word	0x20001a70
    4b38:	20001a30 	.word	0x20001a30
    4b3c:	0000314d 	.word	0x0000314d
    4b40:	00003185 	.word	0x00003185
    4b44:	20000384 	.word	0x20000384
    4b48:	00004a01 	.word	0x00004a01
    4b4c:	0000631d 	.word	0x0000631d
    4b50:	20001a28 	.word	0x20001a28
    4b54:	00008525 	.word	0x00008525
    4b58:	00008aa9 	.word	0x00008aa9

00004b5c <nonAckDataCallback>:
    4b5c:	b5f0      	push	{r4, r5, r6, r7, lr}
    4b5e:	46c6      	mov	lr, r8
    4b60:	4e15      	ldr	r6, [pc, #84]	; (4bb8 <nonAckDataCallback+0x5c>)
    4b62:	b500      	push	{lr}
    4b64:	4680      	mov	r8, r0
    4b66:	0010      	movs	r0, r2
    4b68:	0015      	movs	r5, r2
    4b6a:	000f      	movs	r7, r1
    4b6c:	47b0      	blx	r6
    4b6e:	4b13      	ldr	r3, [pc, #76]	; (4bbc <nonAckDataCallback+0x60>)
    4b70:	2100      	movs	r1, #0
    4b72:	4813      	ldr	r0, [pc, #76]	; (4bc0 <nonAckDataCallback+0x64>)
    4b74:	4798      	blx	r3
    4b76:	22ff      	movs	r2, #255	; 0xff
    4b78:	4b12      	ldr	r3, [pc, #72]	; (4bc4 <nonAckDataCallback+0x68>)
    4b7a:	0004      	movs	r4, r0
    4b7c:	881b      	ldrh	r3, [r3, #0]
    4b7e:	421a      	tst	r2, r3
    4b80:	d110      	bne.n	4ba4 <nonAckDataCallback+0x48>
    4b82:	2c00      	cmp	r4, #0
    4b84:	d013      	beq.n	4bae <nonAckDataCallback+0x52>
    4b86:	68a3      	ldr	r3, [r4, #8]
    4b88:	2b00      	cmp	r3, #0
    4b8a:	d003      	beq.n	4b94 <nonAckDataCallback+0x38>
    4b8c:	002a      	movs	r2, r5
    4b8e:	0039      	movs	r1, r7
    4b90:	4640      	mov	r0, r8
    4b92:	4798      	blx	r3
    4b94:	7d23      	ldrb	r3, [r4, #20]
    4b96:	2b00      	cmp	r3, #0
    4b98:	d101      	bne.n	4b9e <nonAckDataCallback+0x42>
    4b9a:	0020      	movs	r0, r4
    4b9c:	47b0      	blx	r6
    4b9e:	bc04      	pop	{r2}
    4ba0:	4690      	mov	r8, r2
    4ba2:	bdf0      	pop	{r4, r5, r6, r7, pc}
    4ba4:	0038      	movs	r0, r7
    4ba6:	4b08      	ldr	r3, [pc, #32]	; (4bc8 <nonAckDataCallback+0x6c>)
    4ba8:	4798      	blx	r3
    4baa:	2c00      	cmp	r4, #0
    4bac:	d1eb      	bne.n	4b86 <nonAckDataCallback+0x2a>
    4bae:	4b07      	ldr	r3, [pc, #28]	; (4bcc <nonAckDataCallback+0x70>)
    4bb0:	781b      	ldrb	r3, [r3, #0]
    4bb2:	2b08      	cmp	r3, #8
    4bb4:	d1f3      	bne.n	4b9e <nonAckDataCallback+0x42>
    4bb6:	e7e6      	b.n	4b86 <nonAckDataCallback+0x2a>
    4bb8:	00003031 	.word	0x00003031
    4bbc:	00003185 	.word	0x00003185
    4bc0:	20001a10 	.word	0x20001a10
    4bc4:	20001a70 	.word	0x20001a70
    4bc8:	00008525 	.word	0x00008525
    4bcc:	20000384 	.word	0x20000384

00004bd0 <MiApp_ProtocolInit>:
    4bd0:	b570      	push	{r4, r5, r6, lr}
    4bd2:	4b24      	ldr	r3, [pc, #144]	; (4c64 <MiApp_ProtocolInit+0x94>)
    4bd4:	b084      	sub	sp, #16
    4bd6:	6018      	str	r0, [r3, #0]
    4bd8:	4b23      	ldr	r3, [pc, #140]	; (4c68 <MiApp_ProtocolInit+0x98>)
    4bda:	2501      	movs	r5, #1
    4bdc:	6019      	str	r1, [r3, #0]
    4bde:	4b23      	ldr	r3, [pc, #140]	; (4c6c <MiApp_ProtocolInit+0x9c>)
    4be0:	4798      	blx	r3
    4be2:	2102      	movs	r1, #2
    4be4:	4c22      	ldr	r4, [pc, #136]	; (4c70 <MiApp_ProtocolInit+0xa0>)
    4be6:	4b23      	ldr	r3, [pc, #140]	; (4c74 <MiApp_ProtocolInit+0xa4>)
    4be8:	aa02      	add	r2, sp, #8
    4bea:	8023      	strh	r3, [r4, #0]
    4bec:	7813      	ldrb	r3, [r2, #0]
    4bee:	2601      	movs	r6, #1
    4bf0:	430b      	orrs	r3, r1
    4bf2:	2187      	movs	r1, #135	; 0x87
    4bf4:	400b      	ands	r3, r1
    4bf6:	2140      	movs	r1, #64	; 0x40
    4bf8:	430b      	orrs	r3, r1
    4bfa:	21c3      	movs	r1, #195	; 0xc3
    4bfc:	400b      	ands	r3, r1
    4bfe:	43ab      	bics	r3, r5
    4c00:	7013      	strb	r3, [r2, #0]
    4c02:	491d      	ldr	r1, [pc, #116]	; (4c78 <MiApp_ProtocolInit+0xa8>)
    4c04:	9802      	ldr	r0, [sp, #8]
    4c06:	4b1d      	ldr	r3, [pc, #116]	; (4c7c <MiApp_ProtocolInit+0xac>)
    4c08:	4798      	blx	r3
    4c0a:	4b1d      	ldr	r3, [pc, #116]	; (4c80 <MiApp_ProtocolInit+0xb0>)
    4c0c:	4798      	blx	r3
    4c0e:	466b      	mov	r3, sp
    4c10:	4276      	negs	r6, r6
    4c12:	1d98      	adds	r0, r3, #6
    4c14:	0021      	movs	r1, r4
    4c16:	4b1b      	ldr	r3, [pc, #108]	; (4c84 <MiApp_ProtocolInit+0xb4>)
    4c18:	8006      	strh	r6, [r0, #0]
    4c1a:	4798      	blx	r3
    4c1c:	491a      	ldr	r1, [pc, #104]	; (4c88 <MiApp_ProtocolInit+0xb8>)
    4c1e:	4b1b      	ldr	r3, [pc, #108]	; (4c8c <MiApp_ProtocolInit+0xbc>)
    4c20:	2000      	movs	r0, #0
    4c22:	4798      	blx	r3
    4c24:	4b1a      	ldr	r3, [pc, #104]	; (4c90 <MiApp_ProtocolInit+0xc0>)
    4c26:	4798      	blx	r3
    4c28:	4b1a      	ldr	r3, [pc, #104]	; (4c94 <MiApp_ProtocolInit+0xc4>)
    4c2a:	4798      	blx	r3
    4c2c:	4b1a      	ldr	r3, [pc, #104]	; (4c98 <MiApp_ProtocolInit+0xc8>)
    4c2e:	4798      	blx	r3
    4c30:	4b1a      	ldr	r3, [pc, #104]	; (4c9c <MiApp_ProtocolInit+0xcc>)
    4c32:	4c1b      	ldr	r4, [pc, #108]	; (4ca0 <MiApp_ProtocolInit+0xd0>)
    4c34:	701d      	strb	r5, [r3, #0]
    4c36:	4b1b      	ldr	r3, [pc, #108]	; (4ca4 <MiApp_ProtocolInit+0xd4>)
    4c38:	481b      	ldr	r0, [pc, #108]	; (4ca8 <MiApp_ProtocolInit+0xd8>)
    4c3a:	801e      	strh	r6, [r3, #0]
    4c3c:	47a0      	blx	r4
    4c3e:	481b      	ldr	r0, [pc, #108]	; (4cac <MiApp_ProtocolInit+0xdc>)
    4c40:	47a0      	blx	r4
    4c42:	481b      	ldr	r0, [pc, #108]	; (4cb0 <MiApp_ProtocolInit+0xe0>)
    4c44:	47a0      	blx	r4
    4c46:	481b      	ldr	r0, [pc, #108]	; (4cb4 <MiApp_ProtocolInit+0xe4>)
    4c48:	47a0      	blx	r4
    4c4a:	23fa      	movs	r3, #250	; 0xfa
    4c4c:	481a      	ldr	r0, [pc, #104]	; (4cb8 <MiApp_ProtocolInit+0xe8>)
    4c4e:	009b      	lsls	r3, r3, #2
    4c50:	6083      	str	r3, [r0, #8]
    4c52:	4b1a      	ldr	r3, [pc, #104]	; (4cbc <MiApp_ProtocolInit+0xec>)
    4c54:	7305      	strb	r5, [r0, #12]
    4c56:	6103      	str	r3, [r0, #16]
    4c58:	4b19      	ldr	r3, [pc, #100]	; (4cc0 <MiApp_ProtocolInit+0xf0>)
    4c5a:	4798      	blx	r3
    4c5c:	2001      	movs	r0, #1
    4c5e:	b004      	add	sp, #16
    4c60:	bd70      	pop	{r4, r5, r6, pc}
    4c62:	46c0      	nop			; (mov r8, r8)
    4c64:	20001a28 	.word	0x20001a28
    4c68:	20001a2c 	.word	0x20001a2c
    4c6c:	0000320d 	.word	0x0000320d
    4c70:	20001a5c 	.word	0x20001a5c
    4c74:	00001234 	.word	0x00001234
    4c78:	20000070 	.word	0x20000070
    4c7c:	000021ad 	.word	0x000021ad
    4c80:	00002bc1 	.word	0x00002bc1
    4c84:	0000214d 	.word	0x0000214d
    4c88:	20001a3c 	.word	0x20001a3c
    4c8c:	00002185 	.word	0x00002185
    4c90:	00008631 	.word	0x00008631
    4c94:	000082e9 	.word	0x000082e9
    4c98:	000066ed 	.word	0x000066ed
    4c9c:	20000384 	.word	0x20000384
    4ca0:	00003141 	.word	0x00003141
    4ca4:	20001a70 	.word	0x20001a70
    4ca8:	20001a30 	.word	0x20001a30
    4cac:	20001a10 	.word	0x20001a10
    4cb0:	20001a1c 	.word	0x20001a1c
    4cb4:	20001a64 	.word	0x20001a64
    4cb8:	20000388 	.word	0x20000388
    4cbc:	000048c1 	.word	0x000048c1
    4cc0:	000032b5 	.word	0x000032b5

00004cc4 <MiApp_Set>:
    4cc4:	b530      	push	{r4, r5, lr}
    4cc6:	000c      	movs	r4, r1
    4cc8:	b083      	sub	sp, #12
    4cca:	2802      	cmp	r0, #2
    4ccc:	d020      	beq.n	4d10 <MiApp_Set+0x4c>
    4cce:	d912      	bls.n	4cf6 <MiApp_Set+0x32>
    4cd0:	2880      	cmp	r0, #128	; 0x80
    4cd2:	d009      	beq.n	4ce8 <MiApp_Set+0x24>
    4cd4:	2881      	cmp	r0, #129	; 0x81
    4cd6:	d119      	bne.n	4d0c <MiApp_Set+0x48>
    4cd8:	780b      	ldrb	r3, [r1, #0]
    4cda:	2001      	movs	r0, #1
    4cdc:	1e5a      	subs	r2, r3, #1
    4cde:	4193      	sbcs	r3, r2
    4ce0:	4a13      	ldr	r2, [pc, #76]	; (4d30 <MiApp_Set+0x6c>)
    4ce2:	7013      	strb	r3, [r2, #0]
    4ce4:	b003      	add	sp, #12
    4ce6:	bd30      	pop	{r4, r5, pc}
    4ce8:	780b      	ldrb	r3, [r1, #0]
    4cea:	2001      	movs	r0, #1
    4cec:	1e5a      	subs	r2, r3, #1
    4cee:	4193      	sbcs	r3, r2
    4cf0:	4a10      	ldr	r2, [pc, #64]	; (4d34 <MiApp_Set+0x70>)
    4cf2:	7013      	strb	r3, [r2, #0]
    4cf4:	e7f6      	b.n	4ce4 <MiApp_Set+0x20>
    4cf6:	2800      	cmp	r0, #0
    4cf8:	d108      	bne.n	4d0c <MiApp_Set+0x48>
    4cfa:	2000      	movs	r0, #0
    4cfc:	4b0e      	ldr	r3, [pc, #56]	; (4d38 <MiApp_Set+0x74>)
    4cfe:	4798      	blx	r3
    4d00:	2800      	cmp	r0, #0
    4d02:	d0ef      	beq.n	4ce4 <MiApp_Set+0x20>
    4d04:	7822      	ldrb	r2, [r4, #0]
    4d06:	4b0d      	ldr	r3, [pc, #52]	; (4d3c <MiApp_Set+0x78>)
    4d08:	701a      	strb	r2, [r3, #0]
    4d0a:	e7eb      	b.n	4ce4 <MiApp_Set+0x20>
    4d0c:	2000      	movs	r0, #0
    4d0e:	e7e9      	b.n	4ce4 <MiApp_Set+0x20>
    4d10:	780b      	ldrb	r3, [r1, #0]
    4d12:	ad01      	add	r5, sp, #4
    4d14:	702b      	strb	r3, [r5, #0]
    4d16:	784b      	ldrb	r3, [r1, #1]
    4d18:	0028      	movs	r0, r5
    4d1a:	706b      	strb	r3, [r5, #1]
    4d1c:	4908      	ldr	r1, [pc, #32]	; (4d40 <MiApp_Set+0x7c>)
    4d1e:	4b09      	ldr	r3, [pc, #36]	; (4d44 <MiApp_Set+0x80>)
    4d20:	4798      	blx	r3
    4d22:	2800      	cmp	r0, #0
    4d24:	d0de      	beq.n	4ce4 <MiApp_Set+0x20>
    4d26:	882a      	ldrh	r2, [r5, #0]
    4d28:	4b07      	ldr	r3, [pc, #28]	; (4d48 <MiApp_Set+0x84>)
    4d2a:	801a      	strh	r2, [r3, #0]
    4d2c:	e7da      	b.n	4ce4 <MiApp_Set+0x20>
    4d2e:	46c0      	nop			; (mov r8, r8)
    4d30:	200003b4 	.word	0x200003b4
    4d34:	2000006f 	.word	0x2000006f
    4d38:	00002185 	.word	0x00002185
    4d3c:	20001a3c 	.word	0x20001a3c
    4d40:	20001a5c 	.word	0x20001a5c
    4d44:	0000214d 	.word	0x0000214d
    4d48:	20001a70 	.word	0x20001a70

00004d4c <MeshTasks>:
    4d4c:	b530      	push	{r4, r5, lr}
    4d4e:	4b18      	ldr	r3, [pc, #96]	; (4db0 <MeshTasks+0x64>)
    4d50:	b085      	sub	sp, #20
    4d52:	4798      	blx	r3
    4d54:	4817      	ldr	r0, [pc, #92]	; (4db4 <MeshTasks+0x68>)
    4d56:	7a03      	ldrb	r3, [r0, #8]
    4d58:	2b00      	cmp	r3, #0
    4d5a:	d003      	beq.n	4d64 <MeshTasks+0x18>
    4d5c:	4c16      	ldr	r4, [pc, #88]	; (4db8 <MeshTasks+0x6c>)
    4d5e:	7823      	ldrb	r3, [r4, #0]
    4d60:	2b00      	cmp	r3, #0
    4d62:	d10c      	bne.n	4d7e <MeshTasks+0x32>
    4d64:	4b15      	ldr	r3, [pc, #84]	; (4dbc <MeshTasks+0x70>)
    4d66:	4798      	blx	r3
    4d68:	2800      	cmp	r0, #0
    4d6a:	d004      	beq.n	4d76 <MeshTasks+0x2a>
    4d6c:	4b14      	ldr	r3, [pc, #80]	; (4dc0 <MeshTasks+0x74>)
    4d6e:	4815      	ldr	r0, [pc, #84]	; (4dc4 <MeshTasks+0x78>)
    4d70:	4798      	blx	r3
    4d72:	4b15      	ldr	r3, [pc, #84]	; (4dc8 <MeshTasks+0x7c>)
    4d74:	4798      	blx	r3
    4d76:	4b15      	ldr	r3, [pc, #84]	; (4dcc <MeshTasks+0x80>)
    4d78:	4798      	blx	r3
    4d7a:	b005      	add	sp, #20
    4d7c:	bd30      	pop	{r4, r5, pc}
    4d7e:	2100      	movs	r1, #0
    4d80:	4b13      	ldr	r3, [pc, #76]	; (4dd0 <MeshTasks+0x84>)
    4d82:	4798      	blx	r3
    4d84:	1e02      	subs	r2, r0, #0
    4d86:	d0ed      	beq.n	4d64 <MeshTasks+0x18>
    4d88:	4b12      	ldr	r3, [pc, #72]	; (4dd4 <MeshTasks+0x88>)
    4d8a:	4913      	ldr	r1, [pc, #76]	; (4dd8 <MeshTasks+0x8c>)
    4d8c:	6018      	str	r0, [r3, #0]
    4d8e:	6943      	ldr	r3, [r0, #20]
    4d90:	9102      	str	r1, [sp, #8]
    4d92:	2125      	movs	r1, #37	; 0x25
    4d94:	5c41      	ldrb	r1, [r0, r1]
    4d96:	4d11      	ldr	r5, [pc, #68]	; (4ddc <MeshTasks+0x90>)
    4d98:	9101      	str	r1, [sp, #4]
    4d9a:	2124      	movs	r1, #36	; 0x24
    4d9c:	5c41      	ldrb	r1, [r0, r1]
    4d9e:	9100      	str	r1, [sp, #0]
    4da0:	69d1      	ldr	r1, [r2, #28]
    4da2:	6980      	ldr	r0, [r0, #24]
    4da4:	6a12      	ldr	r2, [r2, #32]
    4da6:	47a8      	blx	r5
    4da8:	2300      	movs	r3, #0
    4daa:	7023      	strb	r3, [r4, #0]
    4dac:	e7da      	b.n	4d64 <MeshTasks+0x18>
    4dae:	46c0      	nop			; (mov r8, r8)
    4db0:	00002859 	.word	0x00002859
    4db4:	20001a64 	.word	0x20001a64
    4db8:	2000006e 	.word	0x2000006e
    4dbc:	00002495 	.word	0x00002495
    4dc0:	00006955 	.word	0x00006955
    4dc4:	20001a48 	.word	0x20001a48
    4dc8:	00002479 	.word	0x00002479
    4dcc:	000032d5 	.word	0x000032d5
    4dd0:	00003185 	.word	0x00003185
    4dd4:	20001a40 	.word	0x20001a40
    4dd8:	00004891 	.word	0x00004891
    4ddc:	00002219 	.word	0x00002219

00004de0 <MiApp_SendData>:
    4de0:	b5f0      	push	{r4, r5, r6, r7, lr}
    4de2:	4657      	mov	r7, sl
    4de4:	464e      	mov	r6, r9
    4de6:	4645      	mov	r5, r8
    4de8:	46de      	mov	lr, fp
    4dea:	b5e0      	push	{r5, r6, r7, lr}
    4dec:	b083      	sub	sp, #12
    4dee:	001e      	movs	r6, r3
    4df0:	ab0c      	add	r3, sp, #48	; 0x30
    4df2:	781f      	ldrb	r7, [r3, #0]
    4df4:	ab0d      	add	r3, sp, #52	; 0x34
    4df6:	781c      	ldrb	r4, [r3, #0]
    4df8:	4b69      	ldr	r3, [pc, #420]	; (4fa0 <MiApp_SendData+0x1c0>)
    4dfa:	0015      	movs	r5, r2
    4dfc:	781b      	ldrb	r3, [r3, #0]
    4dfe:	3b06      	subs	r3, #6
    4e00:	2b01      	cmp	r3, #1
    4e02:	d907      	bls.n	4e14 <MiApp_SendData+0x34>
    4e04:	2000      	movs	r0, #0
    4e06:	b003      	add	sp, #12
    4e08:	bc3c      	pop	{r2, r3, r4, r5}
    4e0a:	4690      	mov	r8, r2
    4e0c:	4699      	mov	r9, r3
    4e0e:	46a2      	mov	sl, r4
    4e10:	46ab      	mov	fp, r5
    4e12:	bdf0      	pop	{r4, r5, r6, r7, pc}
    4e14:	2802      	cmp	r0, #2
    4e16:	d1f5      	bne.n	4e04 <MiApp_SendData+0x24>
    4e18:	23ff      	movs	r3, #255	; 0xff
    4e1a:	469a      	mov	sl, r3
    4e1c:	784b      	ldrb	r3, [r1, #1]
    4e1e:	780a      	ldrb	r2, [r1, #0]
    4e20:	021b      	lsls	r3, r3, #8
    4e22:	431a      	orrs	r2, r3
    4e24:	4b5f      	ldr	r3, [pc, #380]	; (4fa4 <MiApp_SendData+0x1c4>)
    4e26:	308e      	adds	r0, #142	; 0x8e
    4e28:	4691      	mov	r9, r2
    4e2a:	469b      	mov	fp, r3
    4e2c:	4798      	blx	r3
    4e2e:	4680      	mov	r8, r0
    4e30:	2800      	cmp	r0, #0
    4e32:	d0e7      	beq.n	4e04 <MiApp_SendData+0x24>
    4e34:	2203      	movs	r2, #3
    4e36:	7e43      	ldrb	r3, [r0, #25]
    4e38:	2110      	movs	r1, #16
    4e3a:	4393      	bics	r3, r2
    4e3c:	7643      	strb	r3, [r0, #25]
    4e3e:	466a      	mov	r2, sp
    4e40:	464b      	mov	r3, r9
    4e42:	80d3      	strh	r3, [r2, #6]
    4e44:	88d3      	ldrh	r3, [r2, #6]
    4e46:	4699      	mov	r9, r3
    4e48:	464a      	mov	r2, r9
    4e4a:	8382      	strh	r2, [r0, #28]
    4e4c:	2201      	movs	r2, #1
    4e4e:	4b56      	ldr	r3, [pc, #344]	; (4fa8 <MiApp_SendData+0x1c8>)
    4e50:	4022      	ands	r2, r4
    4e52:	881b      	ldrh	r3, [r3, #0]
    4e54:	0112      	lsls	r2, r2, #4
    4e56:	83c3      	strh	r3, [r0, #30]
    4e58:	7e43      	ldrb	r3, [r0, #25]
    4e5a:	438b      	bics	r3, r1
    4e5c:	4313      	orrs	r3, r2
    4e5e:	7643      	strb	r3, [r0, #25]
    4e60:	2338      	movs	r3, #56	; 0x38
    4e62:	54c5      	strb	r5, [r0, r3]
    4e64:	7487      	strb	r7, [r0, #18]
    4e66:	2700      	movs	r7, #0
    4e68:	9a0e      	ldr	r2, [sp, #56]	; 0x38
    4e6a:	74c7      	strb	r7, [r0, #19]
    4e6c:	6082      	str	r2, [r0, #8]
    4e6e:	7507      	strb	r7, [r0, #20]
    4e70:	002a      	movs	r2, r5
    4e72:	0031      	movs	r1, r6
    4e74:	3039      	adds	r0, #57	; 0x39
    4e76:	4d4d      	ldr	r5, [pc, #308]	; (4fac <MiApp_SendData+0x1cc>)
    4e78:	47a8      	blx	r5
    4e7a:	4b4d      	ldr	r3, [pc, #308]	; (4fb0 <MiApp_SendData+0x1d0>)
    4e7c:	4599      	cmp	r9, r3
    4e7e:	d821      	bhi.n	4ec4 <MiApp_SendData+0xe4>
    4e80:	4653      	mov	r3, sl
    4e82:	464a      	mov	r2, r9
    4e84:	4213      	tst	r3, r2
    4e86:	d031      	beq.n	4eec <MiApp_SendData+0x10c>
    4e88:	4648      	mov	r0, r9
    4e8a:	4652      	mov	r2, sl
    4e8c:	4b46      	ldr	r3, [pc, #280]	; (4fa8 <MiApp_SendData+0x1c8>)
    4e8e:	4390      	bics	r0, r2
    4e90:	881b      	ldrh	r3, [r3, #0]
    4e92:	4298      	cmp	r0, r3
    4e94:	d043      	beq.n	4f1e <MiApp_SendData+0x13e>
    4e96:	4b47      	ldr	r3, [pc, #284]	; (4fb4 <MiApp_SendData+0x1d4>)
    4e98:	4798      	blx	r3
    4e9a:	4643      	mov	r3, r8
    4e9c:	8198      	strh	r0, [r3, #12]
    4e9e:	4b46      	ldr	r3, [pc, #280]	; (4fb8 <MiApp_SendData+0x1d8>)
    4ea0:	4298      	cmp	r0, r3
    4ea2:	d06e      	beq.n	4f82 <MiApp_SendData+0x1a2>
    4ea4:	2c00      	cmp	r4, #0
    4ea6:	d125      	bne.n	4ef4 <MiApp_SendData+0x114>
    4ea8:	4643      	mov	r3, r8
    4eaa:	4641      	mov	r1, r8
    4eac:	745c      	strb	r4, [r3, #17]
    4eae:	4843      	ldr	r0, [pc, #268]	; (4fbc <MiApp_SendData+0x1dc>)
    4eb0:	4b43      	ldr	r3, [pc, #268]	; (4fc0 <MiApp_SendData+0x1e0>)
    4eb2:	4798      	blx	r3
    4eb4:	4643      	mov	r3, r8
    4eb6:	4a43      	ldr	r2, [pc, #268]	; (4fc4 <MiApp_SendData+0x1e4>)
    4eb8:	8999      	ldrh	r1, [r3, #12]
    4eba:	4640      	mov	r0, r8
    4ebc:	4b42      	ldr	r3, [pc, #264]	; (4fc8 <MiApp_SendData+0x1e8>)
    4ebe:	4798      	blx	r3
    4ec0:	2001      	movs	r0, #1
    4ec2:	e7a0      	b.n	4e06 <MiApp_SendData+0x26>
    4ec4:	4643      	mov	r3, r8
    4ec6:	2210      	movs	r2, #16
    4ec8:	7e5b      	ldrb	r3, [r3, #25]
    4eca:	4641      	mov	r1, r8
    4ecc:	4393      	bics	r3, r2
    4ece:	4642      	mov	r2, r8
    4ed0:	483a      	ldr	r0, [pc, #232]	; (4fbc <MiApp_SendData+0x1dc>)
    4ed2:	7653      	strb	r3, [r2, #25]
    4ed4:	4c3a      	ldr	r4, [pc, #232]	; (4fc0 <MiApp_SendData+0x1e0>)
    4ed6:	47a0      	blx	r4
    4ed8:	4b37      	ldr	r3, [pc, #220]	; (4fb8 <MiApp_SendData+0x1d8>)
    4eda:	4599      	cmp	r9, r3
    4edc:	d033      	beq.n	4f46 <MiApp_SendData+0x166>
    4ede:	4a39      	ldr	r2, [pc, #228]	; (4fc4 <MiApp_SendData+0x1e4>)
    4ee0:	4935      	ldr	r1, [pc, #212]	; (4fb8 <MiApp_SendData+0x1d8>)
    4ee2:	4640      	mov	r0, r8
    4ee4:	4b38      	ldr	r3, [pc, #224]	; (4fc8 <MiApp_SendData+0x1e8>)
    4ee6:	4798      	blx	r3
    4ee8:	2001      	movs	r0, #1
    4eea:	e78c      	b.n	4e06 <MiApp_SendData+0x26>
    4eec:	4648      	mov	r0, r9
    4eee:	4653      	mov	r3, sl
    4ef0:	4398      	bics	r0, r3
    4ef2:	e7d0      	b.n	4e96 <MiApp_SendData+0xb6>
    4ef4:	4b35      	ldr	r3, [pc, #212]	; (4fcc <MiApp_SendData+0x1ec>)
    4ef6:	4641      	mov	r1, r8
    4ef8:	681a      	ldr	r2, [r3, #0]
    4efa:	232f      	movs	r3, #47	; 0x2f
    4efc:	5cd3      	ldrb	r3, [r2, r3]
    4efe:	4834      	ldr	r0, [pc, #208]	; (4fd0 <MiApp_SendData+0x1f0>)
    4f00:	3301      	adds	r3, #1
    4f02:	740b      	strb	r3, [r1, #16]
    4f04:	2330      	movs	r3, #48	; 0x30
    4f06:	5cd3      	ldrb	r3, [r2, r3]
    4f08:	744b      	strb	r3, [r1, #17]
    4f0a:	4b2d      	ldr	r3, [pc, #180]	; (4fc0 <MiApp_SendData+0x1e0>)
    4f0c:	4798      	blx	r3
    4f0e:	4643      	mov	r3, r8
    4f10:	4a30      	ldr	r2, [pc, #192]	; (4fd4 <MiApp_SendData+0x1f4>)
    4f12:	8999      	ldrh	r1, [r3, #12]
    4f14:	4640      	mov	r0, r8
    4f16:	4b2c      	ldr	r3, [pc, #176]	; (4fc8 <MiApp_SendData+0x1e8>)
    4f18:	4798      	blx	r3
    4f1a:	0020      	movs	r0, r4
    4f1c:	e773      	b.n	4e06 <MiApp_SendData+0x26>
    4f1e:	4643      	mov	r3, r8
    4f20:	464a      	mov	r2, r9
    4f22:	819a      	strh	r2, [r3, #12]
    4f24:	464b      	mov	r3, r9
    4f26:	061b      	lsls	r3, r3, #24
    4f28:	d4bc      	bmi.n	4ea4 <MiApp_SendData+0xc4>
    4f2a:	4641      	mov	r1, r8
    4f2c:	4b27      	ldr	r3, [pc, #156]	; (4fcc <MiApp_SendData+0x1ec>)
    4f2e:	482a      	ldr	r0, [pc, #168]	; (4fd8 <MiApp_SendData+0x1f8>)
    4f30:	681a      	ldr	r2, [r3, #0]
    4f32:	7fd3      	ldrb	r3, [r2, #31]
    4f34:	3301      	adds	r3, #1
    4f36:	740b      	strb	r3, [r1, #16]
    4f38:	2330      	movs	r3, #48	; 0x30
    4f3a:	5cd3      	ldrb	r3, [r2, r3]
    4f3c:	744b      	strb	r3, [r1, #17]
    4f3e:	4b20      	ldr	r3, [pc, #128]	; (4fc0 <MiApp_SendData+0x1e0>)
    4f40:	4798      	blx	r3
    4f42:	2001      	movs	r0, #1
    4f44:	e75f      	b.n	4e06 <MiApp_SendData+0x26>
    4f46:	4b25      	ldr	r3, [pc, #148]	; (4fdc <MiApp_SendData+0x1fc>)
    4f48:	4798      	blx	r3
    4f4a:	2800      	cmp	r0, #0
    4f4c:	d0c7      	beq.n	4ede <MiApp_SendData+0xfe>
    4f4e:	4b24      	ldr	r3, [pc, #144]	; (4fe0 <MiApp_SendData+0x200>)
    4f50:	4798      	blx	r3
    4f52:	2832      	cmp	r0, #50	; 0x32
    4f54:	d9c3      	bls.n	4ede <MiApp_SendData+0xfe>
    4f56:	2090      	movs	r0, #144	; 0x90
    4f58:	47d8      	blx	fp
    4f5a:	0006      	movs	r6, r0
    4f5c:	42b8      	cmp	r0, r7
    4f5e:	d0be      	beq.n	4ede <MiApp_SendData+0xfe>
    4f60:	4641      	mov	r1, r8
    4f62:	2290      	movs	r2, #144	; 0x90
    4f64:	47a8      	blx	r5
    4f66:	4b19      	ldr	r3, [pc, #100]	; (4fcc <MiApp_SendData+0x1ec>)
    4f68:	2201      	movs	r2, #1
    4f6a:	681b      	ldr	r3, [r3, #0]
    4f6c:	0031      	movs	r1, r6
    4f6e:	7fdb      	ldrb	r3, [r3, #31]
    4f70:	4819      	ldr	r0, [pc, #100]	; (4fd8 <MiApp_SendData+0x1f8>)
    4f72:	3301      	adds	r3, #1
    4f74:	7433      	strb	r3, [r6, #16]
    4f76:	4643      	mov	r3, r8
    4f78:	7477      	strb	r7, [r6, #17]
    4f7a:	751a      	strb	r2, [r3, #20]
    4f7c:	60b7      	str	r7, [r6, #8]
    4f7e:	47a0      	blx	r4
    4f80:	e7ad      	b.n	4ede <MiApp_SendData+0xfe>
    4f82:	4b18      	ldr	r3, [pc, #96]	; (4fe4 <MiApp_SendData+0x204>)
    4f84:	4648      	mov	r0, r9
    4f86:	4798      	blx	r3
    4f88:	4642      	mov	r2, r8
    4f8a:	4b10      	ldr	r3, [pc, #64]	; (4fcc <MiApp_SendData+0x1ec>)
    4f8c:	4816      	ldr	r0, [pc, #88]	; (4fe8 <MiApp_SendData+0x208>)
    4f8e:	681b      	ldr	r3, [r3, #0]
    4f90:	4641      	mov	r1, r8
    4f92:	7f9b      	ldrb	r3, [r3, #30]
    4f94:	3301      	adds	r3, #1
    4f96:	7413      	strb	r3, [r2, #16]
    4f98:	4b09      	ldr	r3, [pc, #36]	; (4fc0 <MiApp_SendData+0x1e0>)
    4f9a:	4798      	blx	r3
    4f9c:	2001      	movs	r0, #1
    4f9e:	e732      	b.n	4e06 <MiApp_SendData+0x26>
    4fa0:	20000384 	.word	0x20000384
    4fa4:	00002fe1 	.word	0x00002fe1
    4fa8:	20001a70 	.word	0x20001a70
    4fac:	000093ab 	.word	0x000093ab
    4fb0:	0000fffc 	.word	0x0000fffc
    4fb4:	00008b01 	.word	0x00008b01
    4fb8:	0000ffff 	.word	0x0000ffff
    4fbc:	20001a10 	.word	0x20001a10
    4fc0:	0000314d 	.word	0x0000314d
    4fc4:	00004b5d 	.word	0x00004b5d
    4fc8:	0000631d 	.word	0x0000631d
    4fcc:	20001a28 	.word	0x20001a28
    4fd0:	20001a30 	.word	0x20001a30
    4fd4:	00004a01 	.word	0x00004a01
    4fd8:	20001a1c 	.word	0x20001a1c
    4fdc:	00008585 	.word	0x00008585
    4fe0:	0000306d 	.word	0x0000306d
    4fe4:	00008d05 	.word	0x00008d05
    4fe8:	20001ab0 	.word	0x20001ab0

00004fec <MiApp_Get>:
    4fec:	2801      	cmp	r0, #1
    4fee:	d016      	beq.n	501e <MiApp_Get+0x32>
    4ff0:	2800      	cmp	r0, #0
    4ff2:	d00f      	beq.n	5014 <MiApp_Get+0x28>
    4ff4:	2802      	cmp	r0, #2
    4ff6:	d009      	beq.n	500c <MiApp_Get+0x20>
    4ff8:	2803      	cmp	r0, #3
    4ffa:	d109      	bne.n	5010 <MiApp_Get+0x24>
    4ffc:	4b09      	ldr	r3, [pc, #36]	; (5024 <MiApp_Get+0x38>)
    4ffe:	2001      	movs	r0, #1
    5000:	881a      	ldrh	r2, [r3, #0]
    5002:	700a      	strb	r2, [r1, #0]
    5004:	881b      	ldrh	r3, [r3, #0]
    5006:	0a1b      	lsrs	r3, r3, #8
    5008:	704b      	strb	r3, [r1, #1]
    500a:	4770      	bx	lr
    500c:	4b06      	ldr	r3, [pc, #24]	; (5028 <MiApp_Get+0x3c>)
    500e:	e7f6      	b.n	4ffe <MiApp_Get+0x12>
    5010:	2000      	movs	r0, #0
    5012:	e7fa      	b.n	500a <MiApp_Get+0x1e>
    5014:	4b05      	ldr	r3, [pc, #20]	; (502c <MiApp_Get+0x40>)
    5016:	2001      	movs	r0, #1
    5018:	781b      	ldrb	r3, [r3, #0]
    501a:	700b      	strb	r3, [r1, #0]
    501c:	e7f5      	b.n	500a <MiApp_Get+0x1e>
    501e:	4b04      	ldr	r3, [pc, #16]	; (5030 <MiApp_Get+0x44>)
    5020:	e7ed      	b.n	4ffe <MiApp_Get+0x12>
    5022:	46c0      	nop			; (mov r8, r8)
    5024:	20000078 	.word	0x20000078
    5028:	20001a70 	.word	0x20001a70
    502c:	20001a3c 	.word	0x20001a3c
    5030:	20001a5c 	.word	0x20001a5c

00005034 <MiApp_MeshGetNextHopAddr>:
    5034:	23ff      	movs	r3, #255	; 0xff
    5036:	b510      	push	{r4, lr}
    5038:	4a04      	ldr	r2, [pc, #16]	; (504c <MiApp_MeshGetNextHopAddr+0x18>)
    503a:	8811      	ldrh	r1, [r2, #0]
    503c:	420b      	tst	r3, r1
    503e:	d002      	beq.n	5046 <MiApp_MeshGetNextHopAddr+0x12>
    5040:	8810      	ldrh	r0, [r2, #0]
    5042:	4398      	bics	r0, r3
    5044:	bd10      	pop	{r4, pc}
    5046:	4b02      	ldr	r3, [pc, #8]	; (5050 <MiApp_MeshGetNextHopAddr+0x1c>)
    5048:	4798      	blx	r3
    504a:	e7fb      	b.n	5044 <MiApp_MeshGetNextHopAddr+0x10>
    504c:	20001a70 	.word	0x20001a70
    5050:	00008b01 	.word	0x00008b01

00005054 <bloomFilterAddressCheck>:
    5054:	b5f0      	push	{r4, r5, r6, r7, lr}
    5056:	464e      	mov	r6, r9
    5058:	46de      	mov	lr, fp
    505a:	4657      	mov	r7, sl
    505c:	4645      	mov	r5, r8
    505e:	b5e0      	push	{r5, r6, r7, lr}
    5060:	4bf5      	ldr	r3, [pc, #980]	; (5438 <bloomFilterAddressCheck+0x3e4>)
    5062:	b087      	sub	sp, #28
    5064:	781b      	ldrb	r3, [r3, #0]
    5066:	9003      	str	r0, [sp, #12]
    5068:	000e      	movs	r6, r1
    506a:	9300      	str	r3, [sp, #0]
    506c:	2b00      	cmp	r3, #0
    506e:	d001      	beq.n	5074 <bloomFilterAddressCheck+0x20>
    5070:	f000 fe65 	bl	5d3e <bloomFilterAddressCheck+0xcea>
    5074:	7811      	ldrb	r1, [r2, #0]
    5076:	020b      	lsls	r3, r1, #8
    5078:	0249      	lsls	r1, r1, #9
    507a:	b209      	sxth	r1, r1
    507c:	b218      	sxth	r0, r3
    507e:	468c      	mov	ip, r1
    5080:	4680      	mov	r8, r0
    5082:	4660      	mov	r0, ip
    5084:	4644      	mov	r4, r8
    5086:	49ed      	ldr	r1, [pc, #948]	; (543c <bloomFilterAddressCheck+0x3e8>)
    5088:	005b      	lsls	r3, r3, #1
    508a:	4041      	eors	r1, r0
    508c:	b29b      	uxth	r3, r3
    508e:	b289      	uxth	r1, r1
    5090:	9304      	str	r3, [sp, #16]
    5092:	1c18      	adds	r0, r3, #0
    5094:	2c00      	cmp	r4, #0
    5096:	da01      	bge.n	509c <bloomFilterAddressCheck+0x48>
    5098:	f000 fe5b 	bl	5d52 <bloomFilterAddressCheck+0xcfe>
    509c:	b284      	uxth	r4, r0
    509e:	49e7      	ldr	r1, [pc, #924]	; (543c <bloomFilterAddressCheck+0x3e8>)
    50a0:	0064      	lsls	r4, r4, #1
    50a2:	4061      	eors	r1, r4
    50a4:	b209      	sxth	r1, r1
    50a6:	b289      	uxth	r1, r1
    50a8:	0044      	lsls	r4, r0, #1
    50aa:	0403      	lsls	r3, r0, #16
    50ac:	d501      	bpl.n	50b2 <bloomFilterAddressCheck+0x5e>
    50ae:	f000 fe53 	bl	5d58 <bloomFilterAddressCheck+0xd04>
    50b2:	b2a0      	uxth	r0, r4
    50b4:	49e1      	ldr	r1, [pc, #900]	; (543c <bloomFilterAddressCheck+0x3e8>)
    50b6:	0040      	lsls	r0, r0, #1
    50b8:	4041      	eors	r1, r0
    50ba:	b289      	uxth	r1, r1
    50bc:	0060      	lsls	r0, r4, #1
    50be:	0423      	lsls	r3, r4, #16
    50c0:	d501      	bpl.n	50c6 <bloomFilterAddressCheck+0x72>
    50c2:	f000 fe54 	bl	5d6e <bloomFilterAddressCheck+0xd1a>
    50c6:	b284      	uxth	r4, r0
    50c8:	49dc      	ldr	r1, [pc, #880]	; (543c <bloomFilterAddressCheck+0x3e8>)
    50ca:	0064      	lsls	r4, r4, #1
    50cc:	4061      	eors	r1, r4
    50ce:	b289      	uxth	r1, r1
    50d0:	0044      	lsls	r4, r0, #1
    50d2:	0403      	lsls	r3, r0, #16
    50d4:	d501      	bpl.n	50da <bloomFilterAddressCheck+0x86>
    50d6:	f000 fe55 	bl	5d84 <bloomFilterAddressCheck+0xd30>
    50da:	b2a0      	uxth	r0, r4
    50dc:	49d7      	ldr	r1, [pc, #860]	; (543c <bloomFilterAddressCheck+0x3e8>)
    50de:	0040      	lsls	r0, r0, #1
    50e0:	4041      	eors	r1, r0
    50e2:	b289      	uxth	r1, r1
    50e4:	0060      	lsls	r0, r4, #1
    50e6:	0423      	lsls	r3, r4, #16
    50e8:	d501      	bpl.n	50ee <bloomFilterAddressCheck+0x9a>
    50ea:	f000 fe56 	bl	5d9a <bloomFilterAddressCheck+0xd46>
    50ee:	b284      	uxth	r4, r0
    50f0:	49d2      	ldr	r1, [pc, #840]	; (543c <bloomFilterAddressCheck+0x3e8>)
    50f2:	0064      	lsls	r4, r4, #1
    50f4:	4061      	eors	r1, r4
    50f6:	b289      	uxth	r1, r1
    50f8:	0044      	lsls	r4, r0, #1
    50fa:	0403      	lsls	r3, r0, #16
    50fc:	d501      	bpl.n	5102 <bloomFilterAddressCheck+0xae>
    50fe:	f000 fe57 	bl	5db0 <bloomFilterAddressCheck+0xd5c>
    5102:	b2a0      	uxth	r0, r4
    5104:	49cd      	ldr	r1, [pc, #820]	; (543c <bloomFilterAddressCheck+0x3e8>)
    5106:	0040      	lsls	r0, r0, #1
    5108:	4041      	eors	r1, r0
    510a:	b289      	uxth	r1, r1
    510c:	0060      	lsls	r0, r4, #1
    510e:	0423      	lsls	r3, r4, #16
    5110:	d501      	bpl.n	5116 <bloomFilterAddressCheck+0xc2>
    5112:	f000 fe58 	bl	5dc6 <bloomFilterAddressCheck+0xd72>
    5116:	b284      	uxth	r4, r0
    5118:	49c8      	ldr	r1, [pc, #800]	; (543c <bloomFilterAddressCheck+0x3e8>)
    511a:	0064      	lsls	r4, r4, #1
    511c:	4061      	eors	r1, r4
    511e:	2401      	movs	r4, #1
    5120:	5714      	ldrsb	r4, [r2, r4]
    5122:	b289      	uxth	r1, r1
    5124:	0224      	lsls	r4, r4, #8
    5126:	0045      	lsls	r5, r0, #1
    5128:	0403      	lsls	r3, r0, #16
    512a:	d501      	bpl.n	5130 <bloomFilterAddressCheck+0xdc>
    512c:	f000 fe4e 	bl	5dcc <bloomFilterAddressCheck+0xd78>
    5130:	4065      	eors	r5, r4
    5132:	b22d      	sxth	r5, r5
    5134:	b2a9      	uxth	r1, r5
    5136:	48c1      	ldr	r0, [pc, #772]	; (543c <bloomFilterAddressCheck+0x3e8>)
    5138:	0049      	lsls	r1, r1, #1
    513a:	4048      	eors	r0, r1
    513c:	b280      	uxth	r0, r0
    513e:	2d00      	cmp	r5, #0
    5140:	da01      	bge.n	5146 <bloomFilterAddressCheck+0xf2>
    5142:	f000 fe46 	bl	5dd2 <bloomFilterAddressCheck+0xd7e>
    5146:	48bd      	ldr	r0, [pc, #756]	; (543c <bloomFilterAddressCheck+0x3e8>)
    5148:	b28d      	uxth	r5, r1
    514a:	006d      	lsls	r5, r5, #1
    514c:	4045      	eors	r5, r0
    514e:	b2ad      	uxth	r5, r5
    5150:	0048      	lsls	r0, r1, #1
    5152:	040b      	lsls	r3, r1, #16
    5154:	d501      	bpl.n	515a <bloomFilterAddressCheck+0x106>
    5156:	f000 fe47 	bl	5de8 <bloomFilterAddressCheck+0xd94>
    515a:	b285      	uxth	r5, r0
    515c:	49b7      	ldr	r1, [pc, #732]	; (543c <bloomFilterAddressCheck+0x3e8>)
    515e:	006d      	lsls	r5, r5, #1
    5160:	4069      	eors	r1, r5
    5162:	b289      	uxth	r1, r1
    5164:	0045      	lsls	r5, r0, #1
    5166:	0403      	lsls	r3, r0, #16
    5168:	d501      	bpl.n	516e <bloomFilterAddressCheck+0x11a>
    516a:	f000 fe48 	bl	5dfe <bloomFilterAddressCheck+0xdaa>
    516e:	b2a8      	uxth	r0, r5
    5170:	49b2      	ldr	r1, [pc, #712]	; (543c <bloomFilterAddressCheck+0x3e8>)
    5172:	0040      	lsls	r0, r0, #1
    5174:	4041      	eors	r1, r0
    5176:	b289      	uxth	r1, r1
    5178:	0068      	lsls	r0, r5, #1
    517a:	042b      	lsls	r3, r5, #16
    517c:	d501      	bpl.n	5182 <bloomFilterAddressCheck+0x12e>
    517e:	f000 fe49 	bl	5e14 <bloomFilterAddressCheck+0xdc0>
    5182:	b285      	uxth	r5, r0
    5184:	49ad      	ldr	r1, [pc, #692]	; (543c <bloomFilterAddressCheck+0x3e8>)
    5186:	006d      	lsls	r5, r5, #1
    5188:	4069      	eors	r1, r5
    518a:	b289      	uxth	r1, r1
    518c:	0045      	lsls	r5, r0, #1
    518e:	0403      	lsls	r3, r0, #16
    5190:	d501      	bpl.n	5196 <bloomFilterAddressCheck+0x142>
    5192:	f000 fe4a 	bl	5e2a <bloomFilterAddressCheck+0xdd6>
    5196:	b2a8      	uxth	r0, r5
    5198:	49a8      	ldr	r1, [pc, #672]	; (543c <bloomFilterAddressCheck+0x3e8>)
    519a:	0040      	lsls	r0, r0, #1
    519c:	4041      	eors	r1, r0
    519e:	b289      	uxth	r1, r1
    51a0:	0068      	lsls	r0, r5, #1
    51a2:	042b      	lsls	r3, r5, #16
    51a4:	d501      	bpl.n	51aa <bloomFilterAddressCheck+0x156>
    51a6:	f000 fe4b 	bl	5e40 <bloomFilterAddressCheck+0xdec>
    51aa:	b285      	uxth	r5, r0
    51ac:	49a3      	ldr	r1, [pc, #652]	; (543c <bloomFilterAddressCheck+0x3e8>)
    51ae:	006d      	lsls	r5, r5, #1
    51b0:	4069      	eors	r1, r5
    51b2:	b289      	uxth	r1, r1
    51b4:	0045      	lsls	r5, r0, #1
    51b6:	0403      	lsls	r3, r0, #16
    51b8:	d501      	bpl.n	51be <bloomFilterAddressCheck+0x16a>
    51ba:	f000 fe4c 	bl	5e56 <bloomFilterAddressCheck+0xe02>
    51be:	b2a8      	uxth	r0, r5
    51c0:	499e      	ldr	r1, [pc, #632]	; (543c <bloomFilterAddressCheck+0x3e8>)
    51c2:	0040      	lsls	r0, r0, #1
    51c4:	4041      	eors	r1, r0
    51c6:	2002      	movs	r0, #2
    51c8:	5610      	ldrsb	r0, [r2, r0]
    51ca:	006f      	lsls	r7, r5, #1
    51cc:	b289      	uxth	r1, r1
    51ce:	0200      	lsls	r0, r0, #8
    51d0:	46b9      	mov	r9, r7
    51d2:	042b      	lsls	r3, r5, #16
    51d4:	d501      	bpl.n	51da <bloomFilterAddressCheck+0x186>
    51d6:	f000 fe41 	bl	5e5c <bloomFilterAddressCheck+0xe08>
    51da:	464d      	mov	r5, r9
    51dc:	4045      	eors	r5, r0
    51de:	b22d      	sxth	r5, r5
    51e0:	b2a9      	uxth	r1, r5
    51e2:	0049      	lsls	r1, r1, #1
    51e4:	4689      	mov	r9, r1
    51e6:	464f      	mov	r7, r9
    51e8:	4994      	ldr	r1, [pc, #592]	; (543c <bloomFilterAddressCheck+0x3e8>)
    51ea:	4079      	eors	r1, r7
    51ec:	b289      	uxth	r1, r1
    51ee:	468a      	mov	sl, r1
    51f0:	4649      	mov	r1, r9
    51f2:	2d00      	cmp	r5, #0
    51f4:	da01      	bge.n	51fa <bloomFilterAddressCheck+0x1a6>
    51f6:	f000 fe34 	bl	5e62 <bloomFilterAddressCheck+0xe0e>
    51fa:	b28d      	uxth	r5, r1
    51fc:	006d      	lsls	r5, r5, #1
    51fe:	46a9      	mov	r9, r5
    5200:	464f      	mov	r7, r9
    5202:	4d8e      	ldr	r5, [pc, #568]	; (543c <bloomFilterAddressCheck+0x3e8>)
    5204:	407d      	eors	r5, r7
    5206:	b2ad      	uxth	r5, r5
    5208:	46a9      	mov	r9, r5
    520a:	004d      	lsls	r5, r1, #1
    520c:	040b      	lsls	r3, r1, #16
    520e:	d501      	bpl.n	5214 <bloomFilterAddressCheck+0x1c0>
    5210:	f000 fe2a 	bl	5e68 <bloomFilterAddressCheck+0xe14>
    5214:	b2a9      	uxth	r1, r5
    5216:	0049      	lsls	r1, r1, #1
    5218:	4689      	mov	r9, r1
    521a:	464f      	mov	r7, r9
    521c:	4987      	ldr	r1, [pc, #540]	; (543c <bloomFilterAddressCheck+0x3e8>)
    521e:	4079      	eors	r1, r7
    5220:	006f      	lsls	r7, r5, #1
    5222:	b289      	uxth	r1, r1
    5224:	46b9      	mov	r9, r7
    5226:	042b      	lsls	r3, r5, #16
    5228:	d501      	bpl.n	522e <bloomFilterAddressCheck+0x1da>
    522a:	f000 fe20 	bl	5e6e <bloomFilterAddressCheck+0xe1a>
    522e:	4649      	mov	r1, r9
    5230:	466b      	mov	r3, sp
    5232:	b28d      	uxth	r5, r1
    5234:	8099      	strh	r1, [r3, #4]
    5236:	4981      	ldr	r1, [pc, #516]	; (543c <bloomFilterAddressCheck+0x3e8>)
    5238:	006d      	lsls	r5, r5, #1
    523a:	4069      	eors	r1, r5
    523c:	464f      	mov	r7, r9
    523e:	464d      	mov	r5, r9
    5240:	b289      	uxth	r1, r1
    5242:	006d      	lsls	r5, r5, #1
    5244:	043b      	lsls	r3, r7, #16
    5246:	d501      	bpl.n	524c <bloomFilterAddressCheck+0x1f8>
    5248:	f000 fe14 	bl	5e74 <bloomFilterAddressCheck+0xe20>
    524c:	b2a9      	uxth	r1, r5
    524e:	0049      	lsls	r1, r1, #1
    5250:	4689      	mov	r9, r1
    5252:	464f      	mov	r7, r9
    5254:	4979      	ldr	r1, [pc, #484]	; (543c <bloomFilterAddressCheck+0x3e8>)
    5256:	4079      	eors	r1, r7
    5258:	006f      	lsls	r7, r5, #1
    525a:	b289      	uxth	r1, r1
    525c:	46b9      	mov	r9, r7
    525e:	042b      	lsls	r3, r5, #16
    5260:	d501      	bpl.n	5266 <bloomFilterAddressCheck+0x212>
    5262:	f000 fe0a 	bl	5e7a <bloomFilterAddressCheck+0xe26>
    5266:	4649      	mov	r1, r9
    5268:	466b      	mov	r3, sp
    526a:	b28d      	uxth	r5, r1
    526c:	8099      	strh	r1, [r3, #4]
    526e:	4973      	ldr	r1, [pc, #460]	; (543c <bloomFilterAddressCheck+0x3e8>)
    5270:	006d      	lsls	r5, r5, #1
    5272:	4069      	eors	r1, r5
    5274:	464f      	mov	r7, r9
    5276:	464d      	mov	r5, r9
    5278:	b289      	uxth	r1, r1
    527a:	006d      	lsls	r5, r5, #1
    527c:	043b      	lsls	r3, r7, #16
    527e:	d501      	bpl.n	5284 <bloomFilterAddressCheck+0x230>
    5280:	f000 fdfe 	bl	5e80 <bloomFilterAddressCheck+0xe2c>
    5284:	b2a9      	uxth	r1, r5
    5286:	0049      	lsls	r1, r1, #1
    5288:	4689      	mov	r9, r1
    528a:	464f      	mov	r7, r9
    528c:	496b      	ldr	r1, [pc, #428]	; (543c <bloomFilterAddressCheck+0x3e8>)
    528e:	4079      	eors	r1, r7
    5290:	006f      	lsls	r7, r5, #1
    5292:	b289      	uxth	r1, r1
    5294:	46ba      	mov	sl, r7
    5296:	042b      	lsls	r3, r5, #16
    5298:	d501      	bpl.n	529e <bloomFilterAddressCheck+0x24a>
    529a:	f000 fdf4 	bl	5e86 <bloomFilterAddressCheck+0xe32>
    529e:	4651      	mov	r1, sl
    52a0:	466b      	mov	r3, sp
    52a2:	b28d      	uxth	r5, r1
    52a4:	8099      	strh	r1, [r3, #4]
    52a6:	4965      	ldr	r1, [pc, #404]	; (543c <bloomFilterAddressCheck+0x3e8>)
    52a8:	006d      	lsls	r5, r5, #1
    52aa:	4069      	eors	r1, r5
    52ac:	b289      	uxth	r1, r1
    52ae:	4689      	mov	r9, r1
    52b0:	2103      	movs	r1, #3
    52b2:	4655      	mov	r5, sl
    52b4:	4657      	mov	r7, sl
    52b6:	5651      	ldrsb	r1, [r2, r1]
    52b8:	006d      	lsls	r5, r5, #1
    52ba:	0209      	lsls	r1, r1, #8
    52bc:	043b      	lsls	r3, r7, #16
    52be:	d501      	bpl.n	52c4 <bloomFilterAddressCheck+0x270>
    52c0:	f000 fde4 	bl	5e8c <bloomFilterAddressCheck+0xe38>
    52c4:	404d      	eors	r5, r1
    52c6:	b22d      	sxth	r5, r5
    52c8:	466b      	mov	r3, sp
    52ca:	46a9      	mov	r9, r5
    52cc:	4f5b      	ldr	r7, [pc, #364]	; (543c <bloomFilterAddressCheck+0x3e8>)
    52ce:	b2ad      	uxth	r5, r5
    52d0:	006d      	lsls	r5, r5, #1
    52d2:	406f      	eors	r7, r5
    52d4:	809f      	strh	r7, [r3, #4]
    52d6:	b2bf      	uxth	r7, r7
    52d8:	46ba      	mov	sl, r7
    52da:	464f      	mov	r7, r9
    52dc:	2f00      	cmp	r7, #0
    52de:	da01      	bge.n	52e4 <bloomFilterAddressCheck+0x290>
    52e0:	f000 fdd7 	bl	5e92 <bloomFilterAddressCheck+0xe3e>
    52e4:	b2af      	uxth	r7, r5
    52e6:	007f      	lsls	r7, r7, #1
    52e8:	46ba      	mov	sl, r7
    52ea:	4f54      	ldr	r7, [pc, #336]	; (543c <bloomFilterAddressCheck+0x3e8>)
    52ec:	46b9      	mov	r9, r7
    52ee:	4657      	mov	r7, sl
    52f0:	464b      	mov	r3, r9
    52f2:	405f      	eors	r7, r3
    52f4:	1c3b      	adds	r3, r7, #0
    52f6:	466f      	mov	r7, sp
    52f8:	80bb      	strh	r3, [r7, #4]
    52fa:	88bb      	ldrh	r3, [r7, #4]
    52fc:	469a      	mov	sl, r3
    52fe:	006b      	lsls	r3, r5, #1
    5300:	4699      	mov	r9, r3
    5302:	042b      	lsls	r3, r5, #16
    5304:	d501      	bpl.n	530a <bloomFilterAddressCheck+0x2b6>
    5306:	f000 fdc7 	bl	5e98 <bloomFilterAddressCheck+0xe44>
    530a:	464b      	mov	r3, r9
    530c:	466d      	mov	r5, sp
    530e:	80ab      	strh	r3, [r5, #4]
    5310:	88ad      	ldrh	r5, [r5, #4]
    5312:	006b      	lsls	r3, r5, #1
    5314:	4d49      	ldr	r5, [pc, #292]	; (543c <bloomFilterAddressCheck+0x3e8>)
    5316:	405d      	eors	r5, r3
    5318:	464b      	mov	r3, r9
    531a:	005b      	lsls	r3, r3, #1
    531c:	469a      	mov	sl, r3
    531e:	464b      	mov	r3, r9
    5320:	b2ad      	uxth	r5, r5
    5322:	041b      	lsls	r3, r3, #16
    5324:	d501      	bpl.n	532a <bloomFilterAddressCheck+0x2d6>
    5326:	f000 fdba 	bl	5e9e <bloomFilterAddressCheck+0xe4a>
    532a:	4653      	mov	r3, sl
    532c:	466d      	mov	r5, sp
    532e:	80ab      	strh	r3, [r5, #4]
    5330:	88ad      	ldrh	r5, [r5, #4]
    5332:	006b      	lsls	r3, r5, #1
    5334:	4d41      	ldr	r5, [pc, #260]	; (543c <bloomFilterAddressCheck+0x3e8>)
    5336:	405d      	eors	r5, r3
    5338:	4653      	mov	r3, sl
    533a:	005b      	lsls	r3, r3, #1
    533c:	4699      	mov	r9, r3
    533e:	4653      	mov	r3, sl
    5340:	b2ad      	uxth	r5, r5
    5342:	041b      	lsls	r3, r3, #16
    5344:	d501      	bpl.n	534a <bloomFilterAddressCheck+0x2f6>
    5346:	f000 fdad 	bl	5ea4 <bloomFilterAddressCheck+0xe50>
    534a:	464b      	mov	r3, r9
    534c:	466d      	mov	r5, sp
    534e:	80ab      	strh	r3, [r5, #4]
    5350:	88ad      	ldrh	r5, [r5, #4]
    5352:	006b      	lsls	r3, r5, #1
    5354:	4d39      	ldr	r5, [pc, #228]	; (543c <bloomFilterAddressCheck+0x3e8>)
    5356:	405d      	eors	r5, r3
    5358:	464b      	mov	r3, r9
    535a:	005b      	lsls	r3, r3, #1
    535c:	469a      	mov	sl, r3
    535e:	464b      	mov	r3, r9
    5360:	b2ad      	uxth	r5, r5
    5362:	041b      	lsls	r3, r3, #16
    5364:	d501      	bpl.n	536a <bloomFilterAddressCheck+0x316>
    5366:	f000 fda0 	bl	5eaa <bloomFilterAddressCheck+0xe56>
    536a:	4653      	mov	r3, sl
    536c:	466d      	mov	r5, sp
    536e:	80ab      	strh	r3, [r5, #4]
    5370:	88ad      	ldrh	r5, [r5, #4]
    5372:	006b      	lsls	r3, r5, #1
    5374:	4d31      	ldr	r5, [pc, #196]	; (543c <bloomFilterAddressCheck+0x3e8>)
    5376:	405d      	eors	r5, r3
    5378:	4653      	mov	r3, sl
    537a:	005b      	lsls	r3, r3, #1
    537c:	4699      	mov	r9, r3
    537e:	4653      	mov	r3, sl
    5380:	b2ad      	uxth	r5, r5
    5382:	041b      	lsls	r3, r3, #16
    5384:	d501      	bpl.n	538a <bloomFilterAddressCheck+0x336>
    5386:	f000 fd93 	bl	5eb0 <bloomFilterAddressCheck+0xe5c>
    538a:	464b      	mov	r3, r9
    538c:	466d      	mov	r5, sp
    538e:	80ab      	strh	r3, [r5, #4]
    5390:	88ad      	ldrh	r5, [r5, #4]
    5392:	006b      	lsls	r3, r5, #1
    5394:	4d29      	ldr	r5, [pc, #164]	; (543c <bloomFilterAddressCheck+0x3e8>)
    5396:	405d      	eors	r5, r3
    5398:	464b      	mov	r3, r9
    539a:	005b      	lsls	r3, r3, #1
    539c:	469a      	mov	sl, r3
    539e:	464b      	mov	r3, r9
    53a0:	b2ad      	uxth	r5, r5
    53a2:	041b      	lsls	r3, r3, #16
    53a4:	d501      	bpl.n	53aa <bloomFilterAddressCheck+0x356>
    53a6:	f000 fd86 	bl	5eb6 <bloomFilterAddressCheck+0xe62>
    53aa:	4653      	mov	r3, sl
    53ac:	466d      	mov	r5, sp
    53ae:	80ab      	strh	r3, [r5, #4]
    53b0:	88ad      	ldrh	r5, [r5, #4]
    53b2:	006b      	lsls	r3, r5, #1
    53b4:	4d21      	ldr	r5, [pc, #132]	; (543c <bloomFilterAddressCheck+0x3e8>)
    53b6:	405d      	eors	r5, r3
    53b8:	b2ab      	uxth	r3, r5
    53ba:	2504      	movs	r5, #4
    53bc:	5755      	ldrsb	r5, [r2, r5]
    53be:	4699      	mov	r9, r3
    53c0:	022b      	lsls	r3, r5, #8
    53c2:	469b      	mov	fp, r3
    53c4:	4653      	mov	r3, sl
    53c6:	005d      	lsls	r5, r3, #1
    53c8:	041b      	lsls	r3, r3, #16
    53ca:	d501      	bpl.n	53d0 <bloomFilterAddressCheck+0x37c>
    53cc:	f000 fd76 	bl	5ebc <bloomFilterAddressCheck+0xe68>
    53d0:	465b      	mov	r3, fp
    53d2:	405d      	eors	r5, r3
    53d4:	b22b      	sxth	r3, r5
    53d6:	466d      	mov	r5, sp
    53d8:	4699      	mov	r9, r3
    53da:	80ab      	strh	r3, [r5, #4]
    53dc:	4b17      	ldr	r3, [pc, #92]	; (543c <bloomFilterAddressCheck+0x3e8>)
    53de:	88ad      	ldrh	r5, [r5, #4]
    53e0:	001f      	movs	r7, r3
    53e2:	006d      	lsls	r5, r5, #1
    53e4:	406f      	eors	r7, r5
    53e6:	1c3b      	adds	r3, r7, #0
    53e8:	466f      	mov	r7, sp
    53ea:	80bb      	strh	r3, [r7, #4]
    53ec:	88bb      	ldrh	r3, [r7, #4]
    53ee:	469a      	mov	sl, r3
    53f0:	464b      	mov	r3, r9
    53f2:	2b00      	cmp	r3, #0
    53f4:	da01      	bge.n	53fa <bloomFilterAddressCheck+0x3a6>
    53f6:	f000 fd64 	bl	5ec2 <bloomFilterAddressCheck+0xe6e>
    53fa:	b2ab      	uxth	r3, r5
    53fc:	005b      	lsls	r3, r3, #1
    53fe:	469a      	mov	sl, r3
    5400:	4657      	mov	r7, sl
    5402:	4b0e      	ldr	r3, [pc, #56]	; (543c <bloomFilterAddressCheck+0x3e8>)
    5404:	405f      	eors	r7, r3
    5406:	1c3b      	adds	r3, r7, #0
    5408:	466f      	mov	r7, sp
    540a:	80bb      	strh	r3, [r7, #4]
    540c:	88bb      	ldrh	r3, [r7, #4]
    540e:	469a      	mov	sl, r3
    5410:	006b      	lsls	r3, r5, #1
    5412:	4699      	mov	r9, r3
    5414:	042b      	lsls	r3, r5, #16
    5416:	d501      	bpl.n	541c <bloomFilterAddressCheck+0x3c8>
    5418:	f000 fd56 	bl	5ec8 <bloomFilterAddressCheck+0xe74>
    541c:	464b      	mov	r3, r9
    541e:	466d      	mov	r5, sp
    5420:	80ab      	strh	r3, [r5, #4]
    5422:	88ad      	ldrh	r5, [r5, #4]
    5424:	006b      	lsls	r3, r5, #1
    5426:	4d05      	ldr	r5, [pc, #20]	; (543c <bloomFilterAddressCheck+0x3e8>)
    5428:	405d      	eors	r5, r3
    542a:	464b      	mov	r3, r9
    542c:	005b      	lsls	r3, r3, #1
    542e:	469a      	mov	sl, r3
    5430:	464b      	mov	r3, r9
    5432:	b2ad      	uxth	r5, r5
    5434:	e004      	b.n	5440 <bloomFilterAddressCheck+0x3ec>
    5436:	46c0      	nop			; (mov r8, r8)
    5438:	2000006f 	.word	0x2000006f
    543c:	00001021 	.word	0x00001021
    5440:	041b      	lsls	r3, r3, #16
    5442:	d501      	bpl.n	5448 <bloomFilterAddressCheck+0x3f4>
    5444:	f000 fd43 	bl	5ece <bloomFilterAddressCheck+0xe7a>
    5448:	4653      	mov	r3, sl
    544a:	466d      	mov	r5, sp
    544c:	80ab      	strh	r3, [r5, #4]
    544e:	88ad      	ldrh	r5, [r5, #4]
    5450:	006b      	lsls	r3, r5, #1
    5452:	4de9      	ldr	r5, [pc, #932]	; (57f8 <bloomFilterAddressCheck+0x7a4>)
    5454:	405d      	eors	r5, r3
    5456:	4653      	mov	r3, sl
    5458:	005b      	lsls	r3, r3, #1
    545a:	4699      	mov	r9, r3
    545c:	4653      	mov	r3, sl
    545e:	b2ad      	uxth	r5, r5
    5460:	041b      	lsls	r3, r3, #16
    5462:	d501      	bpl.n	5468 <bloomFilterAddressCheck+0x414>
    5464:	f000 fd36 	bl	5ed4 <bloomFilterAddressCheck+0xe80>
    5468:	464b      	mov	r3, r9
    546a:	466d      	mov	r5, sp
    546c:	80ab      	strh	r3, [r5, #4]
    546e:	88ad      	ldrh	r5, [r5, #4]
    5470:	006b      	lsls	r3, r5, #1
    5472:	4de1      	ldr	r5, [pc, #900]	; (57f8 <bloomFilterAddressCheck+0x7a4>)
    5474:	405d      	eors	r5, r3
    5476:	464b      	mov	r3, r9
    5478:	005b      	lsls	r3, r3, #1
    547a:	469a      	mov	sl, r3
    547c:	464b      	mov	r3, r9
    547e:	b2ad      	uxth	r5, r5
    5480:	041b      	lsls	r3, r3, #16
    5482:	d501      	bpl.n	5488 <bloomFilterAddressCheck+0x434>
    5484:	f000 fd29 	bl	5eda <bloomFilterAddressCheck+0xe86>
    5488:	4653      	mov	r3, sl
    548a:	466d      	mov	r5, sp
    548c:	80ab      	strh	r3, [r5, #4]
    548e:	88ad      	ldrh	r5, [r5, #4]
    5490:	006b      	lsls	r3, r5, #1
    5492:	4dd9      	ldr	r5, [pc, #868]	; (57f8 <bloomFilterAddressCheck+0x7a4>)
    5494:	405d      	eors	r5, r3
    5496:	4653      	mov	r3, sl
    5498:	005b      	lsls	r3, r3, #1
    549a:	4699      	mov	r9, r3
    549c:	4653      	mov	r3, sl
    549e:	b2ad      	uxth	r5, r5
    54a0:	041b      	lsls	r3, r3, #16
    54a2:	d501      	bpl.n	54a8 <bloomFilterAddressCheck+0x454>
    54a4:	f000 fd1c 	bl	5ee0 <bloomFilterAddressCheck+0xe8c>
    54a8:	464b      	mov	r3, r9
    54aa:	466d      	mov	r5, sp
    54ac:	80ab      	strh	r3, [r5, #4]
    54ae:	88ad      	ldrh	r5, [r5, #4]
    54b0:	006b      	lsls	r3, r5, #1
    54b2:	4dd1      	ldr	r5, [pc, #836]	; (57f8 <bloomFilterAddressCheck+0x7a4>)
    54b4:	405d      	eors	r5, r3
    54b6:	464b      	mov	r3, r9
    54b8:	005b      	lsls	r3, r3, #1
    54ba:	469a      	mov	sl, r3
    54bc:	464b      	mov	r3, r9
    54be:	b2ad      	uxth	r5, r5
    54c0:	041b      	lsls	r3, r3, #16
    54c2:	d501      	bpl.n	54c8 <bloomFilterAddressCheck+0x474>
    54c4:	f000 fd0f 	bl	5ee6 <bloomFilterAddressCheck+0xe92>
    54c8:	4653      	mov	r3, sl
    54ca:	466d      	mov	r5, sp
    54cc:	80ab      	strh	r3, [r5, #4]
    54ce:	88ad      	ldrh	r5, [r5, #4]
    54d0:	006b      	lsls	r3, r5, #1
    54d2:	4dc9      	ldr	r5, [pc, #804]	; (57f8 <bloomFilterAddressCheck+0x7a4>)
    54d4:	405d      	eors	r5, r3
    54d6:	b2ab      	uxth	r3, r5
    54d8:	2505      	movs	r5, #5
    54da:	5755      	ldrsb	r5, [r2, r5]
    54dc:	4699      	mov	r9, r3
    54de:	022b      	lsls	r3, r5, #8
    54e0:	9301      	str	r3, [sp, #4]
    54e2:	4653      	mov	r3, sl
    54e4:	005d      	lsls	r5, r3, #1
    54e6:	041b      	lsls	r3, r3, #16
    54e8:	d501      	bpl.n	54ee <bloomFilterAddressCheck+0x49a>
    54ea:	f000 fcff 	bl	5eec <bloomFilterAddressCheck+0xe98>
    54ee:	9b01      	ldr	r3, [sp, #4]
    54f0:	405d      	eors	r5, r3
    54f2:	b22b      	sxth	r3, r5
    54f4:	466d      	mov	r5, sp
    54f6:	4699      	mov	r9, r3
    54f8:	812b      	strh	r3, [r5, #8]
    54fa:	4bbf      	ldr	r3, [pc, #764]	; (57f8 <bloomFilterAddressCheck+0x7a4>)
    54fc:	892d      	ldrh	r5, [r5, #8]
    54fe:	001f      	movs	r7, r3
    5500:	006d      	lsls	r5, r5, #1
    5502:	406f      	eors	r7, r5
    5504:	1c3b      	adds	r3, r7, #0
    5506:	466f      	mov	r7, sp
    5508:	813b      	strh	r3, [r7, #8]
    550a:	893b      	ldrh	r3, [r7, #8]
    550c:	469a      	mov	sl, r3
    550e:	464b      	mov	r3, r9
    5510:	2b00      	cmp	r3, #0
    5512:	da01      	bge.n	5518 <bloomFilterAddressCheck+0x4c4>
    5514:	f000 fced 	bl	5ef2 <bloomFilterAddressCheck+0xe9e>
    5518:	b2ab      	uxth	r3, r5
    551a:	005b      	lsls	r3, r3, #1
    551c:	469a      	mov	sl, r3
    551e:	4657      	mov	r7, sl
    5520:	4bb5      	ldr	r3, [pc, #724]	; (57f8 <bloomFilterAddressCheck+0x7a4>)
    5522:	405f      	eors	r7, r3
    5524:	1c3b      	adds	r3, r7, #0
    5526:	466f      	mov	r7, sp
    5528:	813b      	strh	r3, [r7, #8]
    552a:	893b      	ldrh	r3, [r7, #8]
    552c:	469a      	mov	sl, r3
    552e:	006b      	lsls	r3, r5, #1
    5530:	4699      	mov	r9, r3
    5532:	042b      	lsls	r3, r5, #16
    5534:	d501      	bpl.n	553a <bloomFilterAddressCheck+0x4e6>
    5536:	f000 fcdf 	bl	5ef8 <bloomFilterAddressCheck+0xea4>
    553a:	464b      	mov	r3, r9
    553c:	466d      	mov	r5, sp
    553e:	812b      	strh	r3, [r5, #8]
    5540:	892d      	ldrh	r5, [r5, #8]
    5542:	006b      	lsls	r3, r5, #1
    5544:	4dac      	ldr	r5, [pc, #688]	; (57f8 <bloomFilterAddressCheck+0x7a4>)
    5546:	405d      	eors	r5, r3
    5548:	464b      	mov	r3, r9
    554a:	005b      	lsls	r3, r3, #1
    554c:	469a      	mov	sl, r3
    554e:	464b      	mov	r3, r9
    5550:	b2ad      	uxth	r5, r5
    5552:	041b      	lsls	r3, r3, #16
    5554:	d501      	bpl.n	555a <bloomFilterAddressCheck+0x506>
    5556:	f000 fcd2 	bl	5efe <bloomFilterAddressCheck+0xeaa>
    555a:	4653      	mov	r3, sl
    555c:	466d      	mov	r5, sp
    555e:	812b      	strh	r3, [r5, #8]
    5560:	892d      	ldrh	r5, [r5, #8]
    5562:	006b      	lsls	r3, r5, #1
    5564:	4da4      	ldr	r5, [pc, #656]	; (57f8 <bloomFilterAddressCheck+0x7a4>)
    5566:	405d      	eors	r5, r3
    5568:	4653      	mov	r3, sl
    556a:	005b      	lsls	r3, r3, #1
    556c:	4699      	mov	r9, r3
    556e:	4653      	mov	r3, sl
    5570:	b2ad      	uxth	r5, r5
    5572:	041b      	lsls	r3, r3, #16
    5574:	d501      	bpl.n	557a <bloomFilterAddressCheck+0x526>
    5576:	f000 fcc5 	bl	5f04 <bloomFilterAddressCheck+0xeb0>
    557a:	464b      	mov	r3, r9
    557c:	466d      	mov	r5, sp
    557e:	812b      	strh	r3, [r5, #8]
    5580:	892d      	ldrh	r5, [r5, #8]
    5582:	006b      	lsls	r3, r5, #1
    5584:	4d9c      	ldr	r5, [pc, #624]	; (57f8 <bloomFilterAddressCheck+0x7a4>)
    5586:	405d      	eors	r5, r3
    5588:	464b      	mov	r3, r9
    558a:	005b      	lsls	r3, r3, #1
    558c:	469a      	mov	sl, r3
    558e:	464b      	mov	r3, r9
    5590:	b2ad      	uxth	r5, r5
    5592:	041b      	lsls	r3, r3, #16
    5594:	d501      	bpl.n	559a <bloomFilterAddressCheck+0x546>
    5596:	f000 fcb8 	bl	5f0a <bloomFilterAddressCheck+0xeb6>
    559a:	4653      	mov	r3, sl
    559c:	466d      	mov	r5, sp
    559e:	812b      	strh	r3, [r5, #8]
    55a0:	892d      	ldrh	r5, [r5, #8]
    55a2:	006b      	lsls	r3, r5, #1
    55a4:	4d94      	ldr	r5, [pc, #592]	; (57f8 <bloomFilterAddressCheck+0x7a4>)
    55a6:	405d      	eors	r5, r3
    55a8:	4653      	mov	r3, sl
    55aa:	005b      	lsls	r3, r3, #1
    55ac:	4699      	mov	r9, r3
    55ae:	4653      	mov	r3, sl
    55b0:	b2ad      	uxth	r5, r5
    55b2:	041b      	lsls	r3, r3, #16
    55b4:	d501      	bpl.n	55ba <bloomFilterAddressCheck+0x566>
    55b6:	f000 fcab 	bl	5f10 <bloomFilterAddressCheck+0xebc>
    55ba:	464b      	mov	r3, r9
    55bc:	466d      	mov	r5, sp
    55be:	812b      	strh	r3, [r5, #8]
    55c0:	892d      	ldrh	r5, [r5, #8]
    55c2:	006b      	lsls	r3, r5, #1
    55c4:	4d8c      	ldr	r5, [pc, #560]	; (57f8 <bloomFilterAddressCheck+0x7a4>)
    55c6:	405d      	eors	r5, r3
    55c8:	464b      	mov	r3, r9
    55ca:	005b      	lsls	r3, r3, #1
    55cc:	469a      	mov	sl, r3
    55ce:	464b      	mov	r3, r9
    55d0:	b2ad      	uxth	r5, r5
    55d2:	041b      	lsls	r3, r3, #16
    55d4:	d501      	bpl.n	55da <bloomFilterAddressCheck+0x586>
    55d6:	f000 fc9e 	bl	5f16 <bloomFilterAddressCheck+0xec2>
    55da:	4653      	mov	r3, sl
    55dc:	466d      	mov	r5, sp
    55de:	812b      	strh	r3, [r5, #8]
    55e0:	892d      	ldrh	r5, [r5, #8]
    55e2:	006b      	lsls	r3, r5, #1
    55e4:	4d84      	ldr	r5, [pc, #528]	; (57f8 <bloomFilterAddressCheck+0x7a4>)
    55e6:	405d      	eors	r5, r3
    55e8:	b2ab      	uxth	r3, r5
    55ea:	2506      	movs	r5, #6
    55ec:	5755      	ldrsb	r5, [r2, r5]
    55ee:	4699      	mov	r9, r3
    55f0:	022b      	lsls	r3, r5, #8
    55f2:	9302      	str	r3, [sp, #8]
    55f4:	4653      	mov	r3, sl
    55f6:	005d      	lsls	r5, r3, #1
    55f8:	041b      	lsls	r3, r3, #16
    55fa:	d501      	bpl.n	5600 <bloomFilterAddressCheck+0x5ac>
    55fc:	f000 fc8e 	bl	5f1c <bloomFilterAddressCheck+0xec8>
    5600:	9b02      	ldr	r3, [sp, #8]
    5602:	405d      	eors	r5, r3
    5604:	b22b      	sxth	r3, r5
    5606:	466d      	mov	r5, sp
    5608:	4699      	mov	r9, r3
    560a:	82ab      	strh	r3, [r5, #20]
    560c:	4b7a      	ldr	r3, [pc, #488]	; (57f8 <bloomFilterAddressCheck+0x7a4>)
    560e:	8aad      	ldrh	r5, [r5, #20]
    5610:	001f      	movs	r7, r3
    5612:	006d      	lsls	r5, r5, #1
    5614:	406f      	eors	r7, r5
    5616:	1c3b      	adds	r3, r7, #0
    5618:	466f      	mov	r7, sp
    561a:	82bb      	strh	r3, [r7, #20]
    561c:	8abb      	ldrh	r3, [r7, #20]
    561e:	469a      	mov	sl, r3
    5620:	464b      	mov	r3, r9
    5622:	2b00      	cmp	r3, #0
    5624:	da01      	bge.n	562a <bloomFilterAddressCheck+0x5d6>
    5626:	f000 fc7c 	bl	5f22 <bloomFilterAddressCheck+0xece>
    562a:	b2ab      	uxth	r3, r5
    562c:	005b      	lsls	r3, r3, #1
    562e:	469a      	mov	sl, r3
    5630:	4657      	mov	r7, sl
    5632:	4b71      	ldr	r3, [pc, #452]	; (57f8 <bloomFilterAddressCheck+0x7a4>)
    5634:	405f      	eors	r7, r3
    5636:	1c3b      	adds	r3, r7, #0
    5638:	466f      	mov	r7, sp
    563a:	82bb      	strh	r3, [r7, #20]
    563c:	8abb      	ldrh	r3, [r7, #20]
    563e:	4699      	mov	r9, r3
    5640:	006b      	lsls	r3, r5, #1
    5642:	469a      	mov	sl, r3
    5644:	042b      	lsls	r3, r5, #16
    5646:	d501      	bpl.n	564c <bloomFilterAddressCheck+0x5f8>
    5648:	f000 fc6e 	bl	5f28 <bloomFilterAddressCheck+0xed4>
    564c:	4653      	mov	r3, sl
    564e:	466d      	mov	r5, sp
    5650:	82ab      	strh	r3, [r5, #20]
    5652:	8aad      	ldrh	r5, [r5, #20]
    5654:	006b      	lsls	r3, r5, #1
    5656:	4d68      	ldr	r5, [pc, #416]	; (57f8 <bloomFilterAddressCheck+0x7a4>)
    5658:	405d      	eors	r5, r3
    565a:	4653      	mov	r3, sl
    565c:	005b      	lsls	r3, r3, #1
    565e:	4699      	mov	r9, r3
    5660:	4653      	mov	r3, sl
    5662:	b2ad      	uxth	r5, r5
    5664:	041b      	lsls	r3, r3, #16
    5666:	d501      	bpl.n	566c <bloomFilterAddressCheck+0x618>
    5668:	f000 fc61 	bl	5f2e <bloomFilterAddressCheck+0xeda>
    566c:	464b      	mov	r3, r9
    566e:	466d      	mov	r5, sp
    5670:	82ab      	strh	r3, [r5, #20]
    5672:	8aad      	ldrh	r5, [r5, #20]
    5674:	006b      	lsls	r3, r5, #1
    5676:	4d60      	ldr	r5, [pc, #384]	; (57f8 <bloomFilterAddressCheck+0x7a4>)
    5678:	405d      	eors	r5, r3
    567a:	464b      	mov	r3, r9
    567c:	005b      	lsls	r3, r3, #1
    567e:	469a      	mov	sl, r3
    5680:	464b      	mov	r3, r9
    5682:	b2ad      	uxth	r5, r5
    5684:	041b      	lsls	r3, r3, #16
    5686:	d501      	bpl.n	568c <bloomFilterAddressCheck+0x638>
    5688:	f000 fc54 	bl	5f34 <bloomFilterAddressCheck+0xee0>
    568c:	4653      	mov	r3, sl
    568e:	466d      	mov	r5, sp
    5690:	82ab      	strh	r3, [r5, #20]
    5692:	8aad      	ldrh	r5, [r5, #20]
    5694:	006b      	lsls	r3, r5, #1
    5696:	4d58      	ldr	r5, [pc, #352]	; (57f8 <bloomFilterAddressCheck+0x7a4>)
    5698:	405d      	eors	r5, r3
    569a:	4653      	mov	r3, sl
    569c:	005b      	lsls	r3, r3, #1
    569e:	4699      	mov	r9, r3
    56a0:	4653      	mov	r3, sl
    56a2:	b2ad      	uxth	r5, r5
    56a4:	041b      	lsls	r3, r3, #16
    56a6:	d501      	bpl.n	56ac <bloomFilterAddressCheck+0x658>
    56a8:	f000 fc47 	bl	5f3a <bloomFilterAddressCheck+0xee6>
    56ac:	464b      	mov	r3, r9
    56ae:	466d      	mov	r5, sp
    56b0:	82ab      	strh	r3, [r5, #20]
    56b2:	8aad      	ldrh	r5, [r5, #20]
    56b4:	006b      	lsls	r3, r5, #1
    56b6:	4d50      	ldr	r5, [pc, #320]	; (57f8 <bloomFilterAddressCheck+0x7a4>)
    56b8:	405d      	eors	r5, r3
    56ba:	464b      	mov	r3, r9
    56bc:	005b      	lsls	r3, r3, #1
    56be:	469a      	mov	sl, r3
    56c0:	464b      	mov	r3, r9
    56c2:	b2ad      	uxth	r5, r5
    56c4:	041b      	lsls	r3, r3, #16
    56c6:	d501      	bpl.n	56cc <bloomFilterAddressCheck+0x678>
    56c8:	f000 fc3a 	bl	5f40 <bloomFilterAddressCheck+0xeec>
    56cc:	4653      	mov	r3, sl
    56ce:	466d      	mov	r5, sp
    56d0:	82ab      	strh	r3, [r5, #20]
    56d2:	8aad      	ldrh	r5, [r5, #20]
    56d4:	006b      	lsls	r3, r5, #1
    56d6:	4d48      	ldr	r5, [pc, #288]	; (57f8 <bloomFilterAddressCheck+0x7a4>)
    56d8:	405d      	eors	r5, r3
    56da:	4653      	mov	r3, sl
    56dc:	005b      	lsls	r3, r3, #1
    56de:	4699      	mov	r9, r3
    56e0:	4653      	mov	r3, sl
    56e2:	b2ad      	uxth	r5, r5
    56e4:	041b      	lsls	r3, r3, #16
    56e6:	d501      	bpl.n	56ec <bloomFilterAddressCheck+0x698>
    56e8:	f000 fc2d 	bl	5f46 <bloomFilterAddressCheck+0xef2>
    56ec:	464b      	mov	r3, r9
    56ee:	466d      	mov	r5, sp
    56f0:	82ab      	strh	r3, [r5, #20]
    56f2:	8aad      	ldrh	r5, [r5, #20]
    56f4:	79d2      	ldrb	r2, [r2, #7]
    56f6:	006b      	lsls	r3, r5, #1
    56f8:	4d3f      	ldr	r5, [pc, #252]	; (57f8 <bloomFilterAddressCheck+0x7a4>)
    56fa:	b252      	sxtb	r2, r2
    56fc:	405d      	eors	r5, r3
    56fe:	0213      	lsls	r3, r2, #8
    5700:	469a      	mov	sl, r3
    5702:	464b      	mov	r3, r9
    5704:	b2ad      	uxth	r5, r5
    5706:	005a      	lsls	r2, r3, #1
    5708:	041b      	lsls	r3, r3, #16
    570a:	d501      	bpl.n	5710 <bloomFilterAddressCheck+0x6bc>
    570c:	f000 fc1e 	bl	5f4c <bloomFilterAddressCheck+0xef8>
    5710:	4653      	mov	r3, sl
    5712:	405a      	eors	r2, r3
    5714:	4b38      	ldr	r3, [pc, #224]	; (57f8 <bloomFilterAddressCheck+0x7a4>)
    5716:	b212      	sxth	r2, r2
    5718:	001f      	movs	r7, r3
    571a:	b295      	uxth	r5, r2
    571c:	006d      	lsls	r5, r5, #1
    571e:	406f      	eors	r7, r5
    5720:	1c3b      	adds	r3, r7, #0
    5722:	466f      	mov	r7, sp
    5724:	82bb      	strh	r3, [r7, #20]
    5726:	8abb      	ldrh	r3, [r7, #20]
    5728:	b2ad      	uxth	r5, r5
    572a:	2a00      	cmp	r2, #0
    572c:	da00      	bge.n	5730 <bloomFilterAddressCheck+0x6dc>
    572e:	e30e      	b.n	5d4e <bloomFilterAddressCheck+0xcfa>
    5730:	1c2a      	adds	r2, r5, #0
    5732:	466f      	mov	r7, sp
    5734:	b295      	uxth	r5, r2
    5736:	006b      	lsls	r3, r5, #1
    5738:	4d2f      	ldr	r5, [pc, #188]	; (57f8 <bloomFilterAddressCheck+0x7a4>)
    573a:	405d      	eors	r5, r3
    573c:	0053      	lsls	r3, r2, #1
    573e:	82bb      	strh	r3, [r7, #20]
    5740:	8abb      	ldrh	r3, [r7, #20]
    5742:	b2ad      	uxth	r5, r5
    5744:	4699      	mov	r9, r3
    5746:	0413      	lsls	r3, r2, #16
    5748:	d501      	bpl.n	574e <bloomFilterAddressCheck+0x6fa>
    574a:	f000 fcb4 	bl	60b6 <bloomFilterAddressCheck+0x1062>
    574e:	464a      	mov	r2, r9
    5750:	466f      	mov	r7, sp
    5752:	b295      	uxth	r5, r2
    5754:	006b      	lsls	r3, r5, #1
    5756:	4d28      	ldr	r5, [pc, #160]	; (57f8 <bloomFilterAddressCheck+0x7a4>)
    5758:	405d      	eors	r5, r3
    575a:	0053      	lsls	r3, r2, #1
    575c:	82bb      	strh	r3, [r7, #20]
    575e:	8abb      	ldrh	r3, [r7, #20]
    5760:	b2ad      	uxth	r5, r5
    5762:	4699      	mov	r9, r3
    5764:	0413      	lsls	r3, r2, #16
    5766:	d400      	bmi.n	576a <bloomFilterAddressCheck+0x716>
    5768:	464d      	mov	r5, r9
    576a:	466f      	mov	r7, sp
    576c:	b2aa      	uxth	r2, r5
    576e:	0053      	lsls	r3, r2, #1
    5770:	4a21      	ldr	r2, [pc, #132]	; (57f8 <bloomFilterAddressCheck+0x7a4>)
    5772:	405a      	eors	r2, r3
    5774:	006b      	lsls	r3, r5, #1
    5776:	82bb      	strh	r3, [r7, #20]
    5778:	8abb      	ldrh	r3, [r7, #20]
    577a:	b292      	uxth	r2, r2
    577c:	4699      	mov	r9, r3
    577e:	042b      	lsls	r3, r5, #16
    5780:	d400      	bmi.n	5784 <bloomFilterAddressCheck+0x730>
    5782:	464a      	mov	r2, r9
    5784:	466f      	mov	r7, sp
    5786:	b295      	uxth	r5, r2
    5788:	006b      	lsls	r3, r5, #1
    578a:	4d1b      	ldr	r5, [pc, #108]	; (57f8 <bloomFilterAddressCheck+0x7a4>)
    578c:	405d      	eors	r5, r3
    578e:	0053      	lsls	r3, r2, #1
    5790:	82bb      	strh	r3, [r7, #20]
    5792:	8abb      	ldrh	r3, [r7, #20]
    5794:	b2ad      	uxth	r5, r5
    5796:	4699      	mov	r9, r3
    5798:	0413      	lsls	r3, r2, #16
    579a:	d400      	bmi.n	579e <bloomFilterAddressCheck+0x74a>
    579c:	464d      	mov	r5, r9
    579e:	466f      	mov	r7, sp
    57a0:	b2aa      	uxth	r2, r5
    57a2:	0053      	lsls	r3, r2, #1
    57a4:	4a14      	ldr	r2, [pc, #80]	; (57f8 <bloomFilterAddressCheck+0x7a4>)
    57a6:	405a      	eors	r2, r3
    57a8:	006b      	lsls	r3, r5, #1
    57aa:	82bb      	strh	r3, [r7, #20]
    57ac:	8abb      	ldrh	r3, [r7, #20]
    57ae:	b292      	uxth	r2, r2
    57b0:	4699      	mov	r9, r3
    57b2:	042b      	lsls	r3, r5, #16
    57b4:	d400      	bmi.n	57b8 <bloomFilterAddressCheck+0x764>
    57b6:	464a      	mov	r2, r9
    57b8:	b295      	uxth	r5, r2
    57ba:	006b      	lsls	r3, r5, #1
    57bc:	4d0e      	ldr	r5, [pc, #56]	; (57f8 <bloomFilterAddressCheck+0x7a4>)
    57be:	405d      	eors	r5, r3
    57c0:	b2ab      	uxth	r3, r5
    57c2:	0055      	lsls	r5, r2, #1
    57c4:	4699      	mov	r9, r3
    57c6:	b2ad      	uxth	r5, r5
    57c8:	0413      	lsls	r3, r2, #16
    57ca:	d501      	bpl.n	57d0 <bloomFilterAddressCheck+0x77c>
    57cc:	f000 fc70 	bl	60b0 <bloomFilterAddressCheck+0x105c>
    57d0:	1c2a      	adds	r2, r5, #0
    57d2:	b295      	uxth	r5, r2
    57d4:	b213      	sxth	r3, r2
    57d6:	001f      	movs	r7, r3
    57d8:	006b      	lsls	r3, r5, #1
    57da:	4d07      	ldr	r5, [pc, #28]	; (57f8 <bloomFilterAddressCheck+0x7a4>)
    57dc:	0052      	lsls	r2, r2, #1
    57de:	405d      	eors	r5, r3
    57e0:	b2ab      	uxth	r3, r5
    57e2:	9305      	str	r3, [sp, #20]
    57e4:	b293      	uxth	r3, r2
    57e6:	4699      	mov	r9, r3
    57e8:	4663      	mov	r3, ip
    57ea:	4a04      	ldr	r2, [pc, #16]	; (57fc <bloomFilterAddressCheck+0x7a8>)
    57ec:	4645      	mov	r5, r8
    57ee:	405a      	eors	r2, r3
    57f0:	466b      	mov	r3, sp
    57f2:	b292      	uxth	r2, r2
    57f4:	8a1b      	ldrh	r3, [r3, #16]
    57f6:	e003      	b.n	5800 <bloomFilterAddressCheck+0x7ac>
    57f8:	00001021 	.word	0x00001021
    57fc:	ffff8005 	.word	0xffff8005
    5800:	2d00      	cmp	r5, #0
    5802:	da01      	bge.n	5808 <bloomFilterAddressCheck+0x7b4>
    5804:	f000 fc51 	bl	60aa <bloomFilterAddressCheck+0x1056>
    5808:	b29d      	uxth	r5, r3
    580a:	4ae9      	ldr	r2, [pc, #932]	; (5bb0 <bloomFilterAddressCheck+0xb5c>)
    580c:	006d      	lsls	r5, r5, #1
    580e:	406a      	eors	r2, r5
    5810:	b212      	sxth	r2, r2
    5812:	b295      	uxth	r5, r2
    5814:	005a      	lsls	r2, r3, #1
    5816:	b292      	uxth	r2, r2
    5818:	041b      	lsls	r3, r3, #16
    581a:	d501      	bpl.n	5820 <bloomFilterAddressCheck+0x7cc>
    581c:	f000 fc42 	bl	60a4 <bloomFilterAddressCheck+0x1050>
    5820:	4be3      	ldr	r3, [pc, #908]	; (5bb0 <bloomFilterAddressCheck+0xb5c>)
    5822:	b295      	uxth	r5, r2
    5824:	006d      	lsls	r5, r5, #1
    5826:	405d      	eors	r5, r3
    5828:	0053      	lsls	r3, r2, #1
    582a:	b2ad      	uxth	r5, r5
    582c:	b29b      	uxth	r3, r3
    582e:	0412      	lsls	r2, r2, #16
    5830:	d501      	bpl.n	5836 <bloomFilterAddressCheck+0x7e2>
    5832:	f000 fc34 	bl	609e <bloomFilterAddressCheck+0x104a>
    5836:	4ade      	ldr	r2, [pc, #888]	; (5bb0 <bloomFilterAddressCheck+0xb5c>)
    5838:	b29d      	uxth	r5, r3
    583a:	006d      	lsls	r5, r5, #1
    583c:	4055      	eors	r5, r2
    583e:	005a      	lsls	r2, r3, #1
    5840:	b2ad      	uxth	r5, r5
    5842:	b292      	uxth	r2, r2
    5844:	041b      	lsls	r3, r3, #16
    5846:	d501      	bpl.n	584c <bloomFilterAddressCheck+0x7f8>
    5848:	f000 fc26 	bl	6098 <bloomFilterAddressCheck+0x1044>
    584c:	4bd8      	ldr	r3, [pc, #864]	; (5bb0 <bloomFilterAddressCheck+0xb5c>)
    584e:	b295      	uxth	r5, r2
    5850:	006d      	lsls	r5, r5, #1
    5852:	405d      	eors	r5, r3
    5854:	0053      	lsls	r3, r2, #1
    5856:	b2ad      	uxth	r5, r5
    5858:	b29b      	uxth	r3, r3
    585a:	0412      	lsls	r2, r2, #16
    585c:	d501      	bpl.n	5862 <bloomFilterAddressCheck+0x80e>
    585e:	f000 fc18 	bl	6092 <bloomFilterAddressCheck+0x103e>
    5862:	4ad3      	ldr	r2, [pc, #844]	; (5bb0 <bloomFilterAddressCheck+0xb5c>)
    5864:	b29d      	uxth	r5, r3
    5866:	006d      	lsls	r5, r5, #1
    5868:	4055      	eors	r5, r2
    586a:	005a      	lsls	r2, r3, #1
    586c:	b2ad      	uxth	r5, r5
    586e:	b292      	uxth	r2, r2
    5870:	041b      	lsls	r3, r3, #16
    5872:	d501      	bpl.n	5878 <bloomFilterAddressCheck+0x824>
    5874:	f000 fc0a 	bl	608c <bloomFilterAddressCheck+0x1038>
    5878:	4bcd      	ldr	r3, [pc, #820]	; (5bb0 <bloomFilterAddressCheck+0xb5c>)
    587a:	b295      	uxth	r5, r2
    587c:	006d      	lsls	r5, r5, #1
    587e:	405d      	eors	r5, r3
    5880:	0053      	lsls	r3, r2, #1
    5882:	b2ad      	uxth	r5, r5
    5884:	b29b      	uxth	r3, r3
    5886:	0412      	lsls	r2, r2, #16
    5888:	d500      	bpl.n	588c <bloomFilterAddressCheck+0x838>
    588a:	e3c1      	b.n	6010 <bloomFilterAddressCheck+0xfbc>
    588c:	b29a      	uxth	r2, r3
    588e:	4dc8      	ldr	r5, [pc, #800]	; (5bb0 <bloomFilterAddressCheck+0xb5c>)
    5890:	0052      	lsls	r2, r2, #1
    5892:	4055      	eors	r5, r2
    5894:	005a      	lsls	r2, r3, #1
    5896:	b2ad      	uxth	r5, r5
    5898:	b292      	uxth	r2, r2
    589a:	041b      	lsls	r3, r3, #16
    589c:	d500      	bpl.n	58a0 <bloomFilterAddressCheck+0x84c>
    589e:	e3b5      	b.n	600c <bloomFilterAddressCheck+0xfb8>
    58a0:	4054      	eors	r4, r2
    58a2:	b224      	sxth	r4, r4
    58a4:	b2a2      	uxth	r2, r4
    58a6:	4bc2      	ldr	r3, [pc, #776]	; (5bb0 <bloomFilterAddressCheck+0xb5c>)
    58a8:	0052      	lsls	r2, r2, #1
    58aa:	4053      	eors	r3, r2
    58ac:	b29d      	uxth	r5, r3
    58ae:	b293      	uxth	r3, r2
    58b0:	2c00      	cmp	r4, #0
    58b2:	da00      	bge.n	58b6 <bloomFilterAddressCheck+0x862>
    58b4:	e3a8      	b.n	6008 <bloomFilterAddressCheck+0xfb4>
    58b6:	4abe      	ldr	r2, [pc, #760]	; (5bb0 <bloomFilterAddressCheck+0xb5c>)
    58b8:	b29c      	uxth	r4, r3
    58ba:	0064      	lsls	r4, r4, #1
    58bc:	4054      	eors	r4, r2
    58be:	005a      	lsls	r2, r3, #1
    58c0:	b2a4      	uxth	r4, r4
    58c2:	b292      	uxth	r2, r2
    58c4:	041b      	lsls	r3, r3, #16
    58c6:	d500      	bpl.n	58ca <bloomFilterAddressCheck+0x876>
    58c8:	e39c      	b.n	6004 <bloomFilterAddressCheck+0xfb0>
    58ca:	4bb9      	ldr	r3, [pc, #740]	; (5bb0 <bloomFilterAddressCheck+0xb5c>)
    58cc:	b294      	uxth	r4, r2
    58ce:	0064      	lsls	r4, r4, #1
    58d0:	405c      	eors	r4, r3
    58d2:	0053      	lsls	r3, r2, #1
    58d4:	b2a4      	uxth	r4, r4
    58d6:	b29b      	uxth	r3, r3
    58d8:	0412      	lsls	r2, r2, #16
    58da:	d500      	bpl.n	58de <bloomFilterAddressCheck+0x88a>
    58dc:	e390      	b.n	6000 <bloomFilterAddressCheck+0xfac>
    58de:	4ab4      	ldr	r2, [pc, #720]	; (5bb0 <bloomFilterAddressCheck+0xb5c>)
    58e0:	b29c      	uxth	r4, r3
    58e2:	0064      	lsls	r4, r4, #1
    58e4:	4054      	eors	r4, r2
    58e6:	005a      	lsls	r2, r3, #1
    58e8:	b2a4      	uxth	r4, r4
    58ea:	b292      	uxth	r2, r2
    58ec:	041b      	lsls	r3, r3, #16
    58ee:	d500      	bpl.n	58f2 <bloomFilterAddressCheck+0x89e>
    58f0:	e384      	b.n	5ffc <bloomFilterAddressCheck+0xfa8>
    58f2:	4baf      	ldr	r3, [pc, #700]	; (5bb0 <bloomFilterAddressCheck+0xb5c>)
    58f4:	b294      	uxth	r4, r2
    58f6:	0064      	lsls	r4, r4, #1
    58f8:	405c      	eors	r4, r3
    58fa:	0053      	lsls	r3, r2, #1
    58fc:	b2a4      	uxth	r4, r4
    58fe:	b29b      	uxth	r3, r3
    5900:	0412      	lsls	r2, r2, #16
    5902:	d500      	bpl.n	5906 <bloomFilterAddressCheck+0x8b2>
    5904:	e378      	b.n	5ff8 <bloomFilterAddressCheck+0xfa4>
    5906:	4aaa      	ldr	r2, [pc, #680]	; (5bb0 <bloomFilterAddressCheck+0xb5c>)
    5908:	b29c      	uxth	r4, r3
    590a:	0064      	lsls	r4, r4, #1
    590c:	4054      	eors	r4, r2
    590e:	005a      	lsls	r2, r3, #1
    5910:	b2a4      	uxth	r4, r4
    5912:	b292      	uxth	r2, r2
    5914:	041b      	lsls	r3, r3, #16
    5916:	d500      	bpl.n	591a <bloomFilterAddressCheck+0x8c6>
    5918:	e36c      	b.n	5ff4 <bloomFilterAddressCheck+0xfa0>
    591a:	4ba5      	ldr	r3, [pc, #660]	; (5bb0 <bloomFilterAddressCheck+0xb5c>)
    591c:	b294      	uxth	r4, r2
    591e:	0064      	lsls	r4, r4, #1
    5920:	405c      	eors	r4, r3
    5922:	0053      	lsls	r3, r2, #1
    5924:	b2a4      	uxth	r4, r4
    5926:	b29b      	uxth	r3, r3
    5928:	0412      	lsls	r2, r2, #16
    592a:	d500      	bpl.n	592e <bloomFilterAddressCheck+0x8da>
    592c:	e360      	b.n	5ff0 <bloomFilterAddressCheck+0xf9c>
    592e:	b29a      	uxth	r2, r3
    5930:	4c9f      	ldr	r4, [pc, #636]	; (5bb0 <bloomFilterAddressCheck+0xb5c>)
    5932:	0052      	lsls	r2, r2, #1
    5934:	4054      	eors	r4, r2
    5936:	005a      	lsls	r2, r3, #1
    5938:	b2a4      	uxth	r4, r4
    593a:	b292      	uxth	r2, r2
    593c:	041b      	lsls	r3, r3, #16
    593e:	d500      	bpl.n	5942 <bloomFilterAddressCheck+0x8ee>
    5940:	e354      	b.n	5fec <bloomFilterAddressCheck+0xf98>
    5942:	4050      	eors	r0, r2
    5944:	b200      	sxth	r0, r0
    5946:	b282      	uxth	r2, r0
    5948:	4b99      	ldr	r3, [pc, #612]	; (5bb0 <bloomFilterAddressCheck+0xb5c>)
    594a:	0052      	lsls	r2, r2, #1
    594c:	4053      	eors	r3, r2
    594e:	b29c      	uxth	r4, r3
    5950:	b293      	uxth	r3, r2
    5952:	2800      	cmp	r0, #0
    5954:	da00      	bge.n	5958 <bloomFilterAddressCheck+0x904>
    5956:	e347      	b.n	5fe8 <bloomFilterAddressCheck+0xf94>
    5958:	4a95      	ldr	r2, [pc, #596]	; (5bb0 <bloomFilterAddressCheck+0xb5c>)
    595a:	b298      	uxth	r0, r3
    595c:	0040      	lsls	r0, r0, #1
    595e:	4050      	eors	r0, r2
    5960:	005a      	lsls	r2, r3, #1
    5962:	b280      	uxth	r0, r0
    5964:	b292      	uxth	r2, r2
    5966:	041b      	lsls	r3, r3, #16
    5968:	d500      	bpl.n	596c <bloomFilterAddressCheck+0x918>
    596a:	e33b      	b.n	5fe4 <bloomFilterAddressCheck+0xf90>
    596c:	4b90      	ldr	r3, [pc, #576]	; (5bb0 <bloomFilterAddressCheck+0xb5c>)
    596e:	b290      	uxth	r0, r2
    5970:	0040      	lsls	r0, r0, #1
    5972:	4058      	eors	r0, r3
    5974:	0053      	lsls	r3, r2, #1
    5976:	b280      	uxth	r0, r0
    5978:	b29b      	uxth	r3, r3
    597a:	0412      	lsls	r2, r2, #16
    597c:	d500      	bpl.n	5980 <bloomFilterAddressCheck+0x92c>
    597e:	e32f      	b.n	5fe0 <bloomFilterAddressCheck+0xf8c>
    5980:	4a8b      	ldr	r2, [pc, #556]	; (5bb0 <bloomFilterAddressCheck+0xb5c>)
    5982:	b298      	uxth	r0, r3
    5984:	0040      	lsls	r0, r0, #1
    5986:	4050      	eors	r0, r2
    5988:	005a      	lsls	r2, r3, #1
    598a:	b280      	uxth	r0, r0
    598c:	b292      	uxth	r2, r2
    598e:	041b      	lsls	r3, r3, #16
    5990:	d500      	bpl.n	5994 <bloomFilterAddressCheck+0x940>
    5992:	e323      	b.n	5fdc <bloomFilterAddressCheck+0xf88>
    5994:	4b86      	ldr	r3, [pc, #536]	; (5bb0 <bloomFilterAddressCheck+0xb5c>)
    5996:	b290      	uxth	r0, r2
    5998:	0040      	lsls	r0, r0, #1
    599a:	4058      	eors	r0, r3
    599c:	0053      	lsls	r3, r2, #1
    599e:	b280      	uxth	r0, r0
    59a0:	b29b      	uxth	r3, r3
    59a2:	0412      	lsls	r2, r2, #16
    59a4:	d500      	bpl.n	59a8 <bloomFilterAddressCheck+0x954>
    59a6:	e317      	b.n	5fd8 <bloomFilterAddressCheck+0xf84>
    59a8:	4a81      	ldr	r2, [pc, #516]	; (5bb0 <bloomFilterAddressCheck+0xb5c>)
    59aa:	b298      	uxth	r0, r3
    59ac:	0040      	lsls	r0, r0, #1
    59ae:	4050      	eors	r0, r2
    59b0:	005a      	lsls	r2, r3, #1
    59b2:	b280      	uxth	r0, r0
    59b4:	b292      	uxth	r2, r2
    59b6:	041b      	lsls	r3, r3, #16
    59b8:	d500      	bpl.n	59bc <bloomFilterAddressCheck+0x968>
    59ba:	e30b      	b.n	5fd4 <bloomFilterAddressCheck+0xf80>
    59bc:	4b7c      	ldr	r3, [pc, #496]	; (5bb0 <bloomFilterAddressCheck+0xb5c>)
    59be:	b290      	uxth	r0, r2
    59c0:	0040      	lsls	r0, r0, #1
    59c2:	4058      	eors	r0, r3
    59c4:	0053      	lsls	r3, r2, #1
    59c6:	b280      	uxth	r0, r0
    59c8:	b29b      	uxth	r3, r3
    59ca:	0412      	lsls	r2, r2, #16
    59cc:	d500      	bpl.n	59d0 <bloomFilterAddressCheck+0x97c>
    59ce:	e2ff      	b.n	5fd0 <bloomFilterAddressCheck+0xf7c>
    59d0:	b29a      	uxth	r2, r3
    59d2:	4877      	ldr	r0, [pc, #476]	; (5bb0 <bloomFilterAddressCheck+0xb5c>)
    59d4:	0052      	lsls	r2, r2, #1
    59d6:	4050      	eors	r0, r2
    59d8:	005a      	lsls	r2, r3, #1
    59da:	b280      	uxth	r0, r0
    59dc:	b292      	uxth	r2, r2
    59de:	041b      	lsls	r3, r3, #16
    59e0:	d500      	bpl.n	59e4 <bloomFilterAddressCheck+0x990>
    59e2:	e2f3      	b.n	5fcc <bloomFilterAddressCheck+0xf78>
    59e4:	4051      	eors	r1, r2
    59e6:	b209      	sxth	r1, r1
    59e8:	b28b      	uxth	r3, r1
    59ea:	4a71      	ldr	r2, [pc, #452]	; (5bb0 <bloomFilterAddressCheck+0xb5c>)
    59ec:	005b      	lsls	r3, r3, #1
    59ee:	405a      	eors	r2, r3
    59f0:	b292      	uxth	r2, r2
    59f2:	2900      	cmp	r1, #0
    59f4:	da00      	bge.n	59f8 <bloomFilterAddressCheck+0x9a4>
    59f6:	e2e7      	b.n	5fc8 <bloomFilterAddressCheck+0xf74>
    59f8:	4a6d      	ldr	r2, [pc, #436]	; (5bb0 <bloomFilterAddressCheck+0xb5c>)
    59fa:	b299      	uxth	r1, r3
    59fc:	0049      	lsls	r1, r1, #1
    59fe:	4051      	eors	r1, r2
    5a00:	b289      	uxth	r1, r1
    5a02:	005a      	lsls	r2, r3, #1
    5a04:	041b      	lsls	r3, r3, #16
    5a06:	d500      	bpl.n	5a0a <bloomFilterAddressCheck+0x9b6>
    5a08:	e2dc      	b.n	5fc4 <bloomFilterAddressCheck+0xf70>
    5a0a:	b291      	uxth	r1, r2
    5a0c:	4b68      	ldr	r3, [pc, #416]	; (5bb0 <bloomFilterAddressCheck+0xb5c>)
    5a0e:	0049      	lsls	r1, r1, #1
    5a10:	404b      	eors	r3, r1
    5a12:	b29b      	uxth	r3, r3
    5a14:	0051      	lsls	r1, r2, #1
    5a16:	0412      	lsls	r2, r2, #16
    5a18:	d500      	bpl.n	5a1c <bloomFilterAddressCheck+0x9c8>
    5a1a:	e2d1      	b.n	5fc0 <bloomFilterAddressCheck+0xf6c>
    5a1c:	b28a      	uxth	r2, r1
    5a1e:	4b64      	ldr	r3, [pc, #400]	; (5bb0 <bloomFilterAddressCheck+0xb5c>)
    5a20:	0052      	lsls	r2, r2, #1
    5a22:	4053      	eors	r3, r2
    5a24:	b29b      	uxth	r3, r3
    5a26:	004a      	lsls	r2, r1, #1
    5a28:	0409      	lsls	r1, r1, #16
    5a2a:	d500      	bpl.n	5a2e <bloomFilterAddressCheck+0x9da>
    5a2c:	e2c6      	b.n	5fbc <bloomFilterAddressCheck+0xf68>
    5a2e:	b291      	uxth	r1, r2
    5a30:	4b5f      	ldr	r3, [pc, #380]	; (5bb0 <bloomFilterAddressCheck+0xb5c>)
    5a32:	0049      	lsls	r1, r1, #1
    5a34:	404b      	eors	r3, r1
    5a36:	b29b      	uxth	r3, r3
    5a38:	0051      	lsls	r1, r2, #1
    5a3a:	0412      	lsls	r2, r2, #16
    5a3c:	d500      	bpl.n	5a40 <bloomFilterAddressCheck+0x9ec>
    5a3e:	e2bb      	b.n	5fb8 <bloomFilterAddressCheck+0xf64>
    5a40:	b28a      	uxth	r2, r1
    5a42:	4b5b      	ldr	r3, [pc, #364]	; (5bb0 <bloomFilterAddressCheck+0xb5c>)
    5a44:	0052      	lsls	r2, r2, #1
    5a46:	4053      	eors	r3, r2
    5a48:	b29b      	uxth	r3, r3
    5a4a:	004a      	lsls	r2, r1, #1
    5a4c:	0409      	lsls	r1, r1, #16
    5a4e:	d500      	bpl.n	5a52 <bloomFilterAddressCheck+0x9fe>
    5a50:	e2b0      	b.n	5fb4 <bloomFilterAddressCheck+0xf60>
    5a52:	b291      	uxth	r1, r2
    5a54:	4b56      	ldr	r3, [pc, #344]	; (5bb0 <bloomFilterAddressCheck+0xb5c>)
    5a56:	0049      	lsls	r1, r1, #1
    5a58:	404b      	eors	r3, r1
    5a5a:	b29b      	uxth	r3, r3
    5a5c:	0051      	lsls	r1, r2, #1
    5a5e:	0412      	lsls	r2, r2, #16
    5a60:	d500      	bpl.n	5a64 <bloomFilterAddressCheck+0xa10>
    5a62:	e2a5      	b.n	5fb0 <bloomFilterAddressCheck+0xf5c>
    5a64:	b28a      	uxth	r2, r1
    5a66:	4b52      	ldr	r3, [pc, #328]	; (5bb0 <bloomFilterAddressCheck+0xb5c>)
    5a68:	0052      	lsls	r2, r2, #1
    5a6a:	4053      	eors	r3, r2
    5a6c:	b29b      	uxth	r3, r3
    5a6e:	004a      	lsls	r2, r1, #1
    5a70:	0409      	lsls	r1, r1, #16
    5a72:	d500      	bpl.n	5a76 <bloomFilterAddressCheck+0xa22>
    5a74:	e29a      	b.n	5fac <bloomFilterAddressCheck+0xf58>
    5a76:	465b      	mov	r3, fp
    5a78:	4053      	eors	r3, r2
    5a7a:	b21a      	sxth	r2, r3
    5a7c:	b293      	uxth	r3, r2
    5a7e:	494c      	ldr	r1, [pc, #304]	; (5bb0 <bloomFilterAddressCheck+0xb5c>)
    5a80:	005b      	lsls	r3, r3, #1
    5a82:	4059      	eors	r1, r3
    5a84:	b289      	uxth	r1, r1
    5a86:	2a00      	cmp	r2, #0
    5a88:	da00      	bge.n	5a8c <bloomFilterAddressCheck+0xa38>
    5a8a:	e28d      	b.n	5fa8 <bloomFilterAddressCheck+0xf54>
    5a8c:	b299      	uxth	r1, r3
    5a8e:	4a48      	ldr	r2, [pc, #288]	; (5bb0 <bloomFilterAddressCheck+0xb5c>)
    5a90:	0049      	lsls	r1, r1, #1
    5a92:	404a      	eors	r2, r1
    5a94:	b292      	uxth	r2, r2
    5a96:	0059      	lsls	r1, r3, #1
    5a98:	041b      	lsls	r3, r3, #16
    5a9a:	d500      	bpl.n	5a9e <bloomFilterAddressCheck+0xa4a>
    5a9c:	e282      	b.n	5fa4 <bloomFilterAddressCheck+0xf50>
    5a9e:	b28a      	uxth	r2, r1
    5aa0:	4b43      	ldr	r3, [pc, #268]	; (5bb0 <bloomFilterAddressCheck+0xb5c>)
    5aa2:	0052      	lsls	r2, r2, #1
    5aa4:	4053      	eors	r3, r2
    5aa6:	b29b      	uxth	r3, r3
    5aa8:	004a      	lsls	r2, r1, #1
    5aaa:	0409      	lsls	r1, r1, #16
    5aac:	d500      	bpl.n	5ab0 <bloomFilterAddressCheck+0xa5c>
    5aae:	e277      	b.n	5fa0 <bloomFilterAddressCheck+0xf4c>
    5ab0:	b291      	uxth	r1, r2
    5ab2:	4b3f      	ldr	r3, [pc, #252]	; (5bb0 <bloomFilterAddressCheck+0xb5c>)
    5ab4:	0049      	lsls	r1, r1, #1
    5ab6:	404b      	eors	r3, r1
    5ab8:	b29b      	uxth	r3, r3
    5aba:	0051      	lsls	r1, r2, #1
    5abc:	0412      	lsls	r2, r2, #16
    5abe:	d500      	bpl.n	5ac2 <bloomFilterAddressCheck+0xa6e>
    5ac0:	e26c      	b.n	5f9c <bloomFilterAddressCheck+0xf48>
    5ac2:	b28a      	uxth	r2, r1
    5ac4:	4b3a      	ldr	r3, [pc, #232]	; (5bb0 <bloomFilterAddressCheck+0xb5c>)
    5ac6:	0052      	lsls	r2, r2, #1
    5ac8:	4053      	eors	r3, r2
    5aca:	b29b      	uxth	r3, r3
    5acc:	004a      	lsls	r2, r1, #1
    5ace:	0409      	lsls	r1, r1, #16
    5ad0:	d500      	bpl.n	5ad4 <bloomFilterAddressCheck+0xa80>
    5ad2:	e261      	b.n	5f98 <bloomFilterAddressCheck+0xf44>
    5ad4:	b291      	uxth	r1, r2
    5ad6:	4b36      	ldr	r3, [pc, #216]	; (5bb0 <bloomFilterAddressCheck+0xb5c>)
    5ad8:	0049      	lsls	r1, r1, #1
    5ada:	404b      	eors	r3, r1
    5adc:	b29b      	uxth	r3, r3
    5ade:	0051      	lsls	r1, r2, #1
    5ae0:	0412      	lsls	r2, r2, #16
    5ae2:	d500      	bpl.n	5ae6 <bloomFilterAddressCheck+0xa92>
    5ae4:	e242      	b.n	5f6c <bloomFilterAddressCheck+0xf18>
    5ae6:	b28a      	uxth	r2, r1
    5ae8:	4b31      	ldr	r3, [pc, #196]	; (5bb0 <bloomFilterAddressCheck+0xb5c>)
    5aea:	0052      	lsls	r2, r2, #1
    5aec:	4053      	eors	r3, r2
    5aee:	b29b      	uxth	r3, r3
    5af0:	004a      	lsls	r2, r1, #1
    5af2:	0409      	lsls	r1, r1, #16
    5af4:	d500      	bpl.n	5af8 <bloomFilterAddressCheck+0xaa4>
    5af6:	e243      	b.n	5f80 <bloomFilterAddressCheck+0xf2c>
    5af8:	b291      	uxth	r1, r2
    5afa:	4b2d      	ldr	r3, [pc, #180]	; (5bb0 <bloomFilterAddressCheck+0xb5c>)
    5afc:	0049      	lsls	r1, r1, #1
    5afe:	404b      	eors	r3, r1
    5b00:	b29b      	uxth	r3, r3
    5b02:	0055      	lsls	r5, r2, #1
    5b04:	0412      	lsls	r2, r2, #16
    5b06:	d500      	bpl.n	5b0a <bloomFilterAddressCheck+0xab6>
    5b08:	e244      	b.n	5f94 <bloomFilterAddressCheck+0xf40>
    5b0a:	9b01      	ldr	r3, [sp, #4]
    5b0c:	4a28      	ldr	r2, [pc, #160]	; (5bb0 <bloomFilterAddressCheck+0xb5c>)
    5b0e:	406b      	eors	r3, r5
    5b10:	b21d      	sxth	r5, r3
    5b12:	b2ab      	uxth	r3, r5
    5b14:	005b      	lsls	r3, r3, #1
    5b16:	405a      	eors	r2, r3
    5b18:	b292      	uxth	r2, r2
    5b1a:	2d00      	cmp	r5, #0
    5b1c:	da00      	bge.n	5b20 <bloomFilterAddressCheck+0xacc>
    5b1e:	e2a7      	b.n	6070 <bloomFilterAddressCheck+0x101c>
    5b20:	b299      	uxth	r1, r3
    5b22:	4a23      	ldr	r2, [pc, #140]	; (5bb0 <bloomFilterAddressCheck+0xb5c>)
    5b24:	0049      	lsls	r1, r1, #1
    5b26:	404a      	eors	r2, r1
    5b28:	b292      	uxth	r2, r2
    5b2a:	0059      	lsls	r1, r3, #1
    5b2c:	041b      	lsls	r3, r3, #16
    5b2e:	d500      	bpl.n	5b32 <bloomFilterAddressCheck+0xade>
    5b30:	e29c      	b.n	606c <bloomFilterAddressCheck+0x1018>
    5b32:	b28a      	uxth	r2, r1
    5b34:	4b1e      	ldr	r3, [pc, #120]	; (5bb0 <bloomFilterAddressCheck+0xb5c>)
    5b36:	0052      	lsls	r2, r2, #1
    5b38:	4053      	eors	r3, r2
    5b3a:	b29b      	uxth	r3, r3
    5b3c:	004a      	lsls	r2, r1, #1
    5b3e:	0409      	lsls	r1, r1, #16
    5b40:	d500      	bpl.n	5b44 <bloomFilterAddressCheck+0xaf0>
    5b42:	e291      	b.n	6068 <bloomFilterAddressCheck+0x1014>
    5b44:	b291      	uxth	r1, r2
    5b46:	4b1a      	ldr	r3, [pc, #104]	; (5bb0 <bloomFilterAddressCheck+0xb5c>)
    5b48:	0049      	lsls	r1, r1, #1
    5b4a:	404b      	eors	r3, r1
    5b4c:	b29b      	uxth	r3, r3
    5b4e:	0051      	lsls	r1, r2, #1
    5b50:	0412      	lsls	r2, r2, #16
    5b52:	d500      	bpl.n	5b56 <bloomFilterAddressCheck+0xb02>
    5b54:	e286      	b.n	6064 <bloomFilterAddressCheck+0x1010>
    5b56:	b28a      	uxth	r2, r1
    5b58:	4b15      	ldr	r3, [pc, #84]	; (5bb0 <bloomFilterAddressCheck+0xb5c>)
    5b5a:	0052      	lsls	r2, r2, #1
    5b5c:	4053      	eors	r3, r2
    5b5e:	b29b      	uxth	r3, r3
    5b60:	004a      	lsls	r2, r1, #1
    5b62:	0409      	lsls	r1, r1, #16
    5b64:	d500      	bpl.n	5b68 <bloomFilterAddressCheck+0xb14>
    5b66:	e27b      	b.n	6060 <bloomFilterAddressCheck+0x100c>
    5b68:	b291      	uxth	r1, r2
    5b6a:	4b11      	ldr	r3, [pc, #68]	; (5bb0 <bloomFilterAddressCheck+0xb5c>)
    5b6c:	0049      	lsls	r1, r1, #1
    5b6e:	404b      	eors	r3, r1
    5b70:	b29b      	uxth	r3, r3
    5b72:	0051      	lsls	r1, r2, #1
    5b74:	0412      	lsls	r2, r2, #16
    5b76:	d500      	bpl.n	5b7a <bloomFilterAddressCheck+0xb26>
    5b78:	e270      	b.n	605c <bloomFilterAddressCheck+0x1008>
    5b7a:	b28a      	uxth	r2, r1
    5b7c:	4b0c      	ldr	r3, [pc, #48]	; (5bb0 <bloomFilterAddressCheck+0xb5c>)
    5b7e:	0052      	lsls	r2, r2, #1
    5b80:	4053      	eors	r3, r2
    5b82:	b29b      	uxth	r3, r3
    5b84:	004a      	lsls	r2, r1, #1
    5b86:	0409      	lsls	r1, r1, #16
    5b88:	d500      	bpl.n	5b8c <bloomFilterAddressCheck+0xb38>
    5b8a:	e265      	b.n	6058 <bloomFilterAddressCheck+0x1004>
    5b8c:	b291      	uxth	r1, r2
    5b8e:	4b08      	ldr	r3, [pc, #32]	; (5bb0 <bloomFilterAddressCheck+0xb5c>)
    5b90:	0049      	lsls	r1, r1, #1
    5b92:	404b      	eors	r3, r1
    5b94:	b29b      	uxth	r3, r3
    5b96:	0055      	lsls	r5, r2, #1
    5b98:	0412      	lsls	r2, r2, #16
    5b9a:	d500      	bpl.n	5b9e <bloomFilterAddressCheck+0xb4a>
    5b9c:	e25a      	b.n	6054 <bloomFilterAddressCheck+0x1000>
    5b9e:	9b02      	ldr	r3, [sp, #8]
    5ba0:	4a03      	ldr	r2, [pc, #12]	; (5bb0 <bloomFilterAddressCheck+0xb5c>)
    5ba2:	406b      	eors	r3, r5
    5ba4:	b21d      	sxth	r5, r3
    5ba6:	b2ab      	uxth	r3, r5
    5ba8:	005b      	lsls	r3, r3, #1
    5baa:	405a      	eors	r2, r3
    5bac:	b292      	uxth	r2, r2
    5bae:	e001      	b.n	5bb4 <bloomFilterAddressCheck+0xb60>
    5bb0:	ffff8005 	.word	0xffff8005
    5bb4:	2d00      	cmp	r5, #0
    5bb6:	da00      	bge.n	5bba <bloomFilterAddressCheck+0xb66>
    5bb8:	e24a      	b.n	6050 <bloomFilterAddressCheck+0xffc>
    5bba:	b299      	uxth	r1, r3
    5bbc:	4ae8      	ldr	r2, [pc, #928]	; (5f60 <bloomFilterAddressCheck+0xf0c>)
    5bbe:	0049      	lsls	r1, r1, #1
    5bc0:	404a      	eors	r2, r1
    5bc2:	b292      	uxth	r2, r2
    5bc4:	0059      	lsls	r1, r3, #1
    5bc6:	041b      	lsls	r3, r3, #16
    5bc8:	d500      	bpl.n	5bcc <bloomFilterAddressCheck+0xb78>
    5bca:	e23f      	b.n	604c <bloomFilterAddressCheck+0xff8>
    5bcc:	b28a      	uxth	r2, r1
    5bce:	4be4      	ldr	r3, [pc, #912]	; (5f60 <bloomFilterAddressCheck+0xf0c>)
    5bd0:	0052      	lsls	r2, r2, #1
    5bd2:	4053      	eors	r3, r2
    5bd4:	b29b      	uxth	r3, r3
    5bd6:	004a      	lsls	r2, r1, #1
    5bd8:	0409      	lsls	r1, r1, #16
    5bda:	d500      	bpl.n	5bde <bloomFilterAddressCheck+0xb8a>
    5bdc:	e234      	b.n	6048 <bloomFilterAddressCheck+0xff4>
    5bde:	b291      	uxth	r1, r2
    5be0:	4bdf      	ldr	r3, [pc, #892]	; (5f60 <bloomFilterAddressCheck+0xf0c>)
    5be2:	0049      	lsls	r1, r1, #1
    5be4:	404b      	eors	r3, r1
    5be6:	b29b      	uxth	r3, r3
    5be8:	0051      	lsls	r1, r2, #1
    5bea:	0412      	lsls	r2, r2, #16
    5bec:	d500      	bpl.n	5bf0 <bloomFilterAddressCheck+0xb9c>
    5bee:	e229      	b.n	6044 <bloomFilterAddressCheck+0xff0>
    5bf0:	b28a      	uxth	r2, r1
    5bf2:	4bdb      	ldr	r3, [pc, #876]	; (5f60 <bloomFilterAddressCheck+0xf0c>)
    5bf4:	0052      	lsls	r2, r2, #1
    5bf6:	4053      	eors	r3, r2
    5bf8:	b29b      	uxth	r3, r3
    5bfa:	004a      	lsls	r2, r1, #1
    5bfc:	0409      	lsls	r1, r1, #16
    5bfe:	d500      	bpl.n	5c02 <bloomFilterAddressCheck+0xbae>
    5c00:	e21e      	b.n	6040 <bloomFilterAddressCheck+0xfec>
    5c02:	b291      	uxth	r1, r2
    5c04:	4bd6      	ldr	r3, [pc, #856]	; (5f60 <bloomFilterAddressCheck+0xf0c>)
    5c06:	0049      	lsls	r1, r1, #1
    5c08:	404b      	eors	r3, r1
    5c0a:	b29b      	uxth	r3, r3
    5c0c:	0051      	lsls	r1, r2, #1
    5c0e:	0412      	lsls	r2, r2, #16
    5c10:	d500      	bpl.n	5c14 <bloomFilterAddressCheck+0xbc0>
    5c12:	e1ff      	b.n	6014 <bloomFilterAddressCheck+0xfc0>
    5c14:	b28a      	uxth	r2, r1
    5c16:	4bd2      	ldr	r3, [pc, #840]	; (5f60 <bloomFilterAddressCheck+0xf0c>)
    5c18:	0052      	lsls	r2, r2, #1
    5c1a:	4053      	eors	r3, r2
    5c1c:	b29b      	uxth	r3, r3
    5c1e:	0048      	lsls	r0, r1, #1
    5c20:	040a      	lsls	r2, r1, #16
    5c22:	d500      	bpl.n	5c26 <bloomFilterAddressCheck+0xbd2>
    5c24:	e200      	b.n	6028 <bloomFilterAddressCheck+0xfd4>
    5c26:	b282      	uxth	r2, r0
    5c28:	4bcd      	ldr	r3, [pc, #820]	; (5f60 <bloomFilterAddressCheck+0xf0c>)
    5c2a:	0052      	lsls	r2, r2, #1
    5c2c:	4053      	eors	r3, r2
    5c2e:	b29b      	uxth	r3, r3
    5c30:	0042      	lsls	r2, r0, #1
    5c32:	0401      	lsls	r1, r0, #16
    5c34:	d500      	bpl.n	5c38 <bloomFilterAddressCheck+0xbe4>
    5c36:	e201      	b.n	603c <bloomFilterAddressCheck+0xfe8>
    5c38:	4653      	mov	r3, sl
    5c3a:	4053      	eors	r3, r2
    5c3c:	b21a      	sxth	r2, r3
    5c3e:	b291      	uxth	r1, r2
    5c40:	4bc7      	ldr	r3, [pc, #796]	; (5f60 <bloomFilterAddressCheck+0xf0c>)
    5c42:	0049      	lsls	r1, r1, #1
    5c44:	404b      	eors	r3, r1
    5c46:	b298      	uxth	r0, r3
    5c48:	b28b      	uxth	r3, r1
    5c4a:	2a00      	cmp	r2, #0
    5c4c:	da00      	bge.n	5c50 <bloomFilterAddressCheck+0xbfc>
    5c4e:	e21b      	b.n	6088 <bloomFilterAddressCheck+0x1034>
    5c50:	4ac3      	ldr	r2, [pc, #780]	; (5f60 <bloomFilterAddressCheck+0xf0c>)
    5c52:	b299      	uxth	r1, r3
    5c54:	0049      	lsls	r1, r1, #1
    5c56:	4051      	eors	r1, r2
    5c58:	005a      	lsls	r2, r3, #1
    5c5a:	b289      	uxth	r1, r1
    5c5c:	b292      	uxth	r2, r2
    5c5e:	041b      	lsls	r3, r3, #16
    5c60:	d500      	bpl.n	5c64 <bloomFilterAddressCheck+0xc10>
    5c62:	e20f      	b.n	6084 <bloomFilterAddressCheck+0x1030>
    5c64:	4bbe      	ldr	r3, [pc, #760]	; (5f60 <bloomFilterAddressCheck+0xf0c>)
    5c66:	b291      	uxth	r1, r2
    5c68:	0049      	lsls	r1, r1, #1
    5c6a:	4059      	eors	r1, r3
    5c6c:	0053      	lsls	r3, r2, #1
    5c6e:	b289      	uxth	r1, r1
    5c70:	b29b      	uxth	r3, r3
    5c72:	0412      	lsls	r2, r2, #16
    5c74:	d500      	bpl.n	5c78 <bloomFilterAddressCheck+0xc24>
    5c76:	e203      	b.n	6080 <bloomFilterAddressCheck+0x102c>
    5c78:	4ab9      	ldr	r2, [pc, #740]	; (5f60 <bloomFilterAddressCheck+0xf0c>)
    5c7a:	b299      	uxth	r1, r3
    5c7c:	0049      	lsls	r1, r1, #1
    5c7e:	4051      	eors	r1, r2
    5c80:	005a      	lsls	r2, r3, #1
    5c82:	b289      	uxth	r1, r1
    5c84:	b292      	uxth	r2, r2
    5c86:	041b      	lsls	r3, r3, #16
    5c88:	d500      	bpl.n	5c8c <bloomFilterAddressCheck+0xc38>
    5c8a:	e1f7      	b.n	607c <bloomFilterAddressCheck+0x1028>
    5c8c:	4bb4      	ldr	r3, [pc, #720]	; (5f60 <bloomFilterAddressCheck+0xf0c>)
    5c8e:	b291      	uxth	r1, r2
    5c90:	0049      	lsls	r1, r1, #1
    5c92:	4059      	eors	r1, r3
    5c94:	0053      	lsls	r3, r2, #1
    5c96:	b289      	uxth	r1, r1
    5c98:	b29b      	uxth	r3, r3
    5c9a:	0412      	lsls	r2, r2, #16
    5c9c:	d500      	bpl.n	5ca0 <bloomFilterAddressCheck+0xc4c>
    5c9e:	e1eb      	b.n	6078 <bloomFilterAddressCheck+0x1024>
    5ca0:	4aaf      	ldr	r2, [pc, #700]	; (5f60 <bloomFilterAddressCheck+0xf0c>)
    5ca2:	b299      	uxth	r1, r3
    5ca4:	0049      	lsls	r1, r1, #1
    5ca6:	4051      	eors	r1, r2
    5ca8:	005a      	lsls	r2, r3, #1
    5caa:	b289      	uxth	r1, r1
    5cac:	b292      	uxth	r2, r2
    5cae:	041b      	lsls	r3, r3, #16
    5cb0:	d500      	bpl.n	5cb4 <bloomFilterAddressCheck+0xc60>
    5cb2:	e1df      	b.n	6074 <bloomFilterAddressCheck+0x1020>
    5cb4:	b293      	uxth	r3, r2
    5cb6:	4caa      	ldr	r4, [pc, #680]	; (5f60 <bloomFilterAddressCheck+0xf0c>)
    5cb8:	005b      	lsls	r3, r3, #1
    5cba:	405c      	eors	r4, r3
    5cbc:	b2a1      	uxth	r1, r4
    5cbe:	0054      	lsls	r4, r2, #1
    5cc0:	b2a4      	uxth	r4, r4
    5cc2:	0413      	lsls	r3, r2, #16
    5cc4:	d500      	bpl.n	5cc8 <bloomFilterAddressCheck+0xc74>
    5cc6:	e149      	b.n	5f5c <bloomFilterAddressCheck+0xf08>
    5cc8:	b223      	sxth	r3, r4
    5cca:	b2a2      	uxth	r2, r4
    5ccc:	469b      	mov	fp, r3
    5cce:	4ba4      	ldr	r3, [pc, #656]	; (5f60 <bloomFilterAddressCheck+0xf0c>)
    5cd0:	0052      	lsls	r2, r2, #1
    5cd2:	4053      	eors	r3, r2
    5cd4:	00f5      	lsls	r5, r6, #3
    5cd6:	b29b      	uxth	r3, r3
    5cd8:	0064      	lsls	r4, r4, #1
    5cda:	3d01      	subs	r5, #1
    5cdc:	4698      	mov	r8, r3
    5cde:	b2a4      	uxth	r4, r4
    5ce0:	b2ed      	uxtb	r5, r5
    5ce2:	2f00      	cmp	r7, #0
    5ce4:	da00      	bge.n	5ce8 <bloomFilterAddressCheck+0xc94>
    5ce6:	e136      	b.n	5f56 <bloomFilterAddressCheck+0xf02>
    5ce8:	4648      	mov	r0, r9
    5cea:	4b9e      	ldr	r3, [pc, #632]	; (5f64 <bloomFilterAddressCheck+0xf10>)
    5cec:	b280      	uxth	r0, r0
    5cee:	0029      	movs	r1, r5
    5cf0:	469a      	mov	sl, r3
    5cf2:	4798      	blx	r3
    5cf4:	465b      	mov	r3, fp
    5cf6:	4689      	mov	r9, r1
    5cf8:	2b00      	cmp	r3, #0
    5cfa:	da00      	bge.n	5cfe <bloomFilterAddressCheck+0xcaa>
    5cfc:	e129      	b.n	5f52 <bloomFilterAddressCheck+0xefe>
    5cfe:	b2a0      	uxth	r0, r4
    5d00:	0029      	movs	r1, r5
    5d02:	47d0      	blx	sl
    5d04:	b2cb      	uxtb	r3, r1
    5d06:	08db      	lsrs	r3, r3, #3
    5d08:	9f03      	ldr	r7, [sp, #12]
    5d0a:	3301      	adds	r3, #1
    5d0c:	1af3      	subs	r3, r6, r3
    5d0e:	466a      	mov	r2, sp
    5d10:	5cf8      	ldrb	r0, [r7, r3]
    5d12:	464b      	mov	r3, r9
    5d14:	7113      	strb	r3, [r2, #4]
    5d16:	7913      	ldrb	r3, [r2, #4]
    5d18:	2201      	movs	r2, #1
    5d1a:	08db      	lsrs	r3, r3, #3
    5d1c:	3301      	adds	r3, #1
    5d1e:	1af6      	subs	r6, r6, r3
    5d20:	2407      	movs	r4, #7
    5d22:	464b      	mov	r3, r9
    5d24:	0015      	movs	r5, r2
    5d26:	4023      	ands	r3, r4
    5d28:	409d      	lsls	r5, r3
    5d2a:	5dbb      	ldrb	r3, [r7, r6]
    5d2c:	421d      	tst	r5, r3
    5d2e:	d006      	beq.n	5d3e <bloomFilterAddressCheck+0xcea>
    5d30:	4021      	ands	r1, r4
    5d32:	408a      	lsls	r2, r1
    5d34:	4002      	ands	r2, r0
    5d36:	1e50      	subs	r0, r2, #1
    5d38:	4182      	sbcs	r2, r0
    5d3a:	b2d3      	uxtb	r3, r2
    5d3c:	9300      	str	r3, [sp, #0]
    5d3e:	9800      	ldr	r0, [sp, #0]
    5d40:	b007      	add	sp, #28
    5d42:	bc3c      	pop	{r2, r3, r4, r5}
    5d44:	4690      	mov	r8, r2
    5d46:	4699      	mov	r9, r3
    5d48:	46a2      	mov	sl, r4
    5d4a:	46ab      	mov	fp, r5
    5d4c:	bdf0      	pop	{r4, r5, r6, r7, pc}
    5d4e:	1c1a      	adds	r2, r3, #0
    5d50:	e4ef      	b.n	5732 <bloomFilterAddressCheck+0x6de>
    5d52:	1c08      	adds	r0, r1, #0
    5d54:	f7ff f9a2 	bl	509c <bloomFilterAddressCheck+0x48>
    5d58:	1c0c      	adds	r4, r1, #0
    5d5a:	b2a0      	uxth	r0, r4
    5d5c:	4982      	ldr	r1, [pc, #520]	; (5f68 <bloomFilterAddressCheck+0xf14>)
    5d5e:	0040      	lsls	r0, r0, #1
    5d60:	4041      	eors	r1, r0
    5d62:	b289      	uxth	r1, r1
    5d64:	0060      	lsls	r0, r4, #1
    5d66:	0423      	lsls	r3, r4, #16
    5d68:	d401      	bmi.n	5d6e <bloomFilterAddressCheck+0xd1a>
    5d6a:	f7ff f9ac 	bl	50c6 <bloomFilterAddressCheck+0x72>
    5d6e:	1c08      	adds	r0, r1, #0
    5d70:	b284      	uxth	r4, r0
    5d72:	497d      	ldr	r1, [pc, #500]	; (5f68 <bloomFilterAddressCheck+0xf14>)
    5d74:	0064      	lsls	r4, r4, #1
    5d76:	4061      	eors	r1, r4
    5d78:	b289      	uxth	r1, r1
    5d7a:	0044      	lsls	r4, r0, #1
    5d7c:	0403      	lsls	r3, r0, #16
    5d7e:	d401      	bmi.n	5d84 <bloomFilterAddressCheck+0xd30>
    5d80:	f7ff f9ab 	bl	50da <bloomFilterAddressCheck+0x86>
    5d84:	1c0c      	adds	r4, r1, #0
    5d86:	b2a0      	uxth	r0, r4
    5d88:	4977      	ldr	r1, [pc, #476]	; (5f68 <bloomFilterAddressCheck+0xf14>)
    5d8a:	0040      	lsls	r0, r0, #1
    5d8c:	4041      	eors	r1, r0
    5d8e:	b289      	uxth	r1, r1
    5d90:	0060      	lsls	r0, r4, #1
    5d92:	0423      	lsls	r3, r4, #16
    5d94:	d401      	bmi.n	5d9a <bloomFilterAddressCheck+0xd46>
    5d96:	f7ff f9aa 	bl	50ee <bloomFilterAddressCheck+0x9a>
    5d9a:	1c08      	adds	r0, r1, #0
    5d9c:	b284      	uxth	r4, r0
    5d9e:	4972      	ldr	r1, [pc, #456]	; (5f68 <bloomFilterAddressCheck+0xf14>)
    5da0:	0064      	lsls	r4, r4, #1
    5da2:	4061      	eors	r1, r4
    5da4:	b289      	uxth	r1, r1
    5da6:	0044      	lsls	r4, r0, #1
    5da8:	0403      	lsls	r3, r0, #16
    5daa:	d401      	bmi.n	5db0 <bloomFilterAddressCheck+0xd5c>
    5dac:	f7ff f9a9 	bl	5102 <bloomFilterAddressCheck+0xae>
    5db0:	1c0c      	adds	r4, r1, #0
    5db2:	b2a0      	uxth	r0, r4
    5db4:	496c      	ldr	r1, [pc, #432]	; (5f68 <bloomFilterAddressCheck+0xf14>)
    5db6:	0040      	lsls	r0, r0, #1
    5db8:	4041      	eors	r1, r0
    5dba:	b289      	uxth	r1, r1
    5dbc:	0060      	lsls	r0, r4, #1
    5dbe:	0423      	lsls	r3, r4, #16
    5dc0:	d401      	bmi.n	5dc6 <bloomFilterAddressCheck+0xd72>
    5dc2:	f7ff f9a8 	bl	5116 <bloomFilterAddressCheck+0xc2>
    5dc6:	1c08      	adds	r0, r1, #0
    5dc8:	f7ff f9a5 	bl	5116 <bloomFilterAddressCheck+0xc2>
    5dcc:	1c0d      	adds	r5, r1, #0
    5dce:	f7ff f9af 	bl	5130 <bloomFilterAddressCheck+0xdc>
    5dd2:	1c01      	adds	r1, r0, #0
    5dd4:	b28d      	uxth	r5, r1
    5dd6:	4864      	ldr	r0, [pc, #400]	; (5f68 <bloomFilterAddressCheck+0xf14>)
    5dd8:	006d      	lsls	r5, r5, #1
    5dda:	4045      	eors	r5, r0
    5ddc:	b2ad      	uxth	r5, r5
    5dde:	0048      	lsls	r0, r1, #1
    5de0:	040b      	lsls	r3, r1, #16
    5de2:	d401      	bmi.n	5de8 <bloomFilterAddressCheck+0xd94>
    5de4:	f7ff f9b9 	bl	515a <bloomFilterAddressCheck+0x106>
    5de8:	1c28      	adds	r0, r5, #0
    5dea:	b285      	uxth	r5, r0
    5dec:	495e      	ldr	r1, [pc, #376]	; (5f68 <bloomFilterAddressCheck+0xf14>)
    5dee:	006d      	lsls	r5, r5, #1
    5df0:	4069      	eors	r1, r5
    5df2:	b289      	uxth	r1, r1
    5df4:	0045      	lsls	r5, r0, #1
    5df6:	0403      	lsls	r3, r0, #16
    5df8:	d401      	bmi.n	5dfe <bloomFilterAddressCheck+0xdaa>
    5dfa:	f7ff f9b8 	bl	516e <bloomFilterAddressCheck+0x11a>
    5dfe:	1c0d      	adds	r5, r1, #0
    5e00:	b2a8      	uxth	r0, r5
    5e02:	4959      	ldr	r1, [pc, #356]	; (5f68 <bloomFilterAddressCheck+0xf14>)
    5e04:	0040      	lsls	r0, r0, #1
    5e06:	4041      	eors	r1, r0
    5e08:	b289      	uxth	r1, r1
    5e0a:	0068      	lsls	r0, r5, #1
    5e0c:	042b      	lsls	r3, r5, #16
    5e0e:	d401      	bmi.n	5e14 <bloomFilterAddressCheck+0xdc0>
    5e10:	f7ff f9b7 	bl	5182 <bloomFilterAddressCheck+0x12e>
    5e14:	1c08      	adds	r0, r1, #0
    5e16:	b285      	uxth	r5, r0
    5e18:	4953      	ldr	r1, [pc, #332]	; (5f68 <bloomFilterAddressCheck+0xf14>)
    5e1a:	006d      	lsls	r5, r5, #1
    5e1c:	4069      	eors	r1, r5
    5e1e:	b289      	uxth	r1, r1
    5e20:	0045      	lsls	r5, r0, #1
    5e22:	0403      	lsls	r3, r0, #16
    5e24:	d401      	bmi.n	5e2a <bloomFilterAddressCheck+0xdd6>
    5e26:	f7ff f9b6 	bl	5196 <bloomFilterAddressCheck+0x142>
    5e2a:	1c0d      	adds	r5, r1, #0
    5e2c:	b2a8      	uxth	r0, r5
    5e2e:	494e      	ldr	r1, [pc, #312]	; (5f68 <bloomFilterAddressCheck+0xf14>)
    5e30:	0040      	lsls	r0, r0, #1
    5e32:	4041      	eors	r1, r0
    5e34:	b289      	uxth	r1, r1
    5e36:	0068      	lsls	r0, r5, #1
    5e38:	042b      	lsls	r3, r5, #16
    5e3a:	d401      	bmi.n	5e40 <bloomFilterAddressCheck+0xdec>
    5e3c:	f7ff f9b5 	bl	51aa <bloomFilterAddressCheck+0x156>
    5e40:	1c08      	adds	r0, r1, #0
    5e42:	b285      	uxth	r5, r0
    5e44:	4948      	ldr	r1, [pc, #288]	; (5f68 <bloomFilterAddressCheck+0xf14>)
    5e46:	006d      	lsls	r5, r5, #1
    5e48:	4069      	eors	r1, r5
    5e4a:	b289      	uxth	r1, r1
    5e4c:	0045      	lsls	r5, r0, #1
    5e4e:	0403      	lsls	r3, r0, #16
    5e50:	d401      	bmi.n	5e56 <bloomFilterAddressCheck+0xe02>
    5e52:	f7ff f9b4 	bl	51be <bloomFilterAddressCheck+0x16a>
    5e56:	1c0d      	adds	r5, r1, #0
    5e58:	f7ff f9b1 	bl	51be <bloomFilterAddressCheck+0x16a>
    5e5c:	4689      	mov	r9, r1
    5e5e:	f7ff f9bc 	bl	51da <bloomFilterAddressCheck+0x186>
    5e62:	4651      	mov	r1, sl
    5e64:	f7ff f9c9 	bl	51fa <bloomFilterAddressCheck+0x1a6>
    5e68:	464d      	mov	r5, r9
    5e6a:	f7ff f9d3 	bl	5214 <bloomFilterAddressCheck+0x1c0>
    5e6e:	4689      	mov	r9, r1
    5e70:	f7ff f9dd 	bl	522e <bloomFilterAddressCheck+0x1da>
    5e74:	1c0d      	adds	r5, r1, #0
    5e76:	f7ff f9e9 	bl	524c <bloomFilterAddressCheck+0x1f8>
    5e7a:	4689      	mov	r9, r1
    5e7c:	f7ff f9f3 	bl	5266 <bloomFilterAddressCheck+0x212>
    5e80:	1c0d      	adds	r5, r1, #0
    5e82:	f7ff f9ff 	bl	5284 <bloomFilterAddressCheck+0x230>
    5e86:	468a      	mov	sl, r1
    5e88:	f7ff fa09 	bl	529e <bloomFilterAddressCheck+0x24a>
    5e8c:	464d      	mov	r5, r9
    5e8e:	f7ff fa19 	bl	52c4 <bloomFilterAddressCheck+0x270>
    5e92:	4655      	mov	r5, sl
    5e94:	f7ff fa26 	bl	52e4 <bloomFilterAddressCheck+0x290>
    5e98:	46d1      	mov	r9, sl
    5e9a:	f7ff fa36 	bl	530a <bloomFilterAddressCheck+0x2b6>
    5e9e:	46aa      	mov	sl, r5
    5ea0:	f7ff fa43 	bl	532a <bloomFilterAddressCheck+0x2d6>
    5ea4:	46a9      	mov	r9, r5
    5ea6:	f7ff fa50 	bl	534a <bloomFilterAddressCheck+0x2f6>
    5eaa:	46aa      	mov	sl, r5
    5eac:	f7ff fa5d 	bl	536a <bloomFilterAddressCheck+0x316>
    5eb0:	46a9      	mov	r9, r5
    5eb2:	f7ff fa6a 	bl	538a <bloomFilterAddressCheck+0x336>
    5eb6:	46aa      	mov	sl, r5
    5eb8:	f7ff fa77 	bl	53aa <bloomFilterAddressCheck+0x356>
    5ebc:	464d      	mov	r5, r9
    5ebe:	f7ff fa87 	bl	53d0 <bloomFilterAddressCheck+0x37c>
    5ec2:	4655      	mov	r5, sl
    5ec4:	f7ff fa99 	bl	53fa <bloomFilterAddressCheck+0x3a6>
    5ec8:	46d1      	mov	r9, sl
    5eca:	f7ff faa7 	bl	541c <bloomFilterAddressCheck+0x3c8>
    5ece:	46aa      	mov	sl, r5
    5ed0:	f7ff faba 	bl	5448 <bloomFilterAddressCheck+0x3f4>
    5ed4:	46a9      	mov	r9, r5
    5ed6:	f7ff fac7 	bl	5468 <bloomFilterAddressCheck+0x414>
    5eda:	46aa      	mov	sl, r5
    5edc:	f7ff fad4 	bl	5488 <bloomFilterAddressCheck+0x434>
    5ee0:	46a9      	mov	r9, r5
    5ee2:	f7ff fae1 	bl	54a8 <bloomFilterAddressCheck+0x454>
    5ee6:	46aa      	mov	sl, r5
    5ee8:	f7ff faee 	bl	54c8 <bloomFilterAddressCheck+0x474>
    5eec:	464d      	mov	r5, r9
    5eee:	f7ff fafe 	bl	54ee <bloomFilterAddressCheck+0x49a>
    5ef2:	4655      	mov	r5, sl
    5ef4:	f7ff fb10 	bl	5518 <bloomFilterAddressCheck+0x4c4>
    5ef8:	46d1      	mov	r9, sl
    5efa:	f7ff fb1e 	bl	553a <bloomFilterAddressCheck+0x4e6>
    5efe:	46aa      	mov	sl, r5
    5f00:	f7ff fb2b 	bl	555a <bloomFilterAddressCheck+0x506>
    5f04:	46a9      	mov	r9, r5
    5f06:	f7ff fb38 	bl	557a <bloomFilterAddressCheck+0x526>
    5f0a:	46aa      	mov	sl, r5
    5f0c:	f7ff fb45 	bl	559a <bloomFilterAddressCheck+0x546>
    5f10:	46a9      	mov	r9, r5
    5f12:	f7ff fb52 	bl	55ba <bloomFilterAddressCheck+0x566>
    5f16:	46aa      	mov	sl, r5
    5f18:	f7ff fb5f 	bl	55da <bloomFilterAddressCheck+0x586>
    5f1c:	464d      	mov	r5, r9
    5f1e:	f7ff fb6f 	bl	5600 <bloomFilterAddressCheck+0x5ac>
    5f22:	4655      	mov	r5, sl
    5f24:	f7ff fb81 	bl	562a <bloomFilterAddressCheck+0x5d6>
    5f28:	46ca      	mov	sl, r9
    5f2a:	f7ff fb8f 	bl	564c <bloomFilterAddressCheck+0x5f8>
    5f2e:	46a9      	mov	r9, r5
    5f30:	f7ff fb9c 	bl	566c <bloomFilterAddressCheck+0x618>
    5f34:	46aa      	mov	sl, r5
    5f36:	f7ff fba9 	bl	568c <bloomFilterAddressCheck+0x638>
    5f3a:	46a9      	mov	r9, r5
    5f3c:	f7ff fbb6 	bl	56ac <bloomFilterAddressCheck+0x658>
    5f40:	46aa      	mov	sl, r5
    5f42:	f7ff fbc3 	bl	56cc <bloomFilterAddressCheck+0x678>
    5f46:	46a9      	mov	r9, r5
    5f48:	f7ff fbd0 	bl	56ec <bloomFilterAddressCheck+0x698>
    5f4c:	1c2a      	adds	r2, r5, #0
    5f4e:	f7ff fbdf 	bl	5710 <bloomFilterAddressCheck+0x6bc>
    5f52:	4644      	mov	r4, r8
    5f54:	e6d3      	b.n	5cfe <bloomFilterAddressCheck+0xcaa>
    5f56:	466b      	mov	r3, sp
    5f58:	8a98      	ldrh	r0, [r3, #20]
    5f5a:	e6c6      	b.n	5cea <bloomFilterAddressCheck+0xc96>
    5f5c:	1c0c      	adds	r4, r1, #0
    5f5e:	e6b3      	b.n	5cc8 <bloomFilterAddressCheck+0xc74>
    5f60:	ffff8005 	.word	0xffff8005
    5f64:	000092e5 	.word	0x000092e5
    5f68:	00001021 	.word	0x00001021
    5f6c:	1c19      	adds	r1, r3, #0
    5f6e:	b28a      	uxth	r2, r1
    5f70:	4b52      	ldr	r3, [pc, #328]	; (60bc <bloomFilterAddressCheck+0x1068>)
    5f72:	0052      	lsls	r2, r2, #1
    5f74:	4053      	eors	r3, r2
    5f76:	b29b      	uxth	r3, r3
    5f78:	004a      	lsls	r2, r1, #1
    5f7a:	0409      	lsls	r1, r1, #16
    5f7c:	d400      	bmi.n	5f80 <bloomFilterAddressCheck+0xf2c>
    5f7e:	e5bb      	b.n	5af8 <bloomFilterAddressCheck+0xaa4>
    5f80:	1c1a      	adds	r2, r3, #0
    5f82:	b291      	uxth	r1, r2
    5f84:	4b4d      	ldr	r3, [pc, #308]	; (60bc <bloomFilterAddressCheck+0x1068>)
    5f86:	0049      	lsls	r1, r1, #1
    5f88:	404b      	eors	r3, r1
    5f8a:	b29b      	uxth	r3, r3
    5f8c:	0055      	lsls	r5, r2, #1
    5f8e:	0412      	lsls	r2, r2, #16
    5f90:	d400      	bmi.n	5f94 <bloomFilterAddressCheck+0xf40>
    5f92:	e5ba      	b.n	5b0a <bloomFilterAddressCheck+0xab6>
    5f94:	1c1d      	adds	r5, r3, #0
    5f96:	e5b8      	b.n	5b0a <bloomFilterAddressCheck+0xab6>
    5f98:	1c1a      	adds	r2, r3, #0
    5f9a:	e59b      	b.n	5ad4 <bloomFilterAddressCheck+0xa80>
    5f9c:	1c19      	adds	r1, r3, #0
    5f9e:	e590      	b.n	5ac2 <bloomFilterAddressCheck+0xa6e>
    5fa0:	1c1a      	adds	r2, r3, #0
    5fa2:	e585      	b.n	5ab0 <bloomFilterAddressCheck+0xa5c>
    5fa4:	1c11      	adds	r1, r2, #0
    5fa6:	e57a      	b.n	5a9e <bloomFilterAddressCheck+0xa4a>
    5fa8:	1c0b      	adds	r3, r1, #0
    5faa:	e56f      	b.n	5a8c <bloomFilterAddressCheck+0xa38>
    5fac:	1c1a      	adds	r2, r3, #0
    5fae:	e562      	b.n	5a76 <bloomFilterAddressCheck+0xa22>
    5fb0:	1c19      	adds	r1, r3, #0
    5fb2:	e557      	b.n	5a64 <bloomFilterAddressCheck+0xa10>
    5fb4:	1c1a      	adds	r2, r3, #0
    5fb6:	e54c      	b.n	5a52 <bloomFilterAddressCheck+0x9fe>
    5fb8:	1c19      	adds	r1, r3, #0
    5fba:	e541      	b.n	5a40 <bloomFilterAddressCheck+0x9ec>
    5fbc:	1c1a      	adds	r2, r3, #0
    5fbe:	e536      	b.n	5a2e <bloomFilterAddressCheck+0x9da>
    5fc0:	1c19      	adds	r1, r3, #0
    5fc2:	e52b      	b.n	5a1c <bloomFilterAddressCheck+0x9c8>
    5fc4:	1c0a      	adds	r2, r1, #0
    5fc6:	e520      	b.n	5a0a <bloomFilterAddressCheck+0x9b6>
    5fc8:	1c13      	adds	r3, r2, #0
    5fca:	e515      	b.n	59f8 <bloomFilterAddressCheck+0x9a4>
    5fcc:	1c02      	adds	r2, r0, #0
    5fce:	e509      	b.n	59e4 <bloomFilterAddressCheck+0x990>
    5fd0:	1c03      	adds	r3, r0, #0
    5fd2:	e4fd      	b.n	59d0 <bloomFilterAddressCheck+0x97c>
    5fd4:	1c02      	adds	r2, r0, #0
    5fd6:	e4f1      	b.n	59bc <bloomFilterAddressCheck+0x968>
    5fd8:	1c03      	adds	r3, r0, #0
    5fda:	e4e5      	b.n	59a8 <bloomFilterAddressCheck+0x954>
    5fdc:	1c02      	adds	r2, r0, #0
    5fde:	e4d9      	b.n	5994 <bloomFilterAddressCheck+0x940>
    5fe0:	1c03      	adds	r3, r0, #0
    5fe2:	e4cd      	b.n	5980 <bloomFilterAddressCheck+0x92c>
    5fe4:	1c02      	adds	r2, r0, #0
    5fe6:	e4c1      	b.n	596c <bloomFilterAddressCheck+0x918>
    5fe8:	1c23      	adds	r3, r4, #0
    5fea:	e4b5      	b.n	5958 <bloomFilterAddressCheck+0x904>
    5fec:	1c22      	adds	r2, r4, #0
    5fee:	e4a8      	b.n	5942 <bloomFilterAddressCheck+0x8ee>
    5ff0:	1c23      	adds	r3, r4, #0
    5ff2:	e49c      	b.n	592e <bloomFilterAddressCheck+0x8da>
    5ff4:	1c22      	adds	r2, r4, #0
    5ff6:	e490      	b.n	591a <bloomFilterAddressCheck+0x8c6>
    5ff8:	1c23      	adds	r3, r4, #0
    5ffa:	e484      	b.n	5906 <bloomFilterAddressCheck+0x8b2>
    5ffc:	1c22      	adds	r2, r4, #0
    5ffe:	e478      	b.n	58f2 <bloomFilterAddressCheck+0x89e>
    6000:	1c23      	adds	r3, r4, #0
    6002:	e46c      	b.n	58de <bloomFilterAddressCheck+0x88a>
    6004:	1c22      	adds	r2, r4, #0
    6006:	e460      	b.n	58ca <bloomFilterAddressCheck+0x876>
    6008:	1c2b      	adds	r3, r5, #0
    600a:	e454      	b.n	58b6 <bloomFilterAddressCheck+0x862>
    600c:	1c2a      	adds	r2, r5, #0
    600e:	e447      	b.n	58a0 <bloomFilterAddressCheck+0x84c>
    6010:	1c2b      	adds	r3, r5, #0
    6012:	e43b      	b.n	588c <bloomFilterAddressCheck+0x838>
    6014:	1c19      	adds	r1, r3, #0
    6016:	b28a      	uxth	r2, r1
    6018:	4b28      	ldr	r3, [pc, #160]	; (60bc <bloomFilterAddressCheck+0x1068>)
    601a:	0052      	lsls	r2, r2, #1
    601c:	4053      	eors	r3, r2
    601e:	b29b      	uxth	r3, r3
    6020:	0048      	lsls	r0, r1, #1
    6022:	040a      	lsls	r2, r1, #16
    6024:	d400      	bmi.n	6028 <bloomFilterAddressCheck+0xfd4>
    6026:	e5fe      	b.n	5c26 <bloomFilterAddressCheck+0xbd2>
    6028:	1c18      	adds	r0, r3, #0
    602a:	b282      	uxth	r2, r0
    602c:	4b23      	ldr	r3, [pc, #140]	; (60bc <bloomFilterAddressCheck+0x1068>)
    602e:	0052      	lsls	r2, r2, #1
    6030:	4053      	eors	r3, r2
    6032:	b29b      	uxth	r3, r3
    6034:	0042      	lsls	r2, r0, #1
    6036:	0401      	lsls	r1, r0, #16
    6038:	d400      	bmi.n	603c <bloomFilterAddressCheck+0xfe8>
    603a:	e5fd      	b.n	5c38 <bloomFilterAddressCheck+0xbe4>
    603c:	1c1a      	adds	r2, r3, #0
    603e:	e5fb      	b.n	5c38 <bloomFilterAddressCheck+0xbe4>
    6040:	1c1a      	adds	r2, r3, #0
    6042:	e5de      	b.n	5c02 <bloomFilterAddressCheck+0xbae>
    6044:	1c19      	adds	r1, r3, #0
    6046:	e5d3      	b.n	5bf0 <bloomFilterAddressCheck+0xb9c>
    6048:	1c1a      	adds	r2, r3, #0
    604a:	e5c8      	b.n	5bde <bloomFilterAddressCheck+0xb8a>
    604c:	1c11      	adds	r1, r2, #0
    604e:	e5bd      	b.n	5bcc <bloomFilterAddressCheck+0xb78>
    6050:	1c13      	adds	r3, r2, #0
    6052:	e5b2      	b.n	5bba <bloomFilterAddressCheck+0xb66>
    6054:	1c1d      	adds	r5, r3, #0
    6056:	e5a2      	b.n	5b9e <bloomFilterAddressCheck+0xb4a>
    6058:	1c1a      	adds	r2, r3, #0
    605a:	e597      	b.n	5b8c <bloomFilterAddressCheck+0xb38>
    605c:	1c19      	adds	r1, r3, #0
    605e:	e58c      	b.n	5b7a <bloomFilterAddressCheck+0xb26>
    6060:	1c1a      	adds	r2, r3, #0
    6062:	e581      	b.n	5b68 <bloomFilterAddressCheck+0xb14>
    6064:	1c19      	adds	r1, r3, #0
    6066:	e576      	b.n	5b56 <bloomFilterAddressCheck+0xb02>
    6068:	1c1a      	adds	r2, r3, #0
    606a:	e56b      	b.n	5b44 <bloomFilterAddressCheck+0xaf0>
    606c:	1c11      	adds	r1, r2, #0
    606e:	e560      	b.n	5b32 <bloomFilterAddressCheck+0xade>
    6070:	1c13      	adds	r3, r2, #0
    6072:	e555      	b.n	5b20 <bloomFilterAddressCheck+0xacc>
    6074:	1c0a      	adds	r2, r1, #0
    6076:	e61d      	b.n	5cb4 <bloomFilterAddressCheck+0xc60>
    6078:	1c0b      	adds	r3, r1, #0
    607a:	e611      	b.n	5ca0 <bloomFilterAddressCheck+0xc4c>
    607c:	1c0a      	adds	r2, r1, #0
    607e:	e605      	b.n	5c8c <bloomFilterAddressCheck+0xc38>
    6080:	1c0b      	adds	r3, r1, #0
    6082:	e5f9      	b.n	5c78 <bloomFilterAddressCheck+0xc24>
    6084:	1c0a      	adds	r2, r1, #0
    6086:	e5ed      	b.n	5c64 <bloomFilterAddressCheck+0xc10>
    6088:	1c03      	adds	r3, r0, #0
    608a:	e5e1      	b.n	5c50 <bloomFilterAddressCheck+0xbfc>
    608c:	1c2a      	adds	r2, r5, #0
    608e:	f7ff fbf3 	bl	5878 <bloomFilterAddressCheck+0x824>
    6092:	1c2b      	adds	r3, r5, #0
    6094:	f7ff fbe5 	bl	5862 <bloomFilterAddressCheck+0x80e>
    6098:	1c2a      	adds	r2, r5, #0
    609a:	f7ff fbd7 	bl	584c <bloomFilterAddressCheck+0x7f8>
    609e:	1c2b      	adds	r3, r5, #0
    60a0:	f7ff fbc9 	bl	5836 <bloomFilterAddressCheck+0x7e2>
    60a4:	1c2a      	adds	r2, r5, #0
    60a6:	f7ff fbbb 	bl	5820 <bloomFilterAddressCheck+0x7cc>
    60aa:	1c13      	adds	r3, r2, #0
    60ac:	f7ff fbac 	bl	5808 <bloomFilterAddressCheck+0x7b4>
    60b0:	464a      	mov	r2, r9
    60b2:	f7ff fb8e 	bl	57d2 <bloomFilterAddressCheck+0x77e>
    60b6:	1c2a      	adds	r2, r5, #0
    60b8:	f7ff fb4a 	bl	5750 <bloomFilterAddressCheck+0x6fc>
    60bc:	ffff8005 	.word	0xffff8005

000060c0 <handleCommissiongMessage>:
    60c0:	b510      	push	{r4, lr}
    60c2:	780b      	ldrb	r3, [r1, #0]
    60c4:	2b21      	cmp	r3, #33	; 0x21
    60c6:	d105      	bne.n	60d4 <handleCommissiongMessage+0x14>
    60c8:	88c3      	ldrh	r3, [r0, #6]
    60ca:	2b00      	cmp	r3, #0
    60cc:	d102      	bne.n	60d4 <handleCommissiongMessage+0x14>
    60ce:	784b      	ldrb	r3, [r1, #1]
    60d0:	2b08      	cmp	r3, #8
    60d2:	d000      	beq.n	60d6 <handleCommissiongMessage+0x16>
    60d4:	bd10      	pop	{r4, pc}
    60d6:	3102      	adds	r1, #2
    60d8:	2208      	movs	r2, #8
    60da:	4b02      	ldr	r3, [pc, #8]	; (60e4 <handleCommissiongMessage+0x24>)
    60dc:	4802      	ldr	r0, [pc, #8]	; (60e8 <handleCommissiongMessage+0x28>)
    60de:	4798      	blx	r3
    60e0:	e7f8      	b.n	60d4 <handleCommissiongMessage+0x14>
    60e2:	46c0      	nop			; (mov r8, r8)
    60e4:	000093ab 	.word	0x000093ab
    60e8:	20001aa0 	.word	0x20001aa0

000060ec <MiApp_SubscribeDataIndicationCallback>:
    60ec:	2800      	cmp	r0, #0
    60ee:	d003      	beq.n	60f8 <MiApp_SubscribeDataIndicationCallback+0xc>
    60f0:	4b02      	ldr	r3, [pc, #8]	; (60fc <MiApp_SubscribeDataIndicationCallback+0x10>)
    60f2:	6018      	str	r0, [r3, #0]
    60f4:	2001      	movs	r0, #1
    60f6:	4770      	bx	lr
    60f8:	2000      	movs	r0, #0
    60fa:	e7fc      	b.n	60f6 <MiApp_SubscribeDataIndicationCallback+0xa>
    60fc:	2000039c 	.word	0x2000039c

00006100 <prepareGenericHeader>:
    6100:	b510      	push	{r4, lr}
    6102:	2403      	movs	r4, #3
    6104:	7018      	strb	r0, [r3, #0]
    6106:	7858      	ldrb	r0, [r3, #1]
    6108:	809a      	strh	r2, [r3, #4]
    610a:	43a0      	bics	r0, r4
    610c:	2401      	movs	r4, #1
    610e:	4304      	orrs	r4, r0
    6110:	20f7      	movs	r0, #247	; 0xf7
    6112:	4020      	ands	r0, r4
    6114:	2404      	movs	r4, #4
    6116:	4320      	orrs	r0, r4
    6118:	2447      	movs	r4, #71	; 0x47
    611a:	4020      	ands	r0, r4
    611c:	7058      	strb	r0, [r3, #1]
    611e:	4802      	ldr	r0, [pc, #8]	; (6128 <prepareGenericHeader+0x28>)
    6120:	80d9      	strh	r1, [r3, #6]
    6122:	8800      	ldrh	r0, [r0, #0]
    6124:	8058      	strh	r0, [r3, #2]
    6126:	bd10      	pop	{r4, pc}
    6128:	20001a5c 	.word	0x20001a5c

0000612c <generalFrameConstruct>:
    612c:	b5f8      	push	{r3, r4, r5, r6, r7, lr}
    612e:	000c      	movs	r4, r1
    6130:	7802      	ldrb	r2, [r0, #0]
    6132:	0003      	movs	r3, r0
    6134:	700a      	strb	r2, [r1, #0]
    6136:	7842      	ldrb	r2, [r0, #1]
    6138:	704a      	strb	r2, [r1, #1]
    613a:	491d      	ldr	r1, [pc, #116]	; (61b0 <generalFrameConstruct+0x84>)
    613c:	780a      	ldrb	r2, [r1, #0]
    613e:	3201      	adds	r2, #1
    6140:	b2d2      	uxtb	r2, r2
    6142:	70a2      	strb	r2, [r4, #2]
    6144:	700a      	strb	r2, [r1, #0]
    6146:	7842      	ldrb	r2, [r0, #1]
    6148:	0691      	lsls	r1, r2, #26
    614a:	d42b      	bmi.n	61a4 <generalFrameConstruct+0x78>
    614c:	8842      	ldrh	r2, [r0, #2]
    614e:	2516      	movs	r5, #22
    6150:	70e2      	strb	r2, [r4, #3]
    6152:	8842      	ldrh	r2, [r0, #2]
    6154:	260e      	movs	r6, #14
    6156:	0a12      	lsrs	r2, r2, #8
    6158:	7122      	strb	r2, [r4, #4]
    615a:	8882      	ldrh	r2, [r0, #4]
    615c:	210a      	movs	r1, #10
    615e:	7162      	strb	r2, [r4, #5]
    6160:	8882      	ldrh	r2, [r0, #4]
    6162:	2709      	movs	r7, #9
    6164:	0a12      	lsrs	r2, r2, #8
    6166:	71a2      	strb	r2, [r4, #6]
    6168:	88c2      	ldrh	r2, [r0, #6]
    616a:	71e2      	strb	r2, [r4, #7]
    616c:	88c2      	ldrh	r2, [r0, #6]
    616e:	0a12      	lsrs	r2, r2, #8
    6170:	7222      	strb	r2, [r4, #8]
    6172:	7842      	ldrb	r2, [r0, #1]
    6174:	2009      	movs	r0, #9
    6176:	0752      	lsls	r2, r2, #29
    6178:	d513      	bpl.n	61a2 <generalFrameConstruct+0x76>
    617a:	4a0e      	ldr	r2, [pc, #56]	; (61b4 <generalFrameConstruct+0x88>)
    617c:	6810      	ldr	r0, [r2, #0]
    617e:	2220      	movs	r2, #32
    6180:	5c82      	ldrb	r2, [r0, r2]
    6182:	480d      	ldr	r0, [pc, #52]	; (61b8 <generalFrameConstruct+0x8c>)
    6184:	741a      	strb	r2, [r3, #16]
    6186:	6800      	ldr	r0, [r0, #0]
    6188:	3314      	adds	r3, #20
    618a:	6018      	str	r0, [r3, #0]
    618c:	55e2      	strb	r2, [r4, r7]
    618e:	1860      	adds	r0, r4, r1
    6190:	2204      	movs	r2, #4
    6192:	0019      	movs	r1, r3
    6194:	4f09      	ldr	r7, [pc, #36]	; (61bc <generalFrameConstruct+0x90>)
    6196:	47b8      	blx	r7
    6198:	19a0      	adds	r0, r4, r6
    619a:	2208      	movs	r2, #8
    619c:	4908      	ldr	r1, [pc, #32]	; (61c0 <generalFrameConstruct+0x94>)
    619e:	47b8      	blx	r7
    61a0:	0028      	movs	r0, r5
    61a2:	bdf8      	pop	{r3, r4, r5, r6, r7, pc}
    61a4:	2510      	movs	r5, #16
    61a6:	2608      	movs	r6, #8
    61a8:	2104      	movs	r1, #4
    61aa:	2703      	movs	r7, #3
    61ac:	2003      	movs	r0, #3
    61ae:	e7e2      	b.n	6176 <generalFrameConstruct+0x4a>
    61b0:	20001a44 	.word	0x20001a44
    61b4:	20001a2c 	.word	0x20001a2c
    61b8:	20001abc 	.word	0x20001abc
    61bc:	000093ab 	.word	0x000093ab
    61c0:	20000070 	.word	0x20000070

000061c4 <frameTransmit>:
    61c4:	b5f0      	push	{r4, r5, r6, r7, lr}
    61c6:	4657      	mov	r7, sl
    61c8:	464e      	mov	r6, r9
    61ca:	46de      	mov	lr, fp
    61cc:	4645      	mov	r5, r8
    61ce:	b5e0      	push	{r5, r6, r7, lr}
    61d0:	b085      	sub	sp, #20
    61d2:	4699      	mov	r9, r3
    61d4:	ab0e      	add	r3, sp, #56	; 0x38
    61d6:	781e      	ldrb	r6, [r3, #0]
    61d8:	ab10      	add	r3, sp, #64	; 0x40
    61da:	781b      	ldrb	r3, [r3, #0]
    61dc:	0007      	movs	r7, r0
    61de:	469a      	mov	sl, r3
    61e0:	2028      	movs	r0, #40	; 0x28
    61e2:	4b45      	ldr	r3, [pc, #276]	; (62f8 <frameTransmit+0x134>)
    61e4:	4688      	mov	r8, r1
    61e6:	9203      	str	r2, [sp, #12]
    61e8:	4798      	blx	r3
    61ea:	1e04      	subs	r4, r0, #0
    61ec:	d100      	bne.n	61f0 <frameTransmit+0x2c>
    61ee:	e081      	b.n	62f4 <frameTransmit+0x130>
    61f0:	2300      	movs	r3, #0
    61f2:	7603      	strb	r3, [r0, #24]
    61f4:	787b      	ldrb	r3, [r7, #1]
    61f6:	075b      	lsls	r3, r3, #29
    61f8:	d45b      	bmi.n	62b2 <frameTransmit+0xee>
    61fa:	9b0f      	ldr	r3, [sp, #60]	; 0x3c
    61fc:	781a      	ldrb	r2, [r3, #0]
    61fe:	785b      	ldrb	r3, [r3, #1]
    6200:	2e02      	cmp	r6, #2
    6202:	d06b      	beq.n	62dc <frameTransmit+0x118>
    6204:	2101      	movs	r1, #1
    6206:	2200      	movs	r2, #0
    6208:	2020      	movs	r0, #32
    620a:	7e23      	ldrb	r3, [r4, #24]
    620c:	0149      	lsls	r1, r1, #5
    620e:	4383      	bics	r3, r0
    6210:	430b      	orrs	r3, r1
    6212:	2104      	movs	r1, #4
    6214:	0092      	lsls	r2, r2, #2
    6216:	438b      	bics	r3, r1
    6218:	4313      	orrs	r3, r2
    621a:	2208      	movs	r2, #8
    621c:	4393      	bics	r3, r2
    621e:	7623      	strb	r3, [r4, #24]
    6220:	4b36      	ldr	r3, [pc, #216]	; (62fc <frameTransmit+0x138>)
    6222:	881a      	ldrh	r2, [r3, #0]
    6224:	4b36      	ldr	r3, [pc, #216]	; (6300 <frameTransmit+0x13c>)
    6226:	429a      	cmp	r2, r3
    6228:	d062      	beq.n	62f0 <frameTransmit+0x12c>
    622a:	787a      	ldrb	r2, [r7, #1]
    622c:	2301      	movs	r3, #1
    622e:	4211      	tst	r1, r2
    6230:	d136      	bne.n	62a0 <frameTransmit+0xdc>
    6232:	2221      	movs	r2, #33	; 0x21
    6234:	54a3      	strb	r3, [r4, r2]
    6236:	1eb3      	subs	r3, r6, #2
    6238:	425a      	negs	r2, r3
    623a:	4153      	adcs	r3, r2
    623c:	2220      	movs	r2, #32
    623e:	2101      	movs	r1, #1
    6240:	54a3      	strb	r3, [r4, r2]
    6242:	7e23      	ldrb	r3, [r4, #24]
    6244:	089a      	lsrs	r2, r3, #2
    6246:	4051      	eors	r1, r2
    6248:	2201      	movs	r2, #1
    624a:	400a      	ands	r2, r1
    624c:	2140      	movs	r1, #64	; 0x40
    624e:	0192      	lsls	r2, r2, #6
    6250:	438b      	bics	r3, r1
    6252:	4313      	orrs	r3, r2
    6254:	2280      	movs	r2, #128	; 0x80
    6256:	4252      	negs	r2, r2
    6258:	4313      	orrs	r3, r2
    625a:	7623      	strb	r3, [r4, #24]
    625c:	887b      	ldrh	r3, [r7, #2]
    625e:	0027      	movs	r7, r4
    6260:	8463      	strh	r3, [r4, #34]	; 0x22
    6262:	464b      	mov	r3, r9
    6264:	3708      	adds	r7, #8
    6266:	6163      	str	r3, [r4, #20]
    6268:	0032      	movs	r2, r6
    626a:	990f      	ldr	r1, [sp, #60]	; 0x3c
    626c:	4b25      	ldr	r3, [pc, #148]	; (6304 <frameTransmit+0x140>)
    626e:	0038      	movs	r0, r7
    6270:	4798      	blx	r3
    6272:	9b11      	ldr	r3, [sp, #68]	; 0x44
    6274:	4652      	mov	r2, sl
    6276:	6123      	str	r3, [r4, #16]
    6278:	2325      	movs	r3, #37	; 0x25
    627a:	61e7      	str	r7, [r4, #28]
    627c:	54e2      	strb	r2, [r4, r3]
    627e:	9b03      	ldr	r3, [sp, #12]
    6280:	4821      	ldr	r0, [pc, #132]	; (6308 <frameTransmit+0x144>)
    6282:	4443      	add	r3, r8
    6284:	001d      	movs	r5, r3
    6286:	2324      	movs	r3, #36	; 0x24
    6288:	0021      	movs	r1, r4
    628a:	54e5      	strb	r5, [r4, r3]
    628c:	4b1f      	ldr	r3, [pc, #124]	; (630c <frameTransmit+0x148>)
    628e:	4798      	blx	r3
    6290:	2001      	movs	r0, #1
    6292:	b005      	add	sp, #20
    6294:	bc3c      	pop	{r2, r3, r4, r5}
    6296:	4690      	mov	r8, r2
    6298:	4699      	mov	r9, r3
    629a:	46a2      	mov	sl, r4
    629c:	46ab      	mov	fp, r5
    629e:	bdf0      	pop	{r4, r5, r6, r7, pc}
    62a0:	2100      	movs	r1, #0
    62a2:	4a1b      	ldr	r2, [pc, #108]	; (6310 <frameTransmit+0x14c>)
    62a4:	7812      	ldrb	r2, [r2, #0]
    62a6:	3a06      	subs	r2, #6
    62a8:	b2d2      	uxtb	r2, r2
    62aa:	4293      	cmp	r3, r2
    62ac:	4149      	adcs	r1, r1
    62ae:	b2cb      	uxtb	r3, r1
    62b0:	e7bf      	b.n	6232 <frameTransmit+0x6e>
    62b2:	4b18      	ldr	r3, [pc, #96]	; (6314 <frameTransmit+0x150>)
    62b4:	0030      	movs	r0, r6
    62b6:	4798      	blx	r3
    62b8:	464b      	mov	r3, r9
    62ba:	9000      	str	r0, [sp, #0]
    62bc:	9a03      	ldr	r2, [sp, #12]
    62be:	4641      	mov	r1, r8
    62c0:	0038      	movs	r0, r7
    62c2:	4d15      	ldr	r5, [pc, #84]	; (6318 <frameTransmit+0x154>)
    62c4:	47a8      	blx	r5
    62c6:	28ff      	cmp	r0, #255	; 0xff
    62c8:	d014      	beq.n	62f4 <frameTransmit+0x130>
    62ca:	9b03      	ldr	r3, [sp, #12]
    62cc:	181d      	adds	r5, r3, r0
    62ce:	b2eb      	uxtb	r3, r5
    62d0:	9303      	str	r3, [sp, #12]
    62d2:	9b0f      	ldr	r3, [sp, #60]	; 0x3c
    62d4:	781a      	ldrb	r2, [r3, #0]
    62d6:	785b      	ldrb	r3, [r3, #1]
    62d8:	2e02      	cmp	r6, #2
    62da:	d193      	bne.n	6204 <frameTransmit+0x40>
    62dc:	021b      	lsls	r3, r3, #8
    62de:	189b      	adds	r3, r3, r2
    62e0:	4a07      	ldr	r2, [pc, #28]	; (6300 <frameTransmit+0x13c>)
    62e2:	b29b      	uxth	r3, r3
    62e4:	4293      	cmp	r3, r2
    62e6:	d000      	beq.n	62ea <frameTransmit+0x126>
    62e8:	e78c      	b.n	6204 <frameTransmit+0x40>
    62ea:	2100      	movs	r1, #0
    62ec:	2201      	movs	r2, #1
    62ee:	e78b      	b.n	6208 <frameTransmit+0x44>
    62f0:	2300      	movs	r3, #0
    62f2:	e79e      	b.n	6232 <frameTransmit+0x6e>
    62f4:	2000      	movs	r0, #0
    62f6:	e7cc      	b.n	6292 <frameTransmit+0xce>
    62f8:	00002fe1 	.word	0x00002fe1
    62fc:	20001a70 	.word	0x20001a70
    6300:	0000ffff 	.word	0x0000ffff
    6304:	000093ab 	.word	0x000093ab
    6308:	20001a64 	.word	0x20001a64
    630c:	0000314d 	.word	0x0000314d
    6310:	20000384 	.word	0x20000384
    6314:	00008e21 	.word	0x00008e21
    6318:	00008e45 	.word	0x00008e45

0000631c <sendDataFrame>:
    631c:	b5f0      	push	{r4, r5, r6, r7, lr}
    631e:	464e      	mov	r6, r9
    6320:	4657      	mov	r7, sl
    6322:	4645      	mov	r5, r8
    6324:	46de      	mov	lr, fp
    6326:	b5e0      	push	{r5, r6, r7, lr}
    6328:	b091      	sub	sp, #68	; 0x44
    632a:	ab04      	add	r3, sp, #16
    632c:	469c      	mov	ip, r3
    632e:	270e      	movs	r7, #14
    6330:	4bc3      	ldr	r3, [pc, #780]	; (6640 <sendDataFrame+0x324>)
    6332:	4467      	add	r7, ip
    6334:	4699      	mov	r9, r3
    6336:	881b      	ldrh	r3, [r3, #0]
    6338:	b28d      	uxth	r5, r1
    633a:	0006      	movs	r6, r0
    633c:	9202      	str	r2, [sp, #8]
    633e:	9703      	str	r7, [sp, #12]
    6340:	8039      	strh	r1, [r7, #0]
    6342:	42ab      	cmp	r3, r5
    6344:	d100      	bne.n	6348 <sendDataFrame+0x2c>
    6346:	e119      	b.n	657c <sendDataFrame+0x260>
    6348:	2800      	cmp	r0, #0
    634a:	d100      	bne.n	634e <sendDataFrame+0x32>
    634c:	e114      	b.n	6578 <sendDataFrame+0x25c>
    634e:	2078      	movs	r0, #120	; 0x78
    6350:	4bbc      	ldr	r3, [pc, #752]	; (6644 <sendDataFrame+0x328>)
    6352:	4798      	blx	r3
    6354:	4680      	mov	r8, r0
    6356:	2800      	cmp	r0, #0
    6358:	d100      	bne.n	635c <sendDataFrame+0x40>
    635a:	e108      	b.n	656e <sendDataFrame+0x252>
    635c:	2108      	movs	r1, #8
    635e:	8bb2      	ldrh	r2, [r6, #28]
    6360:	ac08      	add	r4, sp, #32
    6362:	4694      	mov	ip, r2
    6364:	7862      	ldrb	r2, [r4, #1]
    6366:	8bf3      	ldrh	r3, [r6, #30]
    6368:	438a      	bics	r2, r1
    636a:	2104      	movs	r1, #4
    636c:	430a      	orrs	r2, r1
    636e:	49b6      	ldr	r1, [pc, #728]	; (6648 <sendDataFrame+0x32c>)
    6370:	80e3      	strh	r3, [r4, #6]
    6372:	8809      	ldrh	r1, [r1, #0]
    6374:	7e73      	ldrb	r3, [r6, #25]
    6376:	8061      	strh	r1, [r4, #2]
    6378:	4661      	mov	r1, ip
    637a:	469c      	mov	ip, r3
    637c:	2303      	movs	r3, #3
    637e:	469a      	mov	sl, r3
    6380:	80a1      	strh	r1, [r4, #4]
    6382:	4663      	mov	r3, ip
    6384:	4651      	mov	r1, sl
    6386:	2720      	movs	r7, #32
    6388:	400b      	ands	r3, r1
    638a:	469b      	mov	fp, r3
    638c:	237f      	movs	r3, #127	; 0x7f
    638e:	b2d2      	uxtb	r2, r2
    6390:	43ba      	bics	r2, r7
    6392:	4013      	ands	r3, r2
    6394:	4652      	mov	r2, sl
    6396:	438b      	bics	r3, r1
    6398:	4661      	mov	r1, ip
    639a:	320d      	adds	r2, #13
    639c:	400a      	ands	r2, r1
    639e:	4659      	mov	r1, fp
    63a0:	430b      	orrs	r3, r1
    63a2:	2110      	movs	r1, #16
    63a4:	438b      	bics	r3, r1
    63a6:	431a      	orrs	r2, r3
    63a8:	20ff      	movs	r0, #255	; 0xff
    63aa:	4643      	mov	r3, r8
    63ac:	7062      	strb	r2, [r4, #1]
    63ae:	4642      	mov	r2, r8
    63b0:	7020      	strb	r0, [r4, #0]
    63b2:	7018      	strb	r0, [r3, #0]
    63b4:	7863      	ldrb	r3, [r4, #1]
    63b6:	7053      	strb	r3, [r2, #1]
    63b8:	4ba4      	ldr	r3, [pc, #656]	; (664c <sendDataFrame+0x330>)
    63ba:	469a      	mov	sl, r3
    63bc:	4652      	mov	r2, sl
    63be:	781b      	ldrb	r3, [r3, #0]
    63c0:	3301      	adds	r3, #1
    63c2:	b2db      	uxtb	r3, r3
    63c4:	7013      	strb	r3, [r2, #0]
    63c6:	4642      	mov	r2, r8
    63c8:	7093      	strb	r3, [r2, #2]
    63ca:	7863      	ldrb	r3, [r4, #1]
    63cc:	421f      	tst	r7, r3
    63ce:	d100      	bne.n	63d2 <sendDataFrame+0xb6>
    63d0:	e08e      	b.n	64f0 <sendDataFrame+0x1d4>
    63d2:	2210      	movs	r2, #16
    63d4:	2103      	movs	r1, #3
    63d6:	0017      	movs	r7, r2
    63d8:	9206      	str	r2, [sp, #24]
    63da:	3a08      	subs	r2, #8
    63dc:	4693      	mov	fp, r2
    63de:	2003      	movs	r0, #3
    63e0:	3a04      	subs	r2, #4
    63e2:	9105      	str	r1, [sp, #20]
    63e4:	075b      	lsls	r3, r3, #29
    63e6:	d500      	bpl.n	63ea <sendDataFrame+0xce>
    63e8:	e09e      	b.n	6528 <sendDataFrame+0x20c>
    63ea:	4b99      	ldr	r3, [pc, #612]	; (6650 <sendDataFrame+0x334>)
    63ec:	9304      	str	r3, [sp, #16]
    63ee:	7cf3      	ldrb	r3, [r6, #19]
    63f0:	2b00      	cmp	r3, #0
    63f2:	d100      	bne.n	63f6 <sendDataFrame+0xda>
    63f4:	e0b6      	b.n	6564 <sendDataFrame+0x248>
    63f6:	2320      	movs	r3, #32
    63f8:	4642      	mov	r2, r8
    63fa:	5cf3      	ldrb	r3, [r6, r3]
    63fc:	7093      	strb	r3, [r2, #2]
    63fe:	4653      	mov	r3, sl
    6400:	4652      	mov	r2, sl
    6402:	781b      	ldrb	r3, [r3, #0]
    6404:	3b01      	subs	r3, #1
    6406:	7013      	strb	r3, [r2, #0]
    6408:	2338      	movs	r3, #56	; 0x38
    640a:	0031      	movs	r1, r6
    640c:	469a      	mov	sl, r3
    640e:	5cf2      	ldrb	r2, [r6, r3]
    6410:	4440      	add	r0, r8
    6412:	9b04      	ldr	r3, [sp, #16]
    6414:	3139      	adds	r1, #57	; 0x39
    6416:	4798      	blx	r3
    6418:	4653      	mov	r3, sl
    641a:	5cf3      	ldrb	r3, [r6, r3]
    641c:	469b      	mov	fp, r3
    641e:	4b8d      	ldr	r3, [pc, #564]	; (6654 <sendDataFrame+0x338>)
    6420:	429d      	cmp	r5, r3
    6422:	d100      	bne.n	6426 <sendDataFrame+0x10a>
    6424:	e0d1      	b.n	65ca <sendDataFrame+0x2ae>
    6426:	7cb3      	ldrb	r3, [r6, #18]
    6428:	2028      	movs	r0, #40	; 0x28
    642a:	469a      	mov	sl, r3
    642c:	4b85      	ldr	r3, [pc, #532]	; (6644 <sendDataFrame+0x328>)
    642e:	4798      	blx	r3
    6430:	1e05      	subs	r5, r0, #0
    6432:	d100      	bne.n	6436 <sendDataFrame+0x11a>
    6434:	e09b      	b.n	656e <sendDataFrame+0x252>
    6436:	2300      	movs	r3, #0
    6438:	7603      	strb	r3, [r0, #24]
    643a:	7863      	ldrb	r3, [r4, #1]
    643c:	075b      	lsls	r3, r3, #29
    643e:	d500      	bpl.n	6442 <sendDataFrame+0x126>
    6440:	e0ae      	b.n	65a0 <sendDataFrame+0x284>
    6442:	9b03      	ldr	r3, [sp, #12]
    6444:	785a      	ldrb	r2, [r3, #1]
    6446:	781b      	ldrb	r3, [r3, #0]
    6448:	0212      	lsls	r2, r2, #8
    644a:	189b      	adds	r3, r3, r2
    644c:	4a81      	ldr	r2, [pc, #516]	; (6654 <sendDataFrame+0x338>)
    644e:	b29b      	uxth	r3, r3
    6450:	4293      	cmp	r3, r2
    6452:	d100      	bne.n	6456 <sendDataFrame+0x13a>
    6454:	e0b4      	b.n	65c0 <sendDataFrame+0x2a4>
    6456:	2201      	movs	r2, #1
    6458:	2100      	movs	r1, #0
    645a:	2020      	movs	r0, #32
    645c:	7e2b      	ldrb	r3, [r5, #24]
    645e:	0152      	lsls	r2, r2, #5
    6460:	4383      	bics	r3, r0
    6462:	4313      	orrs	r3, r2
    6464:	2204      	movs	r2, #4
    6466:	0089      	lsls	r1, r1, #2
    6468:	4393      	bics	r3, r2
    646a:	430b      	orrs	r3, r1
    646c:	2108      	movs	r1, #8
    646e:	438b      	bics	r3, r1
    6470:	762b      	strb	r3, [r5, #24]
    6472:	464b      	mov	r3, r9
    6474:	8819      	ldrh	r1, [r3, #0]
    6476:	4b77      	ldr	r3, [pc, #476]	; (6654 <sendDataFrame+0x338>)
    6478:	4299      	cmp	r1, r3
    647a:	d100      	bne.n	647e <sendDataFrame+0x162>
    647c:	e0a3      	b.n	65c6 <sendDataFrame+0x2aa>
    647e:	7861      	ldrb	r1, [r4, #1]
    6480:	2301      	movs	r3, #1
    6482:	420a      	tst	r2, r1
    6484:	d000      	beq.n	6488 <sendDataFrame+0x16c>
    6486:	e082      	b.n	658e <sendDataFrame+0x272>
    6488:	2221      	movs	r2, #33	; 0x21
    648a:	54ab      	strb	r3, [r5, r2]
    648c:	2320      	movs	r3, #32
    648e:	2001      	movs	r0, #1
    6490:	3a20      	subs	r2, #32
    6492:	54ea      	strb	r2, [r5, r3]
    6494:	7e2b      	ldrb	r3, [r5, #24]
    6496:	0899      	lsrs	r1, r3, #2
    6498:	4041      	eors	r1, r0
    649a:	400a      	ands	r2, r1
    649c:	2140      	movs	r1, #64	; 0x40
    649e:	0192      	lsls	r2, r2, #6
    64a0:	438b      	bics	r3, r1
    64a2:	4313      	orrs	r3, r2
    64a4:	2280      	movs	r2, #128	; 0x80
    64a6:	4252      	negs	r2, r2
    64a8:	4313      	orrs	r3, r2
    64aa:	762b      	strb	r3, [r5, #24]
    64ac:	8863      	ldrh	r3, [r4, #2]
    64ae:	002c      	movs	r4, r5
    64b0:	846b      	strh	r3, [r5, #34]	; 0x22
    64b2:	4643      	mov	r3, r8
    64b4:	3408      	adds	r4, #8
    64b6:	616b      	str	r3, [r5, #20]
    64b8:	3282      	adds	r2, #130	; 0x82
    64ba:	9903      	ldr	r1, [sp, #12]
    64bc:	9b04      	ldr	r3, [sp, #16]
    64be:	0020      	movs	r0, r4
    64c0:	4798      	blx	r3
    64c2:	9b02      	ldr	r3, [sp, #8]
    64c4:	4652      	mov	r2, sl
    64c6:	612b      	str	r3, [r5, #16]
    64c8:	2325      	movs	r3, #37	; 0x25
    64ca:	61ec      	str	r4, [r5, #28]
    64cc:	54ea      	strb	r2, [r5, r3]
    64ce:	9b05      	ldr	r3, [sp, #20]
    64d0:	0029      	movs	r1, r5
    64d2:	445b      	add	r3, fp
    64d4:	0018      	movs	r0, r3
    64d6:	2324      	movs	r3, #36	; 0x24
    64d8:	54e8      	strb	r0, [r5, r3]
    64da:	485f      	ldr	r0, [pc, #380]	; (6658 <sendDataFrame+0x33c>)
    64dc:	4b5f      	ldr	r3, [pc, #380]	; (665c <sendDataFrame+0x340>)
    64de:	4798      	blx	r3
    64e0:	2001      	movs	r0, #1
    64e2:	b011      	add	sp, #68	; 0x44
    64e4:	bc3c      	pop	{r2, r3, r4, r5}
    64e6:	4690      	mov	r8, r2
    64e8:	4699      	mov	r9, r3
    64ea:	46a2      	mov	sl, r4
    64ec:	46ab      	mov	fp, r5
    64ee:	bdf0      	pop	{r4, r5, r6, r7, pc}
    64f0:	4641      	mov	r1, r8
    64f2:	8862      	ldrh	r2, [r4, #2]
    64f4:	38f6      	subs	r0, #246	; 0xf6
    64f6:	70ca      	strb	r2, [r1, #3]
    64f8:	8862      	ldrh	r2, [r4, #2]
    64fa:	0a12      	lsrs	r2, r2, #8
    64fc:	710a      	strb	r2, [r1, #4]
    64fe:	88a2      	ldrh	r2, [r4, #4]
    6500:	714a      	strb	r2, [r1, #5]
    6502:	88a2      	ldrh	r2, [r4, #4]
    6504:	0a12      	lsrs	r2, r2, #8
    6506:	718a      	strb	r2, [r1, #6]
    6508:	88e2      	ldrh	r2, [r4, #6]
    650a:	71ca      	strb	r2, [r1, #7]
    650c:	88e2      	ldrh	r2, [r4, #6]
    650e:	0a12      	lsrs	r2, r2, #8
    6510:	720a      	strb	r2, [r1, #8]
    6512:	2216      	movs	r2, #22
    6514:	2109      	movs	r1, #9
    6516:	0017      	movs	r7, r2
    6518:	9206      	str	r2, [sp, #24]
    651a:	3a08      	subs	r2, #8
    651c:	4693      	mov	fp, r2
    651e:	9105      	str	r1, [sp, #20]
    6520:	3a04      	subs	r2, #4
    6522:	075b      	lsls	r3, r3, #29
    6524:	d400      	bmi.n	6528 <sendDataFrame+0x20c>
    6526:	e760      	b.n	63ea <sendDataFrame+0xce>
    6528:	4b4d      	ldr	r3, [pc, #308]	; (6660 <sendDataFrame+0x344>)
    652a:	4442      	add	r2, r8
    652c:	6819      	ldr	r1, [r3, #0]
    652e:	2320      	movs	r3, #32
    6530:	5ccb      	ldrb	r3, [r1, r3]
    6532:	494c      	ldr	r1, [pc, #304]	; (6664 <sendDataFrame+0x348>)
    6534:	7423      	strb	r3, [r4, #16]
    6536:	6809      	ldr	r1, [r1, #0]
    6538:	6161      	str	r1, [r4, #20]
    653a:	4641      	mov	r1, r8
    653c:	540b      	strb	r3, [r1, r0]
    653e:	4b44      	ldr	r3, [pc, #272]	; (6650 <sendDataFrame+0x334>)
    6540:	0010      	movs	r0, r2
    6542:	a90d      	add	r1, sp, #52	; 0x34
    6544:	2204      	movs	r2, #4
    6546:	9304      	str	r3, [sp, #16]
    6548:	4798      	blx	r3
    654a:	4658      	mov	r0, fp
    654c:	9b04      	ldr	r3, [sp, #16]
    654e:	4440      	add	r0, r8
    6550:	2208      	movs	r2, #8
    6552:	4945      	ldr	r1, [pc, #276]	; (6668 <sendDataFrame+0x34c>)
    6554:	4798      	blx	r3
    6556:	9b06      	ldr	r3, [sp, #24]
    6558:	0038      	movs	r0, r7
    655a:	9305      	str	r3, [sp, #20]
    655c:	7cf3      	ldrb	r3, [r6, #19]
    655e:	2b00      	cmp	r3, #0
    6560:	d000      	beq.n	6564 <sendDataFrame+0x248>
    6562:	e748      	b.n	63f6 <sendDataFrame+0xda>
    6564:	4643      	mov	r3, r8
    6566:	789a      	ldrb	r2, [r3, #2]
    6568:	2320      	movs	r3, #32
    656a:	54f2      	strb	r2, [r6, r3]
    656c:	e74c      	b.n	6408 <sendDataFrame+0xec>
    656e:	7cb0      	ldrb	r0, [r6, #18]
    6570:	0032      	movs	r2, r6
    6572:	2101      	movs	r1, #1
    6574:	9b02      	ldr	r3, [sp, #8]
    6576:	4798      	blx	r3
    6578:	2000      	movs	r0, #0
    657a:	e7b2      	b.n	64e2 <sendDataFrame+0x1c6>
    657c:	9b02      	ldr	r3, [sp, #8]
    657e:	2b00      	cmp	r3, #0
    6580:	d0fa      	beq.n	6578 <sendDataFrame+0x25c>
    6582:	7c80      	ldrb	r0, [r0, #18]
    6584:	0032      	movs	r2, r6
    6586:	2101      	movs	r1, #1
    6588:	4798      	blx	r3
    658a:	2000      	movs	r0, #0
    658c:	e7a9      	b.n	64e2 <sendDataFrame+0x1c6>
    658e:	2100      	movs	r1, #0
    6590:	4a36      	ldr	r2, [pc, #216]	; (666c <sendDataFrame+0x350>)
    6592:	7812      	ldrb	r2, [r2, #0]
    6594:	3a06      	subs	r2, #6
    6596:	b2d2      	uxtb	r2, r2
    6598:	4293      	cmp	r3, r2
    659a:	4149      	adcs	r1, r1
    659c:	b2cb      	uxtb	r3, r1
    659e:	e773      	b.n	6488 <sendDataFrame+0x16c>
    65a0:	4b33      	ldr	r3, [pc, #204]	; (6670 <sendDataFrame+0x354>)
    65a2:	2002      	movs	r0, #2
    65a4:	4798      	blx	r3
    65a6:	4643      	mov	r3, r8
    65a8:	9000      	str	r0, [sp, #0]
    65aa:	465a      	mov	r2, fp
    65ac:	9905      	ldr	r1, [sp, #20]
    65ae:	0020      	movs	r0, r4
    65b0:	4f30      	ldr	r7, [pc, #192]	; (6674 <sendDataFrame+0x358>)
    65b2:	47b8      	blx	r7
    65b4:	28ff      	cmp	r0, #255	; 0xff
    65b6:	d0da      	beq.n	656e <sendDataFrame+0x252>
    65b8:	4458      	add	r0, fp
    65ba:	b2c3      	uxtb	r3, r0
    65bc:	469b      	mov	fp, r3
    65be:	e740      	b.n	6442 <sendDataFrame+0x126>
    65c0:	2200      	movs	r2, #0
    65c2:	2101      	movs	r1, #1
    65c4:	e749      	b.n	645a <sendDataFrame+0x13e>
    65c6:	2300      	movs	r3, #0
    65c8:	e75e      	b.n	6488 <sendDataFrame+0x16c>
    65ca:	464b      	mov	r3, r9
    65cc:	2220      	movs	r2, #32
    65ce:	881b      	ldrh	r3, [r3, #0]
    65d0:	b29b      	uxth	r3, r3
    65d2:	001f      	movs	r7, r3
    65d4:	4b28      	ldr	r3, [pc, #160]	; (6678 <sendDataFrame+0x35c>)
    65d6:	681b      	ldr	r3, [r3, #0]
    65d8:	5c9a      	ldrb	r2, [r3, r2]
    65da:	2a00      	cmp	r2, #0
    65dc:	d100      	bne.n	65e0 <sendDataFrame+0x2c4>
    65de:	e722      	b.n	6426 <sendDataFrame+0x10a>
    65e0:	6918      	ldr	r0, [r3, #16]
    65e2:	8803      	ldrh	r3, [r0, #0]
    65e4:	42ab      	cmp	r3, r5
    65e6:	d028      	beq.n	663a <sendDataFrame+0x31e>
    65e8:	3a01      	subs	r2, #1
    65ea:	b2d2      	uxtb	r2, r2
    65ec:	3201      	adds	r2, #1
    65ee:	0092      	lsls	r2, r2, #2
    65f0:	1d03      	adds	r3, r0, #4
    65f2:	1882      	adds	r2, r0, r2
    65f4:	46ac      	mov	ip, r5
    65f6:	46b2      	mov	sl, r6
    65f8:	e006      	b.n	6608 <sendDataFrame+0x2ec>
    65fa:	1a1e      	subs	r6, r3, r0
    65fc:	001d      	movs	r5, r3
    65fe:	3304      	adds	r3, #4
    6600:	1f19      	subs	r1, r3, #4
    6602:	8809      	ldrh	r1, [r1, #0]
    6604:	4561      	cmp	r1, ip
    6606:	d003      	beq.n	6610 <sendDataFrame+0x2f4>
    6608:	429a      	cmp	r2, r3
    660a:	d1f6      	bne.n	65fa <sendDataFrame+0x2de>
    660c:	4656      	mov	r6, sl
    660e:	e70a      	b.n	6426 <sendDataFrame+0x10a>
    6610:	4653      	mov	r3, sl
    6612:	46aa      	mov	sl, r5
    6614:	0035      	movs	r5, r6
    6616:	001e      	movs	r6, r3
    6618:	4652      	mov	r2, sl
    661a:	4643      	mov	r3, r8
    661c:	789b      	ldrb	r3, [r3, #2]
    661e:	8017      	strh	r7, [r2, #0]
    6620:	4a15      	ldr	r2, [pc, #84]	; (6678 <sendDataFrame+0x35c>)
    6622:	6812      	ldr	r2, [r2, #0]
    6624:	6912      	ldr	r2, [r2, #16]
    6626:	1952      	adds	r2, r2, r5
    6628:	7093      	strb	r3, [r2, #2]
    662a:	2221      	movs	r2, #33	; 0x21
    662c:	4b12      	ldr	r3, [pc, #72]	; (6678 <sendDataFrame+0x35c>)
    662e:	681b      	ldr	r3, [r3, #0]
    6630:	5c9a      	ldrb	r2, [r3, r2]
    6632:	691b      	ldr	r3, [r3, #16]
    6634:	195d      	adds	r5, r3, r5
    6636:	70ea      	strb	r2, [r5, #3]
    6638:	e6f5      	b.n	6426 <sendDataFrame+0x10a>
    663a:	4682      	mov	sl, r0
    663c:	2500      	movs	r5, #0
    663e:	e7eb      	b.n	6618 <sendDataFrame+0x2fc>
    6640:	20001a70 	.word	0x20001a70
    6644:	00002fe1 	.word	0x00002fe1
    6648:	20001a5c 	.word	0x20001a5c
    664c:	20001a44 	.word	0x20001a44
    6650:	000093ab 	.word	0x000093ab
    6654:	0000ffff 	.word	0x0000ffff
    6658:	20001a64 	.word	0x20001a64
    665c:	0000314d 	.word	0x0000314d
    6660:	20001a2c 	.word	0x20001a2c
    6664:	20001abc 	.word	0x20001abc
    6668:	20000070 	.word	0x20000070
    666c:	20000384 	.word	0x20000384
    6670:	00008e21 	.word	0x00008e21
    6674:	00008e45 	.word	0x00008e45
    6678:	20001a28 	.word	0x20001a28

0000667c <addRebroadcastTableEntry>:
    667c:	b5f0      	push	{r4, r5, r6, r7, lr}
    667e:	46c6      	mov	lr, r8
    6680:	2220      	movs	r2, #32
    6682:	b500      	push	{lr}
    6684:	4e17      	ldr	r6, [pc, #92]	; (66e4 <addRebroadcastTableEntry+0x68>)
    6686:	4684      	mov	ip, r0
    6688:	6833      	ldr	r3, [r6, #0]
    668a:	4688      	mov	r8, r1
    668c:	5c9a      	ldrb	r2, [r3, r2]
    668e:	2a00      	cmp	r2, #0
    6690:	d014      	beq.n	66bc <addRebroadcastTableEntry+0x40>
    6692:	691d      	ldr	r5, [r3, #16]
    6694:	4f14      	ldr	r7, [pc, #80]	; (66e8 <addRebroadcastTableEntry+0x6c>)
    6696:	882b      	ldrh	r3, [r5, #0]
    6698:	42bb      	cmp	r3, r7
    669a:	d012      	beq.n	66c2 <addRebroadcastTableEntry+0x46>
    669c:	3a01      	subs	r2, #1
    669e:	b2d2      	uxtb	r2, r2
    66a0:	3201      	adds	r2, #1
    66a2:	0092      	lsls	r2, r2, #2
    66a4:	1d2b      	adds	r3, r5, #4
    66a6:	18aa      	adds	r2, r5, r2
    66a8:	e006      	b.n	66b8 <addRebroadcastTableEntry+0x3c>
    66aa:	1b59      	subs	r1, r3, r5
    66ac:	0018      	movs	r0, r3
    66ae:	3304      	adds	r3, #4
    66b0:	1f1c      	subs	r4, r3, #4
    66b2:	8824      	ldrh	r4, [r4, #0]
    66b4:	42bc      	cmp	r4, r7
    66b6:	d006      	beq.n	66c6 <addRebroadcastTableEntry+0x4a>
    66b8:	4293      	cmp	r3, r2
    66ba:	d1f6      	bne.n	66aa <addRebroadcastTableEntry+0x2e>
    66bc:	bc04      	pop	{r2}
    66be:	4690      	mov	r8, r2
    66c0:	bdf0      	pop	{r4, r5, r6, r7, pc}
    66c2:	0028      	movs	r0, r5
    66c4:	2100      	movs	r1, #0
    66c6:	4663      	mov	r3, ip
    66c8:	4642      	mov	r2, r8
    66ca:	8003      	strh	r3, [r0, #0]
    66cc:	6833      	ldr	r3, [r6, #0]
    66ce:	691b      	ldr	r3, [r3, #16]
    66d0:	185b      	adds	r3, r3, r1
    66d2:	709a      	strb	r2, [r3, #2]
    66d4:	2221      	movs	r2, #33	; 0x21
    66d6:	6833      	ldr	r3, [r6, #0]
    66d8:	5c9a      	ldrb	r2, [r3, r2]
    66da:	691b      	ldr	r3, [r3, #16]
    66dc:	185b      	adds	r3, r3, r1
    66de:	70da      	strb	r2, [r3, #3]
    66e0:	e7ec      	b.n	66bc <addRebroadcastTableEntry+0x40>
    66e2:	46c0      	nop			; (mov r8, r8)
    66e4:	20001a28 	.word	0x20001a28
    66e8:	0000ffff 	.word	0x0000ffff

000066ec <initRebroadcastTable>:
    66ec:	2320      	movs	r3, #32
    66ee:	b530      	push	{r4, r5, lr}
    66f0:	4809      	ldr	r0, [pc, #36]	; (6718 <initRebroadcastTable+0x2c>)
    66f2:	6802      	ldr	r2, [r0, #0]
    66f4:	5cd1      	ldrb	r1, [r2, r3]
    66f6:	2300      	movs	r3, #0
    66f8:	2900      	cmp	r1, #0
    66fa:	d00b      	beq.n	6714 <initRebroadcastTable+0x28>
    66fc:	2501      	movs	r5, #1
    66fe:	2420      	movs	r4, #32
    6700:	426d      	negs	r5, r5
    6702:	6912      	ldr	r2, [r2, #16]
    6704:	0099      	lsls	r1, r3, #2
    6706:	528d      	strh	r5, [r1, r2]
    6708:	6802      	ldr	r2, [r0, #0]
    670a:	3301      	adds	r3, #1
    670c:	5d11      	ldrb	r1, [r2, r4]
    670e:	b2db      	uxtb	r3, r3
    6710:	4299      	cmp	r1, r3
    6712:	d8f6      	bhi.n	6702 <initRebroadcastTable+0x16>
    6714:	bd30      	pop	{r4, r5, pc}
    6716:	46c0      	nop			; (mov r8, r8)
    6718:	20001a28 	.word	0x20001a28

0000671c <rebroadcastTimerHandler>:
    671c:	b5f0      	push	{r4, r5, r6, r7, lr}
    671e:	46c6      	mov	lr, r8
    6720:	2320      	movs	r3, #32
    6722:	b500      	push	{lr}
    6724:	4e13      	ldr	r6, [pc, #76]	; (6774 <rebroadcastTimerHandler+0x58>)
    6726:	6834      	ldr	r4, [r6, #0]
    6728:	5ce7      	ldrb	r7, [r4, r3]
    672a:	2300      	movs	r3, #0
    672c:	2f00      	cmp	r7, #0
    672e:	d01e      	beq.n	676e <rebroadcastTimerHandler+0x52>
    6730:	2201      	movs	r2, #1
    6732:	4252      	negs	r2, r2
    6734:	4694      	mov	ip, r2
    6736:	3221      	adds	r2, #33	; 0x21
    6738:	4690      	mov	r8, r2
    673a:	4d0f      	ldr	r5, [pc, #60]	; (6778 <rebroadcastTimerHandler+0x5c>)
    673c:	6922      	ldr	r2, [r4, #16]
    673e:	0098      	lsls	r0, r3, #2
    6740:	1812      	adds	r2, r2, r0
    6742:	8811      	ldrh	r1, [r2, #0]
    6744:	42a9      	cmp	r1, r5
    6746:	d00e      	beq.n	6766 <rebroadcastTimerHandler+0x4a>
    6748:	78d1      	ldrb	r1, [r2, #3]
    674a:	2900      	cmp	r1, #0
    674c:	d00b      	beq.n	6766 <rebroadcastTimerHandler+0x4a>
    674e:	3901      	subs	r1, #1
    6750:	b2c9      	uxtb	r1, r1
    6752:	70d1      	strb	r1, [r2, #3]
    6754:	2900      	cmp	r1, #0
    6756:	d103      	bne.n	6760 <rebroadcastTimerHandler+0x44>
    6758:	4661      	mov	r1, ip
    675a:	6832      	ldr	r2, [r6, #0]
    675c:	6912      	ldr	r2, [r2, #16]
    675e:	5211      	strh	r1, [r2, r0]
    6760:	4642      	mov	r2, r8
    6762:	6834      	ldr	r4, [r6, #0]
    6764:	5ca7      	ldrb	r7, [r4, r2]
    6766:	3301      	adds	r3, #1
    6768:	b2db      	uxtb	r3, r3
    676a:	42bb      	cmp	r3, r7
    676c:	d3e6      	bcc.n	673c <rebroadcastTimerHandler+0x20>
    676e:	bc04      	pop	{r2}
    6770:	4690      	mov	r8, r2
    6772:	bdf0      	pop	{r4, r5, r6, r7, pc}
    6774:	20001a28 	.word	0x20001a28
    6778:	0000ffff 	.word	0x0000ffff

0000677c <handleDataMessage>:
    677c:	b5f0      	push	{r4, r5, r6, r7, lr}
    677e:	46de      	mov	lr, fp
    6780:	4657      	mov	r7, sl
    6782:	464e      	mov	r6, r9
    6784:	4645      	mov	r5, r8
    6786:	b5e0      	push	{r5, r6, r7, lr}
    6788:	780b      	ldrb	r3, [r1, #0]
    678a:	b083      	sub	sp, #12
    678c:	0004      	movs	r4, r0
    678e:	2b31      	cmp	r3, #49	; 0x31
    6790:	d04d      	beq.n	682e <handleDataMessage+0xb2>
    6792:	2b32      	cmp	r3, #50	; 0x32
    6794:	d144      	bne.n	6820 <handleDataMessage+0xa4>
    6796:	4d61      	ldr	r5, [pc, #388]	; (691c <handleDataMessage+0x1a0>)
    6798:	7a2b      	ldrb	r3, [r5, #8]
    679a:	2b00      	cmp	r3, #0
    679c:	d040      	beq.n	6820 <handleDataMessage+0xa4>
    679e:	4a60      	ldr	r2, [pc, #384]	; (6920 <handleDataMessage+0x1a4>)
    67a0:	4b60      	ldr	r3, [pc, #384]	; (6924 <handleDataMessage+0x1a8>)
    67a2:	4691      	mov	r9, r2
    67a4:	4a60      	ldr	r2, [pc, #384]	; (6928 <handleDataMessage+0x1ac>)
    67a6:	2600      	movs	r6, #0
    67a8:	4693      	mov	fp, r2
    67aa:	4a60      	ldr	r2, [pc, #384]	; (692c <handleDataMessage+0x1b0>)
    67ac:	4698      	mov	r8, r3
    67ae:	4692      	mov	sl, r2
    67b0:	e007      	b.n	67c2 <handleDataMessage+0x46>
    67b2:	0039      	movs	r1, r7
    67b4:	0028      	movs	r0, r5
    67b6:	47c8      	blx	r9
    67b8:	3601      	adds	r6, #1
    67ba:	7a2b      	ldrb	r3, [r5, #8]
    67bc:	b2f6      	uxtb	r6, r6
    67be:	42b3      	cmp	r3, r6
    67c0:	d92e      	bls.n	6820 <handleDataMessage+0xa4>
    67c2:	2100      	movs	r1, #0
    67c4:	0028      	movs	r0, r5
    67c6:	47c0      	blx	r8
    67c8:	1e07      	subs	r7, r0, #0
    67ca:	d029      	beq.n	6820 <handleDataMessage+0xa4>
    67cc:	2320      	movs	r3, #32
    67ce:	7a22      	ldrb	r2, [r4, #8]
    67d0:	5cc3      	ldrb	r3, [r0, r3]
    67d2:	429a      	cmp	r2, r3
    67d4:	d1ed      	bne.n	67b2 <handleDataMessage+0x36>
    67d6:	88e2      	ldrh	r2, [r4, #6]
    67d8:	8b83      	ldrh	r3, [r0, #28]
    67da:	429a      	cmp	r2, r3
    67dc:	d1e9      	bne.n	67b2 <handleDataMessage+0x36>
    67de:	6883      	ldr	r3, [r0, #8]
    67e0:	2b00      	cmp	r3, #0
    67e2:	d003      	beq.n	67ec <handleDataMessage+0x70>
    67e4:	7c80      	ldrb	r0, [r0, #18]
    67e6:	003a      	movs	r2, r7
    67e8:	2100      	movs	r1, #0
    67ea:	4798      	blx	r3
    67ec:	0038      	movs	r0, r7
    67ee:	47d8      	blx	fp
    67f0:	22ff      	movs	r2, #255	; 0xff
    67f2:	8bbb      	ldrh	r3, [r7, #28]
    67f4:	4393      	bics	r3, r2
    67f6:	4652      	mov	r2, sl
    67f8:	8812      	ldrh	r2, [r2, #0]
    67fa:	4293      	cmp	r3, r2
    67fc:	d0dc      	beq.n	67b8 <handleDataMessage+0x3c>
    67fe:	4a4c      	ldr	r2, [pc, #304]	; (6930 <handleDataMessage+0x1b4>)
    6800:	0a1b      	lsrs	r3, r3, #8
    6802:	6812      	ldr	r2, [r2, #0]
    6804:	005b      	lsls	r3, r3, #1
    6806:	6892      	ldr	r2, [r2, #8]
    6808:	3601      	adds	r6, #1
    680a:	18d3      	adds	r3, r2, r3
    680c:	220f      	movs	r2, #15
    680e:	7859      	ldrb	r1, [r3, #1]
    6810:	b2f6      	uxtb	r6, r6
    6812:	400a      	ands	r2, r1
    6814:	2130      	movs	r1, #48	; 0x30
    6816:	430a      	orrs	r2, r1
    6818:	705a      	strb	r2, [r3, #1]
    681a:	7a2b      	ldrb	r3, [r5, #8]
    681c:	42b3      	cmp	r3, r6
    681e:	d8d0      	bhi.n	67c2 <handleDataMessage+0x46>
    6820:	b003      	add	sp, #12
    6822:	bc3c      	pop	{r2, r3, r4, r5}
    6824:	4690      	mov	r8, r2
    6826:	4699      	mov	r9, r3
    6828:	46a2      	mov	sl, r4
    682a:	46ab      	mov	fp, r5
    682c:	bdf0      	pop	{r4, r5, r6, r7, pc}
    682e:	7983      	ldrb	r3, [r0, #6]
    6830:	009d      	lsls	r5, r3, #2
    6832:	18ed      	adds	r5, r5, r3
    6834:	4b3e      	ldr	r3, [pc, #248]	; (6930 <handleDataMessage+0x1b4>)
    6836:	00ad      	lsls	r5, r5, #2
    6838:	4699      	mov	r9, r3
    683a:	681b      	ldr	r3, [r3, #0]
    683c:	6858      	ldr	r0, [r3, #4]
    683e:	4b3d      	ldr	r3, [pc, #244]	; (6934 <handleDataMessage+0x1b8>)
    6840:	1940      	adds	r0, r0, r5
    6842:	4798      	blx	r3
    6844:	2800      	cmp	r0, #0
    6846:	d065      	beq.n	6914 <handleDataMessage+0x198>
    6848:	464b      	mov	r3, r9
    684a:	681b      	ldr	r3, [r3, #0]
    684c:	685b      	ldr	r3, [r3, #4]
    684e:	195d      	adds	r5, r3, r5
    6850:	68ab      	ldr	r3, [r5, #8]
    6852:	60eb      	str	r3, [r5, #12]
    6854:	4d38      	ldr	r5, [pc, #224]	; (6938 <handleDataMessage+0x1bc>)
    6856:	7a2b      	ldrb	r3, [r5, #8]
    6858:	2b00      	cmp	r3, #0
    685a:	d0e1      	beq.n	6820 <handleDataMessage+0xa4>
    685c:	21ff      	movs	r1, #255	; 0xff
    685e:	4b33      	ldr	r3, [pc, #204]	; (692c <handleDataMessage+0x1b0>)
    6860:	881a      	ldrh	r2, [r3, #0]
    6862:	88e3      	ldrh	r3, [r4, #6]
    6864:	438b      	bics	r3, r1
    6866:	429a      	cmp	r2, r3
    6868:	d1da      	bne.n	6820 <handleDataMessage+0xa4>
    686a:	4b2e      	ldr	r3, [pc, #184]	; (6924 <handleDataMessage+0x1a8>)
    686c:	2700      	movs	r7, #0
    686e:	9301      	str	r3, [sp, #4]
    6870:	4b2b      	ldr	r3, [pc, #172]	; (6920 <handleDataMessage+0x1a4>)
    6872:	469a      	mov	sl, r3
    6874:	4b31      	ldr	r3, [pc, #196]	; (693c <handleDataMessage+0x1c0>)
    6876:	46d0      	mov	r8, sl
    6878:	469b      	mov	fp, r3
    687a:	e00a      	b.n	6892 <handleDataMessage+0x116>
    687c:	4a30      	ldr	r2, [pc, #192]	; (6940 <handleDataMessage+0x1c4>)
    687e:	4293      	cmp	r3, r2
    6880:	d02a      	beq.n	68d8 <handleDataMessage+0x15c>
    6882:	0001      	movs	r1, r0
    6884:	0028      	movs	r0, r5
    6886:	47d0      	blx	sl
    6888:	3701      	adds	r7, #1
    688a:	7a2b      	ldrb	r3, [r5, #8]
    688c:	b2ff      	uxtb	r7, r7
    688e:	42bb      	cmp	r3, r7
    6890:	d9c6      	bls.n	6820 <handleDataMessage+0xa4>
    6892:	2100      	movs	r1, #0
    6894:	0028      	movs	r0, r5
    6896:	9b01      	ldr	r3, [sp, #4]
    6898:	4798      	blx	r3
    689a:	1e06      	subs	r6, r0, #0
    689c:	d0c0      	beq.n	6820 <handleDataMessage+0xa4>
    689e:	8b83      	ldrh	r3, [r0, #28]
    68a0:	88e2      	ldrh	r2, [r4, #6]
    68a2:	429a      	cmp	r2, r3
    68a4:	d1ea      	bne.n	687c <handleDataMessage+0x100>
    68a6:	2310      	movs	r3, #16
    68a8:	7e42      	ldrb	r2, [r0, #25]
    68aa:	4013      	ands	r3, r2
    68ac:	d025      	beq.n	68fa <handleDataMessage+0x17e>
    68ae:	464b      	mov	r3, r9
    68b0:	681a      	ldr	r2, [r3, #0]
    68b2:	232f      	movs	r3, #47	; 0x2f
    68b4:	5cd3      	ldrb	r3, [r2, r3]
    68b6:	0001      	movs	r1, r0
    68b8:	3301      	adds	r3, #1
    68ba:	7403      	strb	r3, [r0, #16]
    68bc:	2330      	movs	r3, #48	; 0x30
    68be:	5cd3      	ldrb	r3, [r2, r3]
    68c0:	7443      	strb	r3, [r0, #17]
    68c2:	2300      	movs	r3, #0
    68c4:	6083      	str	r3, [r0, #8]
    68c6:	4815      	ldr	r0, [pc, #84]	; (691c <handleDataMessage+0x1a0>)
    68c8:	4b15      	ldr	r3, [pc, #84]	; (6920 <handleDataMessage+0x1a4>)
    68ca:	4798      	blx	r3
    68cc:	8bb1      	ldrh	r1, [r6, #28]
    68ce:	4a1d      	ldr	r2, [pc, #116]	; (6944 <handleDataMessage+0x1c8>)
    68d0:	0030      	movs	r0, r6
    68d2:	4b1d      	ldr	r3, [pc, #116]	; (6948 <handleDataMessage+0x1cc>)
    68d4:	4798      	blx	r3
    68d6:	e7d7      	b.n	6888 <handleDataMessage+0x10c>
    68d8:	2300      	movs	r3, #0
    68da:	2201      	movs	r2, #1
    68dc:	7443      	strb	r3, [r0, #17]
    68de:	7502      	strb	r2, [r0, #20]
    68e0:	6083      	str	r3, [r0, #8]
    68e2:	0001      	movs	r1, r0
    68e4:	4658      	mov	r0, fp
    68e6:	47c0      	blx	r8
    68e8:	88e1      	ldrh	r1, [r4, #6]
    68ea:	4a18      	ldr	r2, [pc, #96]	; (694c <handleDataMessage+0x1d0>)
    68ec:	0030      	movs	r0, r6
    68ee:	4b16      	ldr	r3, [pc, #88]	; (6948 <handleDataMessage+0x1cc>)
    68f0:	4798      	blx	r3
    68f2:	0031      	movs	r1, r6
    68f4:	0028      	movs	r0, r5
    68f6:	47c0      	blx	r8
    68f8:	e7c6      	b.n	6888 <handleDataMessage+0x10c>
    68fa:	7443      	strb	r3, [r0, #17]
    68fc:	7503      	strb	r3, [r0, #20]
    68fe:	6083      	str	r3, [r0, #8]
    6900:	0001      	movs	r1, r0
    6902:	4b07      	ldr	r3, [pc, #28]	; (6920 <handleDataMessage+0x1a4>)
    6904:	480d      	ldr	r0, [pc, #52]	; (693c <handleDataMessage+0x1c0>)
    6906:	4798      	blx	r3
    6908:	8bb1      	ldrh	r1, [r6, #28]
    690a:	4a10      	ldr	r2, [pc, #64]	; (694c <handleDataMessage+0x1d0>)
    690c:	0030      	movs	r0, r6
    690e:	4b0e      	ldr	r3, [pc, #56]	; (6948 <handleDataMessage+0x1cc>)
    6910:	4798      	blx	r3
    6912:	e7b9      	b.n	6888 <handleDataMessage+0x10c>
    6914:	88e0      	ldrh	r0, [r4, #6]
    6916:	4b0e      	ldr	r3, [pc, #56]	; (6950 <handleDataMessage+0x1d4>)
    6918:	4798      	blx	r3
    691a:	e781      	b.n	6820 <handleDataMessage+0xa4>
    691c:	20001a30 	.word	0x20001a30
    6920:	0000314d 	.word	0x0000314d
    6924:	00003185 	.word	0x00003185
    6928:	00003031 	.word	0x00003031
    692c:	20001a70 	.word	0x20001a70
    6930:	20001a28 	.word	0x20001a28
    6934:	000083f1 	.word	0x000083f1
    6938:	20001a1c 	.word	0x20001a1c
    693c:	20001a10 	.word	0x20001a10
    6940:	0000ffff 	.word	0x0000ffff
    6944:	00004a01 	.word	0x00004a01
    6948:	0000631d 	.word	0x0000631d
    694c:	00004b5d 	.word	0x00004b5d
    6950:	00008389 	.word	0x00008389

00006954 <frameParse>:
    6954:	b5f0      	push	{r4, r5, r6, r7, lr}
    6956:	464e      	mov	r6, r9
    6958:	4645      	mov	r5, r8
    695a:	46de      	mov	lr, fp
    695c:	4657      	mov	r7, sl
    695e:	b5e0      	push	{r5, r6, r7, lr}
    6960:	6885      	ldr	r5, [r0, #8]
    6962:	b09f      	sub	sp, #124	; 0x7c
    6964:	782b      	ldrb	r3, [r5, #0]
    6966:	ac0e      	add	r4, sp, #56	; 0x38
    6968:	7023      	strb	r3, [r4, #0]
    696a:	786b      	ldrb	r3, [r5, #1]
    696c:	0006      	movs	r6, r0
    696e:	7063      	strb	r3, [r4, #1]
    6970:	78ab      	ldrb	r3, [r5, #2]
    6972:	7223      	strb	r3, [r4, #8]
    6974:	7bc3      	ldrb	r3, [r0, #15]
    6976:	2b00      	cmp	r3, #0
    6978:	d015      	beq.n	69a6 <frameParse+0x52>
    697a:	7863      	ldrb	r3, [r4, #1]
    697c:	069a      	lsls	r2, r3, #26
    697e:	d400      	bmi.n	6982 <frameParse+0x2e>
    6980:	e094      	b.n	6aac <frameParse+0x158>
    6982:	6873      	ldr	r3, [r6, #4]
    6984:	4698      	mov	r8, r3
    6986:	8a33      	ldrh	r3, [r6, #16]
    6988:	8063      	strh	r3, [r4, #2]
    698a:	4643      	mov	r3, r8
    698c:	785a      	ldrb	r2, [r3, #1]
    698e:	781b      	ldrb	r3, [r3, #0]
    6990:	0212      	lsls	r2, r2, #8
    6992:	4313      	orrs	r3, r2
    6994:	80e3      	strh	r3, [r4, #6]
    6996:	2302      	movs	r3, #2
    6998:	4699      	mov	r9, r3
    699a:	7833      	ldrb	r3, [r6, #0]
    699c:	075b      	lsls	r3, r3, #29
    699e:	d40e      	bmi.n	69be <frameParse+0x6a>
    69a0:	4bcb      	ldr	r3, [pc, #812]	; (6cd0 <frameParse+0x37c>)
    69a2:	881b      	ldrh	r3, [r3, #0]
    69a4:	e00d      	b.n	69c2 <frameParse+0x6e>
    69a6:	7863      	ldrb	r3, [r4, #1]
    69a8:	069a      	lsls	r2, r3, #26
    69aa:	d55c      	bpl.n	6a66 <frameParse+0x112>
    69ac:	6873      	ldr	r3, [r6, #4]
    69ae:	4698      	mov	r8, r3
    69b0:	8a33      	ldrh	r3, [r6, #16]
    69b2:	8063      	strh	r3, [r4, #2]
    69b4:	2308      	movs	r3, #8
    69b6:	4699      	mov	r9, r3
    69b8:	7833      	ldrb	r3, [r6, #0]
    69ba:	075b      	lsls	r3, r3, #29
    69bc:	d5f0      	bpl.n	69a0 <frameParse+0x4c>
    69be:	2301      	movs	r3, #1
    69c0:	425b      	negs	r3, r3
    69c2:	2210      	movs	r2, #16
    69c4:	80a3      	strh	r3, [r4, #4]
    69c6:	7863      	ldrb	r3, [r4, #1]
    69c8:	9205      	str	r2, [sp, #20]
    69ca:	4692      	mov	sl, r2
    69cc:	4693      	mov	fp, r2
    69ce:	2708      	movs	r7, #8
    69d0:	2104      	movs	r1, #4
    69d2:	3a0d      	subs	r2, #13
    69d4:	075b      	lsls	r3, r3, #29
    69d6:	d562      	bpl.n	6a9e <frameParse+0x14a>
    69d8:	5cab      	ldrb	r3, [r5, r2]
    69da:	1869      	adds	r1, r5, r1
    69dc:	7423      	strb	r3, [r4, #16]
    69de:	2204      	movs	r2, #4
    69e0:	4bbc      	ldr	r3, [pc, #752]	; (6cd4 <frameParse+0x380>)
    69e2:	a813      	add	r0, sp, #76	; 0x4c
    69e4:	4798      	blx	r3
    69e6:	19e9      	adds	r1, r5, r7
    69e8:	2208      	movs	r2, #8
    69ea:	4bba      	ldr	r3, [pc, #744]	; (6cd4 <frameParse+0x380>)
    69ec:	a814      	add	r0, sp, #80	; 0x50
    69ee:	4798      	blx	r3
    69f0:	465b      	mov	r3, fp
    69f2:	7b37      	ldrb	r7, [r6, #12]
    69f4:	4648      	mov	r0, r9
    69f6:	1aff      	subs	r7, r7, r3
    69f8:	b2fb      	uxtb	r3, r7
    69fa:	001f      	movs	r7, r3
    69fc:	4bb6      	ldr	r3, [pc, #728]	; (6cd8 <frameParse+0x384>)
    69fe:	4798      	blx	r3
    6a00:	9001      	str	r0, [sp, #4]
    6a02:	68b3      	ldr	r3, [r6, #8]
    6a04:	9706      	str	r7, [sp, #24]
    6a06:	9300      	str	r3, [sp, #0]
    6a08:	465a      	mov	r2, fp
    6a0a:	003b      	movs	r3, r7
    6a0c:	a914      	add	r1, sp, #80	; 0x50
    6a0e:	0020      	movs	r0, r4
    6a10:	4fb2      	ldr	r7, [pc, #712]	; (6cdc <frameParse+0x388>)
    6a12:	47b8      	blx	r7
    6a14:	28ff      	cmp	r0, #255	; 0xff
    6a16:	d042      	beq.n	6a9e <frameParse+0x14a>
    6a18:	002b      	movs	r3, r5
    6a1a:	9f06      	ldr	r7, [sp, #24]
    6a1c:	4453      	add	r3, sl
    6a1e:	1a3f      	subs	r7, r7, r0
    6a20:	9307      	str	r3, [sp, #28]
    6a22:	b2fb      	uxtb	r3, r7
    6a24:	9306      	str	r3, [sp, #24]
    6a26:	88a0      	ldrh	r0, [r4, #4]
    6a28:	4bad      	ldr	r3, [pc, #692]	; (6ce0 <frameParse+0x38c>)
    6a2a:	4298      	cmp	r0, r3
    6a2c:	d941      	bls.n	6ab2 <frameParse+0x15e>
    6a2e:	2220      	movs	r2, #32
    6a30:	4bac      	ldr	r3, [pc, #688]	; (6ce4 <frameParse+0x390>)
    6a32:	88e5      	ldrh	r5, [r4, #6]
    6a34:	469a      	mov	sl, r3
    6a36:	681b      	ldr	r3, [r3, #0]
    6a38:	7a27      	ldrb	r7, [r4, #8]
    6a3a:	5c9a      	ldrb	r2, [r3, r2]
    6a3c:	2a00      	cmp	r2, #0
    6a3e:	d100      	bne.n	6a42 <frameParse+0xee>
    6a40:	e07c      	b.n	6b3c <frameParse+0x1e8>
    6a42:	3a01      	subs	r2, #1
    6a44:	b2d1      	uxtb	r1, r2
    6a46:	691b      	ldr	r3, [r3, #16]
    6a48:	3101      	adds	r1, #1
    6a4a:	0089      	lsls	r1, r1, #2
    6a4c:	1859      	adds	r1, r3, r1
    6a4e:	e003      	b.n	6a58 <frameParse+0x104>
    6a50:	3304      	adds	r3, #4
    6a52:	4299      	cmp	r1, r3
    6a54:	d100      	bne.n	6a58 <frameParse+0x104>
    6a56:	e071      	b.n	6b3c <frameParse+0x1e8>
    6a58:	881a      	ldrh	r2, [r3, #0]
    6a5a:	42aa      	cmp	r2, r5
    6a5c:	d1f8      	bne.n	6a50 <frameParse+0xfc>
    6a5e:	789a      	ldrb	r2, [r3, #2]
    6a60:	42ba      	cmp	r2, r7
    6a62:	d1f5      	bne.n	6a50 <frameParse+0xfc>
    6a64:	e01b      	b.n	6a9e <frameParse+0x14a>
    6a66:	2208      	movs	r2, #8
    6a68:	4691      	mov	r9, r2
    6a6a:	6872      	ldr	r2, [r6, #4]
    6a6c:	7929      	ldrb	r1, [r5, #4]
    6a6e:	4690      	mov	r8, r2
    6a70:	78ea      	ldrb	r2, [r5, #3]
    6a72:	0209      	lsls	r1, r1, #8
    6a74:	430a      	orrs	r2, r1
    6a76:	79a9      	ldrb	r1, [r5, #6]
    6a78:	8062      	strh	r2, [r4, #2]
    6a7a:	796a      	ldrb	r2, [r5, #5]
    6a7c:	0209      	lsls	r1, r1, #8
    6a7e:	430a      	orrs	r2, r1
    6a80:	7a29      	ldrb	r1, [r5, #8]
    6a82:	80a2      	strh	r2, [r4, #4]
    6a84:	79ea      	ldrb	r2, [r5, #7]
    6a86:	0209      	lsls	r1, r1, #8
    6a88:	430a      	orrs	r2, r1
    6a8a:	80e2      	strh	r2, [r4, #6]
    6a8c:	2216      	movs	r2, #22
    6a8e:	270e      	movs	r7, #14
    6a90:	9205      	str	r2, [sp, #20]
    6a92:	4692      	mov	sl, r2
    6a94:	4693      	mov	fp, r2
    6a96:	210a      	movs	r1, #10
    6a98:	3a0d      	subs	r2, #13
    6a9a:	075b      	lsls	r3, r3, #29
    6a9c:	d49c      	bmi.n	69d8 <frameParse+0x84>
    6a9e:	b01f      	add	sp, #124	; 0x7c
    6aa0:	bc3c      	pop	{r2, r3, r4, r5}
    6aa2:	4690      	mov	r8, r2
    6aa4:	4699      	mov	r9, r3
    6aa6:	46a2      	mov	sl, r4
    6aa8:	46ab      	mov	fp, r5
    6aaa:	bdf0      	pop	{r4, r5, r6, r7, pc}
    6aac:	2202      	movs	r2, #2
    6aae:	4691      	mov	r9, r2
    6ab0:	e7db      	b.n	6a6a <frameParse+0x116>
    6ab2:	4b87      	ldr	r3, [pc, #540]	; (6cd0 <frameParse+0x37c>)
    6ab4:	881a      	ldrh	r2, [r3, #0]
    6ab6:	4290      	cmp	r0, r2
    6ab8:	d100      	bne.n	6abc <frameParse+0x168>
    6aba:	e12d      	b.n	6d18 <frameParse+0x3c4>
    6abc:	21ff      	movs	r1, #255	; 0xff
    6abe:	0005      	movs	r5, r0
    6ac0:	881a      	ldrh	r2, [r3, #0]
    6ac2:	438d      	bics	r5, r1
    6ac4:	4295      	cmp	r5, r2
    6ac6:	d100      	bne.n	6aca <frameParse+0x176>
    6ac8:	e129      	b.n	6d1e <frameParse+0x3ca>
    6aca:	881b      	ldrh	r3, [r3, #0]
    6acc:	4298      	cmp	r0, r3
    6ace:	d0e6      	beq.n	6a9e <frameParse+0x14a>
    6ad0:	7823      	ldrb	r3, [r4, #0]
    6ad2:	2b00      	cmp	r3, #0
    6ad4:	d0e3      	beq.n	6a9e <frameParse+0x14a>
    6ad6:	4a84      	ldr	r2, [pc, #528]	; (6ce8 <frameParse+0x394>)
    6ad8:	7812      	ldrb	r2, [r2, #0]
    6ada:	2a06      	cmp	r2, #6
    6adc:	d1df      	bne.n	6a9e <frameParse+0x14a>
    6ade:	3b01      	subs	r3, #1
    6ae0:	7023      	strb	r3, [r4, #0]
    6ae2:	4b82      	ldr	r3, [pc, #520]	; (6cec <frameParse+0x398>)
    6ae4:	4798      	blx	r3
    6ae6:	ab0a      	add	r3, sp, #40	; 0x28
    6ae8:	8618      	strh	r0, [r3, #48]	; 0x30
    6aea:	4b81      	ldr	r3, [pc, #516]	; (6cf0 <frameParse+0x39c>)
    6aec:	4298      	cmp	r0, r3
    6aee:	d100      	bne.n	6af2 <frameParse+0x19e>
    6af0:	e32d      	b.n	714e <frameParse+0x7fa>
    6af2:	2078      	movs	r0, #120	; 0x78
    6af4:	4b7f      	ldr	r3, [pc, #508]	; (6cf4 <frameParse+0x3a0>)
    6af6:	4798      	blx	r3
    6af8:	1e05      	subs	r5, r0, #0
    6afa:	d0d0      	beq.n	6a9e <frameParse+0x14a>
    6afc:	0001      	movs	r1, r0
    6afe:	4b7e      	ldr	r3, [pc, #504]	; (6cf8 <frameParse+0x3a4>)
    6b00:	0020      	movs	r0, r4
    6b02:	4798      	blx	r3
    6b04:	7a23      	ldrb	r3, [r4, #8]
    6b06:	9f06      	ldr	r7, [sp, #24]
    6b08:	0006      	movs	r6, r0
    6b0a:	70ab      	strb	r3, [r5, #2]
    6b0c:	003a      	movs	r2, r7
    6b0e:	9907      	ldr	r1, [sp, #28]
    6b10:	4b70      	ldr	r3, [pc, #448]	; (6cd4 <frameParse+0x380>)
    6b12:	1828      	adds	r0, r5, r0
    6b14:	4798      	blx	r3
    6b16:	2300      	movs	r3, #0
    6b18:	9303      	str	r3, [sp, #12]
    6b1a:	9302      	str	r3, [sp, #8]
    6b1c:	ab16      	add	r3, sp, #88	; 0x58
    6b1e:	9301      	str	r3, [sp, #4]
    6b20:	2302      	movs	r3, #2
    6b22:	0020      	movs	r0, r4
    6b24:	9300      	str	r3, [sp, #0]
    6b26:	003a      	movs	r2, r7
    6b28:	002b      	movs	r3, r5
    6b2a:	0031      	movs	r1, r6
    6b2c:	4c73      	ldr	r4, [pc, #460]	; (6cfc <frameParse+0x3a8>)
    6b2e:	47a0      	blx	r4
    6b30:	2800      	cmp	r0, #0
    6b32:	d1b4      	bne.n	6a9e <frameParse+0x14a>
    6b34:	0028      	movs	r0, r5
    6b36:	4b72      	ldr	r3, [pc, #456]	; (6d00 <frameParse+0x3ac>)
    6b38:	4798      	blx	r3
    6b3a:	e7b0      	b.n	6a9e <frameParse+0x14a>
    6b3c:	4b6c      	ldr	r3, [pc, #432]	; (6cf0 <frameParse+0x39c>)
    6b3e:	4298      	cmp	r0, r3
    6b40:	d100      	bne.n	6b44 <frameParse+0x1f0>
    6b42:	e0b6      	b.n	6cb2 <frameParse+0x35e>
    6b44:	2701      	movs	r7, #1
    6b46:	7863      	ldrb	r3, [r4, #1]
    6b48:	2510      	movs	r5, #16
    6b4a:	421d      	tst	r5, r3
    6b4c:	d006      	beq.n	6b5c <frameParse+0x208>
    6b4e:	4a60      	ldr	r2, [pc, #384]	; (6cd0 <frameParse+0x37c>)
    6b50:	88a1      	ldrh	r1, [r4, #4]
    6b52:	4692      	mov	sl, r2
    6b54:	8812      	ldrh	r2, [r2, #0]
    6b56:	4291      	cmp	r1, r2
    6b58:	d100      	bne.n	6b5c <frameParse+0x208>
    6b5a:	e1c7      	b.n	6eec <frameParse+0x598>
    6b5c:	2503      	movs	r5, #3
    6b5e:	402b      	ands	r3, r5
    6b60:	2b01      	cmp	r3, #1
    6b62:	d100      	bne.n	6b66 <frameParse+0x212>
    6b64:	e160      	b.n	6e28 <frameParse+0x4d4>
    6b66:	2b00      	cmp	r3, #0
    6b68:	d105      	bne.n	6b76 <frameParse+0x222>
    6b6a:	4b5f      	ldr	r3, [pc, #380]	; (6ce8 <frameParse+0x394>)
    6b6c:	781b      	ldrb	r3, [r3, #0]
    6b6e:	3b06      	subs	r3, #6
    6b70:	2b01      	cmp	r3, #1
    6b72:	d800      	bhi.n	6b76 <frameParse+0x222>
    6b74:	e16d      	b.n	6e52 <frameParse+0x4fe>
    6b76:	2f00      	cmp	r7, #0
    6b78:	d100      	bne.n	6b7c <frameParse+0x228>
    6b7a:	e790      	b.n	6a9e <frameParse+0x14a>
    6b7c:	7823      	ldrb	r3, [r4, #0]
    6b7e:	2b00      	cmp	r3, #0
    6b80:	d100      	bne.n	6b84 <frameParse+0x230>
    6b82:	e78c      	b.n	6a9e <frameParse+0x14a>
    6b84:	4b58      	ldr	r3, [pc, #352]	; (6ce8 <frameParse+0x394>)
    6b86:	781b      	ldrb	r3, [r3, #0]
    6b88:	2b06      	cmp	r3, #6
    6b8a:	d000      	beq.n	6b8e <frameParse+0x23a>
    6b8c:	e787      	b.n	6a9e <frameParse+0x14a>
    6b8e:	ab16      	add	r3, sp, #88	; 0x58
    6b90:	001a      	movs	r2, r3
    6b92:	9308      	str	r3, [sp, #32]
    6b94:	2301      	movs	r3, #1
    6b96:	425b      	negs	r3, r3
    6b98:	8013      	strh	r3, [r2, #0]
    6b9a:	2078      	movs	r0, #120	; 0x78
    6b9c:	4b55      	ldr	r3, [pc, #340]	; (6cf4 <frameParse+0x3a0>)
    6b9e:	4798      	blx	r3
    6ba0:	4680      	mov	r8, r0
    6ba2:	2800      	cmp	r0, #0
    6ba4:	d100      	bne.n	6ba8 <frameParse+0x254>
    6ba6:	e77a      	b.n	6a9e <frameParse+0x14a>
    6ba8:	7823      	ldrb	r3, [r4, #0]
    6baa:	4a56      	ldr	r2, [pc, #344]	; (6d04 <frameParse+0x3b0>)
    6bac:	3b01      	subs	r3, #1
    6bae:	b2db      	uxtb	r3, r3
    6bb0:	7023      	strb	r3, [r4, #0]
    6bb2:	7003      	strb	r3, [r0, #0]
    6bb4:	7863      	ldrb	r3, [r4, #1]
    6bb6:	7043      	strb	r3, [r0, #1]
    6bb8:	7813      	ldrb	r3, [r2, #0]
    6bba:	3301      	adds	r3, #1
    6bbc:	b2db      	uxtb	r3, r3
    6bbe:	7083      	strb	r3, [r0, #2]
    6bc0:	7013      	strb	r3, [r2, #0]
    6bc2:	7863      	ldrb	r3, [r4, #1]
    6bc4:	069a      	lsls	r2, r3, #26
    6bc6:	d500      	bpl.n	6bca <frameParse+0x276>
    6bc8:	e172      	b.n	6eb0 <frameParse+0x55c>
    6bca:	8862      	ldrh	r2, [r4, #2]
    6bcc:	2716      	movs	r7, #22
    6bce:	70c2      	strb	r2, [r0, #3]
    6bd0:	8862      	ldrh	r2, [r4, #2]
    6bd2:	250e      	movs	r5, #14
    6bd4:	0a12      	lsrs	r2, r2, #8
    6bd6:	7102      	strb	r2, [r0, #4]
    6bd8:	88a2      	ldrh	r2, [r4, #4]
    6bda:	7142      	strb	r2, [r0, #5]
    6bdc:	88a2      	ldrh	r2, [r4, #4]
    6bde:	0a12      	lsrs	r2, r2, #8
    6be0:	7182      	strb	r2, [r0, #6]
    6be2:	88e2      	ldrh	r2, [r4, #6]
    6be4:	71c2      	strb	r2, [r0, #7]
    6be6:	88e2      	ldrh	r2, [r4, #6]
    6be8:	0a12      	lsrs	r2, r2, #8
    6bea:	7202      	strb	r2, [r0, #8]
    6bec:	2216      	movs	r2, #22
    6bee:	4692      	mov	sl, r2
    6bf0:	3a0d      	subs	r2, #13
    6bf2:	200a      	movs	r0, #10
    6bf4:	4691      	mov	r9, r2
    6bf6:	9206      	str	r2, [sp, #24]
    6bf8:	075b      	lsls	r3, r3, #29
    6bfa:	d518      	bpl.n	6c2e <frameParse+0x2da>
    6bfc:	4b42      	ldr	r3, [pc, #264]	; (6d08 <frameParse+0x3b4>)
    6bfe:	4649      	mov	r1, r9
    6c00:	681a      	ldr	r2, [r3, #0]
    6c02:	2320      	movs	r3, #32
    6c04:	5cd3      	ldrb	r3, [r2, r3]
    6c06:	4a41      	ldr	r2, [pc, #260]	; (6d0c <frameParse+0x3b8>)
    6c08:	7423      	strb	r3, [r4, #16]
    6c0a:	6812      	ldr	r2, [r2, #0]
    6c0c:	4440      	add	r0, r8
    6c0e:	6162      	str	r2, [r4, #20]
    6c10:	4642      	mov	r2, r8
    6c12:	5453      	strb	r3, [r2, r1]
    6c14:	2204      	movs	r2, #4
    6c16:	a913      	add	r1, sp, #76	; 0x4c
    6c18:	4b2e      	ldr	r3, [pc, #184]	; (6cd4 <frameParse+0x380>)
    6c1a:	4798      	blx	r3
    6c1c:	0028      	movs	r0, r5
    6c1e:	4b2d      	ldr	r3, [pc, #180]	; (6cd4 <frameParse+0x380>)
    6c20:	4440      	add	r0, r8
    6c22:	2208      	movs	r2, #8
    6c24:	493a      	ldr	r1, [pc, #232]	; (6d10 <frameParse+0x3bc>)
    6c26:	4798      	blx	r3
    6c28:	4653      	mov	r3, sl
    6c2a:	46b9      	mov	r9, r7
    6c2c:	9306      	str	r3, [sp, #24]
    6c2e:	4642      	mov	r2, r8
    6c30:	7a23      	ldrb	r3, [r4, #8]
    6c32:	7093      	strb	r3, [r2, #2]
    6c34:	2220      	movs	r2, #32
    6c36:	4b2b      	ldr	r3, [pc, #172]	; (6ce4 <frameParse+0x390>)
    6c38:	469a      	mov	sl, r3
    6c3a:	681b      	ldr	r3, [r3, #0]
    6c3c:	5c9a      	ldrb	r2, [r3, r2]
    6c3e:	2a00      	cmp	r2, #0
    6c40:	d018      	beq.n	6c74 <frameParse+0x320>
    6c42:	6918      	ldr	r0, [r3, #16]
    6c44:	4d2a      	ldr	r5, [pc, #168]	; (6cf0 <frameParse+0x39c>)
    6c46:	8803      	ldrh	r3, [r0, #0]
    6c48:	42ab      	cmp	r3, r5
    6c4a:	d100      	bne.n	6c4e <frameParse+0x2fa>
    6c4c:	e2a6      	b.n	719c <frameParse+0x848>
    6c4e:	3a01      	subs	r2, #1
    6c50:	b2d2      	uxtb	r2, r2
    6c52:	3201      	adds	r2, #1
    6c54:	0092      	lsls	r2, r2, #2
    6c56:	1d03      	adds	r3, r0, #4
    6c58:	1882      	adds	r2, r0, r2
    6c5a:	46b4      	mov	ip, r6
    6c5c:	e007      	b.n	6c6e <frameParse+0x31a>
    6c5e:	1a1e      	subs	r6, r3, r0
    6c60:	001f      	movs	r7, r3
    6c62:	3304      	adds	r3, #4
    6c64:	1f19      	subs	r1, r3, #4
    6c66:	8809      	ldrh	r1, [r1, #0]
    6c68:	42a9      	cmp	r1, r5
    6c6a:	d100      	bne.n	6c6e <frameParse+0x31a>
    6c6c:	e129      	b.n	6ec2 <frameParse+0x56e>
    6c6e:	429a      	cmp	r2, r3
    6c70:	d1f5      	bne.n	6c5e <frameParse+0x30a>
    6c72:	4666      	mov	r6, ip
    6c74:	4648      	mov	r0, r9
    6c76:	9b05      	ldr	r3, [sp, #20]
    6c78:	7b32      	ldrb	r2, [r6, #12]
    6c7a:	9907      	ldr	r1, [sp, #28]
    6c7c:	1ad2      	subs	r2, r2, r3
    6c7e:	4440      	add	r0, r8
    6c80:	4b14      	ldr	r3, [pc, #80]	; (6cd4 <frameParse+0x380>)
    6c82:	4798      	blx	r3
    6c84:	465b      	mov	r3, fp
    6c86:	7b32      	ldrb	r2, [r6, #12]
    6c88:	0020      	movs	r0, r4
    6c8a:	1ad2      	subs	r2, r2, r3
    6c8c:	2300      	movs	r3, #0
    6c8e:	9303      	str	r3, [sp, #12]
    6c90:	9302      	str	r3, [sp, #8]
    6c92:	9b08      	ldr	r3, [sp, #32]
    6c94:	b2d2      	uxtb	r2, r2
    6c96:	9301      	str	r3, [sp, #4]
    6c98:	2302      	movs	r3, #2
    6c9a:	9906      	ldr	r1, [sp, #24]
    6c9c:	9300      	str	r3, [sp, #0]
    6c9e:	4c17      	ldr	r4, [pc, #92]	; (6cfc <frameParse+0x3a8>)
    6ca0:	4643      	mov	r3, r8
    6ca2:	47a0      	blx	r4
    6ca4:	2800      	cmp	r0, #0
    6ca6:	d000      	beq.n	6caa <frameParse+0x356>
    6ca8:	e6f9      	b.n	6a9e <frameParse+0x14a>
    6caa:	4640      	mov	r0, r8
    6cac:	4b14      	ldr	r3, [pc, #80]	; (6d00 <frameParse+0x3ac>)
    6cae:	4798      	blx	r3
    6cb0:	e6f5      	b.n	6a9e <frameParse+0x14a>
    6cb2:	2503      	movs	r5, #3
    6cb4:	7863      	ldrb	r3, [r4, #1]
    6cb6:	2701      	movs	r7, #1
    6cb8:	401d      	ands	r5, r3
    6cba:	d000      	beq.n	6cbe <frameParse+0x36a>
    6cbc:	e744      	b.n	6b48 <frameParse+0x1f4>
    6cbe:	4b15      	ldr	r3, [pc, #84]	; (6d14 <frameParse+0x3c0>)
    6cc0:	4798      	blx	r3
    6cc2:	1e07      	subs	r7, r0, #0
    6cc4:	d000      	beq.n	6cc8 <frameParse+0x374>
    6cc6:	e214      	b.n	70f2 <frameParse+0x79e>
    6cc8:	7863      	ldrb	r3, [r4, #1]
    6cca:	3701      	adds	r7, #1
    6ccc:	e73c      	b.n	6b48 <frameParse+0x1f4>
    6cce:	46c0      	nop			; (mov r8, r8)
    6cd0:	20001a70 	.word	0x20001a70
    6cd4:	000093ab 	.word	0x000093ab
    6cd8:	00008e21 	.word	0x00008e21
    6cdc:	00008f4d 	.word	0x00008f4d
    6ce0:	0000fffc 	.word	0x0000fffc
    6ce4:	20001a28 	.word	0x20001a28
    6ce8:	20000384 	.word	0x20000384
    6cec:	00008b01 	.word	0x00008b01
    6cf0:	0000ffff 	.word	0x0000ffff
    6cf4:	00002fe1 	.word	0x00002fe1
    6cf8:	0000612d 	.word	0x0000612d
    6cfc:	000061c5 	.word	0x000061c5
    6d00:	00003031 	.word	0x00003031
    6d04:	20001a44 	.word	0x20001a44
    6d08:	20001a2c 	.word	0x20001a2c
    6d0c:	20001abc 	.word	0x20001abc
    6d10:	20000070 	.word	0x20000070
    6d14:	00008585 	.word	0x00008585
    6d18:	7863      	ldrb	r3, [r4, #1]
    6d1a:	2700      	movs	r7, #0
    6d1c:	e714      	b.n	6b48 <frameParse+0x1f4>
    6d1e:	4ada      	ldr	r2, [pc, #872]	; (7088 <frameParse+0x734>)
    6d20:	7812      	ldrb	r2, [r2, #0]
    6d22:	2a06      	cmp	r2, #6
    6d24:	d000      	beq.n	6d28 <frameParse+0x3d4>
    6d26:	e6d0      	b.n	6aca <frameParse+0x176>
    6d28:	2580      	movs	r5, #128	; 0x80
    6d2a:	4005      	ands	r5, r0
    6d2c:	d100      	bne.n	6d30 <frameParse+0x3dc>
    6d2e:	e18a      	b.n	7046 <frameParse+0x6f2>
    6d30:	2078      	movs	r0, #120	; 0x78
    6d32:	4bd6      	ldr	r3, [pc, #856]	; (708c <frameParse+0x738>)
    6d34:	4798      	blx	r3
    6d36:	1e05      	subs	r5, r0, #0
    6d38:	d100      	bne.n	6d3c <frameParse+0x3e8>
    6d3a:	e6b0      	b.n	6a9e <frameParse+0x14a>
    6d3c:	2203      	movs	r2, #3
    6d3e:	7821      	ldrb	r1, [r4, #0]
    6d40:	ab16      	add	r3, sp, #88	; 0x58
    6d42:	88e0      	ldrh	r0, [r4, #6]
    6d44:	88a7      	ldrh	r7, [r4, #4]
    6d46:	7019      	strb	r1, [r3, #0]
    6d48:	9308      	str	r3, [sp, #32]
    6d4a:	785b      	ldrb	r3, [r3, #1]
    6d4c:	4393      	bics	r3, r2
    6d4e:	2201      	movs	r2, #1
    6d50:	4313      	orrs	r3, r2
    6d52:	2208      	movs	r2, #8
    6d54:	b2db      	uxtb	r3, r3
    6d56:	4393      	bics	r3, r2
    6d58:	2204      	movs	r2, #4
    6d5a:	4313      	orrs	r3, r2
    6d5c:	2220      	movs	r2, #32
    6d5e:	4690      	mov	r8, r2
    6d60:	b2db      	uxtb	r3, r3
    6d62:	4393      	bics	r3, r2
    6d64:	324f      	adds	r2, #79	; 0x4f
    6d66:	4013      	ands	r3, r2
    6d68:	9a08      	ldr	r2, [sp, #32]
    6d6a:	7053      	strb	r3, [r2, #1]
    6d6c:	4bc8      	ldr	r3, [pc, #800]	; (7090 <frameParse+0x73c>)
    6d6e:	8097      	strh	r7, [r2, #4]
    6d70:	881b      	ldrh	r3, [r3, #0]
    6d72:	80d0      	strh	r0, [r2, #6]
    6d74:	8053      	strh	r3, [r2, #2]
    6d76:	7029      	strb	r1, [r5, #0]
    6d78:	7853      	ldrb	r3, [r2, #1]
    6d7a:	49c6      	ldr	r1, [pc, #792]	; (7094 <frameParse+0x740>)
    6d7c:	706b      	strb	r3, [r5, #1]
    6d7e:	780b      	ldrb	r3, [r1, #0]
    6d80:	3301      	adds	r3, #1
    6d82:	b2db      	uxtb	r3, r3
    6d84:	700b      	strb	r3, [r1, #0]
    6d86:	70ab      	strb	r3, [r5, #2]
    6d88:	4643      	mov	r3, r8
    6d8a:	7851      	ldrb	r1, [r2, #1]
    6d8c:	420b      	tst	r3, r1
    6d8e:	d000      	beq.n	6d92 <frameParse+0x43e>
    6d90:	e1da      	b.n	7148 <frameParse+0x7f4>
    6d92:	2009      	movs	r0, #9
    6d94:	2709      	movs	r7, #9
    6d96:	8853      	ldrh	r3, [r2, #2]
    6d98:	70eb      	strb	r3, [r5, #3]
    6d9a:	8853      	ldrh	r3, [r2, #2]
    6d9c:	0a1b      	lsrs	r3, r3, #8
    6d9e:	712b      	strb	r3, [r5, #4]
    6da0:	8893      	ldrh	r3, [r2, #4]
    6da2:	716b      	strb	r3, [r5, #5]
    6da4:	8893      	ldrh	r3, [r2, #4]
    6da6:	0a1b      	lsrs	r3, r3, #8
    6da8:	71ab      	strb	r3, [r5, #6]
    6daa:	88d3      	ldrh	r3, [r2, #6]
    6dac:	71eb      	strb	r3, [r5, #7]
    6dae:	88d3      	ldrh	r3, [r2, #6]
    6db0:	0a1b      	lsrs	r3, r3, #8
    6db2:	722b      	strb	r3, [r5, #8]
    6db4:	074b      	lsls	r3, r1, #29
    6db6:	d51d      	bpl.n	6df4 <frameParse+0x4a0>
    6db8:	4bb7      	ldr	r3, [pc, #732]	; (7098 <frameParse+0x744>)
    6dba:	9908      	ldr	r1, [sp, #32]
    6dbc:	681a      	ldr	r2, [r3, #0]
    6dbe:	2320      	movs	r3, #32
    6dc0:	5cd3      	ldrb	r3, [r2, r3]
    6dc2:	4ab6      	ldr	r2, [pc, #728]	; (709c <frameParse+0x748>)
    6dc4:	740b      	strb	r3, [r1, #16]
    6dc6:	6812      	ldr	r2, [r2, #0]
    6dc8:	9206      	str	r2, [sp, #24]
    6dca:	000a      	movs	r2, r1
    6dcc:	9906      	ldr	r1, [sp, #24]
    6dce:	6151      	str	r1, [r2, #20]
    6dd0:	542b      	strb	r3, [r5, r0]
    6dd2:	1c78      	adds	r0, r7, #1
    6dd4:	b2c0      	uxtb	r0, r0
    6dd6:	2204      	movs	r2, #4
    6dd8:	a91b      	add	r1, sp, #108	; 0x6c
    6dda:	4bb1      	ldr	r3, [pc, #708]	; (70a0 <frameParse+0x74c>)
    6ddc:	1828      	adds	r0, r5, r0
    6dde:	4798      	blx	r3
    6de0:	1d78      	adds	r0, r7, #5
    6de2:	b2c0      	uxtb	r0, r0
    6de4:	370d      	adds	r7, #13
    6de6:	1828      	adds	r0, r5, r0
    6de8:	2208      	movs	r2, #8
    6dea:	49ae      	ldr	r1, [pc, #696]	; (70a4 <frameParse+0x750>)
    6dec:	4bac      	ldr	r3, [pc, #688]	; (70a0 <frameParse+0x74c>)
    6dee:	b2ff      	uxtb	r7, r7
    6df0:	4798      	blx	r3
    6df2:	0038      	movs	r0, r7
    6df4:	7a23      	ldrb	r3, [r4, #8]
    6df6:	9907      	ldr	r1, [sp, #28]
    6df8:	70ab      	strb	r3, [r5, #2]
    6dfa:	7b32      	ldrb	r2, [r6, #12]
    6dfc:	9b05      	ldr	r3, [sp, #20]
    6dfe:	1828      	adds	r0, r5, r0
    6e00:	1ad2      	subs	r2, r2, r3
    6e02:	4ba7      	ldr	r3, [pc, #668]	; (70a0 <frameParse+0x74c>)
    6e04:	4798      	blx	r3
    6e06:	465b      	mov	r3, fp
    6e08:	7b32      	ldrb	r2, [r6, #12]
    6e0a:	0039      	movs	r1, r7
    6e0c:	1ad2      	subs	r2, r2, r3
    6e0e:	2300      	movs	r3, #0
    6e10:	9303      	str	r3, [sp, #12]
    6e12:	9302      	str	r3, [sp, #8]
    6e14:	ab0f      	add	r3, sp, #60	; 0x3c
    6e16:	9301      	str	r3, [sp, #4]
    6e18:	2302      	movs	r3, #2
    6e1a:	b2d2      	uxtb	r2, r2
    6e1c:	9300      	str	r3, [sp, #0]
    6e1e:	9808      	ldr	r0, [sp, #32]
    6e20:	002b      	movs	r3, r5
    6e22:	4ca1      	ldr	r4, [pc, #644]	; (70a8 <frameParse+0x754>)
    6e24:	47a0      	blx	r4
    6e26:	e63a      	b.n	6a9e <frameParse+0x14a>
    6e28:	220f      	movs	r2, #15
    6e2a:	9b07      	ldr	r3, [sp, #28]
    6e2c:	781b      	ldrb	r3, [r3, #0]
    6e2e:	4393      	bics	r3, r2
    6e30:	2b10      	cmp	r3, #16
    6e32:	d100      	bne.n	6e36 <frameParse+0x4e2>
    6e34:	e0ed      	b.n	7012 <frameParse+0x6be>
    6e36:	d92f      	bls.n	6e98 <frameParse+0x544>
    6e38:	2b20      	cmp	r3, #32
    6e3a:	d100      	bne.n	6e3e <frameParse+0x4ea>
    6e3c:	e0e2      	b.n	7004 <frameParse+0x6b0>
    6e3e:	2b30      	cmp	r3, #48	; 0x30
    6e40:	d000      	beq.n	6e44 <frameParse+0x4f0>
    6e42:	e698      	b.n	6b76 <frameParse+0x222>
    6e44:	4b99      	ldr	r3, [pc, #612]	; (70ac <frameParse+0x758>)
    6e46:	9907      	ldr	r1, [sp, #28]
    6e48:	0020      	movs	r0, r4
    6e4a:	4798      	blx	r3
    6e4c:	7863      	ldrb	r3, [r4, #1]
    6e4e:	402b      	ands	r3, r5
    6e50:	e689      	b.n	6b66 <frameParse+0x212>
    6e52:	88a2      	ldrh	r2, [r4, #4]
    6e54:	4b96      	ldr	r3, [pc, #600]	; (70b0 <frameParse+0x75c>)
    6e56:	429a      	cmp	r2, r3
    6e58:	d90e      	bls.n	6e78 <frameParse+0x524>
    6e5a:	20ff      	movs	r0, #255	; 0xff
    6e5c:	4b95      	ldr	r3, [pc, #596]	; (70b4 <frameParse+0x760>)
    6e5e:	8819      	ldrh	r1, [r3, #0]
    6e60:	4208      	tst	r0, r1
    6e62:	d100      	bne.n	6e66 <frameParse+0x512>
    6e64:	e0e6      	b.n	7034 <frameParse+0x6e0>
    6e66:	8819      	ldrh	r1, [r3, #0]
    6e68:	0609      	lsls	r1, r1, #24
    6e6a:	d500      	bpl.n	6e6e <frameParse+0x51a>
    6e6c:	e0e2      	b.n	7034 <frameParse+0x6e0>
    6e6e:	4992      	ldr	r1, [pc, #584]	; (70b8 <frameParse+0x764>)
    6e70:	428a      	cmp	r2, r1
    6e72:	d000      	beq.n	6e76 <frameParse+0x522>
    6e74:	e67f      	b.n	6b76 <frameParse+0x222>
    6e76:	881b      	ldrh	r3, [r3, #0]
    6e78:	88e3      	ldrh	r3, [r4, #6]
    6e7a:	a816      	add	r0, sp, #88	; 0x58
    6e7c:	8003      	strh	r3, [r0, #0]
    6e7e:	466b      	mov	r3, sp
    6e80:	7e1b      	ldrb	r3, [r3, #24]
    6e82:	7203      	strb	r3, [r0, #8]
    6e84:	9b07      	ldr	r3, [sp, #28]
    6e86:	6043      	str	r3, [r0, #4]
    6e88:	7bb3      	ldrb	r3, [r6, #14]
    6e8a:	7283      	strb	r3, [r0, #10]
    6e8c:	7b73      	ldrb	r3, [r6, #13]
    6e8e:	7243      	strb	r3, [r0, #9]
    6e90:	4b8a      	ldr	r3, [pc, #552]	; (70bc <frameParse+0x768>)
    6e92:	681b      	ldr	r3, [r3, #0]
    6e94:	4798      	blx	r3
    6e96:	e66e      	b.n	6b76 <frameParse+0x222>
    6e98:	2b00      	cmp	r3, #0
    6e9a:	d000      	beq.n	6e9e <frameParse+0x54a>
    6e9c:	e66b      	b.n	6b76 <frameParse+0x222>
    6e9e:	7bb3      	ldrb	r3, [r6, #14]
    6ea0:	0020      	movs	r0, r4
    6ea2:	9300      	str	r3, [sp, #0]
    6ea4:	4642      	mov	r2, r8
    6ea6:	9b07      	ldr	r3, [sp, #28]
    6ea8:	4649      	mov	r1, r9
    6eaa:	4c85      	ldr	r4, [pc, #532]	; (70c0 <frameParse+0x76c>)
    6eac:	47a0      	blx	r4
    6eae:	e5f6      	b.n	6a9e <frameParse+0x14a>
    6eb0:	2210      	movs	r2, #16
    6eb2:	4692      	mov	sl, r2
    6eb4:	3a0d      	subs	r2, #13
    6eb6:	2710      	movs	r7, #16
    6eb8:	2508      	movs	r5, #8
    6eba:	2004      	movs	r0, #4
    6ebc:	4691      	mov	r9, r2
    6ebe:	9206      	str	r2, [sp, #24]
    6ec0:	e69a      	b.n	6bf8 <frameParse+0x2a4>
    6ec2:	4663      	mov	r3, ip
    6ec4:	46bc      	mov	ip, r7
    6ec6:	0037      	movs	r7, r6
    6ec8:	001e      	movs	r6, r3
    6eca:	4661      	mov	r1, ip
    6ecc:	88e3      	ldrh	r3, [r4, #6]
    6ece:	7a22      	ldrb	r2, [r4, #8]
    6ed0:	800b      	strh	r3, [r1, #0]
    6ed2:	4653      	mov	r3, sl
    6ed4:	681b      	ldr	r3, [r3, #0]
    6ed6:	691b      	ldr	r3, [r3, #16]
    6ed8:	19db      	adds	r3, r3, r7
    6eda:	709a      	strb	r2, [r3, #2]
    6edc:	4653      	mov	r3, sl
    6ede:	2221      	movs	r2, #33	; 0x21
    6ee0:	681b      	ldr	r3, [r3, #0]
    6ee2:	5c9a      	ldrb	r2, [r3, r2]
    6ee4:	691b      	ldr	r3, [r3, #16]
    6ee6:	19df      	adds	r7, r3, r7
    6ee8:	70fa      	strb	r2, [r7, #3]
    6eea:	e6c3      	b.n	6c74 <frameParse+0x320>
    6eec:	88e3      	ldrh	r3, [r4, #6]
    6eee:	2078      	movs	r0, #120	; 0x78
    6ef0:	930a      	str	r3, [sp, #40]	; 0x28
    6ef2:	7a23      	ldrb	r3, [r4, #8]
    6ef4:	930b      	str	r3, [sp, #44]	; 0x2c
    6ef6:	4b65      	ldr	r3, [pc, #404]	; (708c <frameParse+0x738>)
    6ef8:	4798      	blx	r3
    6efa:	9009      	str	r0, [sp, #36]	; 0x24
    6efc:	2800      	cmp	r0, #0
    6efe:	d100      	bne.n	6f02 <frameParse+0x5ae>
    6f00:	e079      	b.n	6ff6 <frameParse+0x6a2>
    6f02:	4652      	mov	r2, sl
    6f04:	8811      	ldrh	r1, [r2, #0]
    6f06:	22ff      	movs	r2, #255	; 0xff
    6f08:	2003      	movs	r0, #3
    6f0a:	ab16      	add	r3, sp, #88	; 0x58
    6f0c:	701a      	strb	r2, [r3, #0]
    6f0e:	9308      	str	r3, [sp, #32]
    6f10:	785b      	ldrb	r3, [r3, #1]
    6f12:	4692      	mov	sl, r2
    6f14:	4383      	bics	r3, r0
    6f16:	2001      	movs	r0, #1
    6f18:	4318      	orrs	r0, r3
    6f1a:	23f7      	movs	r3, #247	; 0xf7
    6f1c:	4003      	ands	r3, r0
    6f1e:	2004      	movs	r0, #4
    6f20:	4303      	orrs	r3, r0
    6f22:	2020      	movs	r0, #32
    6f24:	227f      	movs	r2, #127	; 0x7f
    6f26:	b2db      	uxtb	r3, r3
    6f28:	4383      	bics	r3, r0
    6f2a:	4013      	ands	r3, r2
    6f2c:	43ab      	bics	r3, r5
    6f2e:	9d08      	ldr	r5, [sp, #32]
    6f30:	466a      	mov	r2, sp
    6f32:	706b      	strb	r3, [r5, #1]
    6f34:	4b56      	ldr	r3, [pc, #344]	; (7090 <frameParse+0x73c>)
    6f36:	80e9      	strh	r1, [r5, #6]
    6f38:	881b      	ldrh	r3, [r3, #0]
    6f3a:	9909      	ldr	r1, [sp, #36]	; 0x24
    6f3c:	806b      	strh	r3, [r5, #2]
    6f3e:	4653      	mov	r3, sl
    6f40:	8d12      	ldrh	r2, [r2, #40]	; 0x28
    6f42:	80aa      	strh	r2, [r5, #4]
    6f44:	700b      	strb	r3, [r1, #0]
    6f46:	786b      	ldrb	r3, [r5, #1]
    6f48:	4a52      	ldr	r2, [pc, #328]	; (7094 <frameParse+0x740>)
    6f4a:	704b      	strb	r3, [r1, #1]
    6f4c:	7813      	ldrb	r3, [r2, #0]
    6f4e:	3301      	adds	r3, #1
    6f50:	b2db      	uxtb	r3, r3
    6f52:	708b      	strb	r3, [r1, #2]
    6f54:	7013      	strb	r3, [r2, #0]
    6f56:	786a      	ldrb	r2, [r5, #1]
    6f58:	4210      	tst	r0, r2
    6f5a:	d000      	beq.n	6f5e <frameParse+0x60a>
    6f5c:	e0c0      	b.n	70e0 <frameParse+0x78c>
    6f5e:	0008      	movs	r0, r1
    6f60:	886b      	ldrh	r3, [r5, #2]
    6f62:	70cb      	strb	r3, [r1, #3]
    6f64:	886b      	ldrh	r3, [r5, #2]
    6f66:	0a1b      	lsrs	r3, r3, #8
    6f68:	710b      	strb	r3, [r1, #4]
    6f6a:	88ab      	ldrh	r3, [r5, #4]
    6f6c:	714b      	strb	r3, [r1, #5]
    6f6e:	88ab      	ldrh	r3, [r5, #4]
    6f70:	2109      	movs	r1, #9
    6f72:	0a1b      	lsrs	r3, r3, #8
    6f74:	7183      	strb	r3, [r0, #6]
    6f76:	88eb      	ldrh	r3, [r5, #6]
    6f78:	71c3      	strb	r3, [r0, #7]
    6f7a:	88eb      	ldrh	r3, [r5, #6]
    6f7c:	0a1b      	lsrs	r3, r3, #8
    6f7e:	7203      	strb	r3, [r0, #8]
    6f80:	2316      	movs	r3, #22
    6f82:	200a      	movs	r0, #10
    6f84:	469a      	mov	sl, r3
    6f86:	930c      	str	r3, [sp, #48]	; 0x30
    6f88:	3b08      	subs	r3, #8
    6f8a:	930a      	str	r3, [sp, #40]	; 0x28
    6f8c:	3b05      	subs	r3, #5
    6f8e:	0752      	lsls	r2, r2, #29
    6f90:	d51b      	bpl.n	6fca <frameParse+0x676>
    6f92:	4a41      	ldr	r2, [pc, #260]	; (7098 <frameParse+0x744>)
    6f94:	9d08      	ldr	r5, [sp, #32]
    6f96:	6811      	ldr	r1, [r2, #0]
    6f98:	2220      	movs	r2, #32
    6f9a:	5c8a      	ldrb	r2, [r1, r2]
    6f9c:	493f      	ldr	r1, [pc, #252]	; (709c <frameParse+0x748>)
    6f9e:	742a      	strb	r2, [r5, #16]
    6fa0:	6809      	ldr	r1, [r1, #0]
    6fa2:	910d      	str	r1, [sp, #52]	; 0x34
    6fa4:	0029      	movs	r1, r5
    6fa6:	9d0d      	ldr	r5, [sp, #52]	; 0x34
    6fa8:	614d      	str	r5, [r1, #20]
    6faa:	9d09      	ldr	r5, [sp, #36]	; 0x24
    6fac:	a91b      	add	r1, sp, #108	; 0x6c
    6fae:	46ac      	mov	ip, r5
    6fb0:	54ea      	strb	r2, [r5, r3]
    6fb2:	4460      	add	r0, ip
    6fb4:	2204      	movs	r2, #4
    6fb6:	4b3a      	ldr	r3, [pc, #232]	; (70a0 <frameParse+0x74c>)
    6fb8:	4798      	blx	r3
    6fba:	9b0a      	ldr	r3, [sp, #40]	; 0x28
    6fbc:	4939      	ldr	r1, [pc, #228]	; (70a4 <frameParse+0x750>)
    6fbe:	18e8      	adds	r0, r5, r3
    6fc0:	2208      	movs	r2, #8
    6fc2:	4b37      	ldr	r3, [pc, #220]	; (70a0 <frameParse+0x74c>)
    6fc4:	4798      	blx	r3
    6fc6:	4653      	mov	r3, sl
    6fc8:	990c      	ldr	r1, [sp, #48]	; 0x30
    6fca:	222c      	movs	r2, #44	; 0x2c
    6fcc:	466d      	mov	r5, sp
    6fce:	18ad      	adds	r5, r5, r2
    6fd0:	782d      	ldrb	r5, [r5, #0]
    6fd2:	9809      	ldr	r0, [sp, #36]	; 0x24
    6fd4:	3206      	adds	r2, #6
    6fd6:	7085      	strb	r5, [r0, #2]
    6fd8:	54c2      	strb	r2, [r0, r3]
    6fda:	2300      	movs	r3, #0
    6fdc:	9303      	str	r3, [sp, #12]
    6fde:	9302      	str	r3, [sp, #8]
    6fe0:	4643      	mov	r3, r8
    6fe2:	9301      	str	r3, [sp, #4]
    6fe4:	464b      	mov	r3, r9
    6fe6:	3a31      	subs	r2, #49	; 0x31
    6fe8:	9300      	str	r3, [sp, #0]
    6fea:	4d2f      	ldr	r5, [pc, #188]	; (70a8 <frameParse+0x754>)
    6fec:	0003      	movs	r3, r0
    6fee:	9808      	ldr	r0, [sp, #32]
    6ff0:	47a8      	blx	r5
    6ff2:	2800      	cmp	r0, #0
    6ff4:	d001      	beq.n	6ffa <frameParse+0x6a6>
    6ff6:	7863      	ldrb	r3, [r4, #1]
    6ff8:	e5b0      	b.n	6b5c <frameParse+0x208>
    6ffa:	4b32      	ldr	r3, [pc, #200]	; (70c4 <frameParse+0x770>)
    6ffc:	9809      	ldr	r0, [sp, #36]	; 0x24
    6ffe:	4798      	blx	r3
    7000:	7863      	ldrb	r3, [r4, #1]
    7002:	e5ab      	b.n	6b5c <frameParse+0x208>
    7004:	4b30      	ldr	r3, [pc, #192]	; (70c8 <frameParse+0x774>)
    7006:	9907      	ldr	r1, [sp, #28]
    7008:	0020      	movs	r0, r4
    700a:	4798      	blx	r3
    700c:	7863      	ldrb	r3, [r4, #1]
    700e:	402b      	ands	r3, r5
    7010:	e5a9      	b.n	6b66 <frameParse+0x212>
    7012:	4b1d      	ldr	r3, [pc, #116]	; (7088 <frameParse+0x734>)
    7014:	781b      	ldrb	r3, [r3, #0]
    7016:	2b06      	cmp	r3, #6
    7018:	d000      	beq.n	701c <frameParse+0x6c8>
    701a:	e5ac      	b.n	6b76 <frameParse+0x222>
    701c:	7bb3      	ldrb	r3, [r6, #14]
    701e:	4f2b      	ldr	r7, [pc, #172]	; (70cc <frameParse+0x778>)
    7020:	9300      	str	r3, [sp, #0]
    7022:	4642      	mov	r2, r8
    7024:	9b07      	ldr	r3, [sp, #28]
    7026:	4649      	mov	r1, r9
    7028:	0020      	movs	r0, r4
    702a:	47b8      	blx	r7
    702c:	7863      	ldrb	r3, [r4, #1]
    702e:	0007      	movs	r7, r0
    7030:	402b      	ands	r3, r5
    7032:	e598      	b.n	6b66 <frameParse+0x212>
    7034:	881b      	ldrh	r3, [r3, #0]
    7036:	061b      	lsls	r3, r3, #24
    7038:	d400      	bmi.n	703c <frameParse+0x6e8>
    703a:	e71d      	b.n	6e78 <frameParse+0x524>
    703c:	4b24      	ldr	r3, [pc, #144]	; (70d0 <frameParse+0x77c>)
    703e:	429a      	cmp	r2, r3
    7040:	d000      	beq.n	7044 <frameParse+0x6f0>
    7042:	e719      	b.n	6e78 <frameParse+0x524>
    7044:	e597      	b.n	6b76 <frameParse+0x222>
    7046:	2090      	movs	r0, #144	; 0x90
    7048:	4b10      	ldr	r3, [pc, #64]	; (708c <frameParse+0x738>)
    704a:	4798      	blx	r3
    704c:	1e06      	subs	r6, r0, #0
    704e:	d100      	bne.n	7052 <frameParse+0x6fe>
    7050:	e525      	b.n	6a9e <frameParse+0x14a>
    7052:	0021      	movs	r1, r4
    7054:	2220      	movs	r2, #32
    7056:	4b12      	ldr	r3, [pc, #72]	; (70a0 <frameParse+0x74c>)
    7058:	3018      	adds	r0, #24
    705a:	4798      	blx	r3
    705c:	2338      	movs	r3, #56	; 0x38
    705e:	0030      	movs	r0, r6
    7060:	9a06      	ldr	r2, [sp, #24]
    7062:	9907      	ldr	r1, [sp, #28]
    7064:	54f2      	strb	r2, [r6, r3]
    7066:	3039      	adds	r0, #57	; 0x39
    7068:	60b5      	str	r5, [r6, #8]
    706a:	4b0d      	ldr	r3, [pc, #52]	; (70a0 <frameParse+0x74c>)
    706c:	4798      	blx	r3
    706e:	2301      	movs	r3, #1
    7070:	74f3      	strb	r3, [r6, #19]
    7072:	4b18      	ldr	r3, [pc, #96]	; (70d4 <frameParse+0x780>)
    7074:	0031      	movs	r1, r6
    7076:	681b      	ldr	r3, [r3, #0]
    7078:	4817      	ldr	r0, [pc, #92]	; (70d8 <frameParse+0x784>)
    707a:	7fdb      	ldrb	r3, [r3, #31]
    707c:	3301      	adds	r3, #1
    707e:	7433      	strb	r3, [r6, #16]
    7080:	4b16      	ldr	r3, [pc, #88]	; (70dc <frameParse+0x788>)
    7082:	4798      	blx	r3
    7084:	e50b      	b.n	6a9e <frameParse+0x14a>
    7086:	46c0      	nop			; (mov r8, r8)
    7088:	20000384 	.word	0x20000384
    708c:	00002fe1 	.word	0x00002fe1
    7090:	20001a5c 	.word	0x20001a5c
    7094:	20001a44 	.word	0x20001a44
    7098:	20001a2c 	.word	0x20001a2c
    709c:	20001abc 	.word	0x20001abc
    70a0:	000093ab 	.word	0x000093ab
    70a4:	20000070 	.word	0x20000070
    70a8:	000061c5 	.word	0x000061c5
    70ac:	0000677d 	.word	0x0000677d
    70b0:	0000fffc 	.word	0x0000fffc
    70b4:	20001a70 	.word	0x20001a70
    70b8:	0000ffff 	.word	0x0000ffff
    70bc:	2000039c 	.word	0x2000039c
    70c0:	00007ab5 	.word	0x00007ab5
    70c4:	00003031 	.word	0x00003031
    70c8:	000060c1 	.word	0x000060c1
    70cc:	00008761 	.word	0x00008761
    70d0:	0000fffd 	.word	0x0000fffd
    70d4:	20001a28 	.word	0x20001a28
    70d8:	20001a1c 	.word	0x20001a1c
    70dc:	0000314d 	.word	0x0000314d
    70e0:	2310      	movs	r3, #16
    70e2:	469a      	mov	sl, r3
    70e4:	930c      	str	r3, [sp, #48]	; 0x30
    70e6:	3b08      	subs	r3, #8
    70e8:	930a      	str	r3, [sp, #40]	; 0x28
    70ea:	2004      	movs	r0, #4
    70ec:	3b05      	subs	r3, #5
    70ee:	2103      	movs	r1, #3
    70f0:	e74d      	b.n	6f8e <frameParse+0x63a>
    70f2:	4b2c      	ldr	r3, [pc, #176]	; (71a4 <frameParse+0x850>)
    70f4:	4798      	blx	r3
    70f6:	2832      	cmp	r0, #50	; 0x32
    70f8:	d801      	bhi.n	70fe <frameParse+0x7aa>
    70fa:	7863      	ldrb	r3, [r4, #1]
    70fc:	e524      	b.n	6b48 <frameParse+0x1f4>
    70fe:	2090      	movs	r0, #144	; 0x90
    7100:	4b29      	ldr	r3, [pc, #164]	; (71a8 <frameParse+0x854>)
    7102:	4798      	blx	r3
    7104:	2800      	cmp	r0, #0
    7106:	d100      	bne.n	710a <frameParse+0x7b6>
    7108:	e4c9      	b.n	6a9e <frameParse+0x14a>
    710a:	9008      	str	r0, [sp, #32]
    710c:	2220      	movs	r2, #32
    710e:	0021      	movs	r1, r4
    7110:	4b26      	ldr	r3, [pc, #152]	; (71ac <frameParse+0x858>)
    7112:	3018      	adds	r0, #24
    7114:	4798      	blx	r3
    7116:	2338      	movs	r3, #56	; 0x38
    7118:	9808      	ldr	r0, [sp, #32]
    711a:	9a06      	ldr	r2, [sp, #24]
    711c:	9907      	ldr	r1, [sp, #28]
    711e:	54c2      	strb	r2, [r0, r3]
    7120:	6085      	str	r5, [r0, #8]
    7122:	4b22      	ldr	r3, [pc, #136]	; (71ac <frameParse+0x858>)
    7124:	3039      	adds	r0, #57	; 0x39
    7126:	4798      	blx	r3
    7128:	4653      	mov	r3, sl
    712a:	2201      	movs	r2, #1
    712c:	9808      	ldr	r0, [sp, #32]
    712e:	681b      	ldr	r3, [r3, #0]
    7130:	74c2      	strb	r2, [r0, #19]
    7132:	7fdb      	ldrb	r3, [r3, #31]
    7134:	0001      	movs	r1, r0
    7136:	189b      	adds	r3, r3, r2
    7138:	7403      	strb	r3, [r0, #16]
    713a:	7445      	strb	r5, [r0, #17]
    713c:	7502      	strb	r2, [r0, #20]
    713e:	4b1c      	ldr	r3, [pc, #112]	; (71b0 <frameParse+0x85c>)
    7140:	481c      	ldr	r0, [pc, #112]	; (71b4 <frameParse+0x860>)
    7142:	4798      	blx	r3
    7144:	7863      	ldrb	r3, [r4, #1]
    7146:	e4ff      	b.n	6b48 <frameParse+0x1f4>
    7148:	2003      	movs	r0, #3
    714a:	2703      	movs	r7, #3
    714c:	e632      	b.n	6db4 <frameParse+0x460>
    714e:	2090      	movs	r0, #144	; 0x90
    7150:	4b15      	ldr	r3, [pc, #84]	; (71a8 <frameParse+0x854>)
    7152:	4798      	blx	r3
    7154:	1e05      	subs	r5, r0, #0
    7156:	d100      	bne.n	715a <frameParse+0x806>
    7158:	e4a1      	b.n	6a9e <frameParse+0x14a>
    715a:	2220      	movs	r2, #32
    715c:	0021      	movs	r1, r4
    715e:	4b13      	ldr	r3, [pc, #76]	; (71ac <frameParse+0x858>)
    7160:	3018      	adds	r0, #24
    7162:	4798      	blx	r3
    7164:	2338      	movs	r3, #56	; 0x38
    7166:	9a06      	ldr	r2, [sp, #24]
    7168:	0028      	movs	r0, r5
    716a:	54ea      	strb	r2, [r5, r3]
    716c:	2300      	movs	r3, #0
    716e:	9907      	ldr	r1, [sp, #28]
    7170:	60ab      	str	r3, [r5, #8]
    7172:	3039      	adds	r0, #57	; 0x39
    7174:	4b0d      	ldr	r3, [pc, #52]	; (71ac <frameParse+0x858>)
    7176:	4798      	blx	r3
    7178:	2301      	movs	r3, #1
    717a:	74eb      	strb	r3, [r5, #19]
    717c:	88a0      	ldrh	r0, [r4, #4]
    717e:	4b0e      	ldr	r3, [pc, #56]	; (71b8 <frameParse+0x864>)
    7180:	4798      	blx	r3
    7182:	2800      	cmp	r0, #0
    7184:	d100      	bne.n	7188 <frameParse+0x834>
    7186:	e4d5      	b.n	6b34 <frameParse+0x1e0>
    7188:	4b0c      	ldr	r3, [pc, #48]	; (71bc <frameParse+0x868>)
    718a:	0029      	movs	r1, r5
    718c:	681b      	ldr	r3, [r3, #0]
    718e:	480c      	ldr	r0, [pc, #48]	; (71c0 <frameParse+0x86c>)
    7190:	7f9b      	ldrb	r3, [r3, #30]
    7192:	3301      	adds	r3, #1
    7194:	742b      	strb	r3, [r5, #16]
    7196:	4b06      	ldr	r3, [pc, #24]	; (71b0 <frameParse+0x85c>)
    7198:	4798      	blx	r3
    719a:	e480      	b.n	6a9e <frameParse+0x14a>
    719c:	4684      	mov	ip, r0
    719e:	2700      	movs	r7, #0
    71a0:	e693      	b.n	6eca <frameParse+0x576>
    71a2:	46c0      	nop			; (mov r8, r8)
    71a4:	0000306d 	.word	0x0000306d
    71a8:	00002fe1 	.word	0x00002fe1
    71ac:	000093ab 	.word	0x000093ab
    71b0:	0000314d 	.word	0x0000314d
    71b4:	20001a1c 	.word	0x20001a1c
    71b8:	00008d05 	.word	0x00008d05
    71bc:	20001a28 	.word	0x20001a28
    71c0:	20001ab0 	.word	0x20001ab0

000071c4 <indirectDataTimerHandler>:
    71c4:	b5f8      	push	{r3, r4, r5, r6, r7, lr}
    71c6:	46ce      	mov	lr, r9
    71c8:	4647      	mov	r7, r8
    71ca:	b580      	push	{r7, lr}
    71cc:	4e18      	ldr	r6, [pc, #96]	; (7230 <indirectDataTimerHandler+0x6c>)
    71ce:	7a33      	ldrb	r3, [r6, #8]
    71d0:	2b00      	cmp	r3, #0
    71d2:	d029      	beq.n	7228 <indirectDataTimerHandler+0x64>
    71d4:	4b17      	ldr	r3, [pc, #92]	; (7234 <indirectDataTimerHandler+0x70>)
    71d6:	2500      	movs	r5, #0
    71d8:	4698      	mov	r8, r3
    71da:	4b17      	ldr	r3, [pc, #92]	; (7238 <indirectDataTimerHandler+0x74>)
    71dc:	4f17      	ldr	r7, [pc, #92]	; (723c <indirectDataTimerHandler+0x78>)
    71de:	4699      	mov	r9, r3
    71e0:	e00d      	b.n	71fe <indirectDataTimerHandler+0x3a>
    71e2:	6883      	ldr	r3, [r0, #8]
    71e4:	2b00      	cmp	r3, #0
    71e6:	d003      	beq.n	71f0 <indirectDataTimerHandler+0x2c>
    71e8:	7c80      	ldrb	r0, [r0, #18]
    71ea:	0022      	movs	r2, r4
    71ec:	2105      	movs	r1, #5
    71ee:	4798      	blx	r3
    71f0:	0020      	movs	r0, r4
    71f2:	47c8      	blx	r9
    71f4:	3501      	adds	r5, #1
    71f6:	7a33      	ldrb	r3, [r6, #8]
    71f8:	b2ed      	uxtb	r5, r5
    71fa:	42ab      	cmp	r3, r5
    71fc:	d914      	bls.n	7228 <indirectDataTimerHandler+0x64>
    71fe:	2100      	movs	r1, #0
    7200:	0030      	movs	r0, r6
    7202:	47b8      	blx	r7
    7204:	1e04      	subs	r4, r0, #0
    7206:	d00f      	beq.n	7228 <indirectDataTimerHandler+0x64>
    7208:	7c03      	ldrb	r3, [r0, #16]
    720a:	2b00      	cmp	r3, #0
    720c:	d004      	beq.n	7218 <indirectDataTimerHandler+0x54>
    720e:	3b01      	subs	r3, #1
    7210:	b2db      	uxtb	r3, r3
    7212:	7403      	strb	r3, [r0, #16]
    7214:	2b00      	cmp	r3, #0
    7216:	d0e4      	beq.n	71e2 <indirectDataTimerHandler+0x1e>
    7218:	0021      	movs	r1, r4
    721a:	0030      	movs	r0, r6
    721c:	47c0      	blx	r8
    721e:	3501      	adds	r5, #1
    7220:	7a33      	ldrb	r3, [r6, #8]
    7222:	b2ed      	uxtb	r5, r5
    7224:	42ab      	cmp	r3, r5
    7226:	d8ea      	bhi.n	71fe <indirectDataTimerHandler+0x3a>
    7228:	bc0c      	pop	{r2, r3}
    722a:	4690      	mov	r8, r2
    722c:	4699      	mov	r9, r3
    722e:	bdf8      	pop	{r3, r4, r5, r6, r7, pc}
    7230:	20001a1c 	.word	0x20001a1c
    7234:	0000314d 	.word	0x0000314d
    7238:	00003031 	.word	0x00003031
    723c:	00003185 	.word	0x00003185

00007240 <establishTimerExpired>:
    7240:	2205      	movs	r2, #5
    7242:	b510      	push	{r4, lr}
    7244:	4b04      	ldr	r3, [pc, #16]	; (7258 <establishTimerExpired+0x18>)
    7246:	4c05      	ldr	r4, [pc, #20]	; (725c <establishTimerExpired+0x1c>)
    7248:	701a      	strb	r2, [r3, #0]
    724a:	2004      	movs	r0, #4
    724c:	6823      	ldr	r3, [r4, #0]
    724e:	4798      	blx	r3
    7250:	2300      	movs	r3, #0
    7252:	6023      	str	r3, [r4, #0]
    7254:	bd10      	pop	{r4, pc}
    7256:	46c0      	nop			; (mov r8, r8)
    7258:	20000384 	.word	0x20000384
    725c:	200003a4 	.word	0x200003a4

00007260 <sendKeepAlive>:
    7260:	b570      	push	{r4, r5, r6, lr}
    7262:	2078      	movs	r0, #120	; 0x78
    7264:	b08c      	sub	sp, #48	; 0x30
    7266:	4b15      	ldr	r3, [pc, #84]	; (72bc <sendKeepAlive+0x5c>)
    7268:	4798      	blx	r3
    726a:	1e04      	subs	r4, r0, #0
    726c:	d023      	beq.n	72b6 <sendKeepAlive+0x56>
    726e:	4b14      	ldr	r3, [pc, #80]	; (72c0 <sendKeepAlive+0x60>)
    7270:	4e14      	ldr	r6, [pc, #80]	; (72c4 <sendKeepAlive+0x64>)
    7272:	8819      	ldrh	r1, [r3, #0]
    7274:	8832      	ldrh	r2, [r6, #0]
    7276:	b289      	uxth	r1, r1
    7278:	ab04      	add	r3, sp, #16
    727a:	20ff      	movs	r0, #255	; 0xff
    727c:	4d12      	ldr	r5, [pc, #72]	; (72c8 <sendKeepAlive+0x68>)
    727e:	47a8      	blx	r5
    7280:	0021      	movs	r1, r4
    7282:	4b12      	ldr	r3, [pc, #72]	; (72cc <sendKeepAlive+0x6c>)
    7284:	a804      	add	r0, sp, #16
    7286:	4798      	blx	r3
    7288:	2307      	movs	r3, #7
    728a:	0005      	movs	r5, r0
    728c:	5423      	strb	r3, [r4, r0]
    728e:	3001      	adds	r0, #1
    7290:	b2c0      	uxtb	r0, r0
    7292:	1820      	adds	r0, r4, r0
    7294:	2208      	movs	r2, #8
    7296:	490e      	ldr	r1, [pc, #56]	; (72d0 <sendKeepAlive+0x70>)
    7298:	4b0e      	ldr	r3, [pc, #56]	; (72d4 <sendKeepAlive+0x74>)
    729a:	4798      	blx	r3
    729c:	4b0e      	ldr	r3, [pc, #56]	; (72d8 <sendKeepAlive+0x78>)
    729e:	9601      	str	r6, [sp, #4]
    72a0:	9303      	str	r3, [sp, #12]
    72a2:	2300      	movs	r3, #0
    72a4:	9302      	str	r3, [sp, #8]
    72a6:	3302      	adds	r3, #2
    72a8:	9300      	str	r3, [sp, #0]
    72aa:	2209      	movs	r2, #9
    72ac:	0023      	movs	r3, r4
    72ae:	0029      	movs	r1, r5
    72b0:	a804      	add	r0, sp, #16
    72b2:	4c0a      	ldr	r4, [pc, #40]	; (72dc <sendKeepAlive+0x7c>)
    72b4:	47a0      	blx	r4
    72b6:	b00c      	add	sp, #48	; 0x30
    72b8:	bd70      	pop	{r4, r5, r6, pc}
    72ba:	46c0      	nop			; (mov r8, r8)
    72bc:	00002fe1 	.word	0x00002fe1
    72c0:	20001a70 	.word	0x20001a70
    72c4:	20000078 	.word	0x20000078
    72c8:	00006101 	.word	0x00006101
    72cc:	0000612d 	.word	0x0000612d
    72d0:	20000070 	.word	0x20000070
    72d4:	000093ab 	.word	0x000093ab
    72d8:	000077b5 	.word	0x000077b5
    72dc:	000061c5 	.word	0x000061c5

000072e0 <roleUpgradeTimerExpired>:
    72e0:	b530      	push	{r4, r5, lr}
    72e2:	2078      	movs	r0, #120	; 0x78
    72e4:	b08d      	sub	sp, #52	; 0x34
    72e6:	4b15      	ldr	r3, [pc, #84]	; (733c <roleUpgradeTimerExpired+0x5c>)
    72e8:	4798      	blx	r3
    72ea:	1e04      	subs	r4, r0, #0
    72ec:	d023      	beq.n	7336 <roleUpgradeTimerExpired+0x56>
    72ee:	4b14      	ldr	r3, [pc, #80]	; (7340 <roleUpgradeTimerExpired+0x60>)
    72f0:	2200      	movs	r2, #0
    72f2:	8819      	ldrh	r1, [r3, #0]
    72f4:	20ff      	movs	r0, #255	; 0xff
    72f6:	b289      	uxth	r1, r1
    72f8:	ab04      	add	r3, sp, #16
    72fa:	4d12      	ldr	r5, [pc, #72]	; (7344 <roleUpgradeTimerExpired+0x64>)
    72fc:	47a8      	blx	r5
    72fe:	0021      	movs	r1, r4
    7300:	4b11      	ldr	r3, [pc, #68]	; (7348 <roleUpgradeTimerExpired+0x68>)
    7302:	a804      	add	r0, sp, #16
    7304:	4798      	blx	r3
    7306:	2305      	movs	r3, #5
    7308:	0005      	movs	r5, r0
    730a:	5423      	strb	r3, [r4, r0]
    730c:	3001      	adds	r0, #1
    730e:	b2c0      	uxtb	r0, r0
    7310:	1820      	adds	r0, r4, r0
    7312:	2208      	movs	r2, #8
    7314:	490d      	ldr	r1, [pc, #52]	; (734c <roleUpgradeTimerExpired+0x6c>)
    7316:	4b0e      	ldr	r3, [pc, #56]	; (7350 <roleUpgradeTimerExpired+0x70>)
    7318:	4798      	blx	r3
    731a:	4b0e      	ldr	r3, [pc, #56]	; (7354 <roleUpgradeTimerExpired+0x74>)
    731c:	2209      	movs	r2, #9
    731e:	9303      	str	r3, [sp, #12]
    7320:	2300      	movs	r3, #0
    7322:	9302      	str	r3, [sp, #8]
    7324:	4b0c      	ldr	r3, [pc, #48]	; (7358 <roleUpgradeTimerExpired+0x78>)
    7326:	0029      	movs	r1, r5
    7328:	9301      	str	r3, [sp, #4]
    732a:	2302      	movs	r3, #2
    732c:	a804      	add	r0, sp, #16
    732e:	9300      	str	r3, [sp, #0]
    7330:	0023      	movs	r3, r4
    7332:	4c0a      	ldr	r4, [pc, #40]	; (735c <roleUpgradeTimerExpired+0x7c>)
    7334:	47a0      	blx	r4
    7336:	b00d      	add	sp, #52	; 0x34
    7338:	bd30      	pop	{r4, r5, pc}
    733a:	46c0      	nop			; (mov r8, r8)
    733c:	00002fe1 	.word	0x00002fe1
    7340:	20001a70 	.word	0x20001a70
    7344:	00006101 	.word	0x00006101
    7348:	0000612d 	.word	0x0000612d
    734c:	20000070 	.word	0x20000070
    7350:	000093ab 	.word	0x000093ab
    7354:	000076cd 	.word	0x000076cd
    7358:	20000078 	.word	0x20000078
    735c:	000061c5 	.word	0x000061c5

00007360 <commandConfcb>:
    7360:	b510      	push	{r4, lr}
    7362:	0010      	movs	r0, r2
    7364:	4b01      	ldr	r3, [pc, #4]	; (736c <commandConfcb+0xc>)
    7366:	4798      	blx	r3
    7368:	bd10      	pop	{r4, pc}
    736a:	46c0      	nop			; (mov r8, r8)
    736c:	00003031 	.word	0x00003031

00007370 <ScanChannel>:
    7370:	b5f0      	push	{r4, r5, r6, r7, lr}
    7372:	46c6      	mov	lr, r8
    7374:	b500      	push	{lr}
    7376:	4c2d      	ldr	r4, [pc, #180]	; (742c <ScanChannel+0xbc>)
    7378:	b090      	sub	sp, #64	; 0x40
    737a:	7823      	ldrb	r3, [r4, #0]
    737c:	0005      	movs	r5, r0
    737e:	2b1a      	cmp	r3, #26
    7380:	d816      	bhi.n	73b0 <ScanChannel+0x40>
    7382:	2601      	movs	r6, #1
    7384:	4f2a      	ldr	r7, [pc, #168]	; (7430 <ScanChannel+0xc0>)
    7386:	e004      	b.n	7392 <ScanChannel+0x22>
    7388:	3301      	adds	r3, #1
    738a:	b2db      	uxtb	r3, r3
    738c:	7023      	strb	r3, [r4, #0]
    738e:	2b1a      	cmp	r3, #26
    7390:	d80e      	bhi.n	73b0 <ScanChannel+0x40>
    7392:	686a      	ldr	r2, [r5, #4]
    7394:	40da      	lsrs	r2, r3
    7396:	4216      	tst	r6, r2
    7398:	d0f6      	beq.n	7388 <ScanChannel+0x18>
    739a:	0021      	movs	r1, r4
    739c:	2000      	movs	r0, #0
    739e:	47b8      	blx	r7
    73a0:	2800      	cmp	r0, #0
    73a2:	d114      	bne.n	73ce <ScanChannel+0x5e>
    73a4:	7823      	ldrb	r3, [r4, #0]
    73a6:	3301      	adds	r3, #1
    73a8:	b2db      	uxtb	r3, r3
    73aa:	7023      	strb	r3, [r4, #0]
    73ac:	2b1a      	cmp	r3, #26
    73ae:	d9f0      	bls.n	7392 <ScanChannel+0x22>
    73b0:	2205      	movs	r2, #5
    73b2:	4b20      	ldr	r3, [pc, #128]	; (7434 <ScanChannel+0xc4>)
    73b4:	4c20      	ldr	r4, [pc, #128]	; (7438 <ScanChannel+0xc8>)
    73b6:	701a      	strb	r2, [r3, #0]
    73b8:	7868      	ldrb	r0, [r5, #1]
    73ba:	6823      	ldr	r3, [r4, #0]
    73bc:	0029      	movs	r1, r5
    73be:	4798      	blx	r3
    73c0:	2300      	movs	r3, #0
    73c2:	2000      	movs	r0, #0
    73c4:	6023      	str	r3, [r4, #0]
    73c6:	b010      	add	sp, #64	; 0x40
    73c8:	bc04      	pop	{r2}
    73ca:	4690      	mov	r8, r2
    73cc:	bdf0      	pop	{r4, r5, r6, r7, pc}
    73ce:	ab02      	add	r3, sp, #8
    73d0:	469c      	mov	ip, r3
    73d2:	2516      	movs	r5, #22
    73d4:	2301      	movs	r3, #1
    73d6:	4465      	add	r5, ip
    73d8:	425b      	negs	r3, r3
    73da:	802b      	strh	r3, [r5, #0]
    73dc:	2078      	movs	r0, #120	; 0x78
    73de:	4b17      	ldr	r3, [pc, #92]	; (743c <ScanChannel+0xcc>)
    73e0:	4798      	blx	r3
    73e2:	0004      	movs	r4, r0
    73e4:	200a      	movs	r0, #10
    73e6:	2c00      	cmp	r4, #0
    73e8:	d0ed      	beq.n	73c6 <ScanChannel+0x56>
    73ea:	af08      	add	r7, sp, #32
    73ec:	9505      	str	r5, [sp, #20]
    73ee:	882a      	ldrh	r2, [r5, #0]
    73f0:	003b      	movs	r3, r7
    73f2:	4913      	ldr	r1, [pc, #76]	; (7440 <ScanChannel+0xd0>)
    73f4:	3809      	subs	r0, #9
    73f6:	4d13      	ldr	r5, [pc, #76]	; (7444 <ScanChannel+0xd4>)
    73f8:	47a8      	blx	r5
    73fa:	2220      	movs	r2, #32
    73fc:	787b      	ldrb	r3, [r7, #1]
    73fe:	0021      	movs	r1, r4
    7400:	4313      	orrs	r3, r2
    7402:	707b      	strb	r3, [r7, #1]
    7404:	0038      	movs	r0, r7
    7406:	4b10      	ldr	r3, [pc, #64]	; (7448 <ScanChannel+0xd8>)
    7408:	4798      	blx	r3
    740a:	4b10      	ldr	r3, [pc, #64]	; (744c <ScanChannel+0xdc>)
    740c:	5426      	strb	r6, [r4, r0]
    740e:	9303      	str	r3, [sp, #12]
    7410:	2300      	movs	r3, #0
    7412:	9302      	str	r3, [sp, #8]
    7414:	9b05      	ldr	r3, [sp, #20]
    7416:	0001      	movs	r1, r0
    7418:	9301      	str	r3, [sp, #4]
    741a:	2302      	movs	r3, #2
    741c:	2201      	movs	r2, #1
    741e:	9300      	str	r3, [sp, #0]
    7420:	0038      	movs	r0, r7
    7422:	0023      	movs	r3, r4
    7424:	4c0a      	ldr	r4, [pc, #40]	; (7450 <ScanChannel+0xe0>)
    7426:	47a0      	blx	r4
    7428:	e7cd      	b.n	73c6 <ScanChannel+0x56>
    742a:	46c0      	nop			; (mov r8, r8)
    742c:	20001a3c 	.word	0x20001a3c
    7430:	00004cc5 	.word	0x00004cc5
    7434:	20000384 	.word	0x20000384
    7438:	200003a8 	.word	0x200003a8
    743c:	00002fe1 	.word	0x00002fe1
    7440:	0000ffff 	.word	0x0000ffff
    7444:	00006101 	.word	0x00006101
    7448:	0000612d 	.word	0x0000612d
    744c:	00007611 	.word	0x00007611
    7450:	000061c5 	.word	0x000061c5

00007454 <scanDurationExpired>:
    7454:	b510      	push	{r4, lr}
    7456:	4b0d      	ldr	r3, [pc, #52]	; (748c <scanDurationExpired+0x38>)
    7458:	4c0d      	ldr	r4, [pc, #52]	; (7490 <scanDurationExpired+0x3c>)
    745a:	781a      	ldrb	r2, [r3, #0]
    745c:	2301      	movs	r3, #1
    745e:	4093      	lsls	r3, r2
    7460:	6820      	ldr	r0, [r4, #0]
    7462:	6842      	ldr	r2, [r0, #4]
    7464:	439a      	bics	r2, r3
    7466:	6042      	str	r2, [r0, #4]
    7468:	4b0a      	ldr	r3, [pc, #40]	; (7494 <scanDurationExpired+0x40>)
    746a:	4798      	blx	r3
    746c:	2800      	cmp	r0, #0
    746e:	d00b      	beq.n	7488 <scanDurationExpired+0x34>
    7470:	2205      	movs	r2, #5
    7472:	6823      	ldr	r3, [r4, #0]
    7474:	7018      	strb	r0, [r3, #0]
    7476:	4b08      	ldr	r3, [pc, #32]	; (7498 <scanDurationExpired+0x44>)
    7478:	6821      	ldr	r1, [r4, #0]
    747a:	4c08      	ldr	r4, [pc, #32]	; (749c <scanDurationExpired+0x48>)
    747c:	701a      	strb	r2, [r3, #0]
    747e:	7848      	ldrb	r0, [r1, #1]
    7480:	6823      	ldr	r3, [r4, #0]
    7482:	4798      	blx	r3
    7484:	2300      	movs	r3, #0
    7486:	6023      	str	r3, [r4, #0]
    7488:	bd10      	pop	{r4, pc}
    748a:	46c0      	nop			; (mov r8, r8)
    748c:	20001a3c 	.word	0x20001a3c
    7490:	200003b0 	.word	0x200003b0
    7494:	00007371 	.word	0x00007371
    7498:	20000384 	.word	0x20000384
    749c:	200003a8 	.word	0x200003a8

000074a0 <rxOffEdKeepAliveTimerHandler>:
    74a0:	b5f0      	push	{r4, r5, r6, r7, lr}
    74a2:	46ce      	mov	lr, r9
    74a4:	4647      	mov	r7, r8
    74a6:	22ff      	movs	r2, #255	; 0xff
    74a8:	2516      	movs	r5, #22
    74aa:	b580      	push	{r7, lr}
    74ac:	4b23      	ldr	r3, [pc, #140]	; (753c <rxOffEdKeepAliveTimerHandler+0x9c>)
    74ae:	b08f      	sub	sp, #60	; 0x3c
    74b0:	4698      	mov	r8, r3
    74b2:	881b      	ldrh	r3, [r3, #0]
    74b4:	446d      	add	r5, sp
    74b6:	4393      	bics	r3, r2
    74b8:	802b      	strh	r3, [r5, #0]
    74ba:	2078      	movs	r0, #120	; 0x78
    74bc:	4b20      	ldr	r3, [pc, #128]	; (7540 <rxOffEdKeepAliveTimerHandler+0xa0>)
    74be:	4798      	blx	r3
    74c0:	1e06      	subs	r6, r0, #0
    74c2:	d036      	beq.n	7532 <rxOffEdKeepAliveTimerHandler+0x92>
    74c4:	4c1f      	ldr	r4, [pc, #124]	; (7544 <rxOffEdKeepAliveTimerHandler+0xa4>)
    74c6:	4b20      	ldr	r3, [pc, #128]	; (7548 <rxOffEdKeepAliveTimerHandler+0xa8>)
    74c8:	0020      	movs	r0, r4
    74ca:	4798      	blx	r3
    74cc:	4b1f      	ldr	r3, [pc, #124]	; (754c <rxOffEdKeepAliveTimerHandler+0xac>)
    74ce:	0020      	movs	r0, r4
    74d0:	6123      	str	r3, [r4, #16]
    74d2:	4b1f      	ldr	r3, [pc, #124]	; (7550 <rxOffEdKeepAliveTimerHandler+0xb0>)
    74d4:	681a      	ldr	r2, [r3, #0]
    74d6:	232c      	movs	r3, #44	; 0x2c
    74d8:	5cd2      	ldrb	r2, [r2, r3]
    74da:	23fa      	movs	r3, #250	; 0xfa
    74dc:	009b      	lsls	r3, r3, #2
    74de:	4353      	muls	r3, r2
    74e0:	6063      	str	r3, [r4, #4]
    74e2:	60a3      	str	r3, [r4, #8]
    74e4:	2300      	movs	r3, #0
    74e6:	7323      	strb	r3, [r4, #12]
    74e8:	4699      	mov	r9, r3
    74ea:	4b1a      	ldr	r3, [pc, #104]	; (7554 <rxOffEdKeepAliveTimerHandler+0xb4>)
    74ec:	4798      	blx	r3
    74ee:	4643      	mov	r3, r8
    74f0:	8819      	ldrh	r1, [r3, #0]
    74f2:	ac06      	add	r4, sp, #24
    74f4:	0023      	movs	r3, r4
    74f6:	b289      	uxth	r1, r1
    74f8:	882a      	ldrh	r2, [r5, #0]
    74fa:	2001      	movs	r0, #1
    74fc:	4f16      	ldr	r7, [pc, #88]	; (7558 <rxOffEdKeepAliveTimerHandler+0xb8>)
    74fe:	47b8      	blx	r7
    7500:	2220      	movs	r2, #32
    7502:	7863      	ldrb	r3, [r4, #1]
    7504:	0031      	movs	r1, r6
    7506:	4313      	orrs	r3, r2
    7508:	22ef      	movs	r2, #239	; 0xef
    750a:	4013      	ands	r3, r2
    750c:	7063      	strb	r3, [r4, #1]
    750e:	0020      	movs	r0, r4
    7510:	4b12      	ldr	r3, [pc, #72]	; (755c <rxOffEdKeepAliveTimerHandler+0xbc>)
    7512:	4798      	blx	r3
    7514:	2331      	movs	r3, #49	; 0x31
    7516:	5433      	strb	r3, [r6, r0]
    7518:	4b11      	ldr	r3, [pc, #68]	; (7560 <rxOffEdKeepAliveTimerHandler+0xc0>)
    751a:	0001      	movs	r1, r0
    751c:	9303      	str	r3, [sp, #12]
    751e:	464b      	mov	r3, r9
    7520:	9302      	str	r3, [sp, #8]
    7522:	3302      	adds	r3, #2
    7524:	9300      	str	r3, [sp, #0]
    7526:	0020      	movs	r0, r4
    7528:	9501      	str	r5, [sp, #4]
    752a:	0033      	movs	r3, r6
    752c:	2201      	movs	r2, #1
    752e:	4c0d      	ldr	r4, [pc, #52]	; (7564 <rxOffEdKeepAliveTimerHandler+0xc4>)
    7530:	47a0      	blx	r4
    7532:	b00f      	add	sp, #60	; 0x3c
    7534:	bc0c      	pop	{r2, r3}
    7536:	4690      	mov	r8, r2
    7538:	4699      	mov	r9, r3
    753a:	bdf0      	pop	{r4, r5, r6, r7, pc}
    753c:	20001a70 	.word	0x20001a70
    7540:	00002fe1 	.word	0x00002fe1
    7544:	20001a74 	.word	0x20001a74
    7548:	00003249 	.word	0x00003249
    754c:	000074a1 	.word	0x000074a1
    7550:	20001a28 	.word	0x20001a28
    7554:	000032b5 	.word	0x000032b5
    7558:	00006101 	.word	0x00006101
    755c:	0000612d 	.word	0x0000612d
    7560:	000076dd 	.word	0x000076dd
    7564:	000061c5 	.word	0x000061c5

00007568 <dataWaitIntervalTimerHandler>:
    7568:	b570      	push	{r4, r5, r6, lr}
    756a:	2500      	movs	r5, #0
    756c:	4c0a      	ldr	r4, [pc, #40]	; (7598 <dataWaitIntervalTimerHandler+0x30>)
    756e:	4b0b      	ldr	r3, [pc, #44]	; (759c <dataWaitIntervalTimerHandler+0x34>)
    7570:	0020      	movs	r0, r4
    7572:	701d      	strb	r5, [r3, #0]
    7574:	4b0a      	ldr	r3, [pc, #40]	; (75a0 <dataWaitIntervalTimerHandler+0x38>)
    7576:	4798      	blx	r3
    7578:	4b0a      	ldr	r3, [pc, #40]	; (75a4 <dataWaitIntervalTimerHandler+0x3c>)
    757a:	0020      	movs	r0, r4
    757c:	6123      	str	r3, [r4, #16]
    757e:	4b0a      	ldr	r3, [pc, #40]	; (75a8 <dataWaitIntervalTimerHandler+0x40>)
    7580:	681a      	ldr	r2, [r3, #0]
    7582:	232c      	movs	r3, #44	; 0x2c
    7584:	5cd2      	ldrb	r2, [r2, r3]
    7586:	23fa      	movs	r3, #250	; 0xfa
    7588:	009b      	lsls	r3, r3, #2
    758a:	4353      	muls	r3, r2
    758c:	6063      	str	r3, [r4, #4]
    758e:	60a3      	str	r3, [r4, #8]
    7590:	4b06      	ldr	r3, [pc, #24]	; (75ac <dataWaitIntervalTimerHandler+0x44>)
    7592:	7325      	strb	r5, [r4, #12]
    7594:	4798      	blx	r3
    7596:	bd70      	pop	{r4, r5, r6, pc}
    7598:	20001a74 	.word	0x20001a74
    759c:	200003a2 	.word	0x200003a2
    75a0:	00003249 	.word	0x00003249
    75a4:	000074a1 	.word	0x000074a1
    75a8:	20001a28 	.word	0x20001a28
    75ac:	000032b5 	.word	0x000032b5

000075b0 <EstcommandConfcb>:
    75b0:	b570      	push	{r4, r5, r6, lr}
    75b2:	0010      	movs	r0, r2
    75b4:	4b0f      	ldr	r3, [pc, #60]	; (75f4 <EstcommandConfcb+0x44>)
    75b6:	000c      	movs	r4, r1
    75b8:	4798      	blx	r3
    75ba:	2c00      	cmp	r4, #0
    75bc:	d009      	beq.n	75d2 <EstcommandConfcb+0x22>
    75be:	2205      	movs	r2, #5
    75c0:	4b0d      	ldr	r3, [pc, #52]	; (75f8 <EstcommandConfcb+0x48>)
    75c2:	4d0e      	ldr	r5, [pc, #56]	; (75fc <EstcommandConfcb+0x4c>)
    75c4:	701a      	strb	r2, [r3, #0]
    75c6:	0020      	movs	r0, r4
    75c8:	682b      	ldr	r3, [r5, #0]
    75ca:	4798      	blx	r3
    75cc:	2300      	movs	r3, #0
    75ce:	602b      	str	r3, [r5, #0]
    75d0:	bd70      	pop	{r4, r5, r6, pc}
    75d2:	480b      	ldr	r0, [pc, #44]	; (7600 <EstcommandConfcb+0x50>)
    75d4:	4b0b      	ldr	r3, [pc, #44]	; (7604 <EstcommandConfcb+0x54>)
    75d6:	6103      	str	r3, [r0, #16]
    75d8:	4b0b      	ldr	r3, [pc, #44]	; (7608 <EstcommandConfcb+0x58>)
    75da:	681a      	ldr	r2, [r3, #0]
    75dc:	232e      	movs	r3, #46	; 0x2e
    75de:	5cd2      	ldrb	r2, [r2, r3]
    75e0:	23fa      	movs	r3, #250	; 0xfa
    75e2:	009b      	lsls	r3, r3, #2
    75e4:	4353      	muls	r3, r2
    75e6:	6043      	str	r3, [r0, #4]
    75e8:	6083      	str	r3, [r0, #8]
    75ea:	4b08      	ldr	r3, [pc, #32]	; (760c <EstcommandConfcb+0x5c>)
    75ec:	7304      	strb	r4, [r0, #12]
    75ee:	4798      	blx	r3
    75f0:	e7ee      	b.n	75d0 <EstcommandConfcb+0x20>
    75f2:	46c0      	nop			; (mov r8, r8)
    75f4:	00003031 	.word	0x00003031
    75f8:	20000384 	.word	0x20000384
    75fc:	200003a4 	.word	0x200003a4
    7600:	20001a8c 	.word	0x20001a8c
    7604:	00007241 	.word	0x00007241
    7608:	20001a28 	.word	0x20001a28
    760c:	000032b5 	.word	0x000032b5

00007610 <beaconReqConfcb>:
    7610:	b5f8      	push	{r3, r4, r5, r6, r7, lr}
    7612:	46ce      	mov	lr, r9
    7614:	4647      	mov	r7, r8
    7616:	0010      	movs	r0, r2
    7618:	b580      	push	{r7, lr}
    761a:	4b21      	ldr	r3, [pc, #132]	; (76a0 <beaconReqConfcb+0x90>)
    761c:	000d      	movs	r5, r1
    761e:	4798      	blx	r3
    7620:	2d00      	cmp	r5, #0
    7622:	d016      	beq.n	7652 <beaconReqConfcb+0x42>
    7624:	4c1f      	ldr	r4, [pc, #124]	; (76a4 <beaconReqConfcb+0x94>)
    7626:	4b20      	ldr	r3, [pc, #128]	; (76a8 <beaconReqConfcb+0x98>)
    7628:	6820      	ldr	r0, [r4, #0]
    762a:	4798      	blx	r3
    762c:	2800      	cmp	r0, #0
    762e:	d103      	bne.n	7638 <beaconReqConfcb+0x28>
    7630:	bc0c      	pop	{r2, r3}
    7632:	4690      	mov	r8, r2
    7634:	4699      	mov	r9, r3
    7636:	bdf8      	pop	{r3, r4, r5, r6, r7, pc}
    7638:	2205      	movs	r2, #5
    763a:	6823      	ldr	r3, [r4, #0]
    763c:	7018      	strb	r0, [r3, #0]
    763e:	4b1b      	ldr	r3, [pc, #108]	; (76ac <beaconReqConfcb+0x9c>)
    7640:	6821      	ldr	r1, [r4, #0]
    7642:	4c1b      	ldr	r4, [pc, #108]	; (76b0 <beaconReqConfcb+0xa0>)
    7644:	701a      	strb	r2, [r3, #0]
    7646:	7848      	ldrb	r0, [r1, #1]
    7648:	6823      	ldr	r3, [r4, #0]
    764a:	4798      	blx	r3
    764c:	2300      	movs	r3, #0
    764e:	6023      	str	r3, [r4, #0]
    7650:	e7ee      	b.n	7630 <beaconReqConfcb+0x20>
    7652:	2401      	movs	r4, #1
    7654:	0022      	movs	r2, r4
    7656:	4e17      	ldr	r6, [pc, #92]	; (76b4 <beaconReqConfcb+0xa4>)
    7658:	4b17      	ldr	r3, [pc, #92]	; (76b8 <beaconReqConfcb+0xa8>)
    765a:	6133      	str	r3, [r6, #16]
    765c:	4b17      	ldr	r3, [pc, #92]	; (76bc <beaconReqConfcb+0xac>)
    765e:	4699      	mov	r9, r3
    7660:	781b      	ldrb	r3, [r3, #0]
    7662:	409a      	lsls	r2, r3
    7664:	0013      	movs	r3, r2
    7666:	3301      	adds	r3, #1
    7668:	0118      	lsls	r0, r3, #4
    766a:	1ac0      	subs	r0, r0, r3
    766c:	4b14      	ldr	r3, [pc, #80]	; (76c0 <beaconReqConfcb+0xb0>)
    766e:	0180      	lsls	r0, r0, #6
    7670:	4698      	mov	r8, r3
    7672:	4798      	blx	r3
    7674:	21fa      	movs	r1, #250	; 0xfa
    7676:	4f13      	ldr	r7, [pc, #76]	; (76c4 <beaconReqConfcb+0xb4>)
    7678:	0089      	lsls	r1, r1, #2
    767a:	47b8      	blx	r7
    767c:	464b      	mov	r3, r9
    767e:	781b      	ldrb	r3, [r3, #0]
    7680:	6070      	str	r0, [r6, #4]
    7682:	409c      	lsls	r4, r3
    7684:	3401      	adds	r4, #1
    7686:	0120      	lsls	r0, r4, #4
    7688:	1b00      	subs	r0, r0, r4
    768a:	0180      	lsls	r0, r0, #6
    768c:	47c0      	blx	r8
    768e:	21fa      	movs	r1, #250	; 0xfa
    7690:	0089      	lsls	r1, r1, #2
    7692:	47b8      	blx	r7
    7694:	4b0c      	ldr	r3, [pc, #48]	; (76c8 <beaconReqConfcb+0xb8>)
    7696:	60b0      	str	r0, [r6, #8]
    7698:	0030      	movs	r0, r6
    769a:	7335      	strb	r5, [r6, #12]
    769c:	4798      	blx	r3
    769e:	e7c7      	b.n	7630 <beaconReqConfcb+0x20>
    76a0:	00003031 	.word	0x00003031
    76a4:	200003b0 	.word	0x200003b0
    76a8:	00007371 	.word	0x00007371
    76ac:	20000384 	.word	0x20000384
    76b0:	200003a8 	.word	0x200003a8
    76b4:	20001a8c 	.word	0x20001a8c
    76b8:	00007455 	.word	0x00007455
    76bc:	20001a89 	.word	0x20001a89
    76c0:	00002839 	.word	0x00002839
    76c4:	00009005 	.word	0x00009005
    76c8:	000032b5 	.word	0x000032b5

000076cc <roleUpGradeReqConfcb>:
    76cc:	b510      	push	{r4, lr}
    76ce:	0010      	movs	r0, r2
    76d0:	4b01      	ldr	r3, [pc, #4]	; (76d8 <roleUpGradeReqConfcb+0xc>)
    76d2:	4798      	blx	r3
    76d4:	bd10      	pop	{r4, pc}
    76d6:	46c0      	nop			; (mov r8, r8)
    76d8:	00003031 	.word	0x00003031

000076dc <dataReqConfcb>:
    76dc:	b5f8      	push	{r3, r4, r5, r6, r7, lr}
    76de:	0010      	movs	r0, r2
    76e0:	4b27      	ldr	r3, [pc, #156]	; (7780 <dataReqConfcb+0xa4>)
    76e2:	000c      	movs	r4, r1
    76e4:	4798      	blx	r3
    76e6:	2c00      	cmp	r4, #0
    76e8:	d11c      	bne.n	7724 <dataReqConfcb+0x48>
    76ea:	4b26      	ldr	r3, [pc, #152]	; (7784 <dataReqConfcb+0xa8>)
    76ec:	2514      	movs	r5, #20
    76ee:	781b      	ldrb	r3, [r3, #0]
    76f0:	2b0a      	cmp	r3, #10
    76f2:	d800      	bhi.n	76f6 <dataReqConfcb+0x1a>
    76f4:	351e      	adds	r5, #30
    76f6:	4c24      	ldr	r4, [pc, #144]	; (7788 <dataReqConfcb+0xac>)
    76f8:	4b24      	ldr	r3, [pc, #144]	; (778c <dataReqConfcb+0xb0>)
    76fa:	0020      	movs	r0, r4
    76fc:	4798      	blx	r3
    76fe:	4b24      	ldr	r3, [pc, #144]	; (7790 <dataReqConfcb+0xb4>)
    7700:	0020      	movs	r0, r4
    7702:	6123      	str	r3, [r4, #16]
    7704:	2300      	movs	r3, #0
    7706:	7323      	strb	r3, [r4, #12]
    7708:	4b22      	ldr	r3, [pc, #136]	; (7794 <dataReqConfcb+0xb8>)
    770a:	6065      	str	r5, [r4, #4]
    770c:	60a5      	str	r5, [r4, #8]
    770e:	4798      	blx	r3
    7710:	2201      	movs	r2, #1
    7712:	4b21      	ldr	r3, [pc, #132]	; (7798 <dataReqConfcb+0xbc>)
    7714:	4e21      	ldr	r6, [pc, #132]	; (779c <dataReqConfcb+0xc0>)
    7716:	701a      	strb	r2, [r3, #0]
    7718:	232d      	movs	r3, #45	; 0x2d
    771a:	6832      	ldr	r2, [r6, #0]
    771c:	5cd2      	ldrb	r2, [r2, r3]
    771e:	4b20      	ldr	r3, [pc, #128]	; (77a0 <dataReqConfcb+0xc4>)
    7720:	701a      	strb	r2, [r3, #0]
    7722:	bdf8      	pop	{r3, r4, r5, r6, r7, pc}
    7724:	4d18      	ldr	r5, [pc, #96]	; (7788 <dataReqConfcb+0xac>)
    7726:	4f19      	ldr	r7, [pc, #100]	; (778c <dataReqConfcb+0xb0>)
    7728:	0028      	movs	r0, r5
    772a:	47b8      	blx	r7
    772c:	4b1d      	ldr	r3, [pc, #116]	; (77a4 <dataReqConfcb+0xc8>)
    772e:	4e1b      	ldr	r6, [pc, #108]	; (779c <dataReqConfcb+0xc0>)
    7730:	612b      	str	r3, [r5, #16]
    7732:	232c      	movs	r3, #44	; 0x2c
    7734:	6832      	ldr	r2, [r6, #0]
    7736:	0028      	movs	r0, r5
    7738:	5cd2      	ldrb	r2, [r2, r3]
    773a:	23fa      	movs	r3, #250	; 0xfa
    773c:	009b      	lsls	r3, r3, #2
    773e:	4353      	muls	r3, r2
    7740:	606b      	str	r3, [r5, #4]
    7742:	60ab      	str	r3, [r5, #8]
    7744:	2300      	movs	r3, #0
    7746:	732b      	strb	r3, [r5, #12]
    7748:	4b12      	ldr	r3, [pc, #72]	; (7794 <dataReqConfcb+0xb8>)
    774a:	4798      	blx	r3
    774c:	2c03      	cmp	r4, #3
    774e:	d1e3      	bne.n	7718 <dataReqConfcb+0x3c>
    7750:	4a13      	ldr	r2, [pc, #76]	; (77a0 <dataReqConfcb+0xc4>)
    7752:	7813      	ldrb	r3, [r2, #0]
    7754:	2b00      	cmp	r3, #0
    7756:	d0e4      	beq.n	7722 <dataReqConfcb+0x46>
    7758:	3b01      	subs	r3, #1
    775a:	b2db      	uxtb	r3, r3
    775c:	7013      	strb	r3, [r2, #0]
    775e:	2b00      	cmp	r3, #0
    7760:	d1df      	bne.n	7722 <dataReqConfcb+0x46>
    7762:	0028      	movs	r0, r5
    7764:	47b8      	blx	r7
    7766:	2208      	movs	r2, #8
    7768:	4b0f      	ldr	r3, [pc, #60]	; (77a8 <dataReqConfcb+0xcc>)
    776a:	701a      	strb	r2, [r3, #0]
    776c:	4b0f      	ldr	r3, [pc, #60]	; (77ac <dataReqConfcb+0xd0>)
    776e:	3a09      	subs	r2, #9
    7770:	801a      	strh	r2, [r3, #0]
    7772:	4b0f      	ldr	r3, [pc, #60]	; (77b0 <dataReqConfcb+0xd4>)
    7774:	681b      	ldr	r3, [r3, #0]
    7776:	2b00      	cmp	r3, #0
    7778:	d0d3      	beq.n	7722 <dataReqConfcb+0x46>
    777a:	4798      	blx	r3
    777c:	e7d1      	b.n	7722 <dataReqConfcb+0x46>
    777e:	46c0      	nop			; (mov r8, r8)
    7780:	00003031 	.word	0x00003031
    7784:	20001a3c 	.word	0x20001a3c
    7788:	20001a74 	.word	0x20001a74
    778c:	00003249 	.word	0x00003249
    7790:	00007569 	.word	0x00007569
    7794:	000032b5 	.word	0x000032b5
    7798:	200003a2 	.word	0x200003a2
    779c:	20001a28 	.word	0x20001a28
    77a0:	20001a88 	.word	0x20001a88
    77a4:	000074a1 	.word	0x000074a1
    77a8:	20000384 	.word	0x20000384
    77ac:	20001a70 	.word	0x20001a70
    77b0:	20001aa8 	.word	0x20001aa8

000077b4 <keepAliveReqConfcb>:
    77b4:	b570      	push	{r4, r5, r6, lr}
    77b6:	0015      	movs	r5, r2
    77b8:	22ff      	movs	r2, #255	; 0xff
    77ba:	4c14      	ldr	r4, [pc, #80]	; (780c <keepAliveReqConfcb+0x58>)
    77bc:	8823      	ldrh	r3, [r4, #0]
    77be:	421a      	tst	r2, r3
    77c0:	d103      	bne.n	77ca <keepAliveReqConfcb+0x16>
    77c2:	0028      	movs	r0, r5
    77c4:	4b12      	ldr	r3, [pc, #72]	; (7810 <keepAliveReqConfcb+0x5c>)
    77c6:	4798      	blx	r3
    77c8:	bd70      	pop	{r4, r5, r6, pc}
    77ca:	2903      	cmp	r1, #3
    77cc:	d006      	beq.n	77dc <keepAliveReqConfcb+0x28>
    77ce:	4b11      	ldr	r3, [pc, #68]	; (7814 <keepAliveReqConfcb+0x60>)
    77d0:	681a      	ldr	r2, [r3, #0]
    77d2:	232d      	movs	r3, #45	; 0x2d
    77d4:	5cd2      	ldrb	r2, [r2, r3]
    77d6:	4b10      	ldr	r3, [pc, #64]	; (7818 <keepAliveReqConfcb+0x64>)
    77d8:	701a      	strb	r2, [r3, #0]
    77da:	e7f2      	b.n	77c2 <keepAliveReqConfcb+0xe>
    77dc:	4a0e      	ldr	r2, [pc, #56]	; (7818 <keepAliveReqConfcb+0x64>)
    77de:	7813      	ldrb	r3, [r2, #0]
    77e0:	2b00      	cmp	r3, #0
    77e2:	d0ee      	beq.n	77c2 <keepAliveReqConfcb+0xe>
    77e4:	3b01      	subs	r3, #1
    77e6:	b2db      	uxtb	r3, r3
    77e8:	7013      	strb	r3, [r2, #0]
    77ea:	2b00      	cmp	r3, #0
    77ec:	d1e9      	bne.n	77c2 <keepAliveReqConfcb+0xe>
    77ee:	4b0b      	ldr	r3, [pc, #44]	; (781c <keepAliveReqConfcb+0x68>)
    77f0:	480b      	ldr	r0, [pc, #44]	; (7820 <keepAliveReqConfcb+0x6c>)
    77f2:	4798      	blx	r3
    77f4:	2208      	movs	r2, #8
    77f6:	4b0b      	ldr	r3, [pc, #44]	; (7824 <keepAliveReqConfcb+0x70>)
    77f8:	701a      	strb	r2, [r3, #0]
    77fa:	2301      	movs	r3, #1
    77fc:	425b      	negs	r3, r3
    77fe:	8023      	strh	r3, [r4, #0]
    7800:	4b09      	ldr	r3, [pc, #36]	; (7828 <keepAliveReqConfcb+0x74>)
    7802:	681b      	ldr	r3, [r3, #0]
    7804:	2b00      	cmp	r3, #0
    7806:	d0dc      	beq.n	77c2 <keepAliveReqConfcb+0xe>
    7808:	4798      	blx	r3
    780a:	e7da      	b.n	77c2 <keepAliveReqConfcb+0xe>
    780c:	20001a70 	.word	0x20001a70
    7810:	00003031 	.word	0x00003031
    7814:	20001a28 	.word	0x20001a28
    7818:	20001a88 	.word	0x20001a88
    781c:	00003249 	.word	0x00003249
    7820:	20001a74 	.word	0x20001a74
    7824:	20000384 	.word	0x20000384
    7828:	20001aa8 	.word	0x20001aa8

0000782c <MiApp_EstablishConnection>:
    782c:	b5f0      	push	{r4, r5, r6, r7, lr}
    782e:	46c6      	mov	lr, r8
    7830:	b500      	push	{lr}
    7832:	001e      	movs	r6, r3
    7834:	4b2b      	ldr	r3, [pc, #172]	; (78e4 <MiApp_EstablishConnection+0xb8>)
    7836:	b08e      	sub	sp, #56	; 0x38
    7838:	681b      	ldr	r3, [r3, #0]
    783a:	0004      	movs	r4, r0
    783c:	6a5b      	ldr	r3, [r3, #36]	; 0x24
    783e:	0015      	movs	r5, r2
    7840:	9305      	str	r3, [sp, #20]
    7842:	4b29      	ldr	r3, [pc, #164]	; (78e8 <MiApp_EstablishConnection+0xbc>)
    7844:	4798      	blx	r3
    7846:	0003      	movs	r3, r0
    7848:	40e3      	lsrs	r3, r4
    784a:	2001      	movs	r0, #1
    784c:	07db      	lsls	r3, r3, #31
    784e:	d507      	bpl.n	7860 <MiApp_EstablishConnection+0x34>
    7850:	9b14      	ldr	r3, [sp, #80]	; 0x50
    7852:	2b00      	cmp	r3, #0
    7854:	d004      	beq.n	7860 <MiApp_EstablishConnection+0x34>
    7856:	4f25      	ldr	r7, [pc, #148]	; (78ec <MiApp_EstablishConnection+0xc0>)
    7858:	783b      	ldrb	r3, [r7, #0]
    785a:	2b00      	cmp	r3, #0
    785c:	d104      	bne.n	7868 <MiApp_EstablishConnection+0x3c>
    785e:	2000      	movs	r0, #0
    7860:	b00e      	add	sp, #56	; 0x38
    7862:	bc04      	pop	{r2}
    7864:	4690      	mov	r8, r2
    7866:	bdf0      	pop	{r4, r5, r6, r7, pc}
    7868:	2078      	movs	r0, #120	; 0x78
    786a:	4b21      	ldr	r3, [pc, #132]	; (78f0 <MiApp_EstablishConnection+0xc4>)
    786c:	4798      	blx	r3
    786e:	1e04      	subs	r4, r0, #0
    7870:	d0f5      	beq.n	785e <MiApp_EstablishConnection+0x32>
    7872:	2304      	movs	r3, #4
    7874:	703b      	strb	r3, [r7, #0]
    7876:	786b      	ldrb	r3, [r5, #1]
    7878:	782a      	ldrb	r2, [r5, #0]
    787a:	021b      	lsls	r3, r3, #8
    787c:	18d2      	adds	r2, r2, r3
    787e:	b292      	uxth	r2, r2
    7880:	ab06      	add	r3, sp, #24
    7882:	491c      	ldr	r1, [pc, #112]	; (78f4 <MiApp_EstablishConnection+0xc8>)
    7884:	2001      	movs	r0, #1
    7886:	4f1c      	ldr	r7, [pc, #112]	; (78f8 <MiApp_EstablishConnection+0xcc>)
    7888:	47b8      	blx	r7
    788a:	466b      	mov	r3, sp
    788c:	2220      	movs	r2, #32
    788e:	7e5b      	ldrb	r3, [r3, #25]
    7890:	0021      	movs	r1, r4
    7892:	4313      	orrs	r3, r2
    7894:	466a      	mov	r2, sp
    7896:	a806      	add	r0, sp, #24
    7898:	7653      	strb	r3, [r2, #25]
    789a:	4b18      	ldr	r3, [pc, #96]	; (78fc <MiApp_EstablishConnection+0xd0>)
    789c:	4798      	blx	r3
    789e:	0003      	movs	r3, r0
    78a0:	2203      	movs	r2, #3
    78a2:	3301      	adds	r3, #1
    78a4:	b2db      	uxtb	r3, r3
    78a6:	5422      	strb	r2, [r4, r0]
    78a8:	54e2      	strb	r2, [r4, r3]
    78aa:	0003      	movs	r3, r0
    78ac:	4680      	mov	r8, r0
    78ae:	3302      	adds	r3, #2
    78b0:	3003      	adds	r0, #3
    78b2:	b2db      	uxtb	r3, r3
    78b4:	b2c0      	uxtb	r0, r0
    78b6:	54e6      	strb	r6, [r4, r3]
    78b8:	a905      	add	r1, sp, #20
    78ba:	1820      	adds	r0, r4, r0
    78bc:	3201      	adds	r2, #1
    78be:	4b10      	ldr	r3, [pc, #64]	; (7900 <MiApp_EstablishConnection+0xd4>)
    78c0:	4798      	blx	r3
    78c2:	9a14      	ldr	r2, [sp, #80]	; 0x50
    78c4:	4b0f      	ldr	r3, [pc, #60]	; (7904 <MiApp_EstablishConnection+0xd8>)
    78c6:	4641      	mov	r1, r8
    78c8:	601a      	str	r2, [r3, #0]
    78ca:	4b0f      	ldr	r3, [pc, #60]	; (7908 <MiApp_EstablishConnection+0xdc>)
    78cc:	9501      	str	r5, [sp, #4]
    78ce:	9303      	str	r3, [sp, #12]
    78d0:	2300      	movs	r3, #0
    78d2:	9302      	str	r3, [sp, #8]
    78d4:	3302      	adds	r3, #2
    78d6:	9300      	str	r3, [sp, #0]
    78d8:	2207      	movs	r2, #7
    78da:	0023      	movs	r3, r4
    78dc:	a806      	add	r0, sp, #24
    78de:	4c0b      	ldr	r4, [pc, #44]	; (790c <MiApp_EstablishConnection+0xe0>)
    78e0:	47a0      	blx	r4
    78e2:	e7bd      	b.n	7860 <MiApp_EstablishConnection+0x34>
    78e4:	20001a28 	.word	0x20001a28
    78e8:	0000283d 	.word	0x0000283d
    78ec:	20000384 	.word	0x20000384
    78f0:	00002fe1 	.word	0x00002fe1
    78f4:	0000ffff 	.word	0x0000ffff
    78f8:	00006101 	.word	0x00006101
    78fc:	0000612d 	.word	0x0000612d
    7900:	000093ab 	.word	0x000093ab
    7904:	200003a4 	.word	0x200003a4
    7908:	000075b1 	.word	0x000075b1
    790c:	000061c5 	.word	0x000061c5

00007910 <MiApp_SearchConnection>:
    7910:	b5f8      	push	{r3, r4, r5, r6, r7, lr}
    7912:	0003      	movs	r3, r0
    7914:	2001      	movs	r0, #1
    7916:	2b0e      	cmp	r3, #14
    7918:	d80a      	bhi.n	7930 <MiApp_SearchConnection+0x20>
    791a:	2a00      	cmp	r2, #0
    791c:	d008      	beq.n	7930 <MiApp_SearchConnection+0x20>
    791e:	4d18      	ldr	r5, [pc, #96]	; (7980 <MiApp_SearchConnection+0x70>)
    7920:	2604      	movs	r6, #4
    7922:	782c      	ldrb	r4, [r5, #0]
    7924:	0027      	movs	r7, r4
    7926:	43b7      	bics	r7, r6
    7928:	2f01      	cmp	r7, #1
    792a:	d002      	beq.n	7932 <MiApp_SearchConnection+0x22>
    792c:	2c08      	cmp	r4, #8
    792e:	d000      	beq.n	7932 <MiApp_SearchConnection+0x22>
    7930:	bdf8      	pop	{r3, r4, r5, r6, r7, pc}
    7932:	2003      	movs	r0, #3
    7934:	7028      	strb	r0, [r5, #0]
    7936:	2500      	movs	r5, #0
    7938:	4812      	ldr	r0, [pc, #72]	; (7984 <MiApp_SearchConnection+0x74>)
    793a:	4c13      	ldr	r4, [pc, #76]	; (7988 <MiApp_SearchConnection+0x78>)
    793c:	7003      	strb	r3, [r0, #0]
    793e:	4b13      	ldr	r3, [pc, #76]	; (798c <MiApp_SearchConnection+0x7c>)
    7940:	681b      	ldr	r3, [r3, #0]
    7942:	6b5b      	ldr	r3, [r3, #52]	; 0x34
    7944:	6023      	str	r3, [r4, #0]
    7946:	705d      	strb	r5, [r3, #1]
    7948:	2308      	movs	r3, #8
    794a:	6820      	ldr	r0, [r4, #0]
    794c:	7003      	strb	r3, [r0, #0]
    794e:	6823      	ldr	r3, [r4, #0]
    7950:	6059      	str	r1, [r3, #4]
    7952:	4b0f      	ldr	r3, [pc, #60]	; (7990 <MiApp_SearchConnection+0x80>)
    7954:	601a      	str	r2, [r3, #0]
    7956:	4b0f      	ldr	r3, [pc, #60]	; (7994 <MiApp_SearchConnection+0x84>)
    7958:	4798      	blx	r3
    795a:	4e0f      	ldr	r6, [pc, #60]	; (7998 <MiApp_SearchConnection+0x88>)
    795c:	2101      	movs	r1, #1
    795e:	7035      	strb	r5, [r6, #0]
    7960:	2201      	movs	r2, #1
    7962:	07c3      	lsls	r3, r0, #31
    7964:	d501      	bpl.n	796a <MiApp_SearchConnection+0x5a>
    7966:	e006      	b.n	7976 <MiApp_SearchConnection+0x66>
    7968:	0019      	movs	r1, r3
    796a:	1c4b      	adds	r3, r1, #1
    796c:	0052      	lsls	r2, r2, #1
    796e:	b2db      	uxtb	r3, r3
    7970:	4202      	tst	r2, r0
    7972:	d0f9      	beq.n	7968 <MiApp_SearchConnection+0x58>
    7974:	7031      	strb	r1, [r6, #0]
    7976:	6820      	ldr	r0, [r4, #0]
    7978:	4b08      	ldr	r3, [pc, #32]	; (799c <MiApp_SearchConnection+0x8c>)
    797a:	4798      	blx	r3
    797c:	e7d8      	b.n	7930 <MiApp_SearchConnection+0x20>
    797e:	46c0      	nop			; (mov r8, r8)
    7980:	20000384 	.word	0x20000384
    7984:	20001a89 	.word	0x20001a89
    7988:	200003b0 	.word	0x200003b0
    798c:	20001a28 	.word	0x20001a28
    7990:	200003a8 	.word	0x200003a8
    7994:	0000283d 	.word	0x0000283d
    7998:	20001a3c 	.word	0x20001a3c
    799c:	00007371 	.word	0x00007371

000079a0 <calculatePermitCapacity>:
    79a0:	b5f0      	push	{r4, r5, r6, r7, lr}
    79a2:	46d6      	mov	lr, sl
    79a4:	464f      	mov	r7, r9
    79a6:	4646      	mov	r6, r8
    79a8:	b5c0      	push	{r6, r7, lr}
    79aa:	4d40      	ldr	r5, [pc, #256]	; (7aac <calculatePermitCapacity+0x10c>)
    79ac:	0007      	movs	r7, r0
    79ae:	682e      	ldr	r6, [r5, #0]
    79b0:	468a      	mov	sl, r1
    79b2:	7ef3      	ldrb	r3, [r6, #27]
    79b4:	469c      	mov	ip, r3
    79b6:	2b00      	cmp	r3, #0
    79b8:	d100      	bne.n	79bc <calculatePermitCapacity+0x1c>
    79ba:	e06f      	b.n	7a9c <calculatePermitCapacity+0xfc>
    79bc:	4662      	mov	r2, ip
    79be:	2400      	movs	r4, #0
    79c0:	1e51      	subs	r1, r2, #1
    79c2:	2200      	movs	r2, #0
    79c4:	b2c9      	uxtb	r1, r1
    79c6:	6833      	ldr	r3, [r6, #0]
    79c8:	3101      	adds	r1, #1
    79ca:	0109      	lsls	r1, r1, #4
    79cc:	1859      	adds	r1, r3, r1
    79ce:	7818      	ldrb	r0, [r3, #0]
    79d0:	28ff      	cmp	r0, #255	; 0xff
    79d2:	d160      	bne.n	7a96 <calculatePermitCapacity+0xf6>
    79d4:	7858      	ldrb	r0, [r3, #1]
    79d6:	28ff      	cmp	r0, #255	; 0xff
    79d8:	d15d      	bne.n	7a96 <calculatePermitCapacity+0xf6>
    79da:	7898      	ldrb	r0, [r3, #2]
    79dc:	28ff      	cmp	r0, #255	; 0xff
    79de:	d15a      	bne.n	7a96 <calculatePermitCapacity+0xf6>
    79e0:	78d8      	ldrb	r0, [r3, #3]
    79e2:	28ff      	cmp	r0, #255	; 0xff
    79e4:	d157      	bne.n	7a96 <calculatePermitCapacity+0xf6>
    79e6:	7918      	ldrb	r0, [r3, #4]
    79e8:	28ff      	cmp	r0, #255	; 0xff
    79ea:	d154      	bne.n	7a96 <calculatePermitCapacity+0xf6>
    79ec:	7958      	ldrb	r0, [r3, #5]
    79ee:	28ff      	cmp	r0, #255	; 0xff
    79f0:	d151      	bne.n	7a96 <calculatePermitCapacity+0xf6>
    79f2:	7998      	ldrb	r0, [r3, #6]
    79f4:	28ff      	cmp	r0, #255	; 0xff
    79f6:	d14e      	bne.n	7a96 <calculatePermitCapacity+0xf6>
    79f8:	79d8      	ldrb	r0, [r3, #7]
    79fa:	28ff      	cmp	r0, #255	; 0xff
    79fc:	d14b      	bne.n	7a96 <calculatePermitCapacity+0xf6>
    79fe:	2401      	movs	r4, #1
    7a00:	3310      	adds	r3, #16
    7a02:	428b      	cmp	r3, r1
    7a04:	d1e3      	bne.n	79ce <calculatePermitCapacity+0x2e>
    7a06:	4660      	mov	r0, ip
    7a08:	2364      	movs	r3, #100	; 0x64
    7a0a:	1a82      	subs	r2, r0, r2
    7a0c:	4353      	muls	r3, r2
    7a0e:	469c      	mov	ip, r3
    7a10:	7f32      	ldrb	r2, [r6, #28]
    7a12:	2a01      	cmp	r2, #1
    7a14:	d947      	bls.n	7aa6 <calculatePermitCapacity+0x106>
    7a16:	3a02      	subs	r2, #2
    7a18:	b2d2      	uxtb	r2, r2
    7a1a:	6871      	ldr	r1, [r6, #4]
    7a1c:	0096      	lsls	r6, r2, #2
    7a1e:	18b2      	adds	r2, r6, r2
    7a20:	0092      	lsls	r2, r2, #2
    7a22:	3228      	adds	r2, #40	; 0x28
    7a24:	000b      	movs	r3, r1
    7a26:	188e      	adds	r6, r1, r2
    7a28:	2200      	movs	r2, #0
    7a2a:	3314      	adds	r3, #20
    7a2c:	7819      	ldrb	r1, [r3, #0]
    7a2e:	29ff      	cmp	r1, #255	; 0xff
    7a30:	d12e      	bne.n	7a90 <calculatePermitCapacity+0xf0>
    7a32:	7859      	ldrb	r1, [r3, #1]
    7a34:	29ff      	cmp	r1, #255	; 0xff
    7a36:	d12b      	bne.n	7a90 <calculatePermitCapacity+0xf0>
    7a38:	7899      	ldrb	r1, [r3, #2]
    7a3a:	29ff      	cmp	r1, #255	; 0xff
    7a3c:	d128      	bne.n	7a90 <calculatePermitCapacity+0xf0>
    7a3e:	78d9      	ldrb	r1, [r3, #3]
    7a40:	29ff      	cmp	r1, #255	; 0xff
    7a42:	d125      	bne.n	7a90 <calculatePermitCapacity+0xf0>
    7a44:	7919      	ldrb	r1, [r3, #4]
    7a46:	29ff      	cmp	r1, #255	; 0xff
    7a48:	d122      	bne.n	7a90 <calculatePermitCapacity+0xf0>
    7a4a:	7959      	ldrb	r1, [r3, #5]
    7a4c:	29ff      	cmp	r1, #255	; 0xff
    7a4e:	d11f      	bne.n	7a90 <calculatePermitCapacity+0xf0>
    7a50:	7999      	ldrb	r1, [r3, #6]
    7a52:	29ff      	cmp	r1, #255	; 0xff
    7a54:	d11c      	bne.n	7a90 <calculatePermitCapacity+0xf0>
    7a56:	79d9      	ldrb	r1, [r3, #7]
    7a58:	29ff      	cmp	r1, #255	; 0xff
    7a5a:	d119      	bne.n	7a90 <calculatePermitCapacity+0xf0>
    7a5c:	2401      	movs	r4, #1
    7a5e:	3314      	adds	r3, #20
    7a60:	429e      	cmp	r6, r3
    7a62:	d1e3      	bne.n	7a2c <calculatePermitCapacity+0x8c>
    7a64:	4691      	mov	r9, r2
    7a66:	4b12      	ldr	r3, [pc, #72]	; (7ab0 <calculatePermitCapacity+0x110>)
    7a68:	0001      	movs	r1, r0
    7a6a:	4660      	mov	r0, ip
    7a6c:	4698      	mov	r8, r3
    7a6e:	4798      	blx	r3
    7a70:	7038      	strb	r0, [r7, #0]
    7a72:	682b      	ldr	r3, [r5, #0]
    7a74:	2064      	movs	r0, #100	; 0x64
    7a76:	7f19      	ldrb	r1, [r3, #28]
    7a78:	464b      	mov	r3, r9
    7a7a:	1aca      	subs	r2, r1, r3
    7a7c:	4350      	muls	r0, r2
    7a7e:	47c0      	blx	r8
    7a80:	4653      	mov	r3, sl
    7a82:	7018      	strb	r0, [r3, #0]
    7a84:	0020      	movs	r0, r4
    7a86:	bc1c      	pop	{r2, r3, r4}
    7a88:	4690      	mov	r8, r2
    7a8a:	4699      	mov	r9, r3
    7a8c:	46a2      	mov	sl, r4
    7a8e:	bdf0      	pop	{r4, r5, r6, r7, pc}
    7a90:	3201      	adds	r2, #1
    7a92:	b2d2      	uxtb	r2, r2
    7a94:	e7e3      	b.n	7a5e <calculatePermitCapacity+0xbe>
    7a96:	3201      	adds	r2, #1
    7a98:	b2d2      	uxtb	r2, r2
    7a9a:	e7b1      	b.n	7a00 <calculatePermitCapacity+0x60>
    7a9c:	2300      	movs	r3, #0
    7a9e:	2000      	movs	r0, #0
    7aa0:	469c      	mov	ip, r3
    7aa2:	2400      	movs	r4, #0
    7aa4:	e7b4      	b.n	7a10 <calculatePermitCapacity+0x70>
    7aa6:	2300      	movs	r3, #0
    7aa8:	4699      	mov	r9, r3
    7aaa:	e7dc      	b.n	7a66 <calculatePermitCapacity+0xc6>
    7aac:	20001a28 	.word	0x20001a28
    7ab0:	00009119 	.word	0x00009119

00007ab4 <handleJoinMessage>:
    7ab4:	b5f0      	push	{r4, r5, r6, r7, lr}
    7ab6:	4645      	mov	r5, r8
    7ab8:	4657      	mov	r7, sl
    7aba:	464e      	mov	r6, r9
    7abc:	46de      	mov	lr, fp
    7abe:	001c      	movs	r4, r3
    7ac0:	b5e0      	push	{r5, r6, r7, lr}
    7ac2:	b095      	sub	sp, #84	; 0x54
    7ac4:	ab1e      	add	r3, sp, #120	; 0x78
    7ac6:	781b      	ldrb	r3, [r3, #0]
    7ac8:	0006      	movs	r6, r0
    7aca:	4698      	mov	r8, r3
    7acc:	7823      	ldrb	r3, [r4, #0]
    7ace:	000f      	movs	r7, r1
    7ad0:	0015      	movs	r5, r2
    7ad2:	2b08      	cmp	r3, #8
    7ad4:	d856      	bhi.n	7b84 <handleJoinMessage+0xd0>
    7ad6:	4acc      	ldr	r2, [pc, #816]	; (7e08 <handleJoinMessage+0x354>)
    7ad8:	009b      	lsls	r3, r3, #2
    7ada:	58d3      	ldr	r3, [r2, r3]
    7adc:	469f      	mov	pc, r3
    7ade:	4bcb      	ldr	r3, [pc, #812]	; (7e0c <handleJoinMessage+0x358>)
    7ae0:	781b      	ldrb	r3, [r3, #0]
    7ae2:	2b06      	cmp	r3, #6
    7ae4:	d14e      	bne.n	7b84 <handleJoinMessage+0xd0>
    7ae6:	78a3      	ldrb	r3, [r4, #2]
    7ae8:	2078      	movs	r0, #120	; 0x78
    7aea:	469b      	mov	fp, r3
    7aec:	4bc8      	ldr	r3, [pc, #800]	; (7e10 <handleJoinMessage+0x35c>)
    7aee:	7866      	ldrb	r6, [r4, #1]
    7af0:	4798      	blx	r3
    7af2:	9006      	str	r0, [sp, #24]
    7af4:	2800      	cmp	r0, #0
    7af6:	d045      	beq.n	7b84 <handleJoinMessage+0xd0>
    7af8:	07b3      	lsls	r3, r6, #30
    7afa:	d000      	beq.n	7afe <handleJoinMessage+0x4a>
    7afc:	e27e      	b.n	7ffc <handleJoinMessage+0x548>
    7afe:	4bc5      	ldr	r3, [pc, #788]	; (7e14 <handleJoinMessage+0x360>)
    7b00:	2201      	movs	r2, #1
    7b02:	8819      	ldrh	r1, [r3, #0]
    7b04:	ab0c      	add	r3, sp, #48	; 0x30
    7b06:	469b      	mov	fp, r3
    7b08:	b289      	uxth	r1, r1
    7b0a:	2001      	movs	r0, #1
    7b0c:	4cc2      	ldr	r4, [pc, #776]	; (7e18 <handleJoinMessage+0x364>)
    7b0e:	47a0      	blx	r4
    7b10:	465b      	mov	r3, fp
    7b12:	2220      	movs	r2, #32
    7b14:	785b      	ldrb	r3, [r3, #1]
    7b16:	9c06      	ldr	r4, [sp, #24]
    7b18:	4313      	orrs	r3, r2
    7b1a:	465a      	mov	r2, fp
    7b1c:	0021      	movs	r1, r4
    7b1e:	7053      	strb	r3, [r2, #1]
    7b20:	4658      	mov	r0, fp
    7b22:	4bbe      	ldr	r3, [pc, #760]	; (7e1c <handleJoinMessage+0x368>)
    7b24:	4798      	blx	r3
    7b26:	2204      	movs	r2, #4
    7b28:	0003      	movs	r3, r0
    7b2a:	4681      	mov	r9, r0
    7b2c:	5422      	strb	r2, [r4, r0]
    7b2e:	4abc      	ldr	r2, [pc, #752]	; (7e20 <handleJoinMessage+0x36c>)
    7b30:	3301      	adds	r3, #1
    7b32:	b2db      	uxtb	r3, r3
    7b34:	9204      	str	r2, [sp, #16]
    7b36:	464a      	mov	r2, r9
    7b38:	1c96      	adds	r6, r2, #2
    7b3a:	2201      	movs	r2, #1
    7b3c:	9906      	ldr	r1, [sp, #24]
    7b3e:	24ff      	movs	r4, #255	; 0xff
    7b40:	54ca      	strb	r2, [r1, r3]
    7b42:	23ff      	movs	r3, #255	; 0xff
    7b44:	000a      	movs	r2, r1
    7b46:	b2f6      	uxtb	r6, r6
    7b48:	4694      	mov	ip, r2
    7b4a:	5593      	strb	r3, [r2, r6]
    7b4c:	1c73      	adds	r3, r6, #1
    7b4e:	b2db      	uxtb	r3, r3
    7b50:	54d4      	strb	r4, [r2, r3]
    7b52:	4bb4      	ldr	r3, [pc, #720]	; (7e24 <handleJoinMessage+0x370>)
    7b54:	1cb0      	adds	r0, r6, #2
    7b56:	6819      	ldr	r1, [r3, #0]
    7b58:	b2c0      	uxtb	r0, r0
    7b5a:	0014      	movs	r4, r2
    7b5c:	3110      	adds	r1, #16
    7b5e:	2210      	movs	r2, #16
    7b60:	9b04      	ldr	r3, [sp, #16]
    7b62:	4460      	add	r0, ip
    7b64:	4798      	blx	r3
    7b66:	464b      	mov	r3, r9
    7b68:	3612      	adds	r6, #18
    7b6a:	1af2      	subs	r2, r6, r3
    7b6c:	4bae      	ldr	r3, [pc, #696]	; (7e28 <handleJoinMessage+0x374>)
    7b6e:	b2d2      	uxtb	r2, r2
    7b70:	9303      	str	r3, [sp, #12]
    7b72:	2300      	movs	r3, #0
    7b74:	9501      	str	r5, [sp, #4]
    7b76:	9302      	str	r3, [sp, #8]
    7b78:	9700      	str	r7, [sp, #0]
    7b7a:	0023      	movs	r3, r4
    7b7c:	4649      	mov	r1, r9
    7b7e:	4658      	mov	r0, fp
    7b80:	4caa      	ldr	r4, [pc, #680]	; (7e2c <handleJoinMessage+0x378>)
    7b82:	47a0      	blx	r4
    7b84:	b015      	add	sp, #84	; 0x54
    7b86:	bc3c      	pop	{r2, r3, r4, r5}
    7b88:	4690      	mov	r8, r2
    7b8a:	4699      	mov	r9, r3
    7b8c:	46a2      	mov	sl, r4
    7b8e:	46ab      	mov	fp, r5
    7b90:	bdf0      	pop	{r4, r5, r6, r7, pc}
    7b92:	4ba7      	ldr	r3, [pc, #668]	; (7e30 <handleJoinMessage+0x37c>)
    7b94:	48a7      	ldr	r0, [pc, #668]	; (7e34 <handleJoinMessage+0x380>)
    7b96:	4798      	blx	r3
    7b98:	2208      	movs	r2, #8
    7b9a:	4b9c      	ldr	r3, [pc, #624]	; (7e0c <handleJoinMessage+0x358>)
    7b9c:	701a      	strb	r2, [r3, #0]
    7b9e:	4b9d      	ldr	r3, [pc, #628]	; (7e14 <handleJoinMessage+0x360>)
    7ba0:	3a09      	subs	r2, #9
    7ba2:	801a      	strh	r2, [r3, #0]
    7ba4:	4ba4      	ldr	r3, [pc, #656]	; (7e38 <handleJoinMessage+0x384>)
    7ba6:	681b      	ldr	r3, [r3, #0]
    7ba8:	2b00      	cmp	r3, #0
    7baa:	d0eb      	beq.n	7b84 <handleJoinMessage+0xd0>
    7bac:	4798      	blx	r3
    7bae:	e7e9      	b.n	7b84 <handleJoinMessage+0xd0>
    7bb0:	4b96      	ldr	r3, [pc, #600]	; (7e0c <handleJoinMessage+0x358>)
    7bb2:	781b      	ldrb	r3, [r3, #0]
    7bb4:	2b06      	cmp	r3, #6
    7bb6:	d1e5      	bne.n	7b84 <handleJoinMessage+0xd0>
    7bb8:	4ba0      	ldr	r3, [pc, #640]	; (7e3c <handleJoinMessage+0x388>)
    7bba:	002a      	movs	r2, r5
    7bbc:	4699      	mov	r9, r3
    7bbe:	0018      	movs	r0, r3
    7bc0:	2108      	movs	r1, #8
    7bc2:	4b9f      	ldr	r3, [pc, #636]	; (7e40 <handleJoinMessage+0x38c>)
    7bc4:	4798      	blx	r3
    7bc6:	2800      	cmp	r0, #0
    7bc8:	d0dc      	beq.n	7b84 <handleJoinMessage+0xd0>
    7bca:	2078      	movs	r0, #120	; 0x78
    7bcc:	4b90      	ldr	r3, [pc, #576]	; (7e10 <handleJoinMessage+0x35c>)
    7bce:	4798      	blx	r3
    7bd0:	1e04      	subs	r4, r0, #0
    7bd2:	d0d7      	beq.n	7b84 <handleJoinMessage+0xd0>
    7bd4:	4b8f      	ldr	r3, [pc, #572]	; (7e14 <handleJoinMessage+0x360>)
    7bd6:	aa0c      	add	r2, sp, #48	; 0x30
    7bd8:	8819      	ldrh	r1, [r3, #0]
    7bda:	9204      	str	r2, [sp, #16]
    7bdc:	0013      	movs	r3, r2
    7bde:	b289      	uxth	r1, r1
    7be0:	2200      	movs	r2, #0
    7be2:	2001      	movs	r0, #1
    7be4:	4e8c      	ldr	r6, [pc, #560]	; (7e18 <handleJoinMessage+0x364>)
    7be6:	47b0      	blx	r6
    7be8:	2220      	movs	r2, #32
    7bea:	9e04      	ldr	r6, [sp, #16]
    7bec:	0021      	movs	r1, r4
    7bee:	7873      	ldrb	r3, [r6, #1]
    7bf0:	0030      	movs	r0, r6
    7bf2:	4313      	orrs	r3, r2
    7bf4:	7073      	strb	r3, [r6, #1]
    7bf6:	4b89      	ldr	r3, [pc, #548]	; (7e1c <handleJoinMessage+0x368>)
    7bf8:	4798      	blx	r3
    7bfa:	2302      	movs	r3, #2
    7bfc:	5423      	strb	r3, [r4, r0]
    7bfe:	4b91      	ldr	r3, [pc, #580]	; (7e44 <handleJoinMessage+0x390>)
    7c00:	4680      	mov	r8, r0
    7c02:	781a      	ldrb	r2, [r3, #0]
    7c04:	0003      	movs	r3, r0
    7c06:	3301      	adds	r3, #1
    7c08:	b2db      	uxtb	r3, r3
    7c0a:	54e2      	strb	r2, [r4, r3]
    7c0c:	4b8e      	ldr	r3, [pc, #568]	; (7e48 <handleJoinMessage+0x394>)
    7c0e:	469a      	mov	sl, r3
    7c10:	4b8e      	ldr	r3, [pc, #568]	; (7e4c <handleJoinMessage+0x398>)
    7c12:	4651      	mov	r1, sl
    7c14:	469b      	mov	fp, r3
    7c16:	0018      	movs	r0, r3
    7c18:	4b8d      	ldr	r3, [pc, #564]	; (7e50 <handleJoinMessage+0x39c>)
    7c1a:	4798      	blx	r3
    7c1c:	4b8d      	ldr	r3, [pc, #564]	; (7e54 <handleJoinMessage+0x3a0>)
    7c1e:	4649      	mov	r1, r9
    7c20:	7018      	strb	r0, [r3, #0]
    7c22:	4643      	mov	r3, r8
    7c24:	3302      	adds	r3, #2
    7c26:	b2db      	uxtb	r3, r3
    7c28:	54e0      	strb	r0, [r4, r3]
    7c2a:	465b      	mov	r3, fp
    7c2c:	781a      	ldrb	r2, [r3, #0]
    7c2e:	4643      	mov	r3, r8
    7c30:	3303      	adds	r3, #3
    7c32:	b2db      	uxtb	r3, r3
    7c34:	54e2      	strb	r2, [r4, r3]
    7c36:	4653      	mov	r3, sl
    7c38:	781a      	ldrb	r2, [r3, #0]
    7c3a:	4643      	mov	r3, r8
    7c3c:	3304      	adds	r3, #4
    7c3e:	b2db      	uxtb	r3, r3
    7c40:	54e2      	strb	r2, [r4, r3]
    7c42:	4643      	mov	r3, r8
    7c44:	1d58      	adds	r0, r3, #5
    7c46:	b2c0      	uxtb	r0, r0
    7c48:	1820      	adds	r0, r4, r0
    7c4a:	2208      	movs	r2, #8
    7c4c:	4b74      	ldr	r3, [pc, #464]	; (7e20 <handleJoinMessage+0x36c>)
    7c4e:	4798      	blx	r3
    7c50:	4b75      	ldr	r3, [pc, #468]	; (7e28 <handleJoinMessage+0x374>)
    7c52:	9501      	str	r5, [sp, #4]
    7c54:	9303      	str	r3, [sp, #12]
    7c56:	2300      	movs	r3, #0
    7c58:	9700      	str	r7, [sp, #0]
    7c5a:	9302      	str	r3, [sp, #8]
    7c5c:	220d      	movs	r2, #13
    7c5e:	0023      	movs	r3, r4
    7c60:	4641      	mov	r1, r8
    7c62:	0030      	movs	r0, r6
    7c64:	4c71      	ldr	r4, [pc, #452]	; (7e2c <handleJoinMessage+0x378>)
    7c66:	47a0      	blx	r4
    7c68:	e78c      	b.n	7b84 <handleJoinMessage+0xd0>
    7c6a:	4d68      	ldr	r5, [pc, #416]	; (7e0c <handleJoinMessage+0x358>)
    7c6c:	782b      	ldrb	r3, [r5, #0]
    7c6e:	2b03      	cmp	r3, #3
    7c70:	d000      	beq.n	7c74 <handleJoinMessage+0x1c0>
    7c72:	e787      	b.n	7b84 <handleJoinMessage+0xd0>
    7c74:	4f78      	ldr	r7, [pc, #480]	; (7e58 <handleJoinMessage+0x3a4>)
    7c76:	683b      	ldr	r3, [r7, #0]
    7c78:	785a      	ldrb	r2, [r3, #1]
    7c7a:	4b78      	ldr	r3, [pc, #480]	; (7e5c <handleJoinMessage+0x3a8>)
    7c7c:	469a      	mov	sl, r3
    7c7e:	4651      	mov	r1, sl
    7c80:	2338      	movs	r3, #56	; 0x38
    7c82:	6809      	ldr	r1, [r1, #0]
    7c84:	5ccb      	ldrb	r3, [r1, r3]
    7c86:	429a      	cmp	r2, r3
    7c88:	d200      	bcs.n	7c8c <handleJoinMessage+0x1d8>
    7c8a:	e0fd      	b.n	7e88 <handleJoinMessage+0x3d4>
    7c8c:	429a      	cmp	r2, r3
    7c8e:	d000      	beq.n	7c92 <handleJoinMessage+0x1de>
    7c90:	e778      	b.n	7b84 <handleJoinMessage+0xd0>
    7c92:	4873      	ldr	r0, [pc, #460]	; (7e60 <handleJoinMessage+0x3ac>)
    7c94:	4b66      	ldr	r3, [pc, #408]	; (7e30 <handleJoinMessage+0x37c>)
    7c96:	4798      	blx	r3
    7c98:	2309      	movs	r3, #9
    7c9a:	683a      	ldr	r2, [r7, #0]
    7c9c:	4c71      	ldr	r4, [pc, #452]	; (7e64 <handleJoinMessage+0x3b0>)
    7c9e:	7013      	strb	r3, [r2, #0]
    7ca0:	6839      	ldr	r1, [r7, #0]
    7ca2:	3b04      	subs	r3, #4
    7ca4:	702b      	strb	r3, [r5, #0]
    7ca6:	7848      	ldrb	r0, [r1, #1]
    7ca8:	6823      	ldr	r3, [r4, #0]
    7caa:	4798      	blx	r3
    7cac:	2300      	movs	r3, #0
    7cae:	6023      	str	r3, [r4, #0]
    7cb0:	e768      	b.n	7b84 <handleJoinMessage+0xd0>
    7cb2:	4d56      	ldr	r5, [pc, #344]	; (7e0c <handleJoinMessage+0x358>)
    7cb4:	782b      	ldrb	r3, [r5, #0]
    7cb6:	2b04      	cmp	r3, #4
    7cb8:	d000      	beq.n	7cbc <handleJoinMessage+0x208>
    7cba:	e763      	b.n	7b84 <handleJoinMessage+0xd0>
    7cbc:	4f68      	ldr	r7, [pc, #416]	; (7e60 <handleJoinMessage+0x3ac>)
    7cbe:	4b5c      	ldr	r3, [pc, #368]	; (7e30 <handleJoinMessage+0x37c>)
    7cc0:	0038      	movs	r0, r7
    7cc2:	4798      	blx	r3
    7cc4:	7860      	ldrb	r0, [r4, #1]
    7cc6:	2800      	cmp	r0, #0
    7cc8:	d100      	bne.n	7ccc <handleJoinMessage+0x218>
    7cca:	e148      	b.n	7f5e <handleJoinMessage+0x4aa>
    7ccc:	2305      	movs	r3, #5
    7cce:	702b      	strb	r3, [r5, #0]
    7cd0:	4c65      	ldr	r4, [pc, #404]	; (7e68 <handleJoinMessage+0x3b4>)
    7cd2:	6823      	ldr	r3, [r4, #0]
    7cd4:	4798      	blx	r3
    7cd6:	2300      	movs	r3, #0
    7cd8:	6023      	str	r3, [r4, #0]
    7cda:	e753      	b.n	7b84 <handleJoinMessage+0xd0>
    7cdc:	4d4b      	ldr	r5, [pc, #300]	; (7e0c <handleJoinMessage+0x358>)
    7cde:	782b      	ldrb	r3, [r5, #0]
    7ce0:	2b07      	cmp	r3, #7
    7ce2:	d000      	beq.n	7ce6 <handleJoinMessage+0x232>
    7ce4:	e74e      	b.n	7b84 <handleJoinMessage+0xd0>
    7ce6:	78a2      	ldrb	r2, [r4, #2]
    7ce8:	7863      	ldrb	r3, [r4, #1]
    7cea:	4f4a      	ldr	r7, [pc, #296]	; (7e14 <handleJoinMessage+0x360>)
    7cec:	0212      	lsls	r2, r2, #8
    7cee:	4313      	orrs	r3, r2
    7cf0:	803b      	strh	r3, [r7, #0]
    7cf2:	88c2      	ldrh	r2, [r0, #6]
    7cf4:	4b5d      	ldr	r3, [pc, #372]	; (7e6c <handleJoinMessage+0x3b8>)
    7cf6:	495e      	ldr	r1, [pc, #376]	; (7e70 <handleJoinMessage+0x3bc>)
    7cf8:	801a      	strh	r2, [r3, #0]
    7cfa:	8843      	ldrh	r3, [r0, #2]
    7cfc:	0038      	movs	r0, r7
    7cfe:	800b      	strh	r3, [r1, #0]
    7d00:	4b5c      	ldr	r3, [pc, #368]	; (7e74 <handleJoinMessage+0x3c0>)
    7d02:	4798      	blx	r3
    7d04:	4856      	ldr	r0, [pc, #344]	; (7e60 <handleJoinMessage+0x3ac>)
    7d06:	4e4a      	ldr	r6, [pc, #296]	; (7e30 <handleJoinMessage+0x37c>)
    7d08:	47b0      	blx	r6
    7d0a:	4c4a      	ldr	r4, [pc, #296]	; (7e34 <handleJoinMessage+0x380>)
    7d0c:	0020      	movs	r0, r4
    7d0e:	47b0      	blx	r6
    7d10:	4b52      	ldr	r3, [pc, #328]	; (7e5c <handleJoinMessage+0x3a8>)
    7d12:	0020      	movs	r0, r4
    7d14:	681b      	ldr	r3, [r3, #0]
    7d16:	8a9a      	ldrh	r2, [r3, #20]
    7d18:	23fa      	movs	r3, #250	; 0xfa
    7d1a:	009b      	lsls	r3, r3, #2
    7d1c:	4353      	muls	r3, r2
    7d1e:	6063      	str	r3, [r4, #4]
    7d20:	60a3      	str	r3, [r4, #8]
    7d22:	4b55      	ldr	r3, [pc, #340]	; (7e78 <handleJoinMessage+0x3c4>)
    7d24:	6123      	str	r3, [r4, #16]
    7d26:	2301      	movs	r3, #1
    7d28:	7323      	strb	r3, [r4, #12]
    7d2a:	4b54      	ldr	r3, [pc, #336]	; (7e7c <handleJoinMessage+0x3c8>)
    7d2c:	4798      	blx	r3
    7d2e:	2306      	movs	r3, #6
    7d30:	702b      	strb	r3, [r5, #0]
    7d32:	4b53      	ldr	r3, [pc, #332]	; (7e80 <handleJoinMessage+0x3cc>)
    7d34:	681b      	ldr	r3, [r3, #0]
    7d36:	2b00      	cmp	r3, #0
    7d38:	d100      	bne.n	7d3c <handleJoinMessage+0x288>
    7d3a:	e723      	b.n	7b84 <handleJoinMessage+0xd0>
    7d3c:	8838      	ldrh	r0, [r7, #0]
    7d3e:	b280      	uxth	r0, r0
    7d40:	4798      	blx	r3
    7d42:	e71f      	b.n	7b84 <handleJoinMessage+0xd0>
    7d44:	4b31      	ldr	r3, [pc, #196]	; (7e0c <handleJoinMessage+0x358>)
    7d46:	781b      	ldrb	r3, [r3, #0]
    7d48:	2b06      	cmp	r3, #6
    7d4a:	d000      	beq.n	7d4e <handleJoinMessage+0x29a>
    7d4c:	e71a      	b.n	7b84 <handleJoinMessage+0xd0>
    7d4e:	88c3      	ldrh	r3, [r0, #6]
    7d50:	4698      	mov	r8, r3
    7d52:	061b      	lsls	r3, r3, #24
    7d54:	d400      	bmi.n	7d58 <handleJoinMessage+0x2a4>
    7d56:	e715      	b.n	7b84 <handleJoinMessage+0xd0>
    7d58:	4b40      	ldr	r3, [pc, #256]	; (7e5c <handleJoinMessage+0x3a8>)
    7d5a:	469a      	mov	sl, r3
    7d5c:	681b      	ldr	r3, [r3, #0]
    7d5e:	7eda      	ldrb	r2, [r3, #27]
    7d60:	469b      	mov	fp, r3
    7d62:	2a00      	cmp	r2, #0
    7d64:	d100      	bne.n	7d68 <handleJoinMessage+0x2b4>
    7d66:	e70d      	b.n	7b84 <handleJoinMessage+0xd0>
    7d68:	4b46      	ldr	r3, [pc, #280]	; (7e84 <handleJoinMessage+0x3d0>)
    7d6a:	4647      	mov	r7, r8
    7d6c:	2500      	movs	r5, #0
    7d6e:	46a0      	mov	r8, r4
    7d70:	4699      	mov	r9, r3
    7d72:	465c      	mov	r4, fp
    7d74:	e005      	b.n	7d82 <handleJoinMessage+0x2ce>
    7d76:	3501      	adds	r5, #1
    7d78:	b2ed      	uxtb	r5, r5
    7d7a:	4295      	cmp	r5, r2
    7d7c:	d300      	bcc.n	7d80 <handleJoinMessage+0x2cc>
    7d7e:	e701      	b.n	7b84 <handleJoinMessage+0xd0>
    7d80:	88f7      	ldrh	r7, [r6, #6]
    7d82:	2380      	movs	r3, #128	; 0x80
    7d84:	403b      	ands	r3, r7
    7d86:	429d      	cmp	r5, r3
    7d88:	d1f5      	bne.n	7d76 <handleJoinMessage+0x2c2>
    7d8a:	6822      	ldr	r2, [r4, #0]
    7d8c:	012b      	lsls	r3, r5, #4
    7d8e:	4693      	mov	fp, r2
    7d90:	449b      	add	fp, r3
    7d92:	4643      	mov	r3, r8
    7d94:	2208      	movs	r2, #8
    7d96:	1c59      	adds	r1, r3, #1
    7d98:	4658      	mov	r0, fp
    7d9a:	47c8      	blx	r9
    7d9c:	2800      	cmp	r0, #0
    7d9e:	d106      	bne.n	7dae <handleJoinMessage+0x2fa>
    7da0:	465a      	mov	r2, fp
    7da2:	8d63      	ldrh	r3, [r4, #42]	; 0x2a
    7da4:	6093      	str	r3, [r2, #8]
    7da6:	4653      	mov	r3, sl
    7da8:	681c      	ldr	r4, [r3, #0]
    7daa:	7ee2      	ldrb	r2, [r4, #27]
    7dac:	e7e3      	b.n	7d76 <handleJoinMessage+0x2c2>
    7dae:	ab06      	add	r3, sp, #24
    7db0:	469c      	mov	ip, r3
    7db2:	2416      	movs	r4, #22
    7db4:	2078      	movs	r0, #120	; 0x78
    7db6:	4464      	add	r4, ip
    7db8:	4b15      	ldr	r3, [pc, #84]	; (7e10 <handleJoinMessage+0x35c>)
    7dba:	8027      	strh	r7, [r4, #0]
    7dbc:	4798      	blx	r3
    7dbe:	1e07      	subs	r7, r0, #0
    7dc0:	d100      	bne.n	7dc4 <handleJoinMessage+0x310>
    7dc2:	e0c8      	b.n	7f56 <handleJoinMessage+0x4a2>
    7dc4:	4b13      	ldr	r3, [pc, #76]	; (7e14 <handleJoinMessage+0x360>)
    7dc6:	8822      	ldrh	r2, [r4, #0]
    7dc8:	8819      	ldrh	r1, [r3, #0]
    7dca:	9404      	str	r4, [sp, #16]
    7dcc:	b289      	uxth	r1, r1
    7dce:	ab0c      	add	r3, sp, #48	; 0x30
    7dd0:	20ff      	movs	r0, #255	; 0xff
    7dd2:	4c11      	ldr	r4, [pc, #68]	; (7e18 <handleJoinMessage+0x364>)
    7dd4:	47a0      	blx	r4
    7dd6:	0039      	movs	r1, r7
    7dd8:	4b10      	ldr	r3, [pc, #64]	; (7e1c <handleJoinMessage+0x368>)
    7dda:	a80c      	add	r0, sp, #48	; 0x30
    7ddc:	4798      	blx	r3
    7dde:	2308      	movs	r3, #8
    7de0:	543b      	strb	r3, [r7, r0]
    7de2:	4b11      	ldr	r3, [pc, #68]	; (7e28 <handleJoinMessage+0x374>)
    7de4:	0001      	movs	r1, r0
    7de6:	9303      	str	r3, [sp, #12]
    7de8:	2300      	movs	r3, #0
    7dea:	9302      	str	r3, [sp, #8]
    7dec:	9b04      	ldr	r3, [sp, #16]
    7dee:	2201      	movs	r2, #1
    7df0:	9301      	str	r3, [sp, #4]
    7df2:	2302      	movs	r3, #2
    7df4:	4c0d      	ldr	r4, [pc, #52]	; (7e2c <handleJoinMessage+0x378>)
    7df6:	9300      	str	r3, [sp, #0]
    7df8:	a80c      	add	r0, sp, #48	; 0x30
    7dfa:	003b      	movs	r3, r7
    7dfc:	47a0      	blx	r4
    7dfe:	4653      	mov	r3, sl
    7e00:	681c      	ldr	r4, [r3, #0]
    7e02:	7ee2      	ldrb	r2, [r4, #27]
    7e04:	e7b7      	b.n	7d76 <handleJoinMessage+0x2c2>
    7e06:	46c0      	nop			; (mov r8, r8)
    7e08:	0000a35c 	.word	0x0000a35c
    7e0c:	20000384 	.word	0x20000384
    7e10:	00002fe1 	.word	0x00002fe1
    7e14:	20001a70 	.word	0x20001a70
    7e18:	00006101 	.word	0x00006101
    7e1c:	0000612d 	.word	0x0000612d
    7e20:	000093ab 	.word	0x000093ab
    7e24:	20001a2c 	.word	0x20001a2c
    7e28:	00007361 	.word	0x00007361
    7e2c:	000061c5 	.word	0x000061c5
    7e30:	00003249 	.word	0x00003249
    7e34:	20001a74 	.word	0x20001a74
    7e38:	20001aa8 	.word	0x20001aa8
    7e3c:	20001aa0 	.word	0x20001aa0
    7e40:	00005055 	.word	0x00005055
    7e44:	20001a72 	.word	0x20001a72
    7e48:	200003a0 	.word	0x200003a0
    7e4c:	200003a3 	.word	0x200003a3
    7e50:	000079a1 	.word	0x000079a1
    7e54:	200003a1 	.word	0x200003a1
    7e58:	200003b0 	.word	0x200003b0
    7e5c:	20001a28 	.word	0x20001a28
    7e60:	20001a8c 	.word	0x20001a8c
    7e64:	200003a8 	.word	0x200003a8
    7e68:	200003a4 	.word	0x200003a4
    7e6c:	20000078 	.word	0x20000078
    7e70:	20001a5c 	.word	0x20001a5c
    7e74:	0000214d 	.word	0x0000214d
    7e78:	00007261 	.word	0x00007261
    7e7c:	000032b5 	.word	0x000032b5
    7e80:	200003ac 	.word	0x200003ac
    7e84:	0000938d 	.word	0x0000938d
    7e88:	1de3      	adds	r3, r4, #7
    7e8a:	4699      	mov	r9, r3
    7e8c:	0018      	movs	r0, r3
    7e8e:	4ad3      	ldr	r2, [pc, #844]	; (81dc <handleJoinMessage+0x728>)
    7e90:	2108      	movs	r1, #8
    7e92:	4bd3      	ldr	r3, [pc, #844]	; (81e0 <handleJoinMessage+0x72c>)
    7e94:	4798      	blx	r3
    7e96:	2800      	cmp	r0, #0
    7e98:	d100      	bne.n	7e9c <handleJoinMessage+0x3e8>
    7e9a:	e673      	b.n	7b84 <handleJoinMessage+0xd0>
    7e9c:	2300      	movs	r3, #0
    7e9e:	683a      	ldr	r2, [r7, #0]
    7ea0:	7013      	strb	r3, [r2, #0]
    7ea2:	683b      	ldr	r3, [r7, #0]
    7ea4:	88f0      	ldrh	r0, [r6, #6]
    7ea6:	469c      	mov	ip, r3
    7ea8:	785b      	ldrb	r3, [r3, #1]
    7eaa:	469b      	mov	fp, r3
    7eac:	2b00      	cmp	r3, #0
    7eae:	d018      	beq.n	7ee2 <handleJoinMessage+0x42e>
    7eb0:	4663      	mov	r3, ip
    7eb2:	8a1b      	ldrh	r3, [r3, #16]
    7eb4:	4283      	cmp	r3, r0
    7eb6:	d100      	bne.n	7eba <handleJoinMessage+0x406>
    7eb8:	e664      	b.n	7b84 <handleJoinMessage+0xd0>
    7eba:	465a      	mov	r2, fp
    7ebc:	4663      	mov	r3, ip
    7ebe:	3a01      	subs	r2, #1
    7ec0:	b2d2      	uxtb	r2, r2
    7ec2:	00d1      	lsls	r1, r2, #3
    7ec4:	1889      	adds	r1, r1, r2
    7ec6:	0049      	lsls	r1, r1, #1
    7ec8:	3122      	adds	r1, #34	; 0x22
    7eca:	3322      	adds	r3, #34	; 0x22
    7ecc:	4461      	add	r1, ip
    7ece:	e006      	b.n	7ede <handleJoinMessage+0x42a>
    7ed0:	3312      	adds	r3, #18
    7ed2:	001a      	movs	r2, r3
    7ed4:	3a12      	subs	r2, #18
    7ed6:	8812      	ldrh	r2, [r2, #0]
    7ed8:	4282      	cmp	r2, r0
    7eda:	d100      	bne.n	7ede <handleJoinMessage+0x42a>
    7edc:	e652      	b.n	7b84 <handleJoinMessage+0xd0>
    7ede:	4299      	cmp	r1, r3
    7ee0:	d1f6      	bne.n	7ed0 <handleJoinMessage+0x41c>
    7ee2:	465b      	mov	r3, fp
    7ee4:	4abf      	ldr	r2, [pc, #764]	; (81e4 <handleJoinMessage+0x730>)
    7ee6:	00db      	lsls	r3, r3, #3
    7ee8:	445b      	add	r3, fp
    7eea:	7812      	ldrb	r2, [r2, #0]
    7eec:	005b      	lsls	r3, r3, #1
    7eee:	4463      	add	r3, ip
    7ef0:	8218      	strh	r0, [r3, #16]
    7ef2:	731a      	strb	r2, [r3, #12]
    7ef4:	8872      	ldrh	r2, [r6, #2]
    7ef6:	1d61      	adds	r1, r4, #5
    7ef8:	81da      	strh	r2, [r3, #14]
    7efa:	7862      	ldrb	r2, [r4, #1]
    7efc:	721a      	strb	r2, [r3, #8]
    7efe:	78a2      	ldrb	r2, [r4, #2]
    7f00:	725a      	strb	r2, [r3, #9]
    7f02:	78e2      	ldrb	r2, [r4, #3]
    7f04:	729a      	strb	r2, [r3, #10]
    7f06:	7922      	ldrb	r2, [r4, #4]
    7f08:	4cb7      	ldr	r4, [pc, #732]	; (81e8 <handleJoinMessage+0x734>)
    7f0a:	72da      	strb	r2, [r3, #11]
    7f0c:	465b      	mov	r3, fp
    7f0e:	3301      	adds	r3, #1
    7f10:	00d8      	lsls	r0, r3, #3
    7f12:	18c0      	adds	r0, r0, r3
    7f14:	0040      	lsls	r0, r0, #1
    7f16:	4460      	add	r0, ip
    7f18:	2208      	movs	r2, #8
    7f1a:	47a0      	blx	r4
    7f1c:	2208      	movs	r2, #8
    7f1e:	4649      	mov	r1, r9
    7f20:	48b2      	ldr	r0, [pc, #712]	; (81ec <handleJoinMessage+0x738>)
    7f22:	47a0      	blx	r4
    7f24:	683a      	ldr	r2, [r7, #0]
    7f26:	4cb2      	ldr	r4, [pc, #712]	; (81f0 <handleJoinMessage+0x73c>)
    7f28:	7851      	ldrb	r1, [r2, #1]
    7f2a:	00cb      	lsls	r3, r1, #3
    7f2c:	185b      	adds	r3, r3, r1
    7f2e:	005b      	lsls	r3, r3, #1
    7f30:	18d3      	adds	r3, r2, r3
    7f32:	4642      	mov	r2, r8
    7f34:	8a18      	ldrh	r0, [r3, #16]
    7f36:	735a      	strb	r2, [r3, #13]
    7f38:	0001      	movs	r1, r0
    7f3a:	4643      	mov	r3, r8
    7f3c:	2201      	movs	r2, #1
    7f3e:	47a0      	blx	r4
    7f40:	683a      	ldr	r2, [r7, #0]
    7f42:	7853      	ldrb	r3, [r2, #1]
    7f44:	3301      	adds	r3, #1
    7f46:	7053      	strb	r3, [r2, #1]
    7f48:	683b      	ldr	r3, [r7, #0]
    7f4a:	785a      	ldrb	r2, [r3, #1]
    7f4c:	4653      	mov	r3, sl
    7f4e:	6819      	ldr	r1, [r3, #0]
    7f50:	2338      	movs	r3, #56	; 0x38
    7f52:	5ccb      	ldrb	r3, [r1, r3]
    7f54:	e69a      	b.n	7c8c <handleJoinMessage+0x1d8>
    7f56:	4653      	mov	r3, sl
    7f58:	681c      	ldr	r4, [r3, #0]
    7f5a:	7ee2      	ldrb	r2, [r4, #27]
    7f5c:	e70b      	b.n	7d76 <handleJoinMessage+0x2c2>
    7f5e:	78e2      	ldrb	r2, [r4, #3]
    7f60:	78a3      	ldrb	r3, [r4, #2]
    7f62:	0212      	lsls	r2, r2, #8
    7f64:	4313      	orrs	r3, r2
    7f66:	4aa3      	ldr	r2, [pc, #652]	; (81f4 <handleJoinMessage+0x740>)
    7f68:	49a3      	ldr	r1, [pc, #652]	; (81f8 <handleJoinMessage+0x744>)
    7f6a:	4691      	mov	r9, r2
    7f6c:	8013      	strh	r3, [r2, #0]
    7f6e:	88f2      	ldrh	r2, [r6, #6]
    7f70:	4ba2      	ldr	r3, [pc, #648]	; (81fc <handleJoinMessage+0x748>)
    7f72:	4648      	mov	r0, r9
    7f74:	801a      	strh	r2, [r3, #0]
    7f76:	8873      	ldrh	r3, [r6, #2]
    7f78:	800b      	strh	r3, [r1, #0]
    7f7a:	4ba1      	ldr	r3, [pc, #644]	; (8200 <handleJoinMessage+0x74c>)
    7f7c:	4798      	blx	r3
    7f7e:	4ba1      	ldr	r3, [pc, #644]	; (8204 <handleJoinMessage+0x750>)
    7f80:	1d21      	adds	r1, r4, #4
    7f82:	681e      	ldr	r6, [r3, #0]
    7f84:	469a      	mov	sl, r3
    7f86:	232d      	movs	r3, #45	; 0x2d
    7f88:	5cf2      	ldrb	r2, [r6, r3]
    7f8a:	4b9f      	ldr	r3, [pc, #636]	; (8208 <handleJoinMessage+0x754>)
    7f8c:	701a      	strb	r2, [r3, #0]
    7f8e:	4b9f      	ldr	r3, [pc, #636]	; (820c <handleJoinMessage+0x758>)
    7f90:	2210      	movs	r2, #16
    7f92:	6818      	ldr	r0, [r3, #0]
    7f94:	4b94      	ldr	r3, [pc, #592]	; (81e8 <handleJoinMessage+0x734>)
    7f96:	3010      	adds	r0, #16
    7f98:	4798      	blx	r3
    7f9a:	464b      	mov	r3, r9
    7f9c:	22ff      	movs	r2, #255	; 0xff
    7f9e:	881b      	ldrh	r3, [r3, #0]
    7fa0:	421a      	tst	r2, r3
    7fa2:	d000      	beq.n	7fa6 <handleJoinMessage+0x4f2>
    7fa4:	e152      	b.n	824c <handleJoinMessage+0x798>
    7fa6:	2306      	movs	r3, #6
    7fa8:	702b      	strb	r3, [r5, #0]
    7faa:	23fa      	movs	r3, #250	; 0xfa
    7fac:	8ab2      	ldrh	r2, [r6, #20]
    7fae:	009b      	lsls	r3, r3, #2
    7fb0:	4353      	muls	r3, r2
    7fb2:	4d97      	ldr	r5, [pc, #604]	; (8210 <handleJoinMessage+0x75c>)
    7fb4:	4e97      	ldr	r6, [pc, #604]	; (8214 <handleJoinMessage+0x760>)
    7fb6:	606b      	str	r3, [r5, #4]
    7fb8:	60ab      	str	r3, [r5, #8]
    7fba:	2701      	movs	r7, #1
    7fbc:	4b96      	ldr	r3, [pc, #600]	; (8218 <handleJoinMessage+0x764>)
    7fbe:	0028      	movs	r0, r5
    7fc0:	4698      	mov	r8, r3
    7fc2:	612b      	str	r3, [r5, #16]
    7fc4:	732f      	strb	r7, [r5, #12]
    7fc6:	47b0      	blx	r6
    7fc8:	464b      	mov	r3, r9
    7fca:	22ff      	movs	r2, #255	; 0xff
    7fcc:	881b      	ldrh	r3, [r3, #0]
    7fce:	421a      	tst	r2, r3
    7fd0:	d012      	beq.n	7ff8 <handleJoinMessage+0x544>
    7fd2:	464b      	mov	r3, r9
    7fd4:	881a      	ldrh	r2, [r3, #0]
    7fd6:	2380      	movs	r3, #128	; 0x80
    7fd8:	4013      	ands	r3, r2
    7fda:	d100      	bne.n	7fde <handleJoinMessage+0x52a>
    7fdc:	e126      	b.n	822c <handleJoinMessage+0x778>
    7fde:	4643      	mov	r3, r8
    7fe0:	612b      	str	r3, [r5, #16]
    7fe2:	4653      	mov	r3, sl
    7fe4:	681b      	ldr	r3, [r3, #0]
    7fe6:	0028      	movs	r0, r5
    7fe8:	8d1a      	ldrh	r2, [r3, #40]	; 0x28
    7fea:	23fa      	movs	r3, #250	; 0xfa
    7fec:	009b      	lsls	r3, r3, #2
    7fee:	4353      	muls	r3, r2
    7ff0:	732f      	strb	r7, [r5, #12]
    7ff2:	606b      	str	r3, [r5, #4]
    7ff4:	60ab      	str	r3, [r5, #8]
    7ff6:	47b0      	blx	r6
    7ff8:	7860      	ldrb	r0, [r4, #1]
    7ffa:	e669      	b.n	7cd0 <handleJoinMessage+0x21c>
    7ffc:	465b      	mov	r3, fp
    7ffe:	07db      	lsls	r3, r3, #31
    8000:	d500      	bpl.n	8004 <handleJoinMessage+0x550>
    8002:	e094      	b.n	812e <handleJoinMessage+0x67a>
    8004:	4b7f      	ldr	r3, [pc, #508]	; (8204 <handleJoinMessage+0x750>)
    8006:	469a      	mov	sl, r3
    8008:	681b      	ldr	r3, [r3, #0]
    800a:	9309      	str	r3, [sp, #36]	; 0x24
    800c:	7f1b      	ldrb	r3, [r3, #28]
    800e:	9307      	str	r3, [sp, #28]
    8010:	2b01      	cmp	r3, #1
    8012:	d800      	bhi.n	8016 <handleJoinMessage+0x562>
    8014:	e573      	b.n	7afe <handleJoinMessage+0x4a>
    8016:	1ce3      	adds	r3, r4, #3
    8018:	9308      	str	r3, [sp, #32]
    801a:	9b09      	ldr	r3, [sp, #36]	; 0x24
    801c:	46b9      	mov	r9, r7
    801e:	685b      	ldr	r3, [r3, #4]
    8020:	2401      	movs	r4, #1
    8022:	001e      	movs	r6, r3
    8024:	9304      	str	r3, [sp, #16]
    8026:	4b7d      	ldr	r3, [pc, #500]	; (821c <handleJoinMessage+0x768>)
    8028:	3614      	adds	r6, #20
    802a:	001f      	movs	r7, r3
    802c:	9b04      	ldr	r3, [sp, #16]
    802e:	2208      	movs	r2, #8
    8030:	1af3      	subs	r3, r6, r3
    8032:	0029      	movs	r1, r5
    8034:	0030      	movs	r0, r6
    8036:	9305      	str	r3, [sp, #20]
    8038:	47b8      	blx	r7
    803a:	2800      	cmp	r0, #0
    803c:	d100      	bne.n	8040 <handleJoinMessage+0x58c>
    803e:	e12f      	b.n	82a0 <handleJoinMessage+0x7ec>
    8040:	7833      	ldrb	r3, [r6, #0]
    8042:	2bff      	cmp	r3, #255	; 0xff
    8044:	d16a      	bne.n	811c <handleJoinMessage+0x668>
    8046:	7873      	ldrb	r3, [r6, #1]
    8048:	2bff      	cmp	r3, #255	; 0xff
    804a:	d167      	bne.n	811c <handleJoinMessage+0x668>
    804c:	78b3      	ldrb	r3, [r6, #2]
    804e:	2bff      	cmp	r3, #255	; 0xff
    8050:	d164      	bne.n	811c <handleJoinMessage+0x668>
    8052:	78f3      	ldrb	r3, [r6, #3]
    8054:	2bff      	cmp	r3, #255	; 0xff
    8056:	d161      	bne.n	811c <handleJoinMessage+0x668>
    8058:	7933      	ldrb	r3, [r6, #4]
    805a:	2bff      	cmp	r3, #255	; 0xff
    805c:	d15e      	bne.n	811c <handleJoinMessage+0x668>
    805e:	7973      	ldrb	r3, [r6, #5]
    8060:	2bff      	cmp	r3, #255	; 0xff
    8062:	d15b      	bne.n	811c <handleJoinMessage+0x668>
    8064:	79b3      	ldrb	r3, [r6, #6]
    8066:	2bff      	cmp	r3, #255	; 0xff
    8068:	d158      	bne.n	811c <handleJoinMessage+0x668>
    806a:	79f3      	ldrb	r3, [r6, #7]
    806c:	2bff      	cmp	r3, #255	; 0xff
    806e:	d155      	bne.n	811c <handleJoinMessage+0x668>
    8070:	4b5d      	ldr	r3, [pc, #372]	; (81e8 <handleJoinMessage+0x734>)
    8072:	2208      	movs	r2, #8
    8074:	0029      	movs	r1, r5
    8076:	0030      	movs	r0, r6
    8078:	9304      	str	r3, [sp, #16]
    807a:	4798      	blx	r3
    807c:	4652      	mov	r2, sl
    807e:	6812      	ldr	r2, [r2, #0]
    8080:	9905      	ldr	r1, [sp, #20]
    8082:	464f      	mov	r7, r9
    8084:	4691      	mov	r9, r2
    8086:	6852      	ldr	r2, [r2, #4]
    8088:	468c      	mov	ip, r1
    808a:	0010      	movs	r0, r2
    808c:	465a      	mov	r2, fp
    808e:	4460      	add	r0, ip
    8090:	7402      	strb	r2, [r0, #16]
    8092:	464a      	mov	r2, r9
    8094:	6852      	ldr	r2, [r2, #4]
    8096:	9908      	ldr	r1, [sp, #32]
    8098:	4462      	add	r2, ip
    809a:	0010      	movs	r0, r2
    809c:	9e04      	ldr	r6, [sp, #16]
    809e:	3008      	adds	r0, #8
    80a0:	2204      	movs	r2, #4
    80a2:	47b0      	blx	r6
    80a4:	464b      	mov	r3, r9
    80a6:	9905      	ldr	r1, [sp, #20]
    80a8:	685b      	ldr	r3, [r3, #4]
    80aa:	185e      	adds	r6, r3, r1
    80ac:	68b3      	ldr	r3, [r6, #8]
    80ae:	60f3      	str	r3, [r6, #12]
    80b0:	4b50      	ldr	r3, [pc, #320]	; (81f4 <handleJoinMessage+0x740>)
    80b2:	4699      	mov	r9, r3
    80b4:	881b      	ldrh	r3, [r3, #0]
    80b6:	191c      	adds	r4, r3, r4
    80b8:	b2a3      	uxth	r3, r4
    80ba:	469a      	mov	sl, r3
    80bc:	464b      	mov	r3, r9
    80be:	8819      	ldrh	r1, [r3, #0]
    80c0:	ab0c      	add	r3, sp, #48	; 0x30
    80c2:	469b      	mov	fp, r3
    80c4:	b289      	uxth	r1, r1
    80c6:	2201      	movs	r2, #1
    80c8:	2001      	movs	r0, #1
    80ca:	4e55      	ldr	r6, [pc, #340]	; (8220 <handleJoinMessage+0x76c>)
    80cc:	47b0      	blx	r6
    80ce:	465b      	mov	r3, fp
    80d0:	2220      	movs	r2, #32
    80d2:	785b      	ldrb	r3, [r3, #1]
    80d4:	9c06      	ldr	r4, [sp, #24]
    80d6:	4313      	orrs	r3, r2
    80d8:	465a      	mov	r2, fp
    80da:	0021      	movs	r1, r4
    80dc:	7053      	strb	r3, [r2, #1]
    80de:	4658      	mov	r0, fp
    80e0:	4b50      	ldr	r3, [pc, #320]	; (8224 <handleJoinMessage+0x770>)
    80e2:	4798      	blx	r3
    80e4:	2204      	movs	r2, #4
    80e6:	0003      	movs	r3, r0
    80e8:	5422      	strb	r2, [r4, r0]
    80ea:	4a4f      	ldr	r2, [pc, #316]	; (8228 <handleJoinMessage+0x774>)
    80ec:	3301      	adds	r3, #1
    80ee:	4681      	mov	r9, r0
    80f0:	b2db      	uxtb	r3, r3
    80f2:	4592      	cmp	sl, r2
    80f4:	d100      	bne.n	80f8 <handleJoinMessage+0x644>
    80f6:	e51e      	b.n	7b36 <handleJoinMessage+0x82>
    80f8:	2200      	movs	r2, #0
    80fa:	1c86      	adds	r6, r0, #2
    80fc:	54e2      	strb	r2, [r4, r3]
    80fe:	4651      	mov	r1, sl
    8100:	4643      	mov	r3, r8
    8102:	3201      	adds	r2, #1
    8104:	4c3a      	ldr	r4, [pc, #232]	; (81f0 <handleJoinMessage+0x73c>)
    8106:	4650      	mov	r0, sl
    8108:	47a0      	blx	r4
    810a:	466a      	mov	r2, sp
    810c:	4653      	mov	r3, sl
    810e:	7513      	strb	r3, [r2, #20]
    8110:	7d13      	ldrb	r3, [r2, #20]
    8112:	4652      	mov	r2, sl
    8114:	b2f6      	uxtb	r6, r6
    8116:	0a14      	lsrs	r4, r2, #8
    8118:	9a06      	ldr	r2, [sp, #24]
    811a:	e515      	b.n	7b48 <handleJoinMessage+0x94>
    811c:	3401      	adds	r4, #1
    811e:	9b07      	ldr	r3, [sp, #28]
    8120:	b2e4      	uxtb	r4, r4
    8122:	3614      	adds	r6, #20
    8124:	42a3      	cmp	r3, r4
    8126:	d000      	beq.n	812a <handleJoinMessage+0x676>
    8128:	e780      	b.n	802c <handleJoinMessage+0x578>
    812a:	464f      	mov	r7, r9
    812c:	e4e7      	b.n	7afe <handleJoinMessage+0x4a>
    812e:	4b35      	ldr	r3, [pc, #212]	; (8204 <handleJoinMessage+0x750>)
    8130:	469a      	mov	sl, r3
    8132:	681b      	ldr	r3, [r3, #0]
    8134:	9308      	str	r3, [sp, #32]
    8136:	7eda      	ldrb	r2, [r3, #27]
    8138:	9207      	str	r2, [sp, #28]
    813a:	2a00      	cmp	r2, #0
    813c:	d100      	bne.n	8140 <handleJoinMessage+0x68c>
    813e:	e4de      	b.n	7afe <handleJoinMessage+0x4a>
    8140:	681b      	ldr	r3, [r3, #0]
    8142:	46b9      	mov	r9, r7
    8144:	9304      	str	r3, [sp, #16]
    8146:	001e      	movs	r6, r3
    8148:	4b34      	ldr	r3, [pc, #208]	; (821c <handleJoinMessage+0x768>)
    814a:	2400      	movs	r4, #0
    814c:	001f      	movs	r7, r3
    814e:	9b04      	ldr	r3, [sp, #16]
    8150:	2208      	movs	r2, #8
    8152:	1af3      	subs	r3, r6, r3
    8154:	0029      	movs	r1, r5
    8156:	0030      	movs	r0, r6
    8158:	9305      	str	r3, [sp, #20]
    815a:	47b8      	blx	r7
    815c:	2800      	cmp	r0, #0
    815e:	d100      	bne.n	8162 <handleJoinMessage+0x6ae>
    8160:	e08b      	b.n	827a <handleJoinMessage+0x7c6>
    8162:	7833      	ldrb	r3, [r6, #0]
    8164:	2bff      	cmp	r3, #255	; 0xff
    8166:	d131      	bne.n	81cc <handleJoinMessage+0x718>
    8168:	7873      	ldrb	r3, [r6, #1]
    816a:	2bff      	cmp	r3, #255	; 0xff
    816c:	d12e      	bne.n	81cc <handleJoinMessage+0x718>
    816e:	78b3      	ldrb	r3, [r6, #2]
    8170:	2bff      	cmp	r3, #255	; 0xff
    8172:	d12b      	bne.n	81cc <handleJoinMessage+0x718>
    8174:	78f3      	ldrb	r3, [r6, #3]
    8176:	2bff      	cmp	r3, #255	; 0xff
    8178:	d128      	bne.n	81cc <handleJoinMessage+0x718>
    817a:	7933      	ldrb	r3, [r6, #4]
    817c:	2bff      	cmp	r3, #255	; 0xff
    817e:	d125      	bne.n	81cc <handleJoinMessage+0x718>
    8180:	7973      	ldrb	r3, [r6, #5]
    8182:	2bff      	cmp	r3, #255	; 0xff
    8184:	d122      	bne.n	81cc <handleJoinMessage+0x718>
    8186:	79b3      	ldrb	r3, [r6, #6]
    8188:	2bff      	cmp	r3, #255	; 0xff
    818a:	d11f      	bne.n	81cc <handleJoinMessage+0x718>
    818c:	79f3      	ldrb	r3, [r6, #7]
    818e:	2bff      	cmp	r3, #255	; 0xff
    8190:	d11c      	bne.n	81cc <handleJoinMessage+0x718>
    8192:	4b15      	ldr	r3, [pc, #84]	; (81e8 <handleJoinMessage+0x734>)
    8194:	2208      	movs	r2, #8
    8196:	0029      	movs	r1, r5
    8198:	0030      	movs	r0, r6
    819a:	9304      	str	r3, [sp, #16]
    819c:	4798      	blx	r3
    819e:	4653      	mov	r3, sl
    81a0:	9805      	ldr	r0, [sp, #20]
    81a2:	4659      	mov	r1, fp
    81a4:	4684      	mov	ip, r0
    81a6:	681b      	ldr	r3, [r3, #0]
    81a8:	464f      	mov	r7, r9
    81aa:	681a      	ldr	r2, [r3, #0]
    81ac:	4462      	add	r2, ip
    81ae:	7311      	strb	r1, [r2, #12]
    81b0:	681a      	ldr	r2, [r3, #0]
    81b2:	0001      	movs	r1, r0
    81b4:	4691      	mov	r9, r2
    81b6:	8d5b      	ldrh	r3, [r3, #42]	; 0x2a
    81b8:	4449      	add	r1, r9
    81ba:	608b      	str	r3, [r1, #8]
    81bc:	4b0d      	ldr	r3, [pc, #52]	; (81f4 <handleJoinMessage+0x740>)
    81be:	4699      	mov	r9, r3
    81c0:	881b      	ldrh	r3, [r3, #0]
    81c2:	3380      	adds	r3, #128	; 0x80
    81c4:	191c      	adds	r4, r3, r4
    81c6:	b2a3      	uxth	r3, r4
    81c8:	469a      	mov	sl, r3
    81ca:	e777      	b.n	80bc <handleJoinMessage+0x608>
    81cc:	3401      	adds	r4, #1
    81ce:	9b07      	ldr	r3, [sp, #28]
    81d0:	b2e4      	uxtb	r4, r4
    81d2:	3610      	adds	r6, #16
    81d4:	429c      	cmp	r4, r3
    81d6:	d1ba      	bne.n	814e <handleJoinMessage+0x69a>
    81d8:	464f      	mov	r7, r9
    81da:	e490      	b.n	7afe <handleJoinMessage+0x4a>
    81dc:	20000070 	.word	0x20000070
    81e0:	00005055 	.word	0x00005055
    81e4:	20001a3c 	.word	0x20001a3c
    81e8:	000093ab 	.word	0x000093ab
    81ec:	20001aa0 	.word	0x20001aa0
    81f0:	0000869d 	.word	0x0000869d
    81f4:	20001a70 	.word	0x20001a70
    81f8:	20001a5c 	.word	0x20001a5c
    81fc:	20000078 	.word	0x20000078
    8200:	0000214d 	.word	0x0000214d
    8204:	20001a28 	.word	0x20001a28
    8208:	20001a88 	.word	0x20001a88
    820c:	20001a2c 	.word	0x20001a2c
    8210:	20001a74 	.word	0x20001a74
    8214:	000032b5 	.word	0x000032b5
    8218:	00007261 	.word	0x00007261
    821c:	0000938d 	.word	0x0000938d
    8220:	00006101 	.word	0x00006101
    8224:	0000612d 	.word	0x0000612d
    8228:	0000ffff 	.word	0x0000ffff
    822c:	4a26      	ldr	r2, [pc, #152]	; (82c8 <handleJoinMessage+0x814>)
    822e:	0028      	movs	r0, r5
    8230:	612a      	str	r2, [r5, #16]
    8232:	4652      	mov	r2, sl
    8234:	6811      	ldr	r1, [r2, #0]
    8236:	222c      	movs	r2, #44	; 0x2c
    8238:	5c89      	ldrb	r1, [r1, r2]
    823a:	22fa      	movs	r2, #250	; 0xfa
    823c:	0092      	lsls	r2, r2, #2
    823e:	434a      	muls	r2, r1
    8240:	732b      	strb	r3, [r5, #12]
    8242:	606a      	str	r2, [r5, #4]
    8244:	60aa      	str	r2, [r5, #8]
    8246:	47b0      	blx	r6
    8248:	7860      	ldrb	r0, [r4, #1]
    824a:	e541      	b.n	7cd0 <handleJoinMessage+0x21c>
    824c:	2307      	movs	r3, #7
    824e:	702b      	strb	r3, [r5, #0]
    8250:	25fa      	movs	r5, #250	; 0xfa
    8252:	4b1e      	ldr	r3, [pc, #120]	; (82cc <handleJoinMessage+0x818>)
    8254:	00ad      	lsls	r5, r5, #2
    8256:	613b      	str	r3, [r7, #16]
    8258:	7eb3      	ldrb	r3, [r6, #26]
    825a:	0038      	movs	r0, r7
    825c:	436b      	muls	r3, r5
    825e:	607b      	str	r3, [r7, #4]
    8260:	60bb      	str	r3, [r7, #8]
    8262:	2301      	movs	r3, #1
    8264:	4e1a      	ldr	r6, [pc, #104]	; (82d0 <handleJoinMessage+0x81c>)
    8266:	733b      	strb	r3, [r7, #12]
    8268:	47b0      	blx	r6
    826a:	4653      	mov	r3, sl
    826c:	681b      	ldr	r3, [r3, #0]
    826e:	8d1b      	ldrh	r3, [r3, #40]	; 0x28
    8270:	436b      	muls	r3, r5
    8272:	4d18      	ldr	r5, [pc, #96]	; (82d4 <handleJoinMessage+0x820>)
    8274:	606b      	str	r3, [r5, #4]
    8276:	60ab      	str	r3, [r5, #8]
    8278:	e69f      	b.n	7fba <handleJoinMessage+0x506>
    827a:	22ff      	movs	r2, #255	; 0xff
    827c:	0112      	lsls	r2, r2, #4
    827e:	4694      	mov	ip, r2
    8280:	9a08      	ldr	r2, [sp, #32]
    8282:	9b04      	ldr	r3, [sp, #16]
    8284:	8d52      	ldrh	r2, [r2, #42]	; 0x2a
    8286:	4463      	add	r3, ip
    8288:	609a      	str	r2, [r3, #8]
    828a:	4b13      	ldr	r3, [pc, #76]	; (82d8 <handleJoinMessage+0x824>)
    828c:	464f      	mov	r7, r9
    828e:	4699      	mov	r9, r3
    8290:	881b      	ldrh	r3, [r3, #0]
    8292:	3380      	adds	r3, #128	; 0x80
    8294:	191c      	adds	r4, r3, r4
    8296:	b2a3      	uxth	r3, r4
    8298:	469a      	mov	sl, r3
    829a:	4b10      	ldr	r3, [pc, #64]	; (82dc <handleJoinMessage+0x828>)
    829c:	9304      	str	r3, [sp, #16]
    829e:	e70d      	b.n	80bc <handleJoinMessage+0x608>
    82a0:	4a0f      	ldr	r2, [pc, #60]	; (82e0 <handleJoinMessage+0x82c>)
    82a2:	9b04      	ldr	r3, [sp, #16]
    82a4:	4694      	mov	ip, r2
    82a6:	4463      	add	r3, ip
    82a8:	0018      	movs	r0, r3
    82aa:	4b0c      	ldr	r3, [pc, #48]	; (82dc <handleJoinMessage+0x828>)
    82ac:	2204      	movs	r2, #4
    82ae:	9908      	ldr	r1, [sp, #32]
    82b0:	9304      	str	r3, [sp, #16]
    82b2:	4798      	blx	r3
    82b4:	4a0b      	ldr	r2, [pc, #44]	; (82e4 <handleJoinMessage+0x830>)
    82b6:	9b09      	ldr	r3, [sp, #36]	; 0x24
    82b8:	4694      	mov	ip, r2
    82ba:	685b      	ldr	r3, [r3, #4]
    82bc:	464f      	mov	r7, r9
    82be:	4463      	add	r3, ip
    82c0:	689a      	ldr	r2, [r3, #8]
    82c2:	60da      	str	r2, [r3, #12]
    82c4:	e6f4      	b.n	80b0 <handleJoinMessage+0x5fc>
    82c6:	46c0      	nop			; (mov r8, r8)
    82c8:	000074a1 	.word	0x000074a1
    82cc:	000072e1 	.word	0x000072e1
    82d0:	000032b5 	.word	0x000032b5
    82d4:	20001a74 	.word	0x20001a74
    82d8:	20001a70 	.word	0x20001a70
    82dc:	000093ab 	.word	0x000093ab
    82e0:	000013f4 	.word	0x000013f4
    82e4:	000013ec 	.word	0x000013ec

000082e8 <deviceTableInit>:
    82e8:	b5f0      	push	{r4, r5, r6, r7, lr}
    82ea:	46c6      	mov	lr, r8
    82ec:	b500      	push	{lr}
    82ee:	4b24      	ldr	r3, [pc, #144]	; (8380 <deviceTableInit+0x98>)
    82f0:	681c      	ldr	r4, [r3, #0]
    82f2:	4698      	mov	r8, r3
    82f4:	7ee3      	ldrb	r3, [r4, #27]
    82f6:	2b00      	cmp	r3, #0
    82f8:	d019      	beq.n	832e <deviceTableInit+0x46>
    82fa:	2500      	movs	r5, #0
    82fc:	4f21      	ldr	r7, [pc, #132]	; (8384 <deviceTableInit+0x9c>)
    82fe:	6820      	ldr	r0, [r4, #0]
    8300:	012e      	lsls	r6, r5, #4
    8302:	1980      	adds	r0, r0, r6
    8304:	2208      	movs	r2, #8
    8306:	21ff      	movs	r1, #255	; 0xff
    8308:	47b8      	blx	r7
    830a:	4643      	mov	r3, r8
    830c:	681c      	ldr	r4, [r3, #0]
    830e:	2204      	movs	r2, #4
    8310:	6823      	ldr	r3, [r4, #0]
    8312:	21ff      	movs	r1, #255	; 0xff
    8314:	1998      	adds	r0, r3, r6
    8316:	3008      	adds	r0, #8
    8318:	47b8      	blx	r7
    831a:	6823      	ldr	r3, [r4, #0]
    831c:	22ff      	movs	r2, #255	; 0xff
    831e:	469c      	mov	ip, r3
    8320:	4466      	add	r6, ip
    8322:	7332      	strb	r2, [r6, #12]
    8324:	3501      	adds	r5, #1
    8326:	7ee3      	ldrb	r3, [r4, #27]
    8328:	b2ed      	uxtb	r5, r5
    832a:	42ab      	cmp	r3, r5
    832c:	d8e7      	bhi.n	82fe <deviceTableInit+0x16>
    832e:	7f23      	ldrb	r3, [r4, #28]
    8330:	2b00      	cmp	r3, #0
    8332:	d021      	beq.n	8378 <deviceTableInit+0x90>
    8334:	2600      	movs	r6, #0
    8336:	4f13      	ldr	r7, [pc, #76]	; (8384 <deviceTableInit+0x9c>)
    8338:	00b5      	lsls	r5, r6, #2
    833a:	6860      	ldr	r0, [r4, #4]
    833c:	19ad      	adds	r5, r5, r6
    833e:	00ad      	lsls	r5, r5, #2
    8340:	1940      	adds	r0, r0, r5
    8342:	2208      	movs	r2, #8
    8344:	21ff      	movs	r1, #255	; 0xff
    8346:	47b8      	blx	r7
    8348:	4643      	mov	r3, r8
    834a:	681c      	ldr	r4, [r3, #0]
    834c:	2204      	movs	r2, #4
    834e:	6863      	ldr	r3, [r4, #4]
    8350:	21ff      	movs	r1, #255	; 0xff
    8352:	1958      	adds	r0, r3, r5
    8354:	3008      	adds	r0, #8
    8356:	47b8      	blx	r7
    8358:	6863      	ldr	r3, [r4, #4]
    835a:	2204      	movs	r2, #4
    835c:	1958      	adds	r0, r3, r5
    835e:	300c      	adds	r0, #12
    8360:	21ff      	movs	r1, #255	; 0xff
    8362:	47b8      	blx	r7
    8364:	6863      	ldr	r3, [r4, #4]
    8366:	3601      	adds	r6, #1
    8368:	469c      	mov	ip, r3
    836a:	23ff      	movs	r3, #255	; 0xff
    836c:	4465      	add	r5, ip
    836e:	742b      	strb	r3, [r5, #16]
    8370:	7f23      	ldrb	r3, [r4, #28]
    8372:	b2f6      	uxtb	r6, r6
    8374:	42b3      	cmp	r3, r6
    8376:	d8df      	bhi.n	8338 <deviceTableInit+0x50>
    8378:	bc04      	pop	{r2}
    837a:	4690      	mov	r8, r2
    837c:	bdf0      	pop	{r4, r5, r6, r7, pc}
    837e:	46c0      	nop			; (mov r8, r8)
    8380:	20001a28 	.word	0x20001a28
    8384:	000093bd 	.word	0x000093bd

00008388 <sendForceLeaveNetwork>:
    8388:	b570      	push	{r4, r5, r6, lr}
    838a:	2516      	movs	r5, #22
    838c:	b08e      	sub	sp, #56	; 0x38
    838e:	446d      	add	r5, sp
    8390:	8028      	strh	r0, [r5, #0]
    8392:	4b11      	ldr	r3, [pc, #68]	; (83d8 <sendForceLeaveNetwork+0x50>)
    8394:	2078      	movs	r0, #120	; 0x78
    8396:	4798      	blx	r3
    8398:	1e04      	subs	r4, r0, #0
    839a:	d01a      	beq.n	83d2 <sendForceLeaveNetwork+0x4a>
    839c:	4b0f      	ldr	r3, [pc, #60]	; (83dc <sendForceLeaveNetwork+0x54>)
    839e:	882a      	ldrh	r2, [r5, #0]
    83a0:	8819      	ldrh	r1, [r3, #0]
    83a2:	20ff      	movs	r0, #255	; 0xff
    83a4:	b289      	uxth	r1, r1
    83a6:	ab06      	add	r3, sp, #24
    83a8:	4e0d      	ldr	r6, [pc, #52]	; (83e0 <sendForceLeaveNetwork+0x58>)
    83aa:	47b0      	blx	r6
    83ac:	0021      	movs	r1, r4
    83ae:	4b0d      	ldr	r3, [pc, #52]	; (83e4 <sendForceLeaveNetwork+0x5c>)
    83b0:	a806      	add	r0, sp, #24
    83b2:	4798      	blx	r3
    83b4:	2308      	movs	r3, #8
    83b6:	5423      	strb	r3, [r4, r0]
    83b8:	4b0b      	ldr	r3, [pc, #44]	; (83e8 <sendForceLeaveNetwork+0x60>)
    83ba:	0001      	movs	r1, r0
    83bc:	9303      	str	r3, [sp, #12]
    83be:	2300      	movs	r3, #0
    83c0:	9302      	str	r3, [sp, #8]
    83c2:	3302      	adds	r3, #2
    83c4:	9300      	str	r3, [sp, #0]
    83c6:	9501      	str	r5, [sp, #4]
    83c8:	0023      	movs	r3, r4
    83ca:	2201      	movs	r2, #1
    83cc:	a806      	add	r0, sp, #24
    83ce:	4c07      	ldr	r4, [pc, #28]	; (83ec <sendForceLeaveNetwork+0x64>)
    83d0:	47a0      	blx	r4
    83d2:	b00e      	add	sp, #56	; 0x38
    83d4:	bd70      	pop	{r4, r5, r6, pc}
    83d6:	46c0      	nop			; (mov r8, r8)
    83d8:	00002fe1 	.word	0x00002fe1
    83dc:	20001a70 	.word	0x20001a70
    83e0:	00006101 	.word	0x00006101
    83e4:	0000612d 	.word	0x0000612d
    83e8:	00007361 	.word	0x00007361
    83ec:	000061c5 	.word	0x000061c5

000083f0 <isCorrectIeeeAddr>:
    83f0:	7803      	ldrb	r3, [r0, #0]
    83f2:	2bff      	cmp	r3, #255	; 0xff
    83f4:	d117      	bne.n	8426 <isCorrectIeeeAddr+0x36>
    83f6:	7843      	ldrb	r3, [r0, #1]
    83f8:	2bff      	cmp	r3, #255	; 0xff
    83fa:	d114      	bne.n	8426 <isCorrectIeeeAddr+0x36>
    83fc:	7883      	ldrb	r3, [r0, #2]
    83fe:	2bff      	cmp	r3, #255	; 0xff
    8400:	d111      	bne.n	8426 <isCorrectIeeeAddr+0x36>
    8402:	78c3      	ldrb	r3, [r0, #3]
    8404:	2bff      	cmp	r3, #255	; 0xff
    8406:	d10e      	bne.n	8426 <isCorrectIeeeAddr+0x36>
    8408:	7903      	ldrb	r3, [r0, #4]
    840a:	2bff      	cmp	r3, #255	; 0xff
    840c:	d10b      	bne.n	8426 <isCorrectIeeeAddr+0x36>
    840e:	7943      	ldrb	r3, [r0, #5]
    8410:	2bff      	cmp	r3, #255	; 0xff
    8412:	d108      	bne.n	8426 <isCorrectIeeeAddr+0x36>
    8414:	7983      	ldrb	r3, [r0, #6]
    8416:	2bff      	cmp	r3, #255	; 0xff
    8418:	d105      	bne.n	8426 <isCorrectIeeeAddr+0x36>
    841a:	79c0      	ldrb	r0, [r0, #7]
    841c:	38ff      	subs	r0, #255	; 0xff
    841e:	1e43      	subs	r3, r0, #1
    8420:	4198      	sbcs	r0, r3
    8422:	b2c0      	uxtb	r0, r0
    8424:	4770      	bx	lr
    8426:	2001      	movs	r0, #1
    8428:	e7fc      	b.n	8424 <isCorrectIeeeAddr+0x34>
    842a:	46c0      	nop			; (mov r8, r8)

0000842c <keepAliveTimerHandler>:
    842c:	b5f8      	push	{r3, r4, r5, r6, r7, lr}
    842e:	4d36      	ldr	r5, [pc, #216]	; (8508 <keepAliveTimerHandler+0xdc>)
    8430:	682a      	ldr	r2, [r5, #0]
    8432:	7ed7      	ldrb	r7, [r2, #27]
    8434:	2f00      	cmp	r7, #0
    8436:	d020      	beq.n	847a <keepAliveTimerHandler+0x4e>
    8438:	2400      	movs	r4, #0
    843a:	4e34      	ldr	r6, [pc, #208]	; (850c <keepAliveTimerHandler+0xe0>)
    843c:	6813      	ldr	r3, [r2, #0]
    843e:	0120      	lsls	r0, r4, #4
    8440:	181b      	adds	r3, r3, r0
    8442:	7819      	ldrb	r1, [r3, #0]
    8444:	29ff      	cmp	r1, #255	; 0xff
    8446:	d13f      	bne.n	84c8 <keepAliveTimerHandler+0x9c>
    8448:	7859      	ldrb	r1, [r3, #1]
    844a:	29ff      	cmp	r1, #255	; 0xff
    844c:	d13c      	bne.n	84c8 <keepAliveTimerHandler+0x9c>
    844e:	7899      	ldrb	r1, [r3, #2]
    8450:	29ff      	cmp	r1, #255	; 0xff
    8452:	d139      	bne.n	84c8 <keepAliveTimerHandler+0x9c>
    8454:	78d9      	ldrb	r1, [r3, #3]
    8456:	29ff      	cmp	r1, #255	; 0xff
    8458:	d136      	bne.n	84c8 <keepAliveTimerHandler+0x9c>
    845a:	7919      	ldrb	r1, [r3, #4]
    845c:	29ff      	cmp	r1, #255	; 0xff
    845e:	d133      	bne.n	84c8 <keepAliveTimerHandler+0x9c>
    8460:	7959      	ldrb	r1, [r3, #5]
    8462:	29ff      	cmp	r1, #255	; 0xff
    8464:	d130      	bne.n	84c8 <keepAliveTimerHandler+0x9c>
    8466:	7999      	ldrb	r1, [r3, #6]
    8468:	29ff      	cmp	r1, #255	; 0xff
    846a:	d12d      	bne.n	84c8 <keepAliveTimerHandler+0x9c>
    846c:	79d9      	ldrb	r1, [r3, #7]
    846e:	29ff      	cmp	r1, #255	; 0xff
    8470:	d12a      	bne.n	84c8 <keepAliveTimerHandler+0x9c>
    8472:	3401      	adds	r4, #1
    8474:	b2e4      	uxtb	r4, r4
    8476:	42bc      	cmp	r4, r7
    8478:	d3e0      	bcc.n	843c <keepAliveTimerHandler+0x10>
    847a:	7f17      	ldrb	r7, [r2, #28]
    847c:	2401      	movs	r4, #1
    847e:	2f01      	cmp	r7, #1
    8480:	d921      	bls.n	84c6 <keepAliveTimerHandler+0x9a>
    8482:	4e22      	ldr	r6, [pc, #136]	; (850c <keepAliveTimerHandler+0xe0>)
    8484:	00a0      	lsls	r0, r4, #2
    8486:	1900      	adds	r0, r0, r4
    8488:	6853      	ldr	r3, [r2, #4]
    848a:	0080      	lsls	r0, r0, #2
    848c:	181b      	adds	r3, r3, r0
    848e:	7819      	ldrb	r1, [r3, #0]
    8490:	29ff      	cmp	r1, #255	; 0xff
    8492:	d123      	bne.n	84dc <keepAliveTimerHandler+0xb0>
    8494:	7859      	ldrb	r1, [r3, #1]
    8496:	29ff      	cmp	r1, #255	; 0xff
    8498:	d120      	bne.n	84dc <keepAliveTimerHandler+0xb0>
    849a:	7899      	ldrb	r1, [r3, #2]
    849c:	29ff      	cmp	r1, #255	; 0xff
    849e:	d11d      	bne.n	84dc <keepAliveTimerHandler+0xb0>
    84a0:	78d9      	ldrb	r1, [r3, #3]
    84a2:	29ff      	cmp	r1, #255	; 0xff
    84a4:	d11a      	bne.n	84dc <keepAliveTimerHandler+0xb0>
    84a6:	7919      	ldrb	r1, [r3, #4]
    84a8:	29ff      	cmp	r1, #255	; 0xff
    84aa:	d117      	bne.n	84dc <keepAliveTimerHandler+0xb0>
    84ac:	7959      	ldrb	r1, [r3, #5]
    84ae:	29ff      	cmp	r1, #255	; 0xff
    84b0:	d114      	bne.n	84dc <keepAliveTimerHandler+0xb0>
    84b2:	7999      	ldrb	r1, [r3, #6]
    84b4:	29ff      	cmp	r1, #255	; 0xff
    84b6:	d111      	bne.n	84dc <keepAliveTimerHandler+0xb0>
    84b8:	79d9      	ldrb	r1, [r3, #7]
    84ba:	29ff      	cmp	r1, #255	; 0xff
    84bc:	d10e      	bne.n	84dc <keepAliveTimerHandler+0xb0>
    84be:	3401      	adds	r4, #1
    84c0:	b2e4      	uxtb	r4, r4
    84c2:	42bc      	cmp	r4, r7
    84c4:	d3de      	bcc.n	8484 <keepAliveTimerHandler+0x58>
    84c6:	bdf8      	pop	{r3, r4, r5, r6, r7, pc}
    84c8:	6899      	ldr	r1, [r3, #8]
    84ca:	2900      	cmp	r1, #0
    84cc:	d0d1      	beq.n	8472 <keepAliveTimerHandler+0x46>
    84ce:	3901      	subs	r1, #1
    84d0:	6099      	str	r1, [r3, #8]
    84d2:	2900      	cmp	r1, #0
    84d4:	d00c      	beq.n	84f0 <keepAliveTimerHandler+0xc4>
    84d6:	682a      	ldr	r2, [r5, #0]
    84d8:	7ed7      	ldrb	r7, [r2, #27]
    84da:	e7ca      	b.n	8472 <keepAliveTimerHandler+0x46>
    84dc:	68d9      	ldr	r1, [r3, #12]
    84de:	2900      	cmp	r1, #0
    84e0:	d0ed      	beq.n	84be <keepAliveTimerHandler+0x92>
    84e2:	3901      	subs	r1, #1
    84e4:	60d9      	str	r1, [r3, #12]
    84e6:	2900      	cmp	r1, #0
    84e8:	d008      	beq.n	84fc <keepAliveTimerHandler+0xd0>
    84ea:	682a      	ldr	r2, [r5, #0]
    84ec:	7f17      	ldrb	r7, [r2, #28]
    84ee:	e7e6      	b.n	84be <keepAliveTimerHandler+0x92>
    84f0:	6813      	ldr	r3, [r2, #0]
    84f2:	21ff      	movs	r1, #255	; 0xff
    84f4:	1818      	adds	r0, r3, r0
    84f6:	2208      	movs	r2, #8
    84f8:	47b0      	blx	r6
    84fa:	e7ec      	b.n	84d6 <keepAliveTimerHandler+0xaa>
    84fc:	6853      	ldr	r3, [r2, #4]
    84fe:	21ff      	movs	r1, #255	; 0xff
    8500:	1818      	adds	r0, r3, r0
    8502:	2208      	movs	r2, #8
    8504:	47b0      	blx	r6
    8506:	e7f0      	b.n	84ea <keepAliveTimerHandler+0xbe>
    8508:	20001a28 	.word	0x20001a28
    850c:	000093bd 	.word	0x000093bd

00008510 <MiApp_SubscribeLinkFailureCallback>:
    8510:	2800      	cmp	r0, #0
    8512:	d003      	beq.n	851c <MiApp_SubscribeLinkFailureCallback+0xc>
    8514:	4b02      	ldr	r3, [pc, #8]	; (8520 <MiApp_SubscribeLinkFailureCallback+0x10>)
    8516:	6018      	str	r0, [r3, #0]
    8518:	2001      	movs	r0, #1
    851a:	4770      	bx	lr
    851c:	2000      	movs	r0, #0
    851e:	e7fc      	b.n	851a <MiApp_SubscribeLinkFailureCallback+0xa>
    8520:	20001aa8 	.word	0x20001aa8

00008524 <checkLinkFailureAtNoAck>:
    8524:	b510      	push	{r4, lr}
    8526:	2803      	cmp	r0, #3
    8528:	d006      	beq.n	8538 <checkLinkFailureAtNoAck+0x14>
    852a:	4b0f      	ldr	r3, [pc, #60]	; (8568 <checkLinkFailureAtNoAck+0x44>)
    852c:	681a      	ldr	r2, [r3, #0]
    852e:	232d      	movs	r3, #45	; 0x2d
    8530:	5cd2      	ldrb	r2, [r2, r3]
    8532:	4b0e      	ldr	r3, [pc, #56]	; (856c <checkLinkFailureAtNoAck+0x48>)
    8534:	701a      	strb	r2, [r3, #0]
    8536:	bd10      	pop	{r4, pc}
    8538:	4a0c      	ldr	r2, [pc, #48]	; (856c <checkLinkFailureAtNoAck+0x48>)
    853a:	7813      	ldrb	r3, [r2, #0]
    853c:	2b00      	cmp	r3, #0
    853e:	d0fa      	beq.n	8536 <checkLinkFailureAtNoAck+0x12>
    8540:	3b01      	subs	r3, #1
    8542:	b2db      	uxtb	r3, r3
    8544:	7013      	strb	r3, [r2, #0]
    8546:	2b00      	cmp	r3, #0
    8548:	d1f5      	bne.n	8536 <checkLinkFailureAtNoAck+0x12>
    854a:	4b09      	ldr	r3, [pc, #36]	; (8570 <checkLinkFailureAtNoAck+0x4c>)
    854c:	4809      	ldr	r0, [pc, #36]	; (8574 <checkLinkFailureAtNoAck+0x50>)
    854e:	4798      	blx	r3
    8550:	2208      	movs	r2, #8
    8552:	4b09      	ldr	r3, [pc, #36]	; (8578 <checkLinkFailureAtNoAck+0x54>)
    8554:	701a      	strb	r2, [r3, #0]
    8556:	4b09      	ldr	r3, [pc, #36]	; (857c <checkLinkFailureAtNoAck+0x58>)
    8558:	3a09      	subs	r2, #9
    855a:	801a      	strh	r2, [r3, #0]
    855c:	4b08      	ldr	r3, [pc, #32]	; (8580 <checkLinkFailureAtNoAck+0x5c>)
    855e:	681b      	ldr	r3, [r3, #0]
    8560:	2b00      	cmp	r3, #0
    8562:	d0e8      	beq.n	8536 <checkLinkFailureAtNoAck+0x12>
    8564:	4798      	blx	r3
    8566:	e7e6      	b.n	8536 <checkLinkFailureAtNoAck+0x12>
    8568:	20001a28 	.word	0x20001a28
    856c:	20001a88 	.word	0x20001a88
    8570:	00003249 	.word	0x00003249
    8574:	20001a74 	.word	0x20001a74
    8578:	20000384 	.word	0x20000384
    857c:	20001a70 	.word	0x20001a70
    8580:	20001aa8 	.word	0x20001aa8

00008584 <isRxOffEdAvailable>:
    8584:	4b1d      	ldr	r3, [pc, #116]	; (85fc <isRxOffEdAvailable+0x78>)
    8586:	681b      	ldr	r3, [r3, #0]
    8588:	7f1a      	ldrb	r2, [r3, #28]
    858a:	2a01      	cmp	r2, #1
    858c:	d932      	bls.n	85f4 <isRxOffEdAvailable+0x70>
    858e:	6859      	ldr	r1, [r3, #4]
    8590:	7d0b      	ldrb	r3, [r1, #20]
    8592:	2bff      	cmp	r3, #255	; 0xff
    8594:	d130      	bne.n	85f8 <isRxOffEdAvailable+0x74>
    8596:	7d4b      	ldrb	r3, [r1, #21]
    8598:	2bff      	cmp	r3, #255	; 0xff
    859a:	d12d      	bne.n	85f8 <isRxOffEdAvailable+0x74>
    859c:	7d8b      	ldrb	r3, [r1, #22]
    859e:	2bff      	cmp	r3, #255	; 0xff
    85a0:	d12a      	bne.n	85f8 <isRxOffEdAvailable+0x74>
    85a2:	7dcb      	ldrb	r3, [r1, #23]
    85a4:	2bff      	cmp	r3, #255	; 0xff
    85a6:	d127      	bne.n	85f8 <isRxOffEdAvailable+0x74>
    85a8:	000b      	movs	r3, r1
    85aa:	3a02      	subs	r2, #2
    85ac:	b2d2      	uxtb	r2, r2
    85ae:	0090      	lsls	r0, r2, #2
    85b0:	1882      	adds	r2, r0, r2
    85b2:	0092      	lsls	r2, r2, #2
    85b4:	3218      	adds	r2, #24
    85b6:	3318      	adds	r3, #24
    85b8:	1889      	adds	r1, r1, r2
    85ba:	e00d      	b.n	85d8 <isRxOffEdAvailable+0x54>
    85bc:	7c1a      	ldrb	r2, [r3, #16]
    85be:	2aff      	cmp	r2, #255	; 0xff
    85c0:	d11a      	bne.n	85f8 <isRxOffEdAvailable+0x74>
    85c2:	7c5a      	ldrb	r2, [r3, #17]
    85c4:	2aff      	cmp	r2, #255	; 0xff
    85c6:	d117      	bne.n	85f8 <isRxOffEdAvailable+0x74>
    85c8:	7c9a      	ldrb	r2, [r3, #18]
    85ca:	2aff      	cmp	r2, #255	; 0xff
    85cc:	d114      	bne.n	85f8 <isRxOffEdAvailable+0x74>
    85ce:	3314      	adds	r3, #20
    85d0:	1e5a      	subs	r2, r3, #1
    85d2:	7812      	ldrb	r2, [r2, #0]
    85d4:	2aff      	cmp	r2, #255	; 0xff
    85d6:	d10f      	bne.n	85f8 <isRxOffEdAvailable+0x74>
    85d8:	781a      	ldrb	r2, [r3, #0]
    85da:	2aff      	cmp	r2, #255	; 0xff
    85dc:	d10c      	bne.n	85f8 <isRxOffEdAvailable+0x74>
    85de:	785a      	ldrb	r2, [r3, #1]
    85e0:	2aff      	cmp	r2, #255	; 0xff
    85e2:	d109      	bne.n	85f8 <isRxOffEdAvailable+0x74>
    85e4:	789a      	ldrb	r2, [r3, #2]
    85e6:	2aff      	cmp	r2, #255	; 0xff
    85e8:	d106      	bne.n	85f8 <isRxOffEdAvailable+0x74>
    85ea:	78da      	ldrb	r2, [r3, #3]
    85ec:	2aff      	cmp	r2, #255	; 0xff
    85ee:	d103      	bne.n	85f8 <isRxOffEdAvailable+0x74>
    85f0:	4299      	cmp	r1, r3
    85f2:	d1e3      	bne.n	85bc <isRxOffEdAvailable+0x38>
    85f4:	2000      	movs	r0, #0
    85f6:	4770      	bx	lr
    85f8:	2001      	movs	r0, #1
    85fa:	e7fc      	b.n	85f6 <isRxOffEdAvailable+0x72>
    85fc:	20001a28 	.word	0x20001a28

00008600 <routeReplyConfcb>:
    8600:	b510      	push	{r4, lr}
    8602:	0010      	movs	r0, r2
    8604:	4b01      	ldr	r3, [pc, #4]	; (860c <routeReplyConfcb+0xc>)
    8606:	4798      	blx	r3
    8608:	bd10      	pop	{r4, pc}
    860a:	46c0      	nop			; (mov r8, r8)
    860c:	00003031 	.word	0x00003031

00008610 <routeUpdateConfcb>:
    8610:	b510      	push	{r4, lr}
    8612:	0010      	movs	r0, r2
    8614:	4b01      	ldr	r3, [pc, #4]	; (861c <routeUpdateConfcb+0xc>)
    8616:	4798      	blx	r3
    8618:	bd10      	pop	{r4, pc}
    861a:	46c0      	nop			; (mov r8, r8)
    861c:	00003031 	.word	0x00003031

00008620 <routeReqConfcb>:
    8620:	b510      	push	{r4, lr}
    8622:	0010      	movs	r0, r2
    8624:	4b01      	ldr	r3, [pc, #4]	; (862c <routeReqConfcb+0xc>)
    8626:	4798      	blx	r3
    8628:	bd10      	pop	{r4, pc}
    862a:	46c0      	nop			; (mov r8, r8)
    862c:	00003031 	.word	0x00003031

00008630 <initRouteTable>:
    8630:	b570      	push	{r4, r5, r6, lr}
    8632:	4c15      	ldr	r4, [pc, #84]	; (8688 <initRouteTable+0x58>)
    8634:	6822      	ldr	r2, [r4, #0]
    8636:	7e13      	ldrb	r3, [r2, #24]
    8638:	2b00      	cmp	r3, #0
    863a:	d017      	beq.n	866c <initRouteTable+0x3c>
    863c:	2300      	movs	r3, #0
    863e:	26ff      	movs	r6, #255	; 0xff
    8640:	250f      	movs	r5, #15
    8642:	6892      	ldr	r2, [r2, #8]
    8644:	0058      	lsls	r0, r3, #1
    8646:	5416      	strb	r6, [r2, r0]
    8648:	6822      	ldr	r2, [r4, #0]
    864a:	3301      	adds	r3, #1
    864c:	6891      	ldr	r1, [r2, #8]
    864e:	b2db      	uxtb	r3, r3
    8650:	1809      	adds	r1, r1, r0
    8652:	784a      	ldrb	r2, [r1, #1]
    8654:	43aa      	bics	r2, r5
    8656:	704a      	strb	r2, [r1, #1]
    8658:	6822      	ldr	r2, [r4, #0]
    865a:	6892      	ldr	r2, [r2, #8]
    865c:	1812      	adds	r2, r2, r0
    865e:	7851      	ldrb	r1, [r2, #1]
    8660:	4029      	ands	r1, r5
    8662:	7051      	strb	r1, [r2, #1]
    8664:	6822      	ldr	r2, [r4, #0]
    8666:	7e11      	ldrb	r1, [r2, #24]
    8668:	4299      	cmp	r1, r3
    866a:	d8ea      	bhi.n	8642 <initRouteTable+0x12>
    866c:	2100      	movs	r1, #0
    866e:	68d0      	ldr	r0, [r2, #12]
    8670:	4b06      	ldr	r3, [pc, #24]	; (868c <initRouteTable+0x5c>)
    8672:	2220      	movs	r2, #32
    8674:	4798      	blx	r3
    8676:	4806      	ldr	r0, [pc, #24]	; (8690 <initRouteTable+0x60>)
    8678:	4b06      	ldr	r3, [pc, #24]	; (8694 <initRouteTable+0x64>)
    867a:	4798      	blx	r3
    867c:	6823      	ldr	r3, [r4, #0]
    867e:	7f5a      	ldrb	r2, [r3, #29]
    8680:	4b05      	ldr	r3, [pc, #20]	; (8698 <initRouteTable+0x68>)
    8682:	701a      	strb	r2, [r3, #0]
    8684:	bd70      	pop	{r4, r5, r6, pc}
    8686:	46c0      	nop			; (mov r8, r8)
    8688:	20001a28 	.word	0x20001a28
    868c:	000093bd 	.word	0x000093bd
    8690:	20001ab0 	.word	0x20001ab0
    8694:	00003141 	.word	0x00003141
    8698:	20001aac 	.word	0x20001aac

0000869c <addRoute>:
    869c:	b5f0      	push	{r4, r5, r6, r7, lr}
    869e:	46c6      	mov	lr, r8
    86a0:	b500      	push	{lr}
    86a2:	4f2e      	ldr	r7, [pc, #184]	; (875c <addRoute+0xc0>)
    86a4:	0a04      	lsrs	r4, r0, #8
    86a6:	683d      	ldr	r5, [r7, #0]
    86a8:	2000      	movs	r0, #0
    86aa:	7e2e      	ldrb	r6, [r5, #24]
    86ac:	42b4      	cmp	r4, r6
    86ae:	d237      	bcs.n	8720 <addRoute+0x84>
    86b0:	0a09      	lsrs	r1, r1, #8
    86b2:	42b1      	cmp	r1, r6
    86b4:	d234      	bcs.n	8720 <addRoute+0x84>
    86b6:	1c10      	adds	r0, r2, #0
    86b8:	2a0f      	cmp	r2, #15
    86ba:	d834      	bhi.n	8726 <addRoute+0x8a>
    86bc:	b2c2      	uxtb	r2, r0
    86be:	2001      	movs	r0, #1
    86c0:	4020      	ands	r0, r4
    86c2:	4684      	mov	ip, r0
    86c4:	d135      	bne.n	8732 <addRoute+0x96>
    86c6:	0860      	lsrs	r0, r4, #1
    86c8:	4680      	mov	r8, r0
    86ca:	4646      	mov	r6, r8
    86cc:	68e8      	ldr	r0, [r5, #12]
    86ce:	5d86      	ldrb	r6, [r0, r6]
    86d0:	0936      	lsrs	r6, r6, #4
    86d2:	2e00      	cmp	r6, #0
    86d4:	d002      	beq.n	86dc <addRoute+0x40>
    86d6:	2000      	movs	r0, #0
    86d8:	42b2      	cmp	r2, r6
    86da:	d221      	bcs.n	8720 <addRoute+0x84>
    86dc:	0060      	lsls	r0, r4, #1
    86de:	68ac      	ldr	r4, [r5, #8]
    86e0:	5421      	strb	r1, [r4, r0]
    86e2:	4661      	mov	r1, ip
    86e4:	2900      	cmp	r1, #0
    86e6:	d12c      	bne.n	8742 <addRoute+0xa6>
    86e8:	0114      	lsls	r4, r2, #4
    86ea:	4642      	mov	r2, r8
    86ec:	6839      	ldr	r1, [r7, #0]
    86ee:	68c9      	ldr	r1, [r1, #12]
    86f0:	5c8d      	ldrb	r5, [r1, r2]
    86f2:	220f      	movs	r2, #15
    86f4:	402a      	ands	r2, r5
    86f6:	4322      	orrs	r2, r4
    86f8:	4644      	mov	r4, r8
    86fa:	550a      	strb	r2, [r1, r4]
    86fc:	683a      	ldr	r2, [r7, #0]
    86fe:	091c      	lsrs	r4, r3, #4
    8700:	6891      	ldr	r1, [r2, #8]
    8702:	220f      	movs	r2, #15
    8704:	1809      	adds	r1, r1, r0
    8706:	784b      	ldrb	r3, [r1, #1]
    8708:	4393      	bics	r3, r2
    870a:	4323      	orrs	r3, r4
    870c:	704b      	strb	r3, [r1, #1]
    870e:	683b      	ldr	r3, [r7, #0]
    8710:	689c      	ldr	r4, [r3, #8]
    8712:	1824      	adds	r4, r4, r0
    8714:	7863      	ldrb	r3, [r4, #1]
    8716:	2001      	movs	r0, #1
    8718:	401a      	ands	r2, r3
    871a:	2330      	movs	r3, #48	; 0x30
    871c:	431a      	orrs	r2, r3
    871e:	7062      	strb	r2, [r4, #1]
    8720:	bc04      	pop	{r2}
    8722:	4690      	mov	r8, r2
    8724:	bdf0      	pop	{r4, r5, r6, r7, pc}
    8726:	200f      	movs	r0, #15
    8728:	b2c2      	uxtb	r2, r0
    872a:	2001      	movs	r0, #1
    872c:	4020      	ands	r0, r4
    872e:	4684      	mov	ip, r0
    8730:	d0c9      	beq.n	86c6 <addRoute+0x2a>
    8732:	0860      	lsrs	r0, r4, #1
    8734:	4680      	mov	r8, r0
    8736:	4646      	mov	r6, r8
    8738:	68e8      	ldr	r0, [r5, #12]
    873a:	5d86      	ldrb	r6, [r0, r6]
    873c:	0736      	lsls	r6, r6, #28
    873e:	0f36      	lsrs	r6, r6, #28
    8740:	e7c7      	b.n	86d2 <addRoute+0x36>
    8742:	240f      	movs	r4, #15
    8744:	4022      	ands	r2, r4
    8746:	0015      	movs	r5, r2
    8748:	4642      	mov	r2, r8
    874a:	6839      	ldr	r1, [r7, #0]
    874c:	68c9      	ldr	r1, [r1, #12]
    874e:	5c8a      	ldrb	r2, [r1, r2]
    8750:	43a2      	bics	r2, r4
    8752:	4644      	mov	r4, r8
    8754:	432a      	orrs	r2, r5
    8756:	550a      	strb	r2, [r1, r4]
    8758:	e7d0      	b.n	86fc <addRoute+0x60>
    875a:	46c0      	nop			; (mov r8, r8)
    875c:	20001a28 	.word	0x20001a28

00008760 <handleRouteMessage>:
    8760:	b5f0      	push	{r4, r5, r6, r7, lr}
    8762:	4657      	mov	r7, sl
    8764:	46de      	mov	lr, fp
    8766:	464e      	mov	r6, r9
    8768:	4645      	mov	r5, r8
    876a:	b5e0      	push	{r5, r6, r7, lr}
    876c:	0004      	movs	r4, r0
    876e:	b093      	sub	sp, #76	; 0x4c
    8770:	7850      	ldrb	r0, [r2, #1]
    8772:	a91c      	add	r1, sp, #112	; 0x70
    8774:	7812      	ldrb	r2, [r2, #0]
    8776:	780f      	ldrb	r7, [r1, #0]
    8778:	0201      	lsls	r1, r0, #8
    877a:	4311      	orrs	r1, r2
    877c:	781a      	ldrb	r2, [r3, #0]
    877e:	2a12      	cmp	r2, #18
    8780:	d100      	bne.n	8784 <handleRouteMessage+0x24>
    8782:	e14e      	b.n	8a22 <handleRouteMessage+0x2c2>
    8784:	2a13      	cmp	r2, #19
    8786:	d100      	bne.n	878a <handleRouteMessage+0x2a>
    8788:	e07d      	b.n	8886 <handleRouteMessage+0x126>
    878a:	2a11      	cmp	r2, #17
    878c:	d009      	beq.n	87a2 <handleRouteMessage+0x42>
    878e:	2300      	movs	r3, #0
    8790:	4698      	mov	r8, r3
    8792:	4640      	mov	r0, r8
    8794:	b013      	add	sp, #76	; 0x4c
    8796:	bc3c      	pop	{r2, r3, r4, r5}
    8798:	4690      	mov	r8, r2
    879a:	4699      	mov	r9, r3
    879c:	46a2      	mov	sl, r4
    879e:	46ab      	mov	fp, r5
    87a0:	bdf0      	pop	{r4, r5, r6, r7, pc}
    87a2:	789d      	ldrb	r5, [r3, #2]
    87a4:	785a      	ldrb	r2, [r3, #1]
    87a6:	022b      	lsls	r3, r5, #8
    87a8:	431a      	orrs	r2, r3
    87aa:	4691      	mov	r9, r2
    87ac:	7822      	ldrb	r2, [r4, #0]
    87ae:	b289      	uxth	r1, r1
    87b0:	4252      	negs	r2, r2
    87b2:	b2d2      	uxtb	r2, r2
    87b4:	003b      	movs	r3, r7
    87b6:	4eb2      	ldr	r6, [pc, #712]	; (8a80 <handleRouteMessage+0x320>)
    87b8:	88e0      	ldrh	r0, [r4, #6]
    87ba:	47b0      	blx	r6
    87bc:	2101      	movs	r1, #1
    87be:	4eb1      	ldr	r6, [pc, #708]	; (8a84 <handleRouteMessage+0x324>)
    87c0:	4688      	mov	r8, r1
    87c2:	6833      	ldr	r3, [r6, #0]
    87c4:	7e1a      	ldrb	r2, [r3, #24]
    87c6:	42aa      	cmp	r2, r5
    87c8:	d9e3      	bls.n	8792 <handleRouteMessage+0x32>
    87ca:	4229      	tst	r1, r5
    87cc:	d000      	beq.n	87d0 <handleRouteMessage+0x70>
    87ce:	e146      	b.n	8a5e <handleRouteMessage+0x2fe>
    87d0:	68db      	ldr	r3, [r3, #12]
    87d2:	086a      	lsrs	r2, r5, #1
    87d4:	5c9f      	ldrb	r7, [r3, r2]
    87d6:	093b      	lsrs	r3, r7, #4
    87d8:	469b      	mov	fp, r3
    87da:	4bab      	ldr	r3, [pc, #684]	; (8a88 <handleRouteMessage+0x328>)
    87dc:	469a      	mov	sl, r3
    87de:	881b      	ldrh	r3, [r3, #0]
    87e0:	4599      	cmp	r9, r3
    87e2:	d004      	beq.n	87ee <handleRouteMessage+0x8e>
    87e4:	2301      	movs	r3, #1
    87e6:	4698      	mov	r8, r3
    87e8:	465b      	mov	r3, fp
    87ea:	2b00      	cmp	r3, #0
    87ec:	d0d1      	beq.n	8792 <handleRouteMessage+0x32>
    87ee:	88e3      	ldrh	r3, [r4, #6]
    87f0:	2078      	movs	r0, #120	; 0x78
    87f2:	4699      	mov	r9, r3
    87f4:	4ba5      	ldr	r3, [pc, #660]	; (8a8c <handleRouteMessage+0x32c>)
    87f6:	4798      	blx	r3
    87f8:	4680      	mov	r8, r0
    87fa:	2800      	cmp	r0, #0
    87fc:	d0c7      	beq.n	878e <handleRouteMessage+0x2e>
    87fe:	4653      	mov	r3, sl
    8800:	8819      	ldrh	r1, [r3, #0]
    8802:	ac0a      	add	r4, sp, #40	; 0x28
    8804:	b289      	uxth	r1, r1
    8806:	0023      	movs	r3, r4
    8808:	464a      	mov	r2, r9
    880a:	20ff      	movs	r0, #255	; 0xff
    880c:	4fa0      	ldr	r7, [pc, #640]	; (8a90 <handleRouteMessage+0x330>)
    880e:	47b8      	blx	r7
    8810:	2210      	movs	r2, #16
    8812:	7863      	ldrb	r3, [r4, #1]
    8814:	4641      	mov	r1, r8
    8816:	4393      	bics	r3, r2
    8818:	7063      	strb	r3, [r4, #1]
    881a:	0020      	movs	r0, r4
    881c:	4b9d      	ldr	r3, [pc, #628]	; (8a94 <handleRouteMessage+0x334>)
    881e:	4798      	blx	r3
    8820:	2312      	movs	r3, #18
    8822:	4642      	mov	r2, r8
    8824:	0001      	movs	r1, r0
    8826:	5413      	strb	r3, [r2, r0]
    8828:	1c43      	adds	r3, r0, #1
    882a:	2200      	movs	r2, #0
    882c:	4640      	mov	r0, r8
    882e:	b2db      	uxtb	r3, r3
    8830:	54c2      	strb	r2, [r0, r3]
    8832:	1c8b      	adds	r3, r1, #2
    8834:	b2db      	uxtb	r3, r3
    8836:	54c5      	strb	r5, [r0, r3]
    8838:	4642      	mov	r2, r8
    883a:	4658      	mov	r0, fp
    883c:	1ccb      	adds	r3, r1, #3
    883e:	b2db      	uxtb	r3, r3
    8840:	54d0      	strb	r0, [r2, r3]
    8842:	464b      	mov	r3, r9
    8844:	6832      	ldr	r2, [r6, #0]
    8846:	0a1b      	lsrs	r3, r3, #8
    8848:	7e10      	ldrb	r0, [r2, #24]
    884a:	4298      	cmp	r0, r3
    884c:	d800      	bhi.n	8850 <handleRouteMessage+0xf0>
    884e:	e10d      	b.n	8a6c <handleRouteMessage+0x30c>
    8850:	6892      	ldr	r2, [r2, #8]
    8852:	005b      	lsls	r3, r3, #1
    8854:	5c9b      	ldrb	r3, [r3, r2]
    8856:	2bff      	cmp	r3, #255	; 0xff
    8858:	d100      	bne.n	885c <handleRouteMessage+0xfc>
    885a:	e107      	b.n	8a6c <handleRouteMessage+0x30c>
    885c:	021b      	lsls	r3, r3, #8
    885e:	a804      	add	r0, sp, #16
    8860:	4684      	mov	ip, r0
    8862:	2216      	movs	r2, #22
    8864:	4462      	add	r2, ip
    8866:	8013      	strh	r3, [r2, #0]
    8868:	4b8b      	ldr	r3, [pc, #556]	; (8a98 <handleRouteMessage+0x338>)
    886a:	9201      	str	r2, [sp, #4]
    886c:	9303      	str	r3, [sp, #12]
    886e:	2300      	movs	r3, #0
    8870:	9302      	str	r3, [sp, #8]
    8872:	3302      	adds	r3, #2
    8874:	9300      	str	r3, [sp, #0]
    8876:	0020      	movs	r0, r4
    8878:	4643      	mov	r3, r8
    887a:	2204      	movs	r2, #4
    887c:	4c87      	ldr	r4, [pc, #540]	; (8a9c <handleRouteMessage+0x33c>)
    887e:	47a0      	blx	r4
    8880:	2300      	movs	r3, #0
    8882:	4698      	mov	r8, r3
    8884:	e785      	b.n	8792 <handleRouteMessage+0x32>
    8886:	4a86      	ldr	r2, [pc, #536]	; (8aa0 <handleRouteMessage+0x340>)
    8888:	7812      	ldrb	r2, [r2, #0]
    888a:	4690      	mov	r8, r2
    888c:	2a00      	cmp	r2, #0
    888e:	d000      	beq.n	8892 <handleRouteMessage+0x132>
    8890:	e77d      	b.n	878e <handleRouteMessage+0x2e>
    8892:	785a      	ldrb	r2, [r3, #1]
    8894:	1c9d      	adds	r5, r3, #2
    8896:	4693      	mov	fp, r2
    8898:	2a00      	cmp	r2, #0
    889a:	d100      	bne.n	889e <handleRouteMessage+0x13e>
    889c:	e0e8      	b.n	8a70 <handleRouteMessage+0x310>
    889e:	4e79      	ldr	r6, [pc, #484]	; (8a84 <handleRouteMessage+0x324>)
    88a0:	240f      	movs	r4, #15
    88a2:	6833      	ldr	r3, [r6, #0]
    88a4:	4641      	mov	r1, r8
    88a6:	68db      	ldr	r3, [r3, #12]
    88a8:	9107      	str	r1, [sp, #28]
    88aa:	469c      	mov	ip, r3
    88ac:	093b      	lsrs	r3, r7, #4
    88ae:	001a      	movs	r2, r3
    88b0:	4022      	ands	r2, r4
    88b2:	9205      	str	r2, [sp, #20]
    88b4:	4662      	mov	r2, ip
    88b6:	2702      	movs	r7, #2
    88b8:	9306      	str	r3, [sp, #24]
    88ba:	4684      	mov	ip, r0
    88bc:	2300      	movs	r3, #0
    88be:	0010      	movs	r0, r2
    88c0:	9704      	str	r7, [sp, #16]
    88c2:	782a      	ldrb	r2, [r5, #0]
    88c4:	0011      	movs	r1, r2
    88c6:	43a1      	bics	r1, r4
    88c8:	d02d      	beq.n	8926 <handleRouteMessage+0x1c6>
    88ca:	0911      	lsrs	r1, r2, #4
    88cc:	3101      	adds	r1, #1
    88ce:	2910      	cmp	r1, #16
    88d0:	d100      	bne.n	88d4 <handleRouteMessage+0x174>
    88d2:	3901      	subs	r1, #1
    88d4:	18c7      	adds	r7, r0, r3
    88d6:	46b8      	mov	r8, r7
    88d8:	783f      	ldrb	r7, [r7, #0]
    88da:	46b9      	mov	r9, r7
    88dc:	43a7      	bics	r7, r4
    88de:	d003      	beq.n	88e8 <handleRouteMessage+0x188>
    88e0:	464f      	mov	r7, r9
    88e2:	093f      	lsrs	r7, r7, #4
    88e4:	42b9      	cmp	r1, r7
    88e6:	da1e      	bge.n	8926 <handleRouteMessage+0x1c6>
    88e8:	4642      	mov	r2, r8
    88ea:	7812      	ldrb	r2, [r2, #0]
    88ec:	0109      	lsls	r1, r1, #4
    88ee:	4022      	ands	r2, r4
    88f0:	4311      	orrs	r1, r2
    88f2:	4642      	mov	r2, r8
    88f4:	4660      	mov	r0, ip
    88f6:	7011      	strb	r1, [r2, #0]
    88f8:	6831      	ldr	r1, [r6, #0]
    88fa:	009a      	lsls	r2, r3, #2
    88fc:	6889      	ldr	r1, [r1, #8]
    88fe:	9f05      	ldr	r7, [sp, #20]
    8900:	5488      	strb	r0, [r1, r2]
    8902:	6831      	ldr	r1, [r6, #0]
    8904:	6888      	ldr	r0, [r1, #8]
    8906:	1880      	adds	r0, r0, r2
    8908:	7841      	ldrb	r1, [r0, #1]
    890a:	43a1      	bics	r1, r4
    890c:	4339      	orrs	r1, r7
    890e:	7041      	strb	r1, [r0, #1]
    8910:	2030      	movs	r0, #48	; 0x30
    8912:	6831      	ldr	r1, [r6, #0]
    8914:	6889      	ldr	r1, [r1, #8]
    8916:	188a      	adds	r2, r1, r2
    8918:	7851      	ldrb	r1, [r2, #1]
    891a:	4021      	ands	r1, r4
    891c:	4301      	orrs	r1, r0
    891e:	7051      	strb	r1, [r2, #1]
    8920:	6831      	ldr	r1, [r6, #0]
    8922:	782a      	ldrb	r2, [r5, #0]
    8924:	68c8      	ldr	r0, [r1, #12]
    8926:	4214      	tst	r4, r2
    8928:	d02a      	beq.n	8980 <handleRouteMessage+0x220>
    892a:	0712      	lsls	r2, r2, #28
    892c:	0f12      	lsrs	r2, r2, #28
    892e:	3201      	adds	r2, #1
    8930:	2a10      	cmp	r2, #16
    8932:	d100      	bne.n	8936 <handleRouteMessage+0x1d6>
    8934:	3a01      	subs	r2, #1
    8936:	18c1      	adds	r1, r0, r3
    8938:	780f      	ldrb	r7, [r1, #0]
    893a:	423c      	tst	r4, r7
    893c:	d003      	beq.n	8946 <handleRouteMessage+0x1e6>
    893e:	073f      	lsls	r7, r7, #28
    8940:	0f3f      	lsrs	r7, r7, #28
    8942:	42ba      	cmp	r2, r7
    8944:	da1c      	bge.n	8980 <handleRouteMessage+0x220>
    8946:	7808      	ldrb	r0, [r1, #0]
    8948:	4022      	ands	r2, r4
    894a:	43a0      	bics	r0, r4
    894c:	4302      	orrs	r2, r0
    894e:	700a      	strb	r2, [r1, #0]
    8950:	4661      	mov	r1, ip
    8952:	9f04      	ldr	r7, [sp, #16]
    8954:	6832      	ldr	r2, [r6, #0]
    8956:	46b8      	mov	r8, r7
    8958:	6892      	ldr	r2, [r2, #8]
    895a:	9805      	ldr	r0, [sp, #20]
    895c:	55d1      	strb	r1, [r2, r7]
    895e:	6832      	ldr	r2, [r6, #0]
    8960:	6891      	ldr	r1, [r2, #8]
    8962:	4441      	add	r1, r8
    8964:	784a      	ldrb	r2, [r1, #1]
    8966:	43a2      	bics	r2, r4
    8968:	4302      	orrs	r2, r0
    896a:	2030      	movs	r0, #48	; 0x30
    896c:	704a      	strb	r2, [r1, #1]
    896e:	6832      	ldr	r2, [r6, #0]
    8970:	6891      	ldr	r1, [r2, #8]
    8972:	4441      	add	r1, r8
    8974:	784a      	ldrb	r2, [r1, #1]
    8976:	4022      	ands	r2, r4
    8978:	4302      	orrs	r2, r0
    897a:	704a      	strb	r2, [r1, #1]
    897c:	6832      	ldr	r2, [r6, #0]
    897e:	68d0      	ldr	r0, [r2, #12]
    8980:	9a04      	ldr	r2, [sp, #16]
    8982:	3301      	adds	r3, #1
    8984:	3204      	adds	r2, #4
    8986:	9204      	str	r2, [sp, #16]
    8988:	b2da      	uxtb	r2, r3
    898a:	3501      	adds	r5, #1
    898c:	4593      	cmp	fp, r2
    898e:	d898      	bhi.n	88c2 <handleRouteMessage+0x162>
    8990:	0002      	movs	r2, r0
    8992:	9b07      	ldr	r3, [sp, #28]
    8994:	4660      	mov	r0, ip
    8996:	4698      	mov	r8, r3
    8998:	4694      	mov	ip, r2
    899a:	0842      	lsrs	r2, r0, #1
    899c:	07c3      	lsls	r3, r0, #31
    899e:	d54f      	bpl.n	8a40 <handleRouteMessage+0x2e0>
    89a0:	4663      	mov	r3, ip
    89a2:	210f      	movs	r1, #15
    89a4:	5c9b      	ldrb	r3, [r3, r2]
    89a6:	438b      	bics	r3, r1
    89a8:	2101      	movs	r1, #1
    89aa:	430b      	orrs	r3, r1
    89ac:	4661      	mov	r1, ip
    89ae:	548b      	strb	r3, [r1, r2]
    89b0:	210f      	movs	r1, #15
    89b2:	6833      	ldr	r3, [r6, #0]
    89b4:	0044      	lsls	r4, r0, #1
    89b6:	689b      	ldr	r3, [r3, #8]
    89b8:	9a06      	ldr	r2, [sp, #24]
    89ba:	5518      	strb	r0, [r3, r4]
    89bc:	6833      	ldr	r3, [r6, #0]
    89be:	6898      	ldr	r0, [r3, #8]
    89c0:	1900      	adds	r0, r0, r4
    89c2:	7843      	ldrb	r3, [r0, #1]
    89c4:	438b      	bics	r3, r1
    89c6:	4313      	orrs	r3, r2
    89c8:	7043      	strb	r3, [r0, #1]
    89ca:	2030      	movs	r0, #48	; 0x30
    89cc:	6833      	ldr	r3, [r6, #0]
    89ce:	689a      	ldr	r2, [r3, #8]
    89d0:	1912      	adds	r2, r2, r4
    89d2:	7853      	ldrb	r3, [r2, #1]
    89d4:	400b      	ands	r3, r1
    89d6:	4303      	orrs	r3, r0
    89d8:	7053      	strb	r3, [r2, #1]
    89da:	4b2b      	ldr	r3, [pc, #172]	; (8a88 <handleRouteMessage+0x328>)
    89dc:	6830      	ldr	r0, [r6, #0]
    89de:	881b      	ldrh	r3, [r3, #0]
    89e0:	6884      	ldr	r4, [r0, #8]
    89e2:	0a1b      	lsrs	r3, r3, #8
    89e4:	b2da      	uxtb	r2, r3
    89e6:	005b      	lsls	r3, r3, #1
    89e8:	5ce4      	ldrb	r4, [r4, r3]
    89ea:	2cff      	cmp	r4, #255	; 0xff
    89ec:	d100      	bne.n	89f0 <handleRouteMessage+0x290>
    89ee:	e6ce      	b.n	878e <handleRouteMessage+0x2e>
    89f0:	07d4      	lsls	r4, r2, #31
    89f2:	d52e      	bpl.n	8a52 <handleRouteMessage+0x2f2>
    89f4:	68c4      	ldr	r4, [r0, #12]
    89f6:	0852      	lsrs	r2, r2, #1
    89f8:	5ca0      	ldrb	r0, [r4, r2]
    89fa:	4388      	bics	r0, r1
    89fc:	54a0      	strb	r0, [r4, r2]
    89fe:	21ff      	movs	r1, #255	; 0xff
    8a00:	6832      	ldr	r2, [r6, #0]
    8a02:	6892      	ldr	r2, [r2, #8]
    8a04:	54d1      	strb	r1, [r2, r3]
    8a06:	6832      	ldr	r2, [r6, #0]
    8a08:	39f0      	subs	r1, #240	; 0xf0
    8a0a:	6892      	ldr	r2, [r2, #8]
    8a0c:	18d2      	adds	r2, r2, r3
    8a0e:	7850      	ldrb	r0, [r2, #1]
    8a10:	4388      	bics	r0, r1
    8a12:	7050      	strb	r0, [r2, #1]
    8a14:	6832      	ldr	r2, [r6, #0]
    8a16:	6892      	ldr	r2, [r2, #8]
    8a18:	18d3      	adds	r3, r2, r3
    8a1a:	785a      	ldrb	r2, [r3, #1]
    8a1c:	4011      	ands	r1, r2
    8a1e:	7059      	strb	r1, [r3, #1]
    8a20:	e6b7      	b.n	8792 <handleRouteMessage+0x32>
    8a22:	7858      	ldrb	r0, [r3, #1]
    8a24:	789d      	ldrb	r5, [r3, #2]
    8a26:	78da      	ldrb	r2, [r3, #3]
    8a28:	7823      	ldrb	r3, [r4, #0]
    8a2a:	022d      	lsls	r5, r5, #8
    8a2c:	1ad2      	subs	r2, r2, r3
    8a2e:	b2d2      	uxtb	r2, r2
    8a30:	003b      	movs	r3, r7
    8a32:	b289      	uxth	r1, r1
    8a34:	4328      	orrs	r0, r5
    8a36:	4c12      	ldr	r4, [pc, #72]	; (8a80 <handleRouteMessage+0x320>)
    8a38:	47a0      	blx	r4
    8a3a:	2300      	movs	r3, #0
    8a3c:	4698      	mov	r8, r3
    8a3e:	e6a8      	b.n	8792 <handleRouteMessage+0x32>
    8a40:	4663      	mov	r3, ip
    8a42:	5c99      	ldrb	r1, [r3, r2]
    8a44:	230f      	movs	r3, #15
    8a46:	400b      	ands	r3, r1
    8a48:	2110      	movs	r1, #16
    8a4a:	430b      	orrs	r3, r1
    8a4c:	4661      	mov	r1, ip
    8a4e:	548b      	strb	r3, [r1, r2]
    8a50:	e7ae      	b.n	89b0 <handleRouteMessage+0x250>
    8a52:	68c0      	ldr	r0, [r0, #12]
    8a54:	0852      	lsrs	r2, r2, #1
    8a56:	5c84      	ldrb	r4, [r0, r2]
    8a58:	4021      	ands	r1, r4
    8a5a:	5481      	strb	r1, [r0, r2]
    8a5c:	e7cf      	b.n	89fe <handleRouteMessage+0x29e>
    8a5e:	68db      	ldr	r3, [r3, #12]
    8a60:	086a      	lsrs	r2, r5, #1
    8a62:	5c9f      	ldrb	r7, [r3, r2]
    8a64:	073f      	lsls	r7, r7, #28
    8a66:	0f3b      	lsrs	r3, r7, #28
    8a68:	469b      	mov	fp, r3
    8a6a:	e6b6      	b.n	87da <handleRouteMessage+0x7a>
    8a6c:	4b0d      	ldr	r3, [pc, #52]	; (8aa4 <handleRouteMessage+0x344>)
    8a6e:	e6f6      	b.n	885e <handleRouteMessage+0xfe>
    8a70:	4e04      	ldr	r6, [pc, #16]	; (8a84 <handleRouteMessage+0x324>)
    8a72:	093b      	lsrs	r3, r7, #4
    8a74:	9306      	str	r3, [sp, #24]
    8a76:	6833      	ldr	r3, [r6, #0]
    8a78:	68db      	ldr	r3, [r3, #12]
    8a7a:	469c      	mov	ip, r3
    8a7c:	e78d      	b.n	899a <handleRouteMessage+0x23a>
    8a7e:	46c0      	nop			; (mov r8, r8)
    8a80:	0000869d 	.word	0x0000869d
    8a84:	20001a28 	.word	0x20001a28
    8a88:	20001a70 	.word	0x20001a70
    8a8c:	00002fe1 	.word	0x00002fe1
    8a90:	00006101 	.word	0x00006101
    8a94:	0000612d 	.word	0x0000612d
    8a98:	00008601 	.word	0x00008601
    8a9c:	000061c5 	.word	0x000061c5
    8aa0:	200003b4 	.word	0x200003b4
    8aa4:	0000ffff 	.word	0x0000ffff

00008aa8 <removeRoute>:
    8aa8:	b530      	push	{r4, r5, lr}
    8aaa:	4a14      	ldr	r2, [pc, #80]	; (8afc <removeRoute+0x54>)
    8aac:	0a03      	lsrs	r3, r0, #8
    8aae:	6814      	ldr	r4, [r2, #0]
    8ab0:	2000      	movs	r0, #0
    8ab2:	7e21      	ldrb	r1, [r4, #24]
    8ab4:	4299      	cmp	r1, r3
    8ab6:	d919      	bls.n	8aec <removeRoute+0x44>
    8ab8:	68a0      	ldr	r0, [r4, #8]
    8aba:	24ff      	movs	r4, #255	; 0xff
    8abc:	0059      	lsls	r1, r3, #1
    8abe:	5444      	strb	r4, [r0, r1]
    8ac0:	6810      	ldr	r0, [r2, #0]
    8ac2:	3cf0      	subs	r4, #240	; 0xf0
    8ac4:	6880      	ldr	r0, [r0, #8]
    8ac6:	1840      	adds	r0, r0, r1
    8ac8:	7845      	ldrb	r5, [r0, #1]
    8aca:	43a5      	bics	r5, r4
    8acc:	7045      	strb	r5, [r0, #1]
    8ace:	6810      	ldr	r0, [r2, #0]
    8ad0:	6880      	ldr	r0, [r0, #8]
    8ad2:	1841      	adds	r1, r0, r1
    8ad4:	7848      	ldrb	r0, [r1, #1]
    8ad6:	4020      	ands	r0, r4
    8ad8:	7048      	strb	r0, [r1, #1]
    8ada:	6812      	ldr	r2, [r2, #0]
    8adc:	07d9      	lsls	r1, r3, #31
    8ade:	d406      	bmi.n	8aee <removeRoute+0x46>
    8ae0:	2001      	movs	r0, #1
    8ae2:	68d2      	ldr	r2, [r2, #12]
    8ae4:	085b      	lsrs	r3, r3, #1
    8ae6:	5cd1      	ldrb	r1, [r2, r3]
    8ae8:	400c      	ands	r4, r1
    8aea:	54d4      	strb	r4, [r2, r3]
    8aec:	bd30      	pop	{r4, r5, pc}
    8aee:	68d1      	ldr	r1, [r2, #12]
    8af0:	085b      	lsrs	r3, r3, #1
    8af2:	5cca      	ldrb	r2, [r1, r3]
    8af4:	2001      	movs	r0, #1
    8af6:	43a2      	bics	r2, r4
    8af8:	54ca      	strb	r2, [r1, r3]
    8afa:	e7f7      	b.n	8aec <removeRoute+0x44>
    8afc:	20001a28 	.word	0x20001a28

00008b00 <getNextHopAddr>:
    8b00:	4b07      	ldr	r3, [pc, #28]	; (8b20 <getNextHopAddr+0x20>)
    8b02:	0a00      	lsrs	r0, r0, #8
    8b04:	681b      	ldr	r3, [r3, #0]
    8b06:	7e1a      	ldrb	r2, [r3, #24]
    8b08:	4282      	cmp	r2, r0
    8b0a:	d801      	bhi.n	8b10 <getNextHopAddr+0x10>
    8b0c:	4805      	ldr	r0, [pc, #20]	; (8b24 <getNextHopAddr+0x24>)
    8b0e:	4770      	bx	lr
    8b10:	689b      	ldr	r3, [r3, #8]
    8b12:	0040      	lsls	r0, r0, #1
    8b14:	5cc0      	ldrb	r0, [r0, r3]
    8b16:	28ff      	cmp	r0, #255	; 0xff
    8b18:	d0f8      	beq.n	8b0c <getNextHopAddr+0xc>
    8b1a:	0200      	lsls	r0, r0, #8
    8b1c:	e7f7      	b.n	8b0e <getNextHopAddr+0xe>
    8b1e:	46c0      	nop			; (mov r8, r8)
    8b20:	20001a28 	.word	0x20001a28
    8b24:	0000ffff 	.word	0x0000ffff

00008b28 <routeTimerHandler>:
    8b28:	b5f0      	push	{r4, r5, r6, r7, lr}
    8b2a:	464e      	mov	r6, r9
    8b2c:	46de      	mov	lr, fp
    8b2e:	4657      	mov	r7, sl
    8b30:	4645      	mov	r5, r8
    8b32:	b5e0      	push	{r5, r6, r7, lr}
    8b34:	4e63      	ldr	r6, [pc, #396]	; (8cc4 <routeTimerHandler+0x19c>)
    8b36:	b08f      	sub	sp, #60	; 0x3c
    8b38:	7a33      	ldrb	r3, [r6, #8]
    8b3a:	2b00      	cmp	r3, #0
    8b3c:	d044      	beq.n	8bc8 <routeTimerHandler+0xa0>
    8b3e:	4b62      	ldr	r3, [pc, #392]	; (8cc8 <routeTimerHandler+0x1a0>)
    8b40:	2500      	movs	r5, #0
    8b42:	4698      	mov	r8, r3
    8b44:	4b61      	ldr	r3, [pc, #388]	; (8ccc <routeTimerHandler+0x1a4>)
    8b46:	4f62      	ldr	r7, [pc, #392]	; (8cd0 <routeTimerHandler+0x1a8>)
    8b48:	4699      	mov	r9, r3
    8b4a:	4b62      	ldr	r3, [pc, #392]	; (8cd4 <routeTimerHandler+0x1ac>)
    8b4c:	469a      	mov	sl, r3
    8b4e:	e026      	b.n	8b9e <routeTimerHandler+0x76>
    8b50:	464b      	mov	r3, r9
    8b52:	681a      	ldr	r2, [r3, #0]
    8b54:	8b83      	ldrh	r3, [r0, #28]
    8b56:	7e11      	ldrb	r1, [r2, #24]
    8b58:	0a1b      	lsrs	r3, r3, #8
    8b5a:	4299      	cmp	r1, r3
    8b5c:	d944      	bls.n	8be8 <routeTimerHandler+0xc0>
    8b5e:	6891      	ldr	r1, [r2, #8]
    8b60:	005b      	lsls	r3, r3, #1
    8b62:	5c5b      	ldrb	r3, [r3, r1]
    8b64:	2bff      	cmp	r3, #255	; 0xff
    8b66:	d03f      	beq.n	8be8 <routeTimerHandler+0xc0>
    8b68:	021b      	lsls	r3, r3, #8
    8b6a:	469b      	mov	fp, r3
    8b6c:	2310      	movs	r3, #16
    8b6e:	7e41      	ldrb	r1, [r0, #25]
    8b70:	400b      	ands	r3, r1
    8b72:	d041      	beq.n	8bf8 <routeTimerHandler+0xd0>
    8b74:	232f      	movs	r3, #47	; 0x2f
    8b76:	5cd3      	ldrb	r3, [r2, r3]
    8b78:	0001      	movs	r1, r0
    8b7a:	3301      	adds	r3, #1
    8b7c:	7403      	strb	r3, [r0, #16]
    8b7e:	2330      	movs	r3, #48	; 0x30
    8b80:	5cd3      	ldrb	r3, [r2, r3]
    8b82:	7443      	strb	r3, [r0, #17]
    8b84:	4854      	ldr	r0, [pc, #336]	; (8cd8 <routeTimerHandler+0x1b0>)
    8b86:	4b50      	ldr	r3, [pc, #320]	; (8cc8 <routeTimerHandler+0x1a0>)
    8b88:	4798      	blx	r3
    8b8a:	4a54      	ldr	r2, [pc, #336]	; (8cdc <routeTimerHandler+0x1b4>)
    8b8c:	4659      	mov	r1, fp
    8b8e:	0020      	movs	r0, r4
    8b90:	4b50      	ldr	r3, [pc, #320]	; (8cd4 <routeTimerHandler+0x1ac>)
    8b92:	4798      	blx	r3
    8b94:	3501      	adds	r5, #1
    8b96:	7a33      	ldrb	r3, [r6, #8]
    8b98:	b2ed      	uxtb	r5, r5
    8b9a:	42ab      	cmp	r3, r5
    8b9c:	d914      	bls.n	8bc8 <routeTimerHandler+0xa0>
    8b9e:	2100      	movs	r1, #0
    8ba0:	0030      	movs	r0, r6
    8ba2:	47b8      	blx	r7
    8ba4:	1e04      	subs	r4, r0, #0
    8ba6:	d018      	beq.n	8bda <routeTimerHandler+0xb2>
    8ba8:	7c03      	ldrb	r3, [r0, #16]
    8baa:	2b00      	cmp	r3, #0
    8bac:	d004      	beq.n	8bb8 <routeTimerHandler+0x90>
    8bae:	3b01      	subs	r3, #1
    8bb0:	b2db      	uxtb	r3, r3
    8bb2:	7403      	strb	r3, [r0, #16]
    8bb4:	2b00      	cmp	r3, #0
    8bb6:	d0cb      	beq.n	8b50 <routeTimerHandler+0x28>
    8bb8:	0021      	movs	r1, r4
    8bba:	0030      	movs	r0, r6
    8bbc:	47c0      	blx	r8
    8bbe:	3501      	adds	r5, #1
    8bc0:	7a33      	ldrb	r3, [r6, #8]
    8bc2:	b2ed      	uxtb	r5, r5
    8bc4:	42ab      	cmp	r3, r5
    8bc6:	d8ea      	bhi.n	8b9e <routeTimerHandler+0x76>
    8bc8:	4b45      	ldr	r3, [pc, #276]	; (8ce0 <routeTimerHandler+0x1b8>)
    8bca:	781a      	ldrb	r2, [r3, #0]
    8bcc:	2a00      	cmp	r2, #0
    8bce:	d004      	beq.n	8bda <routeTimerHandler+0xb2>
    8bd0:	3a01      	subs	r2, #1
    8bd2:	b2d2      	uxtb	r2, r2
    8bd4:	701a      	strb	r2, [r3, #0]
    8bd6:	2a00      	cmp	r2, #0
    8bd8:	d016      	beq.n	8c08 <routeTimerHandler+0xe0>
    8bda:	b00f      	add	sp, #60	; 0x3c
    8bdc:	bc3c      	pop	{r2, r3, r4, r5}
    8bde:	4690      	mov	r8, r2
    8be0:	4699      	mov	r9, r3
    8be2:	46a2      	mov	sl, r4
    8be4:	46ab      	mov	fp, r5
    8be6:	bdf0      	pop	{r4, r5, r6, r7, pc}
    8be8:	68a3      	ldr	r3, [r4, #8]
    8bea:	2b00      	cmp	r3, #0
    8bec:	d0d2      	beq.n	8b94 <routeTimerHandler+0x6c>
    8bee:	7ca0      	ldrb	r0, [r4, #18]
    8bf0:	0022      	movs	r2, r4
    8bf2:	2107      	movs	r1, #7
    8bf4:	4798      	blx	r3
    8bf6:	e7cd      	b.n	8b94 <routeTimerHandler+0x6c>
    8bf8:	7443      	strb	r3, [r0, #17]
    8bfa:	6882      	ldr	r2, [r0, #8]
    8bfc:	4659      	mov	r1, fp
    8bfe:	47d0      	blx	sl
    8c00:	0020      	movs	r0, r4
    8c02:	4b38      	ldr	r3, [pc, #224]	; (8ce4 <routeTimerHandler+0x1bc>)
    8c04:	4798      	blx	r3
    8c06:	e7c5      	b.n	8b94 <routeTimerHandler+0x6c>
    8c08:	4930      	ldr	r1, [pc, #192]	; (8ccc <routeTimerHandler+0x1a4>)
    8c0a:	4689      	mov	r9, r1
    8c0c:	6809      	ldr	r1, [r1, #0]
    8c0e:	7f48      	ldrb	r0, [r1, #29]
    8c10:	7018      	strb	r0, [r3, #0]
    8c12:	7e0e      	ldrb	r6, [r1, #24]
    8c14:	2e00      	cmp	r6, #0
    8c16:	d0e0      	beq.n	8bda <routeTimerHandler+0xb2>
    8c18:	3601      	adds	r6, #1
    8c1a:	6889      	ldr	r1, [r1, #8]
    8c1c:	b2f6      	uxtb	r6, r6
    8c1e:	2301      	movs	r3, #1
    8c20:	e005      	b.n	8c2e <routeTimerHandler+0x106>
    8c22:	3301      	adds	r3, #1
    8c24:	b2db      	uxtb	r3, r3
    8c26:	b2c2      	uxtb	r2, r0
    8c28:	3102      	adds	r1, #2
    8c2a:	429e      	cmp	r6, r3
    8c2c:	d00a      	beq.n	8c44 <routeTimerHandler+0x11c>
    8c2e:	780c      	ldrb	r4, [r1, #0]
    8c30:	1c18      	adds	r0, r3, #0
    8c32:	2cff      	cmp	r4, #255	; 0xff
    8c34:	d1f5      	bne.n	8c22 <routeTimerHandler+0xfa>
    8c36:	3301      	adds	r3, #1
    8c38:	1c10      	adds	r0, r2, #0
    8c3a:	b2db      	uxtb	r3, r3
    8c3c:	b2c2      	uxtb	r2, r0
    8c3e:	3102      	adds	r1, #2
    8c40:	429e      	cmp	r6, r3
    8c42:	d1f4      	bne.n	8c2e <routeTimerHandler+0x106>
    8c44:	2a00      	cmp	r2, #0
    8c46:	d0c8      	beq.n	8bda <routeTimerHandler+0xb2>
    8c48:	0854      	lsrs	r4, r2, #1
    8c4a:	07d3      	lsls	r3, r2, #31
    8c4c:	d501      	bpl.n	8c52 <routeTimerHandler+0x12a>
    8c4e:	0852      	lsrs	r2, r2, #1
    8c50:	1c54      	adds	r4, r2, #1
    8c52:	2616      	movs	r6, #22
    8c54:	2303      	movs	r3, #3
    8c56:	446e      	add	r6, sp
    8c58:	425b      	negs	r3, r3
    8c5a:	8033      	strh	r3, [r6, #0]
    8c5c:	2078      	movs	r0, #120	; 0x78
    8c5e:	4b22      	ldr	r3, [pc, #136]	; (8ce8 <routeTimerHandler+0x1c0>)
    8c60:	4798      	blx	r3
    8c62:	1e07      	subs	r7, r0, #0
    8c64:	d0b9      	beq.n	8bda <routeTimerHandler+0xb2>
    8c66:	4b21      	ldr	r3, [pc, #132]	; (8cec <routeTimerHandler+0x1c4>)
    8c68:	8832      	ldrh	r2, [r6, #0]
    8c6a:	8819      	ldrh	r1, [r3, #0]
    8c6c:	2001      	movs	r0, #1
    8c6e:	ab06      	add	r3, sp, #24
    8c70:	b289      	uxth	r1, r1
    8c72:	4d1f      	ldr	r5, [pc, #124]	; (8cf0 <routeTimerHandler+0x1c8>)
    8c74:	47a8      	blx	r5
    8c76:	0039      	movs	r1, r7
    8c78:	a806      	add	r0, sp, #24
    8c7a:	4b1e      	ldr	r3, [pc, #120]	; (8cf4 <routeTimerHandler+0x1cc>)
    8c7c:	4798      	blx	r3
    8c7e:	2313      	movs	r3, #19
    8c80:	543b      	strb	r3, [r7, r0]
    8c82:	0003      	movs	r3, r0
    8c84:	3301      	adds	r3, #1
    8c86:	b2db      	uxtb	r3, r3
    8c88:	54fc      	strb	r4, [r7, r3]
    8c8a:	464b      	mov	r3, r9
    8c8c:	4680      	mov	r8, r0
    8c8e:	681b      	ldr	r3, [r3, #0]
    8c90:	3002      	adds	r0, #2
    8c92:	b2c0      	uxtb	r0, r0
    8c94:	68d9      	ldr	r1, [r3, #12]
    8c96:	0022      	movs	r2, r4
    8c98:	1838      	adds	r0, r7, r0
    8c9a:	4b17      	ldr	r3, [pc, #92]	; (8cf8 <routeTimerHandler+0x1d0>)
    8c9c:	4798      	blx	r3
    8c9e:	2301      	movs	r3, #1
    8ca0:	425b      	negs	r3, r3
    8ca2:	8033      	strh	r3, [r6, #0]
    8ca4:	4b15      	ldr	r3, [pc, #84]	; (8cfc <routeTimerHandler+0x1d4>)
    8ca6:	3402      	adds	r4, #2
    8ca8:	9303      	str	r3, [sp, #12]
    8caa:	2300      	movs	r3, #0
    8cac:	9302      	str	r3, [sp, #8]
    8cae:	3302      	adds	r3, #2
    8cb0:	b2e2      	uxtb	r2, r4
    8cb2:	9300      	str	r3, [sp, #0]
    8cb4:	9601      	str	r6, [sp, #4]
    8cb6:	003b      	movs	r3, r7
    8cb8:	4641      	mov	r1, r8
    8cba:	a806      	add	r0, sp, #24
    8cbc:	4c10      	ldr	r4, [pc, #64]	; (8d00 <routeTimerHandler+0x1d8>)
    8cbe:	47a0      	blx	r4
    8cc0:	e78b      	b.n	8bda <routeTimerHandler+0xb2>
    8cc2:	46c0      	nop			; (mov r8, r8)
    8cc4:	20001ab0 	.word	0x20001ab0
    8cc8:	0000314d 	.word	0x0000314d
    8ccc:	20001a28 	.word	0x20001a28
    8cd0:	00003185 	.word	0x00003185
    8cd4:	0000631d 	.word	0x0000631d
    8cd8:	20001a30 	.word	0x20001a30
    8cdc:	00004a01 	.word	0x00004a01
    8ce0:	20001aac 	.word	0x20001aac
    8ce4:	00003031 	.word	0x00003031
    8ce8:	00002fe1 	.word	0x00002fe1
    8cec:	20001a70 	.word	0x20001a70
    8cf0:	00006101 	.word	0x00006101
    8cf4:	0000612d 	.word	0x0000612d
    8cf8:	000093ab 	.word	0x000093ab
    8cfc:	00008611 	.word	0x00008611
    8d00:	000061c5 	.word	0x000061c5

00008d04 <initiateRouteReq>:
    8d04:	b5f0      	push	{r4, r5, r6, r7, lr}
    8d06:	4647      	mov	r7, r8
    8d08:	46ce      	mov	lr, r9
    8d0a:	2301      	movs	r3, #1
    8d0c:	b580      	push	{r7, lr}
    8d0e:	2716      	movs	r7, #22
    8d10:	b08f      	sub	sp, #60	; 0x3c
    8d12:	425b      	negs	r3, r3
    8d14:	446f      	add	r7, sp
    8d16:	803b      	strh	r3, [r7, #0]
    8d18:	4680      	mov	r8, r0
    8d1a:	4b1e      	ldr	r3, [pc, #120]	; (8d94 <initiateRouteReq+0x90>)
    8d1c:	2078      	movs	r0, #120	; 0x78
    8d1e:	4798      	blx	r3
    8d20:	1e04      	subs	r4, r0, #0
    8d22:	d034      	beq.n	8d8e <initiateRouteReq+0x8a>
    8d24:	4b1c      	ldr	r3, [pc, #112]	; (8d98 <initiateRouteReq+0x94>)
    8d26:	ad06      	add	r5, sp, #24
    8d28:	8819      	ldrh	r1, [r3, #0]
    8d2a:	4699      	mov	r9, r3
    8d2c:	b289      	uxth	r1, r1
    8d2e:	883a      	ldrh	r2, [r7, #0]
    8d30:	002b      	movs	r3, r5
    8d32:	20ff      	movs	r0, #255	; 0xff
    8d34:	4e19      	ldr	r6, [pc, #100]	; (8d9c <initiateRouteReq+0x98>)
    8d36:	47b0      	blx	r6
    8d38:	2220      	movs	r2, #32
    8d3a:	786b      	ldrb	r3, [r5, #1]
    8d3c:	0021      	movs	r1, r4
    8d3e:	4313      	orrs	r3, r2
    8d40:	706b      	strb	r3, [r5, #1]
    8d42:	0028      	movs	r0, r5
    8d44:	4b16      	ldr	r3, [pc, #88]	; (8da0 <initiateRouteReq+0x9c>)
    8d46:	4798      	blx	r3
    8d48:	464b      	mov	r3, r9
    8d4a:	0006      	movs	r6, r0
    8d4c:	8818      	ldrh	r0, [r3, #0]
    8d4e:	78a1      	ldrb	r1, [r4, #2]
    8d50:	b280      	uxth	r0, r0
    8d52:	4b14      	ldr	r3, [pc, #80]	; (8da4 <initiateRouteReq+0xa0>)
    8d54:	4798      	blx	r3
    8d56:	2311      	movs	r3, #17
    8d58:	2100      	movs	r1, #0
    8d5a:	55a3      	strb	r3, [r4, r6]
    8d5c:	1c73      	adds	r3, r6, #1
    8d5e:	b2db      	uxtb	r3, r3
    8d60:	54e1      	strb	r1, [r4, r3]
    8d62:	4643      	mov	r3, r8
    8d64:	1cb2      	adds	r2, r6, #2
    8d66:	b2d2      	uxtb	r2, r2
    8d68:	0a1b      	lsrs	r3, r3, #8
    8d6a:	54a3      	strb	r3, [r4, r2]
    8d6c:	4b0e      	ldr	r3, [pc, #56]	; (8da8 <initiateRouteReq+0xa4>)
    8d6e:	9102      	str	r1, [sp, #8]
    8d70:	9303      	str	r3, [sp, #12]
    8d72:	2302      	movs	r3, #2
    8d74:	9701      	str	r7, [sp, #4]
    8d76:	9300      	str	r3, [sp, #0]
    8d78:	2203      	movs	r2, #3
    8d7a:	0023      	movs	r3, r4
    8d7c:	0031      	movs	r1, r6
    8d7e:	0028      	movs	r0, r5
    8d80:	4c0a      	ldr	r4, [pc, #40]	; (8dac <initiateRouteReq+0xa8>)
    8d82:	47a0      	blx	r4
    8d84:	b00f      	add	sp, #60	; 0x3c
    8d86:	bc0c      	pop	{r2, r3}
    8d88:	4690      	mov	r8, r2
    8d8a:	4699      	mov	r9, r3
    8d8c:	bdf0      	pop	{r4, r5, r6, r7, pc}
    8d8e:	2000      	movs	r0, #0
    8d90:	e7f8      	b.n	8d84 <initiateRouteReq+0x80>
    8d92:	46c0      	nop			; (mov r8, r8)
    8d94:	00002fe1 	.word	0x00002fe1
    8d98:	20001a70 	.word	0x20001a70
    8d9c:	00006101 	.word	0x00006101
    8da0:	0000612d 	.word	0x0000612d
    8da4:	0000667d 	.word	0x0000667d
    8da8:	00008621 	.word	0x00008621
    8dac:	000061c5 	.word	0x000061c5

00008db0 <MiApp_MeshSetRouteEntry>:
    8db0:	b5f0      	push	{r4, r5, r6, r7, lr}
    8db2:	4c1a      	ldr	r4, [pc, #104]	; (8e1c <MiApp_MeshSetRouteEntry+0x6c>)
    8db4:	780a      	ldrb	r2, [r1, #0]
    8db6:	6823      	ldr	r3, [r4, #0]
    8db8:	0046      	lsls	r6, r0, #1
    8dba:	689b      	ldr	r3, [r3, #8]
    8dbc:	559a      	strb	r2, [r3, r6]
    8dbe:	6823      	ldr	r3, [r4, #0]
    8dc0:	788f      	ldrb	r7, [r1, #2]
    8dc2:	689d      	ldr	r5, [r3, #8]
    8dc4:	230f      	movs	r3, #15
    8dc6:	19ad      	adds	r5, r5, r6
    8dc8:	786a      	ldrb	r2, [r5, #1]
    8dca:	401f      	ands	r7, r3
    8dcc:	439a      	bics	r2, r3
    8dce:	433a      	orrs	r2, r7
    8dd0:	706a      	strb	r2, [r5, #1]
    8dd2:	6822      	ldr	r2, [r4, #0]
    8dd4:	78cd      	ldrb	r5, [r1, #3]
    8dd6:	6892      	ldr	r2, [r2, #8]
    8dd8:	012d      	lsls	r5, r5, #4
    8dda:	1992      	adds	r2, r2, r6
    8ddc:	7856      	ldrb	r6, [r2, #1]
    8dde:	4033      	ands	r3, r6
    8de0:	432b      	orrs	r3, r5
    8de2:	7053      	strb	r3, [r2, #1]
    8de4:	784a      	ldrb	r2, [r1, #1]
    8de6:	1c13      	adds	r3, r2, #0
    8de8:	2a0f      	cmp	r2, #15
    8dea:	d900      	bls.n	8dee <MiApp_MeshSetRouteEntry+0x3e>
    8dec:	230f      	movs	r3, #15
    8dee:	b2db      	uxtb	r3, r3
    8df0:	07c2      	lsls	r2, r0, #31
    8df2:	d409      	bmi.n	8e08 <MiApp_MeshSetRouteEntry+0x58>
    8df4:	6822      	ldr	r2, [r4, #0]
    8df6:	0840      	lsrs	r0, r0, #1
    8df8:	68d1      	ldr	r1, [r2, #12]
    8dfa:	220f      	movs	r2, #15
    8dfc:	5c0c      	ldrb	r4, [r1, r0]
    8dfe:	011b      	lsls	r3, r3, #4
    8e00:	4022      	ands	r2, r4
    8e02:	4313      	orrs	r3, r2
    8e04:	540b      	strb	r3, [r1, r0]
    8e06:	bdf0      	pop	{r4, r5, r6, r7, pc}
    8e08:	6822      	ldr	r2, [r4, #0]
    8e0a:	240f      	movs	r4, #15
    8e0c:	68d1      	ldr	r1, [r2, #12]
    8e0e:	0840      	lsrs	r0, r0, #1
    8e10:	5c0a      	ldrb	r2, [r1, r0]
    8e12:	4023      	ands	r3, r4
    8e14:	43a2      	bics	r2, r4
    8e16:	4313      	orrs	r3, r2
    8e18:	540b      	strb	r3, [r1, r0]
    8e1a:	e7f4      	b.n	8e06 <MiApp_MeshSetRouteEntry+0x56>
    8e1c:	20001a28 	.word	0x20001a28

00008e20 <keyDetermineProcedure>:
    8e20:	4b06      	ldr	r3, [pc, #24]	; (8e3c <keyDetermineProcedure+0x1c>)
    8e22:	781b      	ldrb	r3, [r3, #0]
    8e24:	3b06      	subs	r3, #6
    8e26:	2b01      	cmp	r3, #1
    8e28:	d902      	bls.n	8e30 <keyDetermineProcedure+0x10>
    8e2a:	4b05      	ldr	r3, [pc, #20]	; (8e40 <keyDetermineProcedure+0x20>)
    8e2c:	6818      	ldr	r0, [r3, #0]
    8e2e:	4770      	bx	lr
    8e30:	2808      	cmp	r0, #8
    8e32:	d0fa      	beq.n	8e2a <keyDetermineProcedure+0xa>
    8e34:	4b02      	ldr	r3, [pc, #8]	; (8e40 <keyDetermineProcedure+0x20>)
    8e36:	6818      	ldr	r0, [r3, #0]
    8e38:	3010      	adds	r0, #16
    8e3a:	e7f8      	b.n	8e2e <keyDetermineProcedure+0xe>
    8e3c:	20000384 	.word	0x20000384
    8e40:	20001a2c 	.word	0x20001a2c

00008e44 <secureFrame>:
    8e44:	b5f0      	push	{r4, r5, r6, r7, lr}
    8e46:	4657      	mov	r7, sl
    8e48:	4645      	mov	r5, r8
    8e4a:	46de      	mov	lr, fp
    8e4c:	464e      	mov	r6, r9
    8e4e:	b5e0      	push	{r5, r6, r7, lr}
    8e50:	0005      	movs	r5, r0
    8e52:	b0af      	sub	sp, #188	; 0xbc
    8e54:	ac06      	add	r4, sp, #24
    8e56:	000e      	movs	r6, r1
    8e58:	4690      	mov	r8, r2
    8e5a:	469a      	mov	sl, r3
    8e5c:	2210      	movs	r2, #16
    8e5e:	2100      	movs	r1, #0
    8e60:	0020      	movs	r0, r4
    8e62:	4b35      	ldr	r3, [pc, #212]	; (8f38 <secureFrame+0xf4>)
    8e64:	4798      	blx	r3
    8e66:	7c2f      	ldrb	r7, [r5, #16]
    8e68:	2f07      	cmp	r7, #7
    8e6a:	d80e      	bhi.n	8e8a <secureFrame+0x46>
    8e6c:	2301      	movs	r3, #1
    8e6e:	2288      	movs	r2, #136	; 0x88
    8e70:	40bb      	lsls	r3, r7
    8e72:	421a      	tst	r2, r3
    8e74:	d14e      	bne.n	8f14 <secureFrame+0xd0>
    8e76:	3a44      	subs	r2, #68	; 0x44
    8e78:	421a      	tst	r2, r3
    8e7a:	d14f      	bne.n	8f1c <secureFrame+0xd8>
    8e7c:	3a22      	subs	r2, #34	; 0x22
    8e7e:	421a      	tst	r2, r3
    8e80:	d003      	beq.n	8e8a <secureFrame+0x46>
    8e82:	2304      	movs	r3, #4
    8e84:	9305      	str	r3, [sp, #20]
    8e86:	469b      	mov	fp, r3
    8e88:	e002      	b.n	8e90 <secureFrame+0x4c>
    8e8a:	2300      	movs	r3, #0
    8e8c:	469b      	mov	fp, r3
    8e8e:	9305      	str	r3, [sp, #20]
    8e90:	4b2a      	ldr	r3, [pc, #168]	; (8f3c <secureFrame+0xf8>)
    8e92:	4d2b      	ldr	r5, [pc, #172]	; (8f40 <secureFrame+0xfc>)
    8e94:	79da      	ldrb	r2, [r3, #7]
    8e96:	4651      	mov	r1, sl
    8e98:	7062      	strb	r2, [r4, #1]
    8e9a:	799a      	ldrb	r2, [r3, #6]
    8e9c:	7367      	strb	r7, [r4, #13]
    8e9e:	70a2      	strb	r2, [r4, #2]
    8ea0:	795a      	ldrb	r2, [r3, #5]
    8ea2:	a80a      	add	r0, sp, #40	; 0x28
    8ea4:	70e2      	strb	r2, [r4, #3]
    8ea6:	791a      	ldrb	r2, [r3, #4]
    8ea8:	44b2      	add	sl, r6
    8eaa:	7122      	strb	r2, [r4, #4]
    8eac:	78da      	ldrb	r2, [r3, #3]
    8eae:	7162      	strb	r2, [r4, #5]
    8eb0:	789a      	ldrb	r2, [r3, #2]
    8eb2:	71a2      	strb	r2, [r4, #6]
    8eb4:	785a      	ldrb	r2, [r3, #1]
    8eb6:	781b      	ldrb	r3, [r3, #0]
    8eb8:	71e2      	strb	r2, [r4, #7]
    8eba:	7223      	strb	r3, [r4, #8]
    8ebc:	78eb      	ldrb	r3, [r5, #3]
    8ebe:	0032      	movs	r2, r6
    8ec0:	7263      	strb	r3, [r4, #9]
    8ec2:	78ab      	ldrb	r3, [r5, #2]
    8ec4:	72a3      	strb	r3, [r4, #10]
    8ec6:	786b      	ldrb	r3, [r5, #1]
    8ec8:	72e3      	strb	r3, [r4, #11]
    8eca:	782b      	ldrb	r3, [r5, #0]
    8ecc:	7323      	strb	r3, [r4, #12]
    8ece:	4b1d      	ldr	r3, [pc, #116]	; (8f44 <secureFrame+0x100>)
    8ed0:	4699      	mov	r9, r3
    8ed2:	4798      	blx	r3
    8ed4:	ab0a      	add	r3, sp, #40	; 0x28
    8ed6:	469c      	mov	ip, r3
    8ed8:	44b4      	add	ip, r6
    8eda:	4663      	mov	r3, ip
    8edc:	4642      	mov	r2, r8
    8ede:	4651      	mov	r1, sl
    8ee0:	4660      	mov	r0, ip
    8ee2:	9304      	str	r3, [sp, #16]
    8ee4:	47c8      	blx	r9
    8ee6:	2300      	movs	r3, #0
    8ee8:	9302      	str	r3, [sp, #8]
    8eea:	4643      	mov	r3, r8
    8eec:	0021      	movs	r1, r4
    8eee:	9300      	str	r3, [sp, #0]
    8ef0:	9701      	str	r7, [sp, #4]
    8ef2:	0033      	movs	r3, r6
    8ef4:	9a38      	ldr	r2, [sp, #224]	; 0xe0
    8ef6:	a80a      	add	r0, sp, #40	; 0x28
    8ef8:	4c13      	ldr	r4, [pc, #76]	; (8f48 <secureFrame+0x104>)
    8efa:	47a0      	blx	r4
    8efc:	2800      	cmp	r0, #0
    8efe:	d011      	beq.n	8f24 <secureFrame+0xe0>
    8f00:	23ff      	movs	r3, #255	; 0xff
    8f02:	469b      	mov	fp, r3
    8f04:	4658      	mov	r0, fp
    8f06:	b02f      	add	sp, #188	; 0xbc
    8f08:	bc3c      	pop	{r2, r3, r4, r5}
    8f0a:	4690      	mov	r8, r2
    8f0c:	4699      	mov	r9, r3
    8f0e:	46a2      	mov	sl, r4
    8f10:	46ab      	mov	fp, r5
    8f12:	bdf0      	pop	{r4, r5, r6, r7, pc}
    8f14:	2310      	movs	r3, #16
    8f16:	9305      	str	r3, [sp, #20]
    8f18:	469b      	mov	fp, r3
    8f1a:	e7b9      	b.n	8e90 <secureFrame+0x4c>
    8f1c:	2308      	movs	r3, #8
    8f1e:	9305      	str	r3, [sp, #20]
    8f20:	469b      	mov	fp, r3
    8f22:	e7b5      	b.n	8e90 <secureFrame+0x4c>
    8f24:	682b      	ldr	r3, [r5, #0]
    8f26:	9904      	ldr	r1, [sp, #16]
    8f28:	3301      	adds	r3, #1
    8f2a:	602b      	str	r3, [r5, #0]
    8f2c:	9b05      	ldr	r3, [sp, #20]
    8f2e:	4650      	mov	r0, sl
    8f30:	4443      	add	r3, r8
    8f32:	001a      	movs	r2, r3
    8f34:	47c8      	blx	r9
    8f36:	e7e5      	b.n	8f04 <secureFrame+0xc0>
    8f38:	000093bd 	.word	0x000093bd
    8f3c:	20000070 	.word	0x20000070
    8f40:	20001abc 	.word	0x20001abc
    8f44:	000093ab 	.word	0x000093ab
    8f48:	00002bcd 	.word	0x00002bcd

00008f4c <unsecureFrame>:
    8f4c:	b5f0      	push	{r4, r5, r6, r7, lr}
    8f4e:	46ce      	mov	lr, r9
    8f50:	4647      	mov	r7, r8
    8f52:	b580      	push	{r7, lr}
    8f54:	b089      	sub	sp, #36	; 0x24
    8f56:	0007      	movs	r7, r0
    8f58:	ac04      	add	r4, sp, #16
    8f5a:	000d      	movs	r5, r1
    8f5c:	4691      	mov	r9, r2
    8f5e:	001e      	movs	r6, r3
    8f60:	2210      	movs	r2, #16
    8f62:	4b26      	ldr	r3, [pc, #152]	; (8ffc <unsecureFrame+0xb0>)
    8f64:	2100      	movs	r1, #0
    8f66:	0020      	movs	r0, r4
    8f68:	4798      	blx	r3
    8f6a:	2200      	movs	r2, #0
    8f6c:	7c3b      	ldrb	r3, [r7, #16]
    8f6e:	4690      	mov	r8, r2
    8f70:	2b07      	cmp	r3, #7
    8f72:	d806      	bhi.n	8f82 <unsecureFrame+0x36>
    8f74:	3201      	adds	r2, #1
    8f76:	2010      	movs	r0, #16
    8f78:	409a      	lsls	r2, r3
    8f7a:	2188      	movs	r1, #136	; 0x88
    8f7c:	4680      	mov	r8, r0
    8f7e:	4211      	tst	r1, r2
    8f80:	d02f      	beq.n	8fe2 <unsecureFrame+0x96>
    8f82:	79ea      	ldrb	r2, [r5, #7]
    8f84:	7363      	strb	r3, [r4, #13]
    8f86:	7062      	strb	r2, [r4, #1]
    8f88:	79aa      	ldrb	r2, [r5, #6]
    8f8a:	0021      	movs	r1, r4
    8f8c:	70a2      	strb	r2, [r4, #2]
    8f8e:	796a      	ldrb	r2, [r5, #5]
    8f90:	9810      	ldr	r0, [sp, #64]	; 0x40
    8f92:	70e2      	strb	r2, [r4, #3]
    8f94:	792a      	ldrb	r2, [r5, #4]
    8f96:	7122      	strb	r2, [r4, #4]
    8f98:	78ea      	ldrb	r2, [r5, #3]
    8f9a:	7162      	strb	r2, [r4, #5]
    8f9c:	78aa      	ldrb	r2, [r5, #2]
    8f9e:	71a2      	strb	r2, [r4, #6]
    8fa0:	786a      	ldrb	r2, [r5, #1]
    8fa2:	71e2      	strb	r2, [r4, #7]
    8fa4:	782a      	ldrb	r2, [r5, #0]
    8fa6:	7222      	strb	r2, [r4, #8]
    8fa8:	7dfa      	ldrb	r2, [r7, #23]
    8faa:	7262      	strb	r2, [r4, #9]
    8fac:	7dba      	ldrb	r2, [r7, #22]
    8fae:	72a2      	strb	r2, [r4, #10]
    8fb0:	7d7a      	ldrb	r2, [r7, #21]
    8fb2:	72e2      	strb	r2, [r4, #11]
    8fb4:	7d3a      	ldrb	r2, [r7, #20]
    8fb6:	7322      	strb	r2, [r4, #12]
    8fb8:	9301      	str	r3, [sp, #4]
    8fba:	4643      	mov	r3, r8
    8fbc:	2201      	movs	r2, #1
    8fbe:	1af6      	subs	r6, r6, r3
    8fc0:	b2f6      	uxtb	r6, r6
    8fc2:	9202      	str	r2, [sp, #8]
    8fc4:	9600      	str	r6, [sp, #0]
    8fc6:	464b      	mov	r3, r9
    8fc8:	9a11      	ldr	r2, [sp, #68]	; 0x44
    8fca:	4c0d      	ldr	r4, [pc, #52]	; (9000 <unsecureFrame+0xb4>)
    8fcc:	47a0      	blx	r4
    8fce:	2800      	cmp	r0, #0
    8fd0:	d001      	beq.n	8fd6 <unsecureFrame+0x8a>
    8fd2:	23ff      	movs	r3, #255	; 0xff
    8fd4:	4698      	mov	r8, r3
    8fd6:	4640      	mov	r0, r8
    8fd8:	b009      	add	sp, #36	; 0x24
    8fda:	bc0c      	pop	{r2, r3}
    8fdc:	4690      	mov	r8, r2
    8fde:	4699      	mov	r9, r3
    8fe0:	bdf0      	pop	{r4, r5, r6, r7, pc}
    8fe2:	3808      	subs	r0, #8
    8fe4:	3944      	subs	r1, #68	; 0x44
    8fe6:	4680      	mov	r8, r0
    8fe8:	4211      	tst	r1, r2
    8fea:	d1ca      	bne.n	8f82 <unsecureFrame+0x36>
    8fec:	3922      	subs	r1, #34	; 0x22
    8fee:	400a      	ands	r2, r1
    8ff0:	1e51      	subs	r1, r2, #1
    8ff2:	418a      	sbcs	r2, r1
    8ff4:	0092      	lsls	r2, r2, #2
    8ff6:	4690      	mov	r8, r2
    8ff8:	e7c3      	b.n	8f82 <unsecureFrame+0x36>
    8ffa:	46c0      	nop			; (mov r8, r8)
    8ffc:	000093bd 	.word	0x000093bd
    9000:	00002bcd 	.word	0x00002bcd

00009004 <__udivsi3>:
    9004:	2200      	movs	r2, #0
    9006:	0843      	lsrs	r3, r0, #1
    9008:	428b      	cmp	r3, r1
    900a:	d374      	bcc.n	90f6 <__udivsi3+0xf2>
    900c:	0903      	lsrs	r3, r0, #4
    900e:	428b      	cmp	r3, r1
    9010:	d35f      	bcc.n	90d2 <__udivsi3+0xce>
    9012:	0a03      	lsrs	r3, r0, #8
    9014:	428b      	cmp	r3, r1
    9016:	d344      	bcc.n	90a2 <__udivsi3+0x9e>
    9018:	0b03      	lsrs	r3, r0, #12
    901a:	428b      	cmp	r3, r1
    901c:	d328      	bcc.n	9070 <__udivsi3+0x6c>
    901e:	0c03      	lsrs	r3, r0, #16
    9020:	428b      	cmp	r3, r1
    9022:	d30d      	bcc.n	9040 <__udivsi3+0x3c>
    9024:	22ff      	movs	r2, #255	; 0xff
    9026:	0209      	lsls	r1, r1, #8
    9028:	ba12      	rev	r2, r2
    902a:	0c03      	lsrs	r3, r0, #16
    902c:	428b      	cmp	r3, r1
    902e:	d302      	bcc.n	9036 <__udivsi3+0x32>
    9030:	1212      	asrs	r2, r2, #8
    9032:	0209      	lsls	r1, r1, #8
    9034:	d065      	beq.n	9102 <__udivsi3+0xfe>
    9036:	0b03      	lsrs	r3, r0, #12
    9038:	428b      	cmp	r3, r1
    903a:	d319      	bcc.n	9070 <__udivsi3+0x6c>
    903c:	e000      	b.n	9040 <__udivsi3+0x3c>
    903e:	0a09      	lsrs	r1, r1, #8
    9040:	0bc3      	lsrs	r3, r0, #15
    9042:	428b      	cmp	r3, r1
    9044:	d301      	bcc.n	904a <__udivsi3+0x46>
    9046:	03cb      	lsls	r3, r1, #15
    9048:	1ac0      	subs	r0, r0, r3
    904a:	4152      	adcs	r2, r2
    904c:	0b83      	lsrs	r3, r0, #14
    904e:	428b      	cmp	r3, r1
    9050:	d301      	bcc.n	9056 <__udivsi3+0x52>
    9052:	038b      	lsls	r3, r1, #14
    9054:	1ac0      	subs	r0, r0, r3
    9056:	4152      	adcs	r2, r2
    9058:	0b43      	lsrs	r3, r0, #13
    905a:	428b      	cmp	r3, r1
    905c:	d301      	bcc.n	9062 <__udivsi3+0x5e>
    905e:	034b      	lsls	r3, r1, #13
    9060:	1ac0      	subs	r0, r0, r3
    9062:	4152      	adcs	r2, r2
    9064:	0b03      	lsrs	r3, r0, #12
    9066:	428b      	cmp	r3, r1
    9068:	d301      	bcc.n	906e <__udivsi3+0x6a>
    906a:	030b      	lsls	r3, r1, #12
    906c:	1ac0      	subs	r0, r0, r3
    906e:	4152      	adcs	r2, r2
    9070:	0ac3      	lsrs	r3, r0, #11
    9072:	428b      	cmp	r3, r1
    9074:	d301      	bcc.n	907a <__udivsi3+0x76>
    9076:	02cb      	lsls	r3, r1, #11
    9078:	1ac0      	subs	r0, r0, r3
    907a:	4152      	adcs	r2, r2
    907c:	0a83      	lsrs	r3, r0, #10
    907e:	428b      	cmp	r3, r1
    9080:	d301      	bcc.n	9086 <__udivsi3+0x82>
    9082:	028b      	lsls	r3, r1, #10
    9084:	1ac0      	subs	r0, r0, r3
    9086:	4152      	adcs	r2, r2
    9088:	0a43      	lsrs	r3, r0, #9
    908a:	428b      	cmp	r3, r1
    908c:	d301      	bcc.n	9092 <__udivsi3+0x8e>
    908e:	024b      	lsls	r3, r1, #9
    9090:	1ac0      	subs	r0, r0, r3
    9092:	4152      	adcs	r2, r2
    9094:	0a03      	lsrs	r3, r0, #8
    9096:	428b      	cmp	r3, r1
    9098:	d301      	bcc.n	909e <__udivsi3+0x9a>
    909a:	020b      	lsls	r3, r1, #8
    909c:	1ac0      	subs	r0, r0, r3
    909e:	4152      	adcs	r2, r2
    90a0:	d2cd      	bcs.n	903e <__udivsi3+0x3a>
    90a2:	09c3      	lsrs	r3, r0, #7
    90a4:	428b      	cmp	r3, r1
    90a6:	d301      	bcc.n	90ac <__udivsi3+0xa8>
    90a8:	01cb      	lsls	r3, r1, #7
    90aa:	1ac0      	subs	r0, r0, r3
    90ac:	4152      	adcs	r2, r2
    90ae:	0983      	lsrs	r3, r0, #6
    90b0:	428b      	cmp	r3, r1
    90b2:	d301      	bcc.n	90b8 <__udivsi3+0xb4>
    90b4:	018b      	lsls	r3, r1, #6
    90b6:	1ac0      	subs	r0, r0, r3
    90b8:	4152      	adcs	r2, r2
    90ba:	0943      	lsrs	r3, r0, #5
    90bc:	428b      	cmp	r3, r1
    90be:	d301      	bcc.n	90c4 <__udivsi3+0xc0>
    90c0:	014b      	lsls	r3, r1, #5
    90c2:	1ac0      	subs	r0, r0, r3
    90c4:	4152      	adcs	r2, r2
    90c6:	0903      	lsrs	r3, r0, #4
    90c8:	428b      	cmp	r3, r1
    90ca:	d301      	bcc.n	90d0 <__udivsi3+0xcc>
    90cc:	010b      	lsls	r3, r1, #4
    90ce:	1ac0      	subs	r0, r0, r3
    90d0:	4152      	adcs	r2, r2
    90d2:	08c3      	lsrs	r3, r0, #3
    90d4:	428b      	cmp	r3, r1
    90d6:	d301      	bcc.n	90dc <__udivsi3+0xd8>
    90d8:	00cb      	lsls	r3, r1, #3
    90da:	1ac0      	subs	r0, r0, r3
    90dc:	4152      	adcs	r2, r2
    90de:	0883      	lsrs	r3, r0, #2
    90e0:	428b      	cmp	r3, r1
    90e2:	d301      	bcc.n	90e8 <__udivsi3+0xe4>
    90e4:	008b      	lsls	r3, r1, #2
    90e6:	1ac0      	subs	r0, r0, r3
    90e8:	4152      	adcs	r2, r2
    90ea:	0843      	lsrs	r3, r0, #1
    90ec:	428b      	cmp	r3, r1
    90ee:	d301      	bcc.n	90f4 <__udivsi3+0xf0>
    90f0:	004b      	lsls	r3, r1, #1
    90f2:	1ac0      	subs	r0, r0, r3
    90f4:	4152      	adcs	r2, r2
    90f6:	1a41      	subs	r1, r0, r1
    90f8:	d200      	bcs.n	90fc <__udivsi3+0xf8>
    90fa:	4601      	mov	r1, r0
    90fc:	4152      	adcs	r2, r2
    90fe:	4610      	mov	r0, r2
    9100:	4770      	bx	lr
    9102:	e7ff      	b.n	9104 <__udivsi3+0x100>
    9104:	b501      	push	{r0, lr}
    9106:	2000      	movs	r0, #0
    9108:	f000 f8f0 	bl	92ec <__aeabi_idiv0>
    910c:	bd02      	pop	{r1, pc}
    910e:	46c0      	nop			; (mov r8, r8)

00009110 <__aeabi_uidivmod>:
    9110:	2900      	cmp	r1, #0
    9112:	d0f7      	beq.n	9104 <__udivsi3+0x100>
    9114:	e776      	b.n	9004 <__udivsi3>
    9116:	4770      	bx	lr

00009118 <__divsi3>:
    9118:	4603      	mov	r3, r0
    911a:	430b      	orrs	r3, r1
    911c:	d47f      	bmi.n	921e <__divsi3+0x106>
    911e:	2200      	movs	r2, #0
    9120:	0843      	lsrs	r3, r0, #1
    9122:	428b      	cmp	r3, r1
    9124:	d374      	bcc.n	9210 <__divsi3+0xf8>
    9126:	0903      	lsrs	r3, r0, #4
    9128:	428b      	cmp	r3, r1
    912a:	d35f      	bcc.n	91ec <__divsi3+0xd4>
    912c:	0a03      	lsrs	r3, r0, #8
    912e:	428b      	cmp	r3, r1
    9130:	d344      	bcc.n	91bc <__divsi3+0xa4>
    9132:	0b03      	lsrs	r3, r0, #12
    9134:	428b      	cmp	r3, r1
    9136:	d328      	bcc.n	918a <__divsi3+0x72>
    9138:	0c03      	lsrs	r3, r0, #16
    913a:	428b      	cmp	r3, r1
    913c:	d30d      	bcc.n	915a <__divsi3+0x42>
    913e:	22ff      	movs	r2, #255	; 0xff
    9140:	0209      	lsls	r1, r1, #8
    9142:	ba12      	rev	r2, r2
    9144:	0c03      	lsrs	r3, r0, #16
    9146:	428b      	cmp	r3, r1
    9148:	d302      	bcc.n	9150 <__divsi3+0x38>
    914a:	1212      	asrs	r2, r2, #8
    914c:	0209      	lsls	r1, r1, #8
    914e:	d065      	beq.n	921c <__divsi3+0x104>
    9150:	0b03      	lsrs	r3, r0, #12
    9152:	428b      	cmp	r3, r1
    9154:	d319      	bcc.n	918a <__divsi3+0x72>
    9156:	e000      	b.n	915a <__divsi3+0x42>
    9158:	0a09      	lsrs	r1, r1, #8
    915a:	0bc3      	lsrs	r3, r0, #15
    915c:	428b      	cmp	r3, r1
    915e:	d301      	bcc.n	9164 <__divsi3+0x4c>
    9160:	03cb      	lsls	r3, r1, #15
    9162:	1ac0      	subs	r0, r0, r3
    9164:	4152      	adcs	r2, r2
    9166:	0b83      	lsrs	r3, r0, #14
    9168:	428b      	cmp	r3, r1
    916a:	d301      	bcc.n	9170 <__divsi3+0x58>
    916c:	038b      	lsls	r3, r1, #14
    916e:	1ac0      	subs	r0, r0, r3
    9170:	4152      	adcs	r2, r2
    9172:	0b43      	lsrs	r3, r0, #13
    9174:	428b      	cmp	r3, r1
    9176:	d301      	bcc.n	917c <__divsi3+0x64>
    9178:	034b      	lsls	r3, r1, #13
    917a:	1ac0      	subs	r0, r0, r3
    917c:	4152      	adcs	r2, r2
    917e:	0b03      	lsrs	r3, r0, #12
    9180:	428b      	cmp	r3, r1
    9182:	d301      	bcc.n	9188 <__divsi3+0x70>
    9184:	030b      	lsls	r3, r1, #12
    9186:	1ac0      	subs	r0, r0, r3
    9188:	4152      	adcs	r2, r2
    918a:	0ac3      	lsrs	r3, r0, #11
    918c:	428b      	cmp	r3, r1
    918e:	d301      	bcc.n	9194 <__divsi3+0x7c>
    9190:	02cb      	lsls	r3, r1, #11
    9192:	1ac0      	subs	r0, r0, r3
    9194:	4152      	adcs	r2, r2
    9196:	0a83      	lsrs	r3, r0, #10
    9198:	428b      	cmp	r3, r1
    919a:	d301      	bcc.n	91a0 <__divsi3+0x88>
    919c:	028b      	lsls	r3, r1, #10
    919e:	1ac0      	subs	r0, r0, r3
    91a0:	4152      	adcs	r2, r2
    91a2:	0a43      	lsrs	r3, r0, #9
    91a4:	428b      	cmp	r3, r1
    91a6:	d301      	bcc.n	91ac <__divsi3+0x94>
    91a8:	024b      	lsls	r3, r1, #9
    91aa:	1ac0      	subs	r0, r0, r3
    91ac:	4152      	adcs	r2, r2
    91ae:	0a03      	lsrs	r3, r0, #8
    91b0:	428b      	cmp	r3, r1
    91b2:	d301      	bcc.n	91b8 <__divsi3+0xa0>
    91b4:	020b      	lsls	r3, r1, #8
    91b6:	1ac0      	subs	r0, r0, r3
    91b8:	4152      	adcs	r2, r2
    91ba:	d2cd      	bcs.n	9158 <__divsi3+0x40>
    91bc:	09c3      	lsrs	r3, r0, #7
    91be:	428b      	cmp	r3, r1
    91c0:	d301      	bcc.n	91c6 <__divsi3+0xae>
    91c2:	01cb      	lsls	r3, r1, #7
    91c4:	1ac0      	subs	r0, r0, r3
    91c6:	4152      	adcs	r2, r2
    91c8:	0983      	lsrs	r3, r0, #6
    91ca:	428b      	cmp	r3, r1
    91cc:	d301      	bcc.n	91d2 <__divsi3+0xba>
    91ce:	018b      	lsls	r3, r1, #6
    91d0:	1ac0      	subs	r0, r0, r3
    91d2:	4152      	adcs	r2, r2
    91d4:	0943      	lsrs	r3, r0, #5
    91d6:	428b      	cmp	r3, r1
    91d8:	d301      	bcc.n	91de <__divsi3+0xc6>
    91da:	014b      	lsls	r3, r1, #5
    91dc:	1ac0      	subs	r0, r0, r3
    91de:	4152      	adcs	r2, r2
    91e0:	0903      	lsrs	r3, r0, #4
    91e2:	428b      	cmp	r3, r1
    91e4:	d301      	bcc.n	91ea <__divsi3+0xd2>
    91e6:	010b      	lsls	r3, r1, #4
    91e8:	1ac0      	subs	r0, r0, r3
    91ea:	4152      	adcs	r2, r2
    91ec:	08c3      	lsrs	r3, r0, #3
    91ee:	428b      	cmp	r3, r1
    91f0:	d301      	bcc.n	91f6 <__divsi3+0xde>
    91f2:	00cb      	lsls	r3, r1, #3
    91f4:	1ac0      	subs	r0, r0, r3
    91f6:	4152      	adcs	r2, r2
    91f8:	0883      	lsrs	r3, r0, #2
    91fa:	428b      	cmp	r3, r1
    91fc:	d301      	bcc.n	9202 <__divsi3+0xea>
    91fe:	008b      	lsls	r3, r1, #2
    9200:	1ac0      	subs	r0, r0, r3
    9202:	4152      	adcs	r2, r2
    9204:	0843      	lsrs	r3, r0, #1
    9206:	428b      	cmp	r3, r1
    9208:	d301      	bcc.n	920e <__divsi3+0xf6>
    920a:	004b      	lsls	r3, r1, #1
    920c:	1ac0      	subs	r0, r0, r3
    920e:	4152      	adcs	r2, r2
    9210:	1a41      	subs	r1, r0, r1
    9212:	d200      	bcs.n	9216 <__divsi3+0xfe>
    9214:	4601      	mov	r1, r0
    9216:	4152      	adcs	r2, r2
    9218:	4610      	mov	r0, r2
    921a:	4770      	bx	lr
    921c:	e05d      	b.n	92da <__divsi3+0x1c2>
    921e:	0fca      	lsrs	r2, r1, #31
    9220:	d000      	beq.n	9224 <__divsi3+0x10c>
    9222:	4249      	negs	r1, r1
    9224:	1003      	asrs	r3, r0, #32
    9226:	d300      	bcc.n	922a <__divsi3+0x112>
    9228:	4240      	negs	r0, r0
    922a:	4053      	eors	r3, r2
    922c:	2200      	movs	r2, #0
    922e:	469c      	mov	ip, r3
    9230:	0903      	lsrs	r3, r0, #4
    9232:	428b      	cmp	r3, r1
    9234:	d32d      	bcc.n	9292 <__divsi3+0x17a>
    9236:	0a03      	lsrs	r3, r0, #8
    9238:	428b      	cmp	r3, r1
    923a:	d312      	bcc.n	9262 <__divsi3+0x14a>
    923c:	22fc      	movs	r2, #252	; 0xfc
    923e:	0189      	lsls	r1, r1, #6
    9240:	ba12      	rev	r2, r2
    9242:	0a03      	lsrs	r3, r0, #8
    9244:	428b      	cmp	r3, r1
    9246:	d30c      	bcc.n	9262 <__divsi3+0x14a>
    9248:	0189      	lsls	r1, r1, #6
    924a:	1192      	asrs	r2, r2, #6
    924c:	428b      	cmp	r3, r1
    924e:	d308      	bcc.n	9262 <__divsi3+0x14a>
    9250:	0189      	lsls	r1, r1, #6
    9252:	1192      	asrs	r2, r2, #6
    9254:	428b      	cmp	r3, r1
    9256:	d304      	bcc.n	9262 <__divsi3+0x14a>
    9258:	0189      	lsls	r1, r1, #6
    925a:	d03a      	beq.n	92d2 <__divsi3+0x1ba>
    925c:	1192      	asrs	r2, r2, #6
    925e:	e000      	b.n	9262 <__divsi3+0x14a>
    9260:	0989      	lsrs	r1, r1, #6
    9262:	09c3      	lsrs	r3, r0, #7
    9264:	428b      	cmp	r3, r1
    9266:	d301      	bcc.n	926c <__divsi3+0x154>
    9268:	01cb      	lsls	r3, r1, #7
    926a:	1ac0      	subs	r0, r0, r3
    926c:	4152      	adcs	r2, r2
    926e:	0983      	lsrs	r3, r0, #6
    9270:	428b      	cmp	r3, r1
    9272:	d301      	bcc.n	9278 <__divsi3+0x160>
    9274:	018b      	lsls	r3, r1, #6
    9276:	1ac0      	subs	r0, r0, r3
    9278:	4152      	adcs	r2, r2
    927a:	0943      	lsrs	r3, r0, #5
    927c:	428b      	cmp	r3, r1
    927e:	d301      	bcc.n	9284 <__divsi3+0x16c>
    9280:	014b      	lsls	r3, r1, #5
    9282:	1ac0      	subs	r0, r0, r3
    9284:	4152      	adcs	r2, r2
    9286:	0903      	lsrs	r3, r0, #4
    9288:	428b      	cmp	r3, r1
    928a:	d301      	bcc.n	9290 <__divsi3+0x178>
    928c:	010b      	lsls	r3, r1, #4
    928e:	1ac0      	subs	r0, r0, r3
    9290:	4152      	adcs	r2, r2
    9292:	08c3      	lsrs	r3, r0, #3
    9294:	428b      	cmp	r3, r1
    9296:	d301      	bcc.n	929c <__divsi3+0x184>
    9298:	00cb      	lsls	r3, r1, #3
    929a:	1ac0      	subs	r0, r0, r3
    929c:	4152      	adcs	r2, r2
    929e:	0883      	lsrs	r3, r0, #2
    92a0:	428b      	cmp	r3, r1
    92a2:	d301      	bcc.n	92a8 <__divsi3+0x190>
    92a4:	008b      	lsls	r3, r1, #2
    92a6:	1ac0      	subs	r0, r0, r3
    92a8:	4152      	adcs	r2, r2
    92aa:	d2d9      	bcs.n	9260 <__divsi3+0x148>
    92ac:	0843      	lsrs	r3, r0, #1
    92ae:	428b      	cmp	r3, r1
    92b0:	d301      	bcc.n	92b6 <__divsi3+0x19e>
    92b2:	004b      	lsls	r3, r1, #1
    92b4:	1ac0      	subs	r0, r0, r3
    92b6:	4152      	adcs	r2, r2
    92b8:	1a41      	subs	r1, r0, r1
    92ba:	d200      	bcs.n	92be <__divsi3+0x1a6>
    92bc:	4601      	mov	r1, r0
    92be:	4663      	mov	r3, ip
    92c0:	4152      	adcs	r2, r2
    92c2:	105b      	asrs	r3, r3, #1
    92c4:	4610      	mov	r0, r2
    92c6:	d301      	bcc.n	92cc <__divsi3+0x1b4>
    92c8:	4240      	negs	r0, r0
    92ca:	2b00      	cmp	r3, #0
    92cc:	d500      	bpl.n	92d0 <__divsi3+0x1b8>
    92ce:	4249      	negs	r1, r1
    92d0:	4770      	bx	lr
    92d2:	4663      	mov	r3, ip
    92d4:	105b      	asrs	r3, r3, #1
    92d6:	d300      	bcc.n	92da <__divsi3+0x1c2>
    92d8:	4240      	negs	r0, r0
    92da:	b501      	push	{r0, lr}
    92dc:	2000      	movs	r0, #0
    92de:	f000 f805 	bl	92ec <__aeabi_idiv0>
    92e2:	bd02      	pop	{r1, pc}

000092e4 <__aeabi_idivmod>:
    92e4:	2900      	cmp	r1, #0
    92e6:	d0f8      	beq.n	92da <__divsi3+0x1c2>
    92e8:	e716      	b.n	9118 <__divsi3>
    92ea:	4770      	bx	lr

000092ec <__aeabi_idiv0>:
    92ec:	4770      	bx	lr
    92ee:	46c0      	nop			; (mov r8, r8)

000092f0 <__aeabi_lmul>:
    92f0:	b5f0      	push	{r4, r5, r6, r7, lr}
    92f2:	46ce      	mov	lr, r9
    92f4:	4647      	mov	r7, r8
    92f6:	0415      	lsls	r5, r2, #16
    92f8:	0c2d      	lsrs	r5, r5, #16
    92fa:	002e      	movs	r6, r5
    92fc:	b580      	push	{r7, lr}
    92fe:	0407      	lsls	r7, r0, #16
    9300:	0c14      	lsrs	r4, r2, #16
    9302:	0c3f      	lsrs	r7, r7, #16
    9304:	4699      	mov	r9, r3
    9306:	0c03      	lsrs	r3, r0, #16
    9308:	437e      	muls	r6, r7
    930a:	435d      	muls	r5, r3
    930c:	4367      	muls	r7, r4
    930e:	4363      	muls	r3, r4
    9310:	197f      	adds	r7, r7, r5
    9312:	0c34      	lsrs	r4, r6, #16
    9314:	19e4      	adds	r4, r4, r7
    9316:	469c      	mov	ip, r3
    9318:	42a5      	cmp	r5, r4
    931a:	d903      	bls.n	9324 <__aeabi_lmul+0x34>
    931c:	2380      	movs	r3, #128	; 0x80
    931e:	025b      	lsls	r3, r3, #9
    9320:	4698      	mov	r8, r3
    9322:	44c4      	add	ip, r8
    9324:	464b      	mov	r3, r9
    9326:	4351      	muls	r1, r2
    9328:	4343      	muls	r3, r0
    932a:	0436      	lsls	r6, r6, #16
    932c:	0c36      	lsrs	r6, r6, #16
    932e:	0c25      	lsrs	r5, r4, #16
    9330:	0424      	lsls	r4, r4, #16
    9332:	4465      	add	r5, ip
    9334:	19a4      	adds	r4, r4, r6
    9336:	1859      	adds	r1, r3, r1
    9338:	1949      	adds	r1, r1, r5
    933a:	0020      	movs	r0, r4
    933c:	bc0c      	pop	{r2, r3}
    933e:	4690      	mov	r8, r2
    9340:	4699      	mov	r9, r3
    9342:	bdf0      	pop	{r4, r5, r6, r7, pc}

00009344 <__libc_init_array>:
    9344:	b570      	push	{r4, r5, r6, lr}
    9346:	2600      	movs	r6, #0
    9348:	4d0c      	ldr	r5, [pc, #48]	; (937c <__libc_init_array+0x38>)
    934a:	4c0d      	ldr	r4, [pc, #52]	; (9380 <__libc_init_array+0x3c>)
    934c:	1b64      	subs	r4, r4, r5
    934e:	10a4      	asrs	r4, r4, #2
    9350:	42a6      	cmp	r6, r4
    9352:	d109      	bne.n	9368 <__libc_init_array+0x24>
    9354:	2600      	movs	r6, #0
    9356:	f001 f85f 	bl	a418 <_init>
    935a:	4d0a      	ldr	r5, [pc, #40]	; (9384 <__libc_init_array+0x40>)
    935c:	4c0a      	ldr	r4, [pc, #40]	; (9388 <__libc_init_array+0x44>)
    935e:	1b64      	subs	r4, r4, r5
    9360:	10a4      	asrs	r4, r4, #2
    9362:	42a6      	cmp	r6, r4
    9364:	d105      	bne.n	9372 <__libc_init_array+0x2e>
    9366:	bd70      	pop	{r4, r5, r6, pc}
    9368:	00b3      	lsls	r3, r6, #2
    936a:	58eb      	ldr	r3, [r5, r3]
    936c:	4798      	blx	r3
    936e:	3601      	adds	r6, #1
    9370:	e7ee      	b.n	9350 <__libc_init_array+0xc>
    9372:	00b3      	lsls	r3, r6, #2
    9374:	58eb      	ldr	r3, [r5, r3]
    9376:	4798      	blx	r3
    9378:	3601      	adds	r6, #1
    937a:	e7f2      	b.n	9362 <__libc_init_array+0x1e>
    937c:	0000a424 	.word	0x0000a424
    9380:	0000a424 	.word	0x0000a424
    9384:	0000a424 	.word	0x0000a424
    9388:	0000a428 	.word	0x0000a428

0000938c <memcmp>:
    938c:	b530      	push	{r4, r5, lr}
    938e:	2400      	movs	r4, #0
    9390:	42a2      	cmp	r2, r4
    9392:	d101      	bne.n	9398 <memcmp+0xc>
    9394:	2000      	movs	r0, #0
    9396:	e005      	b.n	93a4 <memcmp+0x18>
    9398:	5d03      	ldrb	r3, [r0, r4]
    939a:	1c65      	adds	r5, r4, #1
    939c:	5d0c      	ldrb	r4, [r1, r4]
    939e:	42a3      	cmp	r3, r4
    93a0:	d001      	beq.n	93a6 <memcmp+0x1a>
    93a2:	1b18      	subs	r0, r3, r4
    93a4:	bd30      	pop	{r4, r5, pc}
    93a6:	002c      	movs	r4, r5
    93a8:	e7f2      	b.n	9390 <memcmp+0x4>

000093aa <memcpy>:
    93aa:	2300      	movs	r3, #0
    93ac:	b510      	push	{r4, lr}
    93ae:	429a      	cmp	r2, r3
    93b0:	d100      	bne.n	93b4 <memcpy+0xa>
    93b2:	bd10      	pop	{r4, pc}
    93b4:	5ccc      	ldrb	r4, [r1, r3]
    93b6:	54c4      	strb	r4, [r0, r3]
    93b8:	3301      	adds	r3, #1
    93ba:	e7f8      	b.n	93ae <memcpy+0x4>

000093bc <memset>:
    93bc:	0003      	movs	r3, r0
    93be:	1882      	adds	r2, r0, r2
    93c0:	4293      	cmp	r3, r2
    93c2:	d100      	bne.n	93c6 <memset+0xa>
    93c4:	4770      	bx	lr
    93c6:	7019      	strb	r1, [r3, #0]
    93c8:	3301      	adds	r3, #1
    93ca:	e7f9      	b.n	93c0 <memset+0x4>

000093cc <rand>:
    93cc:	4b15      	ldr	r3, [pc, #84]	; (9424 <rand+0x58>)
    93ce:	b510      	push	{r4, lr}
    93d0:	681c      	ldr	r4, [r3, #0]
    93d2:	6ba3      	ldr	r3, [r4, #56]	; 0x38
    93d4:	2b00      	cmp	r3, #0
    93d6:	d115      	bne.n	9404 <rand+0x38>
    93d8:	2018      	movs	r0, #24
    93da:	f000 fac1 	bl	9960 <malloc>
    93de:	4b12      	ldr	r3, [pc, #72]	; (9428 <rand+0x5c>)
    93e0:	63a0      	str	r0, [r4, #56]	; 0x38
    93e2:	8003      	strh	r3, [r0, #0]
    93e4:	4b11      	ldr	r3, [pc, #68]	; (942c <rand+0x60>)
    93e6:	2201      	movs	r2, #1
    93e8:	8043      	strh	r3, [r0, #2]
    93ea:	4b11      	ldr	r3, [pc, #68]	; (9430 <rand+0x64>)
    93ec:	8083      	strh	r3, [r0, #4]
    93ee:	4b11      	ldr	r3, [pc, #68]	; (9434 <rand+0x68>)
    93f0:	80c3      	strh	r3, [r0, #6]
    93f2:	4b11      	ldr	r3, [pc, #68]	; (9438 <rand+0x6c>)
    93f4:	8103      	strh	r3, [r0, #8]
    93f6:	2305      	movs	r3, #5
    93f8:	8143      	strh	r3, [r0, #10]
    93fa:	3306      	adds	r3, #6
    93fc:	8183      	strh	r3, [r0, #12]
    93fe:	2300      	movs	r3, #0
    9400:	6102      	str	r2, [r0, #16]
    9402:	6143      	str	r3, [r0, #20]
    9404:	6ba4      	ldr	r4, [r4, #56]	; 0x38
    9406:	4a0d      	ldr	r2, [pc, #52]	; (943c <rand+0x70>)
    9408:	6920      	ldr	r0, [r4, #16]
    940a:	6961      	ldr	r1, [r4, #20]
    940c:	4b0c      	ldr	r3, [pc, #48]	; (9440 <rand+0x74>)
    940e:	f7ff ff6f 	bl	92f0 <__aeabi_lmul>
    9412:	2201      	movs	r2, #1
    9414:	2300      	movs	r3, #0
    9416:	1880      	adds	r0, r0, r2
    9418:	4159      	adcs	r1, r3
    941a:	6120      	str	r0, [r4, #16]
    941c:	6161      	str	r1, [r4, #20]
    941e:	0048      	lsls	r0, r1, #1
    9420:	0840      	lsrs	r0, r0, #1
    9422:	bd10      	pop	{r4, pc}
    9424:	2000007c 	.word	0x2000007c
    9428:	0000330e 	.word	0x0000330e
    942c:	ffffabcd 	.word	0xffffabcd
    9430:	00001234 	.word	0x00001234
    9434:	ffffe66d 	.word	0xffffe66d
    9438:	ffffdeec 	.word	0xffffdeec
    943c:	4c957f2d 	.word	0x4c957f2d
    9440:	5851f42d 	.word	0x5851f42d

00009444 <setbuf>:
    9444:	424a      	negs	r2, r1
    9446:	414a      	adcs	r2, r1
    9448:	2380      	movs	r3, #128	; 0x80
    944a:	b510      	push	{r4, lr}
    944c:	0052      	lsls	r2, r2, #1
    944e:	00db      	lsls	r3, r3, #3
    9450:	f000 f802 	bl	9458 <setvbuf>
    9454:	bd10      	pop	{r4, pc}
	...

00009458 <setvbuf>:
    9458:	b5f0      	push	{r4, r5, r6, r7, lr}
    945a:	001d      	movs	r5, r3
    945c:	4b4f      	ldr	r3, [pc, #316]	; (959c <setvbuf+0x144>)
    945e:	b085      	sub	sp, #20
    9460:	681e      	ldr	r6, [r3, #0]
    9462:	0004      	movs	r4, r0
    9464:	000f      	movs	r7, r1
    9466:	9200      	str	r2, [sp, #0]
    9468:	2e00      	cmp	r6, #0
    946a:	d005      	beq.n	9478 <setvbuf+0x20>
    946c:	69b3      	ldr	r3, [r6, #24]
    946e:	2b00      	cmp	r3, #0
    9470:	d102      	bne.n	9478 <setvbuf+0x20>
    9472:	0030      	movs	r0, r6
    9474:	f000 f9b6 	bl	97e4 <__sinit>
    9478:	4b49      	ldr	r3, [pc, #292]	; (95a0 <setvbuf+0x148>)
    947a:	429c      	cmp	r4, r3
    947c:	d150      	bne.n	9520 <setvbuf+0xc8>
    947e:	6874      	ldr	r4, [r6, #4]
    9480:	9b00      	ldr	r3, [sp, #0]
    9482:	2b02      	cmp	r3, #2
    9484:	d005      	beq.n	9492 <setvbuf+0x3a>
    9486:	2b01      	cmp	r3, #1
    9488:	d900      	bls.n	948c <setvbuf+0x34>
    948a:	e084      	b.n	9596 <setvbuf+0x13e>
    948c:	2d00      	cmp	r5, #0
    948e:	da00      	bge.n	9492 <setvbuf+0x3a>
    9490:	e081      	b.n	9596 <setvbuf+0x13e>
    9492:	0021      	movs	r1, r4
    9494:	0030      	movs	r0, r6
    9496:	f000 f937 	bl	9708 <_fflush_r>
    949a:	6b61      	ldr	r1, [r4, #52]	; 0x34
    949c:	2900      	cmp	r1, #0
    949e:	d008      	beq.n	94b2 <setvbuf+0x5a>
    94a0:	0023      	movs	r3, r4
    94a2:	3344      	adds	r3, #68	; 0x44
    94a4:	4299      	cmp	r1, r3
    94a6:	d002      	beq.n	94ae <setvbuf+0x56>
    94a8:	0030      	movs	r0, r6
    94aa:	f000 fa63 	bl	9974 <_free_r>
    94ae:	2300      	movs	r3, #0
    94b0:	6363      	str	r3, [r4, #52]	; 0x34
    94b2:	2300      	movs	r3, #0
    94b4:	61a3      	str	r3, [r4, #24]
    94b6:	6063      	str	r3, [r4, #4]
    94b8:	89a3      	ldrh	r3, [r4, #12]
    94ba:	061b      	lsls	r3, r3, #24
    94bc:	d503      	bpl.n	94c6 <setvbuf+0x6e>
    94be:	6921      	ldr	r1, [r4, #16]
    94c0:	0030      	movs	r0, r6
    94c2:	f000 fa57 	bl	9974 <_free_r>
    94c6:	89a3      	ldrh	r3, [r4, #12]
    94c8:	4a36      	ldr	r2, [pc, #216]	; (95a4 <setvbuf+0x14c>)
    94ca:	4013      	ands	r3, r2
    94cc:	81a3      	strh	r3, [r4, #12]
    94ce:	9b00      	ldr	r3, [sp, #0]
    94d0:	2b02      	cmp	r3, #2
    94d2:	d05a      	beq.n	958a <setvbuf+0x132>
    94d4:	ab03      	add	r3, sp, #12
    94d6:	aa02      	add	r2, sp, #8
    94d8:	0021      	movs	r1, r4
    94da:	0030      	movs	r0, r6
    94dc:	f000 fa18 	bl	9910 <__swhatbuf_r>
    94e0:	89a3      	ldrh	r3, [r4, #12]
    94e2:	4318      	orrs	r0, r3
    94e4:	81a0      	strh	r0, [r4, #12]
    94e6:	2d00      	cmp	r5, #0
    94e8:	d124      	bne.n	9534 <setvbuf+0xdc>
    94ea:	9d02      	ldr	r5, [sp, #8]
    94ec:	0028      	movs	r0, r5
    94ee:	f000 fa37 	bl	9960 <malloc>
    94f2:	9501      	str	r5, [sp, #4]
    94f4:	1e07      	subs	r7, r0, #0
    94f6:	d142      	bne.n	957e <setvbuf+0x126>
    94f8:	9b02      	ldr	r3, [sp, #8]
    94fa:	9301      	str	r3, [sp, #4]
    94fc:	42ab      	cmp	r3, r5
    94fe:	d139      	bne.n	9574 <setvbuf+0x11c>
    9500:	2001      	movs	r0, #1
    9502:	4240      	negs	r0, r0
    9504:	2302      	movs	r3, #2
    9506:	89a2      	ldrh	r2, [r4, #12]
    9508:	4313      	orrs	r3, r2
    950a:	81a3      	strh	r3, [r4, #12]
    950c:	2300      	movs	r3, #0
    950e:	60a3      	str	r3, [r4, #8]
    9510:	0023      	movs	r3, r4
    9512:	3347      	adds	r3, #71	; 0x47
    9514:	6023      	str	r3, [r4, #0]
    9516:	6123      	str	r3, [r4, #16]
    9518:	2301      	movs	r3, #1
    951a:	6163      	str	r3, [r4, #20]
    951c:	b005      	add	sp, #20
    951e:	bdf0      	pop	{r4, r5, r6, r7, pc}
    9520:	4b21      	ldr	r3, [pc, #132]	; (95a8 <setvbuf+0x150>)
    9522:	429c      	cmp	r4, r3
    9524:	d101      	bne.n	952a <setvbuf+0xd2>
    9526:	68b4      	ldr	r4, [r6, #8]
    9528:	e7aa      	b.n	9480 <setvbuf+0x28>
    952a:	4b20      	ldr	r3, [pc, #128]	; (95ac <setvbuf+0x154>)
    952c:	429c      	cmp	r4, r3
    952e:	d1a7      	bne.n	9480 <setvbuf+0x28>
    9530:	68f4      	ldr	r4, [r6, #12]
    9532:	e7a5      	b.n	9480 <setvbuf+0x28>
    9534:	2f00      	cmp	r7, #0
    9536:	d0d9      	beq.n	94ec <setvbuf+0x94>
    9538:	69b3      	ldr	r3, [r6, #24]
    953a:	2b00      	cmp	r3, #0
    953c:	d102      	bne.n	9544 <setvbuf+0xec>
    953e:	0030      	movs	r0, r6
    9540:	f000 f950 	bl	97e4 <__sinit>
    9544:	9b00      	ldr	r3, [sp, #0]
    9546:	2b01      	cmp	r3, #1
    9548:	d103      	bne.n	9552 <setvbuf+0xfa>
    954a:	89a3      	ldrh	r3, [r4, #12]
    954c:	9a00      	ldr	r2, [sp, #0]
    954e:	431a      	orrs	r2, r3
    9550:	81a2      	strh	r2, [r4, #12]
    9552:	2008      	movs	r0, #8
    9554:	89a3      	ldrh	r3, [r4, #12]
    9556:	6027      	str	r7, [r4, #0]
    9558:	6127      	str	r7, [r4, #16]
    955a:	6165      	str	r5, [r4, #20]
    955c:	4018      	ands	r0, r3
    955e:	d018      	beq.n	9592 <setvbuf+0x13a>
    9560:	2001      	movs	r0, #1
    9562:	4018      	ands	r0, r3
    9564:	2300      	movs	r3, #0
    9566:	4298      	cmp	r0, r3
    9568:	d011      	beq.n	958e <setvbuf+0x136>
    956a:	426d      	negs	r5, r5
    956c:	60a3      	str	r3, [r4, #8]
    956e:	61a5      	str	r5, [r4, #24]
    9570:	0018      	movs	r0, r3
    9572:	e7d3      	b.n	951c <setvbuf+0xc4>
    9574:	9801      	ldr	r0, [sp, #4]
    9576:	f000 f9f3 	bl	9960 <malloc>
    957a:	1e07      	subs	r7, r0, #0
    957c:	d0c0      	beq.n	9500 <setvbuf+0xa8>
    957e:	2380      	movs	r3, #128	; 0x80
    9580:	89a2      	ldrh	r2, [r4, #12]
    9582:	9d01      	ldr	r5, [sp, #4]
    9584:	4313      	orrs	r3, r2
    9586:	81a3      	strh	r3, [r4, #12]
    9588:	e7d6      	b.n	9538 <setvbuf+0xe0>
    958a:	2000      	movs	r0, #0
    958c:	e7ba      	b.n	9504 <setvbuf+0xac>
    958e:	60a5      	str	r5, [r4, #8]
    9590:	e7c4      	b.n	951c <setvbuf+0xc4>
    9592:	60a0      	str	r0, [r4, #8]
    9594:	e7c2      	b.n	951c <setvbuf+0xc4>
    9596:	2001      	movs	r0, #1
    9598:	4240      	negs	r0, r0
    959a:	e7bf      	b.n	951c <setvbuf+0xc4>
    959c:	2000007c 	.word	0x2000007c
    95a0:	0000a3a4 	.word	0x0000a3a4
    95a4:	fffff35c 	.word	0xfffff35c
    95a8:	0000a3c4 	.word	0x0000a3c4
    95ac:	0000a384 	.word	0x0000a384

000095b0 <siprintf>:
    95b0:	b40e      	push	{r1, r2, r3}
    95b2:	b510      	push	{r4, lr}
    95b4:	b09d      	sub	sp, #116	; 0x74
    95b6:	a902      	add	r1, sp, #8
    95b8:	9002      	str	r0, [sp, #8]
    95ba:	6108      	str	r0, [r1, #16]
    95bc:	480b      	ldr	r0, [pc, #44]	; (95ec <siprintf+0x3c>)
    95be:	2482      	movs	r4, #130	; 0x82
    95c0:	6088      	str	r0, [r1, #8]
    95c2:	6148      	str	r0, [r1, #20]
    95c4:	2001      	movs	r0, #1
    95c6:	4240      	negs	r0, r0
    95c8:	ab1f      	add	r3, sp, #124	; 0x7c
    95ca:	81c8      	strh	r0, [r1, #14]
    95cc:	4808      	ldr	r0, [pc, #32]	; (95f0 <siprintf+0x40>)
    95ce:	cb04      	ldmia	r3!, {r2}
    95d0:	00a4      	lsls	r4, r4, #2
    95d2:	6800      	ldr	r0, [r0, #0]
    95d4:	9301      	str	r3, [sp, #4]
    95d6:	818c      	strh	r4, [r1, #12]
    95d8:	f000 fad6 	bl	9b88 <_svfiprintf_r>
    95dc:	2300      	movs	r3, #0
    95de:	9a02      	ldr	r2, [sp, #8]
    95e0:	7013      	strb	r3, [r2, #0]
    95e2:	b01d      	add	sp, #116	; 0x74
    95e4:	bc10      	pop	{r4}
    95e6:	bc08      	pop	{r3}
    95e8:	b003      	add	sp, #12
    95ea:	4718      	bx	r3
    95ec:	7fffffff 	.word	0x7fffffff
    95f0:	2000007c 	.word	0x2000007c

000095f4 <__sflush_r>:
    95f4:	b5f7      	push	{r0, r1, r2, r4, r5, r6, r7, lr}
    95f6:	898a      	ldrh	r2, [r1, #12]
    95f8:	0005      	movs	r5, r0
    95fa:	000c      	movs	r4, r1
    95fc:	0713      	lsls	r3, r2, #28
    95fe:	d460      	bmi.n	96c2 <__sflush_r+0xce>
    9600:	684b      	ldr	r3, [r1, #4]
    9602:	2b00      	cmp	r3, #0
    9604:	dc04      	bgt.n	9610 <__sflush_r+0x1c>
    9606:	6c0b      	ldr	r3, [r1, #64]	; 0x40
    9608:	2b00      	cmp	r3, #0
    960a:	dc01      	bgt.n	9610 <__sflush_r+0x1c>
    960c:	2000      	movs	r0, #0
    960e:	bdfe      	pop	{r1, r2, r3, r4, r5, r6, r7, pc}
    9610:	6ae7      	ldr	r7, [r4, #44]	; 0x2c
    9612:	2f00      	cmp	r7, #0
    9614:	d0fa      	beq.n	960c <__sflush_r+0x18>
    9616:	2300      	movs	r3, #0
    9618:	682e      	ldr	r6, [r5, #0]
    961a:	602b      	str	r3, [r5, #0]
    961c:	2380      	movs	r3, #128	; 0x80
    961e:	015b      	lsls	r3, r3, #5
    9620:	401a      	ands	r2, r3
    9622:	d034      	beq.n	968e <__sflush_r+0x9a>
    9624:	6d60      	ldr	r0, [r4, #84]	; 0x54
    9626:	89a3      	ldrh	r3, [r4, #12]
    9628:	075b      	lsls	r3, r3, #29
    962a:	d506      	bpl.n	963a <__sflush_r+0x46>
    962c:	6863      	ldr	r3, [r4, #4]
    962e:	1ac0      	subs	r0, r0, r3
    9630:	6b63      	ldr	r3, [r4, #52]	; 0x34
    9632:	2b00      	cmp	r3, #0
    9634:	d001      	beq.n	963a <__sflush_r+0x46>
    9636:	6c23      	ldr	r3, [r4, #64]	; 0x40
    9638:	1ac0      	subs	r0, r0, r3
    963a:	0002      	movs	r2, r0
    963c:	6a21      	ldr	r1, [r4, #32]
    963e:	2300      	movs	r3, #0
    9640:	0028      	movs	r0, r5
    9642:	6ae7      	ldr	r7, [r4, #44]	; 0x2c
    9644:	47b8      	blx	r7
    9646:	89a1      	ldrh	r1, [r4, #12]
    9648:	1c43      	adds	r3, r0, #1
    964a:	d106      	bne.n	965a <__sflush_r+0x66>
    964c:	682b      	ldr	r3, [r5, #0]
    964e:	2b1d      	cmp	r3, #29
    9650:	d831      	bhi.n	96b6 <__sflush_r+0xc2>
    9652:	4a2c      	ldr	r2, [pc, #176]	; (9704 <__sflush_r+0x110>)
    9654:	40da      	lsrs	r2, r3
    9656:	07d3      	lsls	r3, r2, #31
    9658:	d52d      	bpl.n	96b6 <__sflush_r+0xc2>
    965a:	2300      	movs	r3, #0
    965c:	6063      	str	r3, [r4, #4]
    965e:	6923      	ldr	r3, [r4, #16]
    9660:	6023      	str	r3, [r4, #0]
    9662:	04cb      	lsls	r3, r1, #19
    9664:	d505      	bpl.n	9672 <__sflush_r+0x7e>
    9666:	1c43      	adds	r3, r0, #1
    9668:	d102      	bne.n	9670 <__sflush_r+0x7c>
    966a:	682b      	ldr	r3, [r5, #0]
    966c:	2b00      	cmp	r3, #0
    966e:	d100      	bne.n	9672 <__sflush_r+0x7e>
    9670:	6560      	str	r0, [r4, #84]	; 0x54
    9672:	6b61      	ldr	r1, [r4, #52]	; 0x34
    9674:	602e      	str	r6, [r5, #0]
    9676:	2900      	cmp	r1, #0
    9678:	d0c8      	beq.n	960c <__sflush_r+0x18>
    967a:	0023      	movs	r3, r4
    967c:	3344      	adds	r3, #68	; 0x44
    967e:	4299      	cmp	r1, r3
    9680:	d002      	beq.n	9688 <__sflush_r+0x94>
    9682:	0028      	movs	r0, r5
    9684:	f000 f976 	bl	9974 <_free_r>
    9688:	2000      	movs	r0, #0
    968a:	6360      	str	r0, [r4, #52]	; 0x34
    968c:	e7bf      	b.n	960e <__sflush_r+0x1a>
    968e:	2301      	movs	r3, #1
    9690:	6a21      	ldr	r1, [r4, #32]
    9692:	0028      	movs	r0, r5
    9694:	47b8      	blx	r7
    9696:	1c43      	adds	r3, r0, #1
    9698:	d1c5      	bne.n	9626 <__sflush_r+0x32>
    969a:	682b      	ldr	r3, [r5, #0]
    969c:	2b00      	cmp	r3, #0
    969e:	d0c2      	beq.n	9626 <__sflush_r+0x32>
    96a0:	2b1d      	cmp	r3, #29
    96a2:	d001      	beq.n	96a8 <__sflush_r+0xb4>
    96a4:	2b16      	cmp	r3, #22
    96a6:	d101      	bne.n	96ac <__sflush_r+0xb8>
    96a8:	602e      	str	r6, [r5, #0]
    96aa:	e7af      	b.n	960c <__sflush_r+0x18>
    96ac:	2340      	movs	r3, #64	; 0x40
    96ae:	89a2      	ldrh	r2, [r4, #12]
    96b0:	4313      	orrs	r3, r2
    96b2:	81a3      	strh	r3, [r4, #12]
    96b4:	e7ab      	b.n	960e <__sflush_r+0x1a>
    96b6:	2340      	movs	r3, #64	; 0x40
    96b8:	430b      	orrs	r3, r1
    96ba:	2001      	movs	r0, #1
    96bc:	81a3      	strh	r3, [r4, #12]
    96be:	4240      	negs	r0, r0
    96c0:	e7a5      	b.n	960e <__sflush_r+0x1a>
    96c2:	690f      	ldr	r7, [r1, #16]
    96c4:	2f00      	cmp	r7, #0
    96c6:	d0a1      	beq.n	960c <__sflush_r+0x18>
    96c8:	680b      	ldr	r3, [r1, #0]
    96ca:	600f      	str	r7, [r1, #0]
    96cc:	1bdb      	subs	r3, r3, r7
    96ce:	9301      	str	r3, [sp, #4]
    96d0:	2300      	movs	r3, #0
    96d2:	0792      	lsls	r2, r2, #30
    96d4:	d100      	bne.n	96d8 <__sflush_r+0xe4>
    96d6:	694b      	ldr	r3, [r1, #20]
    96d8:	60a3      	str	r3, [r4, #8]
    96da:	9b01      	ldr	r3, [sp, #4]
    96dc:	2b00      	cmp	r3, #0
    96de:	dc00      	bgt.n	96e2 <__sflush_r+0xee>
    96e0:	e794      	b.n	960c <__sflush_r+0x18>
    96e2:	9b01      	ldr	r3, [sp, #4]
    96e4:	003a      	movs	r2, r7
    96e6:	6a21      	ldr	r1, [r4, #32]
    96e8:	0028      	movs	r0, r5
    96ea:	6aa6      	ldr	r6, [r4, #40]	; 0x28
    96ec:	47b0      	blx	r6
    96ee:	2800      	cmp	r0, #0
    96f0:	dc03      	bgt.n	96fa <__sflush_r+0x106>
    96f2:	2340      	movs	r3, #64	; 0x40
    96f4:	89a2      	ldrh	r2, [r4, #12]
    96f6:	4313      	orrs	r3, r2
    96f8:	e7df      	b.n	96ba <__sflush_r+0xc6>
    96fa:	9b01      	ldr	r3, [sp, #4]
    96fc:	183f      	adds	r7, r7, r0
    96fe:	1a1b      	subs	r3, r3, r0
    9700:	9301      	str	r3, [sp, #4]
    9702:	e7ea      	b.n	96da <__sflush_r+0xe6>
    9704:	20400001 	.word	0x20400001

00009708 <_fflush_r>:
    9708:	690b      	ldr	r3, [r1, #16]
    970a:	b570      	push	{r4, r5, r6, lr}
    970c:	0005      	movs	r5, r0
    970e:	000c      	movs	r4, r1
    9710:	2b00      	cmp	r3, #0
    9712:	d101      	bne.n	9718 <_fflush_r+0x10>
    9714:	2000      	movs	r0, #0
    9716:	bd70      	pop	{r4, r5, r6, pc}
    9718:	2800      	cmp	r0, #0
    971a:	d004      	beq.n	9726 <_fflush_r+0x1e>
    971c:	6983      	ldr	r3, [r0, #24]
    971e:	2b00      	cmp	r3, #0
    9720:	d101      	bne.n	9726 <_fflush_r+0x1e>
    9722:	f000 f85f 	bl	97e4 <__sinit>
    9726:	4b0b      	ldr	r3, [pc, #44]	; (9754 <_fflush_r+0x4c>)
    9728:	429c      	cmp	r4, r3
    972a:	d109      	bne.n	9740 <_fflush_r+0x38>
    972c:	686c      	ldr	r4, [r5, #4]
    972e:	220c      	movs	r2, #12
    9730:	5ea3      	ldrsh	r3, [r4, r2]
    9732:	2b00      	cmp	r3, #0
    9734:	d0ee      	beq.n	9714 <_fflush_r+0xc>
    9736:	0021      	movs	r1, r4
    9738:	0028      	movs	r0, r5
    973a:	f7ff ff5b 	bl	95f4 <__sflush_r>
    973e:	e7ea      	b.n	9716 <_fflush_r+0xe>
    9740:	4b05      	ldr	r3, [pc, #20]	; (9758 <_fflush_r+0x50>)
    9742:	429c      	cmp	r4, r3
    9744:	d101      	bne.n	974a <_fflush_r+0x42>
    9746:	68ac      	ldr	r4, [r5, #8]
    9748:	e7f1      	b.n	972e <_fflush_r+0x26>
    974a:	4b04      	ldr	r3, [pc, #16]	; (975c <_fflush_r+0x54>)
    974c:	429c      	cmp	r4, r3
    974e:	d1ee      	bne.n	972e <_fflush_r+0x26>
    9750:	68ec      	ldr	r4, [r5, #12]
    9752:	e7ec      	b.n	972e <_fflush_r+0x26>
    9754:	0000a3a4 	.word	0x0000a3a4
    9758:	0000a3c4 	.word	0x0000a3c4
    975c:	0000a384 	.word	0x0000a384

00009760 <_cleanup_r>:
    9760:	b510      	push	{r4, lr}
    9762:	4902      	ldr	r1, [pc, #8]	; (976c <_cleanup_r+0xc>)
    9764:	f000 f8b2 	bl	98cc <_fwalk_reent>
    9768:	bd10      	pop	{r4, pc}
    976a:	46c0      	nop			; (mov r8, r8)
    976c:	00009709 	.word	0x00009709

00009770 <std.isra.0>:
    9770:	2300      	movs	r3, #0
    9772:	b510      	push	{r4, lr}
    9774:	0004      	movs	r4, r0
    9776:	6003      	str	r3, [r0, #0]
    9778:	6043      	str	r3, [r0, #4]
    977a:	6083      	str	r3, [r0, #8]
    977c:	8181      	strh	r1, [r0, #12]
    977e:	6643      	str	r3, [r0, #100]	; 0x64
    9780:	81c2      	strh	r2, [r0, #14]
    9782:	6103      	str	r3, [r0, #16]
    9784:	6143      	str	r3, [r0, #20]
    9786:	6183      	str	r3, [r0, #24]
    9788:	0019      	movs	r1, r3
    978a:	2208      	movs	r2, #8
    978c:	305c      	adds	r0, #92	; 0x5c
    978e:	f7ff fe15 	bl	93bc <memset>
    9792:	4b05      	ldr	r3, [pc, #20]	; (97a8 <std.isra.0+0x38>)
    9794:	6224      	str	r4, [r4, #32]
    9796:	6263      	str	r3, [r4, #36]	; 0x24
    9798:	4b04      	ldr	r3, [pc, #16]	; (97ac <std.isra.0+0x3c>)
    979a:	62a3      	str	r3, [r4, #40]	; 0x28
    979c:	4b04      	ldr	r3, [pc, #16]	; (97b0 <std.isra.0+0x40>)
    979e:	62e3      	str	r3, [r4, #44]	; 0x2c
    97a0:	4b04      	ldr	r3, [pc, #16]	; (97b4 <std.isra.0+0x44>)
    97a2:	6323      	str	r3, [r4, #48]	; 0x30
    97a4:	bd10      	pop	{r4, pc}
    97a6:	46c0      	nop			; (mov r8, r8)
    97a8:	0000a0c5 	.word	0x0000a0c5
    97ac:	0000a0ed 	.word	0x0000a0ed
    97b0:	0000a125 	.word	0x0000a125
    97b4:	0000a151 	.word	0x0000a151

000097b8 <__sfmoreglue>:
    97b8:	b570      	push	{r4, r5, r6, lr}
    97ba:	2568      	movs	r5, #104	; 0x68
    97bc:	1e4a      	subs	r2, r1, #1
    97be:	4355      	muls	r5, r2
    97c0:	000e      	movs	r6, r1
    97c2:	0029      	movs	r1, r5
    97c4:	3174      	adds	r1, #116	; 0x74
    97c6:	f000 f91f 	bl	9a08 <_malloc_r>
    97ca:	1e04      	subs	r4, r0, #0
    97cc:	d008      	beq.n	97e0 <__sfmoreglue+0x28>
    97ce:	2100      	movs	r1, #0
    97d0:	002a      	movs	r2, r5
    97d2:	6001      	str	r1, [r0, #0]
    97d4:	6046      	str	r6, [r0, #4]
    97d6:	300c      	adds	r0, #12
    97d8:	60a0      	str	r0, [r4, #8]
    97da:	3268      	adds	r2, #104	; 0x68
    97dc:	f7ff fdee 	bl	93bc <memset>
    97e0:	0020      	movs	r0, r4
    97e2:	bd70      	pop	{r4, r5, r6, pc}

000097e4 <__sinit>:
    97e4:	6983      	ldr	r3, [r0, #24]
    97e6:	b513      	push	{r0, r1, r4, lr}
    97e8:	0004      	movs	r4, r0
    97ea:	2b00      	cmp	r3, #0
    97ec:	d128      	bne.n	9840 <__sinit+0x5c>
    97ee:	6483      	str	r3, [r0, #72]	; 0x48
    97f0:	64c3      	str	r3, [r0, #76]	; 0x4c
    97f2:	6503      	str	r3, [r0, #80]	; 0x50
    97f4:	4b13      	ldr	r3, [pc, #76]	; (9844 <__sinit+0x60>)
    97f6:	4a14      	ldr	r2, [pc, #80]	; (9848 <__sinit+0x64>)
    97f8:	681b      	ldr	r3, [r3, #0]
    97fa:	6282      	str	r2, [r0, #40]	; 0x28
    97fc:	9301      	str	r3, [sp, #4]
    97fe:	4298      	cmp	r0, r3
    9800:	d101      	bne.n	9806 <__sinit+0x22>
    9802:	2301      	movs	r3, #1
    9804:	6183      	str	r3, [r0, #24]
    9806:	0020      	movs	r0, r4
    9808:	f000 f820 	bl	984c <__sfp>
    980c:	6060      	str	r0, [r4, #4]
    980e:	0020      	movs	r0, r4
    9810:	f000 f81c 	bl	984c <__sfp>
    9814:	60a0      	str	r0, [r4, #8]
    9816:	0020      	movs	r0, r4
    9818:	f000 f818 	bl	984c <__sfp>
    981c:	2200      	movs	r2, #0
    981e:	60e0      	str	r0, [r4, #12]
    9820:	2104      	movs	r1, #4
    9822:	6860      	ldr	r0, [r4, #4]
    9824:	f7ff ffa4 	bl	9770 <std.isra.0>
    9828:	2201      	movs	r2, #1
    982a:	2109      	movs	r1, #9
    982c:	68a0      	ldr	r0, [r4, #8]
    982e:	f7ff ff9f 	bl	9770 <std.isra.0>
    9832:	2202      	movs	r2, #2
    9834:	2112      	movs	r1, #18
    9836:	68e0      	ldr	r0, [r4, #12]
    9838:	f7ff ff9a 	bl	9770 <std.isra.0>
    983c:	2301      	movs	r3, #1
    983e:	61a3      	str	r3, [r4, #24]
    9840:	bd13      	pop	{r0, r1, r4, pc}
    9842:	46c0      	nop			; (mov r8, r8)
    9844:	0000a380 	.word	0x0000a380
    9848:	00009761 	.word	0x00009761

0000984c <__sfp>:
    984c:	b5f8      	push	{r3, r4, r5, r6, r7, lr}
    984e:	4b1e      	ldr	r3, [pc, #120]	; (98c8 <__sfp+0x7c>)
    9850:	0007      	movs	r7, r0
    9852:	681e      	ldr	r6, [r3, #0]
    9854:	69b3      	ldr	r3, [r6, #24]
    9856:	2b00      	cmp	r3, #0
    9858:	d102      	bne.n	9860 <__sfp+0x14>
    985a:	0030      	movs	r0, r6
    985c:	f7ff ffc2 	bl	97e4 <__sinit>
    9860:	3648      	adds	r6, #72	; 0x48
    9862:	68b4      	ldr	r4, [r6, #8]
    9864:	6873      	ldr	r3, [r6, #4]
    9866:	3b01      	subs	r3, #1
    9868:	d504      	bpl.n	9874 <__sfp+0x28>
    986a:	6833      	ldr	r3, [r6, #0]
    986c:	2b00      	cmp	r3, #0
    986e:	d007      	beq.n	9880 <__sfp+0x34>
    9870:	6836      	ldr	r6, [r6, #0]
    9872:	e7f6      	b.n	9862 <__sfp+0x16>
    9874:	220c      	movs	r2, #12
    9876:	5ea5      	ldrsh	r5, [r4, r2]
    9878:	2d00      	cmp	r5, #0
    987a:	d00d      	beq.n	9898 <__sfp+0x4c>
    987c:	3468      	adds	r4, #104	; 0x68
    987e:	e7f2      	b.n	9866 <__sfp+0x1a>
    9880:	2104      	movs	r1, #4
    9882:	0038      	movs	r0, r7
    9884:	f7ff ff98 	bl	97b8 <__sfmoreglue>
    9888:	6030      	str	r0, [r6, #0]
    988a:	2800      	cmp	r0, #0
    988c:	d1f0      	bne.n	9870 <__sfp+0x24>
    988e:	230c      	movs	r3, #12
    9890:	0004      	movs	r4, r0
    9892:	603b      	str	r3, [r7, #0]
    9894:	0020      	movs	r0, r4
    9896:	bdf8      	pop	{r3, r4, r5, r6, r7, pc}
    9898:	2301      	movs	r3, #1
    989a:	0020      	movs	r0, r4
    989c:	425b      	negs	r3, r3
    989e:	81e3      	strh	r3, [r4, #14]
    98a0:	3302      	adds	r3, #2
    98a2:	81a3      	strh	r3, [r4, #12]
    98a4:	6665      	str	r5, [r4, #100]	; 0x64
    98a6:	6025      	str	r5, [r4, #0]
    98a8:	60a5      	str	r5, [r4, #8]
    98aa:	6065      	str	r5, [r4, #4]
    98ac:	6125      	str	r5, [r4, #16]
    98ae:	6165      	str	r5, [r4, #20]
    98b0:	61a5      	str	r5, [r4, #24]
    98b2:	2208      	movs	r2, #8
    98b4:	0029      	movs	r1, r5
    98b6:	305c      	adds	r0, #92	; 0x5c
    98b8:	f7ff fd80 	bl	93bc <memset>
    98bc:	6365      	str	r5, [r4, #52]	; 0x34
    98be:	63a5      	str	r5, [r4, #56]	; 0x38
    98c0:	64a5      	str	r5, [r4, #72]	; 0x48
    98c2:	64e5      	str	r5, [r4, #76]	; 0x4c
    98c4:	e7e6      	b.n	9894 <__sfp+0x48>
    98c6:	46c0      	nop			; (mov r8, r8)
    98c8:	0000a380 	.word	0x0000a380

000098cc <_fwalk_reent>:
    98cc:	b5f7      	push	{r0, r1, r2, r4, r5, r6, r7, lr}
    98ce:	0004      	movs	r4, r0
    98d0:	0007      	movs	r7, r0
    98d2:	2600      	movs	r6, #0
    98d4:	9101      	str	r1, [sp, #4]
    98d6:	3448      	adds	r4, #72	; 0x48
    98d8:	2c00      	cmp	r4, #0
    98da:	d101      	bne.n	98e0 <_fwalk_reent+0x14>
    98dc:	0030      	movs	r0, r6
    98de:	bdfe      	pop	{r1, r2, r3, r4, r5, r6, r7, pc}
    98e0:	6863      	ldr	r3, [r4, #4]
    98e2:	68a5      	ldr	r5, [r4, #8]
    98e4:	9300      	str	r3, [sp, #0]
    98e6:	9b00      	ldr	r3, [sp, #0]
    98e8:	3b01      	subs	r3, #1
    98ea:	9300      	str	r3, [sp, #0]
    98ec:	d501      	bpl.n	98f2 <_fwalk_reent+0x26>
    98ee:	6824      	ldr	r4, [r4, #0]
    98f0:	e7f2      	b.n	98d8 <_fwalk_reent+0xc>
    98f2:	89ab      	ldrh	r3, [r5, #12]
    98f4:	2b01      	cmp	r3, #1
    98f6:	d908      	bls.n	990a <_fwalk_reent+0x3e>
    98f8:	220e      	movs	r2, #14
    98fa:	5eab      	ldrsh	r3, [r5, r2]
    98fc:	3301      	adds	r3, #1
    98fe:	d004      	beq.n	990a <_fwalk_reent+0x3e>
    9900:	0029      	movs	r1, r5
    9902:	0038      	movs	r0, r7
    9904:	9b01      	ldr	r3, [sp, #4]
    9906:	4798      	blx	r3
    9908:	4306      	orrs	r6, r0
    990a:	3568      	adds	r5, #104	; 0x68
    990c:	e7eb      	b.n	98e6 <_fwalk_reent+0x1a>
	...

00009910 <__swhatbuf_r>:
    9910:	b570      	push	{r4, r5, r6, lr}
    9912:	000e      	movs	r6, r1
    9914:	001d      	movs	r5, r3
    9916:	230e      	movs	r3, #14
    9918:	5ec9      	ldrsh	r1, [r1, r3]
    991a:	b090      	sub	sp, #64	; 0x40
    991c:	0014      	movs	r4, r2
    991e:	2900      	cmp	r1, #0
    9920:	da07      	bge.n	9932 <__swhatbuf_r+0x22>
    9922:	2300      	movs	r3, #0
    9924:	602b      	str	r3, [r5, #0]
    9926:	89b3      	ldrh	r3, [r6, #12]
    9928:	061b      	lsls	r3, r3, #24
    992a:	d411      	bmi.n	9950 <__swhatbuf_r+0x40>
    992c:	2380      	movs	r3, #128	; 0x80
    992e:	00db      	lsls	r3, r3, #3
    9930:	e00f      	b.n	9952 <__swhatbuf_r+0x42>
    9932:	aa01      	add	r2, sp, #4
    9934:	f000 fc38 	bl	a1a8 <_fstat_r>
    9938:	2800      	cmp	r0, #0
    993a:	dbf2      	blt.n	9922 <__swhatbuf_r+0x12>
    993c:	22f0      	movs	r2, #240	; 0xf0
    993e:	9b02      	ldr	r3, [sp, #8]
    9940:	0212      	lsls	r2, r2, #8
    9942:	4013      	ands	r3, r2
    9944:	4a05      	ldr	r2, [pc, #20]	; (995c <__swhatbuf_r+0x4c>)
    9946:	189b      	adds	r3, r3, r2
    9948:	425a      	negs	r2, r3
    994a:	4153      	adcs	r3, r2
    994c:	602b      	str	r3, [r5, #0]
    994e:	e7ed      	b.n	992c <__swhatbuf_r+0x1c>
    9950:	2340      	movs	r3, #64	; 0x40
    9952:	2000      	movs	r0, #0
    9954:	6023      	str	r3, [r4, #0]
    9956:	b010      	add	sp, #64	; 0x40
    9958:	bd70      	pop	{r4, r5, r6, pc}
    995a:	46c0      	nop			; (mov r8, r8)
    995c:	ffffe000 	.word	0xffffe000

00009960 <malloc>:
    9960:	b510      	push	{r4, lr}
    9962:	4b03      	ldr	r3, [pc, #12]	; (9970 <malloc+0x10>)
    9964:	0001      	movs	r1, r0
    9966:	6818      	ldr	r0, [r3, #0]
    9968:	f000 f84e 	bl	9a08 <_malloc_r>
    996c:	bd10      	pop	{r4, pc}
    996e:	46c0      	nop			; (mov r8, r8)
    9970:	2000007c 	.word	0x2000007c

00009974 <_free_r>:
    9974:	b570      	push	{r4, r5, r6, lr}
    9976:	0005      	movs	r5, r0
    9978:	2900      	cmp	r1, #0
    997a:	d010      	beq.n	999e <_free_r+0x2a>
    997c:	1f0c      	subs	r4, r1, #4
    997e:	6823      	ldr	r3, [r4, #0]
    9980:	2b00      	cmp	r3, #0
    9982:	da00      	bge.n	9986 <_free_r+0x12>
    9984:	18e4      	adds	r4, r4, r3
    9986:	0028      	movs	r0, r5
    9988:	f000 fc51 	bl	a22e <__malloc_lock>
    998c:	4a1d      	ldr	r2, [pc, #116]	; (9a04 <_free_r+0x90>)
    998e:	6813      	ldr	r3, [r2, #0]
    9990:	2b00      	cmp	r3, #0
    9992:	d105      	bne.n	99a0 <_free_r+0x2c>
    9994:	6063      	str	r3, [r4, #4]
    9996:	6014      	str	r4, [r2, #0]
    9998:	0028      	movs	r0, r5
    999a:	f000 fc49 	bl	a230 <__malloc_unlock>
    999e:	bd70      	pop	{r4, r5, r6, pc}
    99a0:	42a3      	cmp	r3, r4
    99a2:	d909      	bls.n	99b8 <_free_r+0x44>
    99a4:	6821      	ldr	r1, [r4, #0]
    99a6:	1860      	adds	r0, r4, r1
    99a8:	4283      	cmp	r3, r0
    99aa:	d1f3      	bne.n	9994 <_free_r+0x20>
    99ac:	6818      	ldr	r0, [r3, #0]
    99ae:	685b      	ldr	r3, [r3, #4]
    99b0:	1841      	adds	r1, r0, r1
    99b2:	6021      	str	r1, [r4, #0]
    99b4:	e7ee      	b.n	9994 <_free_r+0x20>
    99b6:	0013      	movs	r3, r2
    99b8:	685a      	ldr	r2, [r3, #4]
    99ba:	2a00      	cmp	r2, #0
    99bc:	d001      	beq.n	99c2 <_free_r+0x4e>
    99be:	42a2      	cmp	r2, r4
    99c0:	d9f9      	bls.n	99b6 <_free_r+0x42>
    99c2:	6819      	ldr	r1, [r3, #0]
    99c4:	1858      	adds	r0, r3, r1
    99c6:	42a0      	cmp	r0, r4
    99c8:	d10b      	bne.n	99e2 <_free_r+0x6e>
    99ca:	6820      	ldr	r0, [r4, #0]
    99cc:	1809      	adds	r1, r1, r0
    99ce:	1858      	adds	r0, r3, r1
    99d0:	6019      	str	r1, [r3, #0]
    99d2:	4282      	cmp	r2, r0
    99d4:	d1e0      	bne.n	9998 <_free_r+0x24>
    99d6:	6810      	ldr	r0, [r2, #0]
    99d8:	6852      	ldr	r2, [r2, #4]
    99da:	1841      	adds	r1, r0, r1
    99dc:	6019      	str	r1, [r3, #0]
    99de:	605a      	str	r2, [r3, #4]
    99e0:	e7da      	b.n	9998 <_free_r+0x24>
    99e2:	42a0      	cmp	r0, r4
    99e4:	d902      	bls.n	99ec <_free_r+0x78>
    99e6:	230c      	movs	r3, #12
    99e8:	602b      	str	r3, [r5, #0]
    99ea:	e7d5      	b.n	9998 <_free_r+0x24>
    99ec:	6821      	ldr	r1, [r4, #0]
    99ee:	1860      	adds	r0, r4, r1
    99f0:	4282      	cmp	r2, r0
    99f2:	d103      	bne.n	99fc <_free_r+0x88>
    99f4:	6810      	ldr	r0, [r2, #0]
    99f6:	6852      	ldr	r2, [r2, #4]
    99f8:	1841      	adds	r1, r0, r1
    99fa:	6021      	str	r1, [r4, #0]
    99fc:	6062      	str	r2, [r4, #4]
    99fe:	605c      	str	r4, [r3, #4]
    9a00:	e7ca      	b.n	9998 <_free_r+0x24>
    9a02:	46c0      	nop			; (mov r8, r8)
    9a04:	200003b8 	.word	0x200003b8

00009a08 <_malloc_r>:
    9a08:	2303      	movs	r3, #3
    9a0a:	b570      	push	{r4, r5, r6, lr}
    9a0c:	1ccd      	adds	r5, r1, #3
    9a0e:	439d      	bics	r5, r3
    9a10:	3508      	adds	r5, #8
    9a12:	0006      	movs	r6, r0
    9a14:	2d0c      	cmp	r5, #12
    9a16:	d21e      	bcs.n	9a56 <_malloc_r+0x4e>
    9a18:	250c      	movs	r5, #12
    9a1a:	42a9      	cmp	r1, r5
    9a1c:	d81d      	bhi.n	9a5a <_malloc_r+0x52>
    9a1e:	0030      	movs	r0, r6
    9a20:	f000 fc05 	bl	a22e <__malloc_lock>
    9a24:	4a25      	ldr	r2, [pc, #148]	; (9abc <_malloc_r+0xb4>)
    9a26:	6814      	ldr	r4, [r2, #0]
    9a28:	0021      	movs	r1, r4
    9a2a:	2900      	cmp	r1, #0
    9a2c:	d119      	bne.n	9a62 <_malloc_r+0x5a>
    9a2e:	4c24      	ldr	r4, [pc, #144]	; (9ac0 <_malloc_r+0xb8>)
    9a30:	6823      	ldr	r3, [r4, #0]
    9a32:	2b00      	cmp	r3, #0
    9a34:	d103      	bne.n	9a3e <_malloc_r+0x36>
    9a36:	0030      	movs	r0, r6
    9a38:	f000 fb32 	bl	a0a0 <_sbrk_r>
    9a3c:	6020      	str	r0, [r4, #0]
    9a3e:	0029      	movs	r1, r5
    9a40:	0030      	movs	r0, r6
    9a42:	f000 fb2d 	bl	a0a0 <_sbrk_r>
    9a46:	1c43      	adds	r3, r0, #1
    9a48:	d12c      	bne.n	9aa4 <_malloc_r+0x9c>
    9a4a:	230c      	movs	r3, #12
    9a4c:	0030      	movs	r0, r6
    9a4e:	6033      	str	r3, [r6, #0]
    9a50:	f000 fbee 	bl	a230 <__malloc_unlock>
    9a54:	e003      	b.n	9a5e <_malloc_r+0x56>
    9a56:	2d00      	cmp	r5, #0
    9a58:	dadf      	bge.n	9a1a <_malloc_r+0x12>
    9a5a:	230c      	movs	r3, #12
    9a5c:	6033      	str	r3, [r6, #0]
    9a5e:	2000      	movs	r0, #0
    9a60:	bd70      	pop	{r4, r5, r6, pc}
    9a62:	680b      	ldr	r3, [r1, #0]
    9a64:	1b5b      	subs	r3, r3, r5
    9a66:	d41a      	bmi.n	9a9e <_malloc_r+0x96>
    9a68:	2b0b      	cmp	r3, #11
    9a6a:	d903      	bls.n	9a74 <_malloc_r+0x6c>
    9a6c:	600b      	str	r3, [r1, #0]
    9a6e:	18cc      	adds	r4, r1, r3
    9a70:	6025      	str	r5, [r4, #0]
    9a72:	e003      	b.n	9a7c <_malloc_r+0x74>
    9a74:	428c      	cmp	r4, r1
    9a76:	d10e      	bne.n	9a96 <_malloc_r+0x8e>
    9a78:	6863      	ldr	r3, [r4, #4]
    9a7a:	6013      	str	r3, [r2, #0]
    9a7c:	0030      	movs	r0, r6
    9a7e:	f000 fbd7 	bl	a230 <__malloc_unlock>
    9a82:	0020      	movs	r0, r4
    9a84:	2207      	movs	r2, #7
    9a86:	300b      	adds	r0, #11
    9a88:	1d23      	adds	r3, r4, #4
    9a8a:	4390      	bics	r0, r2
    9a8c:	1ac3      	subs	r3, r0, r3
    9a8e:	d0e7      	beq.n	9a60 <_malloc_r+0x58>
    9a90:	425a      	negs	r2, r3
    9a92:	50e2      	str	r2, [r4, r3]
    9a94:	e7e4      	b.n	9a60 <_malloc_r+0x58>
    9a96:	684b      	ldr	r3, [r1, #4]
    9a98:	6063      	str	r3, [r4, #4]
    9a9a:	000c      	movs	r4, r1
    9a9c:	e7ee      	b.n	9a7c <_malloc_r+0x74>
    9a9e:	000c      	movs	r4, r1
    9aa0:	6849      	ldr	r1, [r1, #4]
    9aa2:	e7c2      	b.n	9a2a <_malloc_r+0x22>
    9aa4:	2303      	movs	r3, #3
    9aa6:	1cc4      	adds	r4, r0, #3
    9aa8:	439c      	bics	r4, r3
    9aaa:	42a0      	cmp	r0, r4
    9aac:	d0e0      	beq.n	9a70 <_malloc_r+0x68>
    9aae:	1a21      	subs	r1, r4, r0
    9ab0:	0030      	movs	r0, r6
    9ab2:	f000 faf5 	bl	a0a0 <_sbrk_r>
    9ab6:	1c43      	adds	r3, r0, #1
    9ab8:	d1da      	bne.n	9a70 <_malloc_r+0x68>
    9aba:	e7c6      	b.n	9a4a <_malloc_r+0x42>
    9abc:	200003b8 	.word	0x200003b8
    9ac0:	200003bc 	.word	0x200003bc

00009ac4 <__ssputs_r>:
    9ac4:	b5f0      	push	{r4, r5, r6, r7, lr}
    9ac6:	688e      	ldr	r6, [r1, #8]
    9ac8:	b085      	sub	sp, #20
    9aca:	0007      	movs	r7, r0
    9acc:	000c      	movs	r4, r1
    9ace:	9203      	str	r2, [sp, #12]
    9ad0:	9301      	str	r3, [sp, #4]
    9ad2:	429e      	cmp	r6, r3
    9ad4:	d839      	bhi.n	9b4a <__ssputs_r+0x86>
    9ad6:	2390      	movs	r3, #144	; 0x90
    9ad8:	898a      	ldrh	r2, [r1, #12]
    9ada:	00db      	lsls	r3, r3, #3
    9adc:	421a      	tst	r2, r3
    9ade:	d034      	beq.n	9b4a <__ssputs_r+0x86>
    9ae0:	2503      	movs	r5, #3
    9ae2:	6909      	ldr	r1, [r1, #16]
    9ae4:	6823      	ldr	r3, [r4, #0]
    9ae6:	1a5b      	subs	r3, r3, r1
    9ae8:	9302      	str	r3, [sp, #8]
    9aea:	6963      	ldr	r3, [r4, #20]
    9aec:	9802      	ldr	r0, [sp, #8]
    9aee:	435d      	muls	r5, r3
    9af0:	0feb      	lsrs	r3, r5, #31
    9af2:	195d      	adds	r5, r3, r5
    9af4:	9b01      	ldr	r3, [sp, #4]
    9af6:	106d      	asrs	r5, r5, #1
    9af8:	3301      	adds	r3, #1
    9afa:	181b      	adds	r3, r3, r0
    9afc:	42ab      	cmp	r3, r5
    9afe:	d900      	bls.n	9b02 <__ssputs_r+0x3e>
    9b00:	001d      	movs	r5, r3
    9b02:	0553      	lsls	r3, r2, #21
    9b04:	d532      	bpl.n	9b6c <__ssputs_r+0xa8>
    9b06:	0029      	movs	r1, r5
    9b08:	0038      	movs	r0, r7
    9b0a:	f7ff ff7d 	bl	9a08 <_malloc_r>
    9b0e:	1e06      	subs	r6, r0, #0
    9b10:	d109      	bne.n	9b26 <__ssputs_r+0x62>
    9b12:	230c      	movs	r3, #12
    9b14:	603b      	str	r3, [r7, #0]
    9b16:	2340      	movs	r3, #64	; 0x40
    9b18:	2001      	movs	r0, #1
    9b1a:	89a2      	ldrh	r2, [r4, #12]
    9b1c:	4240      	negs	r0, r0
    9b1e:	4313      	orrs	r3, r2
    9b20:	81a3      	strh	r3, [r4, #12]
    9b22:	b005      	add	sp, #20
    9b24:	bdf0      	pop	{r4, r5, r6, r7, pc}
    9b26:	9a02      	ldr	r2, [sp, #8]
    9b28:	6921      	ldr	r1, [r4, #16]
    9b2a:	f7ff fc3e 	bl	93aa <memcpy>
    9b2e:	89a3      	ldrh	r3, [r4, #12]
    9b30:	4a14      	ldr	r2, [pc, #80]	; (9b84 <__ssputs_r+0xc0>)
    9b32:	401a      	ands	r2, r3
    9b34:	2380      	movs	r3, #128	; 0x80
    9b36:	4313      	orrs	r3, r2
    9b38:	81a3      	strh	r3, [r4, #12]
    9b3a:	9b02      	ldr	r3, [sp, #8]
    9b3c:	6126      	str	r6, [r4, #16]
    9b3e:	18f6      	adds	r6, r6, r3
    9b40:	6026      	str	r6, [r4, #0]
    9b42:	6165      	str	r5, [r4, #20]
    9b44:	9e01      	ldr	r6, [sp, #4]
    9b46:	1aed      	subs	r5, r5, r3
    9b48:	60a5      	str	r5, [r4, #8]
    9b4a:	9b01      	ldr	r3, [sp, #4]
    9b4c:	42b3      	cmp	r3, r6
    9b4e:	d200      	bcs.n	9b52 <__ssputs_r+0x8e>
    9b50:	001e      	movs	r6, r3
    9b52:	0032      	movs	r2, r6
    9b54:	9903      	ldr	r1, [sp, #12]
    9b56:	6820      	ldr	r0, [r4, #0]
    9b58:	f000 fb57 	bl	a20a <memmove>
    9b5c:	68a3      	ldr	r3, [r4, #8]
    9b5e:	2000      	movs	r0, #0
    9b60:	1b9b      	subs	r3, r3, r6
    9b62:	60a3      	str	r3, [r4, #8]
    9b64:	6823      	ldr	r3, [r4, #0]
    9b66:	199e      	adds	r6, r3, r6
    9b68:	6026      	str	r6, [r4, #0]
    9b6a:	e7da      	b.n	9b22 <__ssputs_r+0x5e>
    9b6c:	002a      	movs	r2, r5
    9b6e:	0038      	movs	r0, r7
    9b70:	f000 fb5f 	bl	a232 <_realloc_r>
    9b74:	1e06      	subs	r6, r0, #0
    9b76:	d1e0      	bne.n	9b3a <__ssputs_r+0x76>
    9b78:	6921      	ldr	r1, [r4, #16]
    9b7a:	0038      	movs	r0, r7
    9b7c:	f7ff fefa 	bl	9974 <_free_r>
    9b80:	e7c7      	b.n	9b12 <__ssputs_r+0x4e>
    9b82:	46c0      	nop			; (mov r8, r8)
    9b84:	fffffb7f 	.word	0xfffffb7f

00009b88 <_svfiprintf_r>:
    9b88:	b5f0      	push	{r4, r5, r6, r7, lr}
    9b8a:	b09f      	sub	sp, #124	; 0x7c
    9b8c:	9002      	str	r0, [sp, #8]
    9b8e:	9305      	str	r3, [sp, #20]
    9b90:	898b      	ldrh	r3, [r1, #12]
    9b92:	000f      	movs	r7, r1
    9b94:	0016      	movs	r6, r2
    9b96:	061b      	lsls	r3, r3, #24
    9b98:	d511      	bpl.n	9bbe <_svfiprintf_r+0x36>
    9b9a:	690b      	ldr	r3, [r1, #16]
    9b9c:	2b00      	cmp	r3, #0
    9b9e:	d10e      	bne.n	9bbe <_svfiprintf_r+0x36>
    9ba0:	2140      	movs	r1, #64	; 0x40
    9ba2:	f7ff ff31 	bl	9a08 <_malloc_r>
    9ba6:	6038      	str	r0, [r7, #0]
    9ba8:	6138      	str	r0, [r7, #16]
    9baa:	2800      	cmp	r0, #0
    9bac:	d105      	bne.n	9bba <_svfiprintf_r+0x32>
    9bae:	230c      	movs	r3, #12
    9bb0:	9a02      	ldr	r2, [sp, #8]
    9bb2:	3801      	subs	r0, #1
    9bb4:	6013      	str	r3, [r2, #0]
    9bb6:	b01f      	add	sp, #124	; 0x7c
    9bb8:	bdf0      	pop	{r4, r5, r6, r7, pc}
    9bba:	2340      	movs	r3, #64	; 0x40
    9bbc:	617b      	str	r3, [r7, #20]
    9bbe:	2300      	movs	r3, #0
    9bc0:	ad06      	add	r5, sp, #24
    9bc2:	616b      	str	r3, [r5, #20]
    9bc4:	3320      	adds	r3, #32
    9bc6:	766b      	strb	r3, [r5, #25]
    9bc8:	3310      	adds	r3, #16
    9bca:	76ab      	strb	r3, [r5, #26]
    9bcc:	0034      	movs	r4, r6
    9bce:	7823      	ldrb	r3, [r4, #0]
    9bd0:	2b00      	cmp	r3, #0
    9bd2:	d147      	bne.n	9c64 <_svfiprintf_r+0xdc>
    9bd4:	1ba3      	subs	r3, r4, r6
    9bd6:	9304      	str	r3, [sp, #16]
    9bd8:	d00d      	beq.n	9bf6 <_svfiprintf_r+0x6e>
    9bda:	1ba3      	subs	r3, r4, r6
    9bdc:	0032      	movs	r2, r6
    9bde:	0039      	movs	r1, r7
    9be0:	9802      	ldr	r0, [sp, #8]
    9be2:	f7ff ff6f 	bl	9ac4 <__ssputs_r>
    9be6:	1c43      	adds	r3, r0, #1
    9be8:	d100      	bne.n	9bec <_svfiprintf_r+0x64>
    9bea:	e0b5      	b.n	9d58 <_svfiprintf_r+0x1d0>
    9bec:	696a      	ldr	r2, [r5, #20]
    9bee:	9b04      	ldr	r3, [sp, #16]
    9bf0:	4694      	mov	ip, r2
    9bf2:	4463      	add	r3, ip
    9bf4:	616b      	str	r3, [r5, #20]
    9bf6:	7823      	ldrb	r3, [r4, #0]
    9bf8:	2b00      	cmp	r3, #0
    9bfa:	d100      	bne.n	9bfe <_svfiprintf_r+0x76>
    9bfc:	e0ac      	b.n	9d58 <_svfiprintf_r+0x1d0>
    9bfe:	2201      	movs	r2, #1
    9c00:	2300      	movs	r3, #0
    9c02:	4252      	negs	r2, r2
    9c04:	606a      	str	r2, [r5, #4]
    9c06:	a902      	add	r1, sp, #8
    9c08:	3254      	adds	r2, #84	; 0x54
    9c0a:	1852      	adds	r2, r2, r1
    9c0c:	3401      	adds	r4, #1
    9c0e:	602b      	str	r3, [r5, #0]
    9c10:	60eb      	str	r3, [r5, #12]
    9c12:	60ab      	str	r3, [r5, #8]
    9c14:	7013      	strb	r3, [r2, #0]
    9c16:	65ab      	str	r3, [r5, #88]	; 0x58
    9c18:	4e58      	ldr	r6, [pc, #352]	; (9d7c <_svfiprintf_r+0x1f4>)
    9c1a:	2205      	movs	r2, #5
    9c1c:	7821      	ldrb	r1, [r4, #0]
    9c1e:	0030      	movs	r0, r6
    9c20:	f000 fae8 	bl	a1f4 <memchr>
    9c24:	1c62      	adds	r2, r4, #1
    9c26:	2800      	cmp	r0, #0
    9c28:	d120      	bne.n	9c6c <_svfiprintf_r+0xe4>
    9c2a:	6829      	ldr	r1, [r5, #0]
    9c2c:	06cb      	lsls	r3, r1, #27
    9c2e:	d504      	bpl.n	9c3a <_svfiprintf_r+0xb2>
    9c30:	2353      	movs	r3, #83	; 0x53
    9c32:	ae02      	add	r6, sp, #8
    9c34:	3020      	adds	r0, #32
    9c36:	199b      	adds	r3, r3, r6
    9c38:	7018      	strb	r0, [r3, #0]
    9c3a:	070b      	lsls	r3, r1, #28
    9c3c:	d504      	bpl.n	9c48 <_svfiprintf_r+0xc0>
    9c3e:	2353      	movs	r3, #83	; 0x53
    9c40:	202b      	movs	r0, #43	; 0x2b
    9c42:	ae02      	add	r6, sp, #8
    9c44:	199b      	adds	r3, r3, r6
    9c46:	7018      	strb	r0, [r3, #0]
    9c48:	7823      	ldrb	r3, [r4, #0]
    9c4a:	2b2a      	cmp	r3, #42	; 0x2a
    9c4c:	d016      	beq.n	9c7c <_svfiprintf_r+0xf4>
    9c4e:	2000      	movs	r0, #0
    9c50:	210a      	movs	r1, #10
    9c52:	9b09      	ldr	r3, [sp, #36]	; 0x24
    9c54:	7822      	ldrb	r2, [r4, #0]
    9c56:	3a30      	subs	r2, #48	; 0x30
    9c58:	2a09      	cmp	r2, #9
    9c5a:	d955      	bls.n	9d08 <_svfiprintf_r+0x180>
    9c5c:	2800      	cmp	r0, #0
    9c5e:	d015      	beq.n	9c8c <_svfiprintf_r+0x104>
    9c60:	9309      	str	r3, [sp, #36]	; 0x24
    9c62:	e013      	b.n	9c8c <_svfiprintf_r+0x104>
    9c64:	2b25      	cmp	r3, #37	; 0x25
    9c66:	d0b5      	beq.n	9bd4 <_svfiprintf_r+0x4c>
    9c68:	3401      	adds	r4, #1
    9c6a:	e7b0      	b.n	9bce <_svfiprintf_r+0x46>
    9c6c:	2301      	movs	r3, #1
    9c6e:	1b80      	subs	r0, r0, r6
    9c70:	4083      	lsls	r3, r0
    9c72:	6829      	ldr	r1, [r5, #0]
    9c74:	0014      	movs	r4, r2
    9c76:	430b      	orrs	r3, r1
    9c78:	602b      	str	r3, [r5, #0]
    9c7a:	e7cd      	b.n	9c18 <_svfiprintf_r+0x90>
    9c7c:	9b05      	ldr	r3, [sp, #20]
    9c7e:	1d18      	adds	r0, r3, #4
    9c80:	681b      	ldr	r3, [r3, #0]
    9c82:	9005      	str	r0, [sp, #20]
    9c84:	2b00      	cmp	r3, #0
    9c86:	db39      	blt.n	9cfc <_svfiprintf_r+0x174>
    9c88:	9309      	str	r3, [sp, #36]	; 0x24
    9c8a:	0014      	movs	r4, r2
    9c8c:	7823      	ldrb	r3, [r4, #0]
    9c8e:	2b2e      	cmp	r3, #46	; 0x2e
    9c90:	d10b      	bne.n	9caa <_svfiprintf_r+0x122>
    9c92:	7863      	ldrb	r3, [r4, #1]
    9c94:	1c62      	adds	r2, r4, #1
    9c96:	2b2a      	cmp	r3, #42	; 0x2a
    9c98:	d13e      	bne.n	9d18 <_svfiprintf_r+0x190>
    9c9a:	9b05      	ldr	r3, [sp, #20]
    9c9c:	3402      	adds	r4, #2
    9c9e:	1d1a      	adds	r2, r3, #4
    9ca0:	681b      	ldr	r3, [r3, #0]
    9ca2:	9205      	str	r2, [sp, #20]
    9ca4:	2b00      	cmp	r3, #0
    9ca6:	db34      	blt.n	9d12 <_svfiprintf_r+0x18a>
    9ca8:	9307      	str	r3, [sp, #28]
    9caa:	4e35      	ldr	r6, [pc, #212]	; (9d80 <_svfiprintf_r+0x1f8>)
    9cac:	7821      	ldrb	r1, [r4, #0]
    9cae:	2203      	movs	r2, #3
    9cb0:	0030      	movs	r0, r6
    9cb2:	f000 fa9f 	bl	a1f4 <memchr>
    9cb6:	2800      	cmp	r0, #0
    9cb8:	d006      	beq.n	9cc8 <_svfiprintf_r+0x140>
    9cba:	2340      	movs	r3, #64	; 0x40
    9cbc:	1b80      	subs	r0, r0, r6
    9cbe:	4083      	lsls	r3, r0
    9cc0:	682a      	ldr	r2, [r5, #0]
    9cc2:	3401      	adds	r4, #1
    9cc4:	4313      	orrs	r3, r2
    9cc6:	602b      	str	r3, [r5, #0]
    9cc8:	7821      	ldrb	r1, [r4, #0]
    9cca:	2206      	movs	r2, #6
    9ccc:	482d      	ldr	r0, [pc, #180]	; (9d84 <_svfiprintf_r+0x1fc>)
    9cce:	1c66      	adds	r6, r4, #1
    9cd0:	7629      	strb	r1, [r5, #24]
    9cd2:	f000 fa8f 	bl	a1f4 <memchr>
    9cd6:	2800      	cmp	r0, #0
    9cd8:	d046      	beq.n	9d68 <_svfiprintf_r+0x1e0>
    9cda:	4b2b      	ldr	r3, [pc, #172]	; (9d88 <_svfiprintf_r+0x200>)
    9cdc:	2b00      	cmp	r3, #0
    9cde:	d12f      	bne.n	9d40 <_svfiprintf_r+0x1b8>
    9ce0:	6829      	ldr	r1, [r5, #0]
    9ce2:	9b05      	ldr	r3, [sp, #20]
    9ce4:	2207      	movs	r2, #7
    9ce6:	05c9      	lsls	r1, r1, #23
    9ce8:	d528      	bpl.n	9d3c <_svfiprintf_r+0x1b4>
    9cea:	189b      	adds	r3, r3, r2
    9cec:	4393      	bics	r3, r2
    9cee:	3308      	adds	r3, #8
    9cf0:	9305      	str	r3, [sp, #20]
    9cf2:	696b      	ldr	r3, [r5, #20]
    9cf4:	9a03      	ldr	r2, [sp, #12]
    9cf6:	189b      	adds	r3, r3, r2
    9cf8:	616b      	str	r3, [r5, #20]
    9cfa:	e767      	b.n	9bcc <_svfiprintf_r+0x44>
    9cfc:	425b      	negs	r3, r3
    9cfe:	60eb      	str	r3, [r5, #12]
    9d00:	2302      	movs	r3, #2
    9d02:	430b      	orrs	r3, r1
    9d04:	602b      	str	r3, [r5, #0]
    9d06:	e7c0      	b.n	9c8a <_svfiprintf_r+0x102>
    9d08:	434b      	muls	r3, r1
    9d0a:	3401      	adds	r4, #1
    9d0c:	189b      	adds	r3, r3, r2
    9d0e:	2001      	movs	r0, #1
    9d10:	e7a0      	b.n	9c54 <_svfiprintf_r+0xcc>
    9d12:	2301      	movs	r3, #1
    9d14:	425b      	negs	r3, r3
    9d16:	e7c7      	b.n	9ca8 <_svfiprintf_r+0x120>
    9d18:	2300      	movs	r3, #0
    9d1a:	0014      	movs	r4, r2
    9d1c:	200a      	movs	r0, #10
    9d1e:	001a      	movs	r2, r3
    9d20:	606b      	str	r3, [r5, #4]
    9d22:	7821      	ldrb	r1, [r4, #0]
    9d24:	3930      	subs	r1, #48	; 0x30
    9d26:	2909      	cmp	r1, #9
    9d28:	d903      	bls.n	9d32 <_svfiprintf_r+0x1aa>
    9d2a:	2b00      	cmp	r3, #0
    9d2c:	d0bd      	beq.n	9caa <_svfiprintf_r+0x122>
    9d2e:	9207      	str	r2, [sp, #28]
    9d30:	e7bb      	b.n	9caa <_svfiprintf_r+0x122>
    9d32:	4342      	muls	r2, r0
    9d34:	3401      	adds	r4, #1
    9d36:	1852      	adds	r2, r2, r1
    9d38:	2301      	movs	r3, #1
    9d3a:	e7f2      	b.n	9d22 <_svfiprintf_r+0x19a>
    9d3c:	3307      	adds	r3, #7
    9d3e:	e7d5      	b.n	9cec <_svfiprintf_r+0x164>
    9d40:	ab05      	add	r3, sp, #20
    9d42:	9300      	str	r3, [sp, #0]
    9d44:	003a      	movs	r2, r7
    9d46:	4b11      	ldr	r3, [pc, #68]	; (9d8c <_svfiprintf_r+0x204>)
    9d48:	0029      	movs	r1, r5
    9d4a:	9802      	ldr	r0, [sp, #8]
    9d4c:	e000      	b.n	9d50 <_svfiprintf_r+0x1c8>
    9d4e:	bf00      	nop
    9d50:	9003      	str	r0, [sp, #12]
    9d52:	9b03      	ldr	r3, [sp, #12]
    9d54:	3301      	adds	r3, #1
    9d56:	d1cc      	bne.n	9cf2 <_svfiprintf_r+0x16a>
    9d58:	89bb      	ldrh	r3, [r7, #12]
    9d5a:	980b      	ldr	r0, [sp, #44]	; 0x2c
    9d5c:	065b      	lsls	r3, r3, #25
    9d5e:	d400      	bmi.n	9d62 <_svfiprintf_r+0x1da>
    9d60:	e729      	b.n	9bb6 <_svfiprintf_r+0x2e>
    9d62:	2001      	movs	r0, #1
    9d64:	4240      	negs	r0, r0
    9d66:	e726      	b.n	9bb6 <_svfiprintf_r+0x2e>
    9d68:	ab05      	add	r3, sp, #20
    9d6a:	9300      	str	r3, [sp, #0]
    9d6c:	003a      	movs	r2, r7
    9d6e:	4b07      	ldr	r3, [pc, #28]	; (9d8c <_svfiprintf_r+0x204>)
    9d70:	0029      	movs	r1, r5
    9d72:	9802      	ldr	r0, [sp, #8]
    9d74:	f000 f87a 	bl	9e6c <_printf_i>
    9d78:	e7ea      	b.n	9d50 <_svfiprintf_r+0x1c8>
    9d7a:	46c0      	nop			; (mov r8, r8)
    9d7c:	0000a3e4 	.word	0x0000a3e4
    9d80:	0000a3ea 	.word	0x0000a3ea
    9d84:	0000a3ee 	.word	0x0000a3ee
    9d88:	00000000 	.word	0x00000000
    9d8c:	00009ac5 	.word	0x00009ac5

00009d90 <_printf_common>:
    9d90:	b5f7      	push	{r0, r1, r2, r4, r5, r6, r7, lr}
    9d92:	0015      	movs	r5, r2
    9d94:	9301      	str	r3, [sp, #4]
    9d96:	688a      	ldr	r2, [r1, #8]
    9d98:	690b      	ldr	r3, [r1, #16]
    9d9a:	9000      	str	r0, [sp, #0]
    9d9c:	000c      	movs	r4, r1
    9d9e:	4293      	cmp	r3, r2
    9da0:	da00      	bge.n	9da4 <_printf_common+0x14>
    9da2:	0013      	movs	r3, r2
    9da4:	0022      	movs	r2, r4
    9da6:	602b      	str	r3, [r5, #0]
    9da8:	3243      	adds	r2, #67	; 0x43
    9daa:	7812      	ldrb	r2, [r2, #0]
    9dac:	2a00      	cmp	r2, #0
    9dae:	d001      	beq.n	9db4 <_printf_common+0x24>
    9db0:	3301      	adds	r3, #1
    9db2:	602b      	str	r3, [r5, #0]
    9db4:	6823      	ldr	r3, [r4, #0]
    9db6:	069b      	lsls	r3, r3, #26
    9db8:	d502      	bpl.n	9dc0 <_printf_common+0x30>
    9dba:	682b      	ldr	r3, [r5, #0]
    9dbc:	3302      	adds	r3, #2
    9dbe:	602b      	str	r3, [r5, #0]
    9dc0:	2706      	movs	r7, #6
    9dc2:	6823      	ldr	r3, [r4, #0]
    9dc4:	401f      	ands	r7, r3
    9dc6:	d027      	beq.n	9e18 <_printf_common+0x88>
    9dc8:	0023      	movs	r3, r4
    9dca:	3343      	adds	r3, #67	; 0x43
    9dcc:	781b      	ldrb	r3, [r3, #0]
    9dce:	1e5a      	subs	r2, r3, #1
    9dd0:	4193      	sbcs	r3, r2
    9dd2:	6822      	ldr	r2, [r4, #0]
    9dd4:	0692      	lsls	r2, r2, #26
    9dd6:	d430      	bmi.n	9e3a <_printf_common+0xaa>
    9dd8:	0022      	movs	r2, r4
    9dda:	9901      	ldr	r1, [sp, #4]
    9ddc:	3243      	adds	r2, #67	; 0x43
    9dde:	9800      	ldr	r0, [sp, #0]
    9de0:	9e08      	ldr	r6, [sp, #32]
    9de2:	47b0      	blx	r6
    9de4:	1c43      	adds	r3, r0, #1
    9de6:	d025      	beq.n	9e34 <_printf_common+0xa4>
    9de8:	2306      	movs	r3, #6
    9dea:	6820      	ldr	r0, [r4, #0]
    9dec:	682a      	ldr	r2, [r5, #0]
    9dee:	68e1      	ldr	r1, [r4, #12]
    9df0:	4003      	ands	r3, r0
    9df2:	2500      	movs	r5, #0
    9df4:	2b04      	cmp	r3, #4
    9df6:	d103      	bne.n	9e00 <_printf_common+0x70>
    9df8:	1a8d      	subs	r5, r1, r2
    9dfa:	43eb      	mvns	r3, r5
    9dfc:	17db      	asrs	r3, r3, #31
    9dfe:	401d      	ands	r5, r3
    9e00:	68a3      	ldr	r3, [r4, #8]
    9e02:	6922      	ldr	r2, [r4, #16]
    9e04:	4293      	cmp	r3, r2
    9e06:	dd01      	ble.n	9e0c <_printf_common+0x7c>
    9e08:	1a9b      	subs	r3, r3, r2
    9e0a:	18ed      	adds	r5, r5, r3
    9e0c:	2700      	movs	r7, #0
    9e0e:	42bd      	cmp	r5, r7
    9e10:	d120      	bne.n	9e54 <_printf_common+0xc4>
    9e12:	2000      	movs	r0, #0
    9e14:	e010      	b.n	9e38 <_printf_common+0xa8>
    9e16:	3701      	adds	r7, #1
    9e18:	68e3      	ldr	r3, [r4, #12]
    9e1a:	682a      	ldr	r2, [r5, #0]
    9e1c:	1a9b      	subs	r3, r3, r2
    9e1e:	429f      	cmp	r7, r3
    9e20:	dad2      	bge.n	9dc8 <_printf_common+0x38>
    9e22:	0022      	movs	r2, r4
    9e24:	2301      	movs	r3, #1
    9e26:	3219      	adds	r2, #25
    9e28:	9901      	ldr	r1, [sp, #4]
    9e2a:	9800      	ldr	r0, [sp, #0]
    9e2c:	9e08      	ldr	r6, [sp, #32]
    9e2e:	47b0      	blx	r6
    9e30:	1c43      	adds	r3, r0, #1
    9e32:	d1f0      	bne.n	9e16 <_printf_common+0x86>
    9e34:	2001      	movs	r0, #1
    9e36:	4240      	negs	r0, r0
    9e38:	bdfe      	pop	{r1, r2, r3, r4, r5, r6, r7, pc}
    9e3a:	2030      	movs	r0, #48	; 0x30
    9e3c:	18e1      	adds	r1, r4, r3
    9e3e:	3143      	adds	r1, #67	; 0x43
    9e40:	7008      	strb	r0, [r1, #0]
    9e42:	0021      	movs	r1, r4
    9e44:	1c5a      	adds	r2, r3, #1
    9e46:	3145      	adds	r1, #69	; 0x45
    9e48:	7809      	ldrb	r1, [r1, #0]
    9e4a:	18a2      	adds	r2, r4, r2
    9e4c:	3243      	adds	r2, #67	; 0x43
    9e4e:	3302      	adds	r3, #2
    9e50:	7011      	strb	r1, [r2, #0]
    9e52:	e7c1      	b.n	9dd8 <_printf_common+0x48>
    9e54:	0022      	movs	r2, r4
    9e56:	2301      	movs	r3, #1
    9e58:	321a      	adds	r2, #26
    9e5a:	9901      	ldr	r1, [sp, #4]
    9e5c:	9800      	ldr	r0, [sp, #0]
    9e5e:	9e08      	ldr	r6, [sp, #32]
    9e60:	47b0      	blx	r6
    9e62:	1c43      	adds	r3, r0, #1
    9e64:	d0e6      	beq.n	9e34 <_printf_common+0xa4>
    9e66:	3701      	adds	r7, #1
    9e68:	e7d1      	b.n	9e0e <_printf_common+0x7e>
	...

00009e6c <_printf_i>:
    9e6c:	b5f0      	push	{r4, r5, r6, r7, lr}
    9e6e:	b08b      	sub	sp, #44	; 0x2c
    9e70:	9206      	str	r2, [sp, #24]
    9e72:	000a      	movs	r2, r1
    9e74:	3243      	adds	r2, #67	; 0x43
    9e76:	9307      	str	r3, [sp, #28]
    9e78:	9005      	str	r0, [sp, #20]
    9e7a:	9204      	str	r2, [sp, #16]
    9e7c:	7e0a      	ldrb	r2, [r1, #24]
    9e7e:	000c      	movs	r4, r1
    9e80:	9b10      	ldr	r3, [sp, #64]	; 0x40
    9e82:	2a6e      	cmp	r2, #110	; 0x6e
    9e84:	d100      	bne.n	9e88 <_printf_i+0x1c>
    9e86:	e08f      	b.n	9fa8 <_printf_i+0x13c>
    9e88:	d817      	bhi.n	9eba <_printf_i+0x4e>
    9e8a:	2a63      	cmp	r2, #99	; 0x63
    9e8c:	d02c      	beq.n	9ee8 <_printf_i+0x7c>
    9e8e:	d808      	bhi.n	9ea2 <_printf_i+0x36>
    9e90:	2a00      	cmp	r2, #0
    9e92:	d100      	bne.n	9e96 <_printf_i+0x2a>
    9e94:	e099      	b.n	9fca <_printf_i+0x15e>
    9e96:	2a58      	cmp	r2, #88	; 0x58
    9e98:	d054      	beq.n	9f44 <_printf_i+0xd8>
    9e9a:	0026      	movs	r6, r4
    9e9c:	3642      	adds	r6, #66	; 0x42
    9e9e:	7032      	strb	r2, [r6, #0]
    9ea0:	e029      	b.n	9ef6 <_printf_i+0x8a>
    9ea2:	2a64      	cmp	r2, #100	; 0x64
    9ea4:	d001      	beq.n	9eaa <_printf_i+0x3e>
    9ea6:	2a69      	cmp	r2, #105	; 0x69
    9ea8:	d1f7      	bne.n	9e9a <_printf_i+0x2e>
    9eaa:	6821      	ldr	r1, [r4, #0]
    9eac:	681a      	ldr	r2, [r3, #0]
    9eae:	0608      	lsls	r0, r1, #24
    9eb0:	d523      	bpl.n	9efa <_printf_i+0x8e>
    9eb2:	1d11      	adds	r1, r2, #4
    9eb4:	6019      	str	r1, [r3, #0]
    9eb6:	6815      	ldr	r5, [r2, #0]
    9eb8:	e025      	b.n	9f06 <_printf_i+0x9a>
    9eba:	2a73      	cmp	r2, #115	; 0x73
    9ebc:	d100      	bne.n	9ec0 <_printf_i+0x54>
    9ebe:	e088      	b.n	9fd2 <_printf_i+0x166>
    9ec0:	d808      	bhi.n	9ed4 <_printf_i+0x68>
    9ec2:	2a6f      	cmp	r2, #111	; 0x6f
    9ec4:	d029      	beq.n	9f1a <_printf_i+0xae>
    9ec6:	2a70      	cmp	r2, #112	; 0x70
    9ec8:	d1e7      	bne.n	9e9a <_printf_i+0x2e>
    9eca:	2220      	movs	r2, #32
    9ecc:	6809      	ldr	r1, [r1, #0]
    9ece:	430a      	orrs	r2, r1
    9ed0:	6022      	str	r2, [r4, #0]
    9ed2:	e003      	b.n	9edc <_printf_i+0x70>
    9ed4:	2a75      	cmp	r2, #117	; 0x75
    9ed6:	d020      	beq.n	9f1a <_printf_i+0xae>
    9ed8:	2a78      	cmp	r2, #120	; 0x78
    9eda:	d1de      	bne.n	9e9a <_printf_i+0x2e>
    9edc:	0022      	movs	r2, r4
    9ede:	2178      	movs	r1, #120	; 0x78
    9ee0:	3245      	adds	r2, #69	; 0x45
    9ee2:	7011      	strb	r1, [r2, #0]
    9ee4:	4a6c      	ldr	r2, [pc, #432]	; (a098 <_printf_i+0x22c>)
    9ee6:	e030      	b.n	9f4a <_printf_i+0xde>
    9ee8:	000e      	movs	r6, r1
    9eea:	681a      	ldr	r2, [r3, #0]
    9eec:	3642      	adds	r6, #66	; 0x42
    9eee:	1d11      	adds	r1, r2, #4
    9ef0:	6019      	str	r1, [r3, #0]
    9ef2:	6813      	ldr	r3, [r2, #0]
    9ef4:	7033      	strb	r3, [r6, #0]
    9ef6:	2301      	movs	r3, #1
    9ef8:	e079      	b.n	9fee <_printf_i+0x182>
    9efa:	0649      	lsls	r1, r1, #25
    9efc:	d5d9      	bpl.n	9eb2 <_printf_i+0x46>
    9efe:	1d11      	adds	r1, r2, #4
    9f00:	6019      	str	r1, [r3, #0]
    9f02:	2300      	movs	r3, #0
    9f04:	5ed5      	ldrsh	r5, [r2, r3]
    9f06:	2d00      	cmp	r5, #0
    9f08:	da03      	bge.n	9f12 <_printf_i+0xa6>
    9f0a:	232d      	movs	r3, #45	; 0x2d
    9f0c:	9a04      	ldr	r2, [sp, #16]
    9f0e:	426d      	negs	r5, r5
    9f10:	7013      	strb	r3, [r2, #0]
    9f12:	4b62      	ldr	r3, [pc, #392]	; (a09c <_printf_i+0x230>)
    9f14:	270a      	movs	r7, #10
    9f16:	9303      	str	r3, [sp, #12]
    9f18:	e02f      	b.n	9f7a <_printf_i+0x10e>
    9f1a:	6820      	ldr	r0, [r4, #0]
    9f1c:	6819      	ldr	r1, [r3, #0]
    9f1e:	0605      	lsls	r5, r0, #24
    9f20:	d503      	bpl.n	9f2a <_printf_i+0xbe>
    9f22:	1d08      	adds	r0, r1, #4
    9f24:	6018      	str	r0, [r3, #0]
    9f26:	680d      	ldr	r5, [r1, #0]
    9f28:	e005      	b.n	9f36 <_printf_i+0xca>
    9f2a:	0640      	lsls	r0, r0, #25
    9f2c:	d5f9      	bpl.n	9f22 <_printf_i+0xb6>
    9f2e:	680d      	ldr	r5, [r1, #0]
    9f30:	1d08      	adds	r0, r1, #4
    9f32:	6018      	str	r0, [r3, #0]
    9f34:	b2ad      	uxth	r5, r5
    9f36:	4b59      	ldr	r3, [pc, #356]	; (a09c <_printf_i+0x230>)
    9f38:	2708      	movs	r7, #8
    9f3a:	9303      	str	r3, [sp, #12]
    9f3c:	2a6f      	cmp	r2, #111	; 0x6f
    9f3e:	d018      	beq.n	9f72 <_printf_i+0x106>
    9f40:	270a      	movs	r7, #10
    9f42:	e016      	b.n	9f72 <_printf_i+0x106>
    9f44:	3145      	adds	r1, #69	; 0x45
    9f46:	700a      	strb	r2, [r1, #0]
    9f48:	4a54      	ldr	r2, [pc, #336]	; (a09c <_printf_i+0x230>)
    9f4a:	9203      	str	r2, [sp, #12]
    9f4c:	681a      	ldr	r2, [r3, #0]
    9f4e:	6821      	ldr	r1, [r4, #0]
    9f50:	1d10      	adds	r0, r2, #4
    9f52:	6018      	str	r0, [r3, #0]
    9f54:	6815      	ldr	r5, [r2, #0]
    9f56:	0608      	lsls	r0, r1, #24
    9f58:	d522      	bpl.n	9fa0 <_printf_i+0x134>
    9f5a:	07cb      	lsls	r3, r1, #31
    9f5c:	d502      	bpl.n	9f64 <_printf_i+0xf8>
    9f5e:	2320      	movs	r3, #32
    9f60:	4319      	orrs	r1, r3
    9f62:	6021      	str	r1, [r4, #0]
    9f64:	2710      	movs	r7, #16
    9f66:	2d00      	cmp	r5, #0
    9f68:	d103      	bne.n	9f72 <_printf_i+0x106>
    9f6a:	2320      	movs	r3, #32
    9f6c:	6822      	ldr	r2, [r4, #0]
    9f6e:	439a      	bics	r2, r3
    9f70:	6022      	str	r2, [r4, #0]
    9f72:	0023      	movs	r3, r4
    9f74:	2200      	movs	r2, #0
    9f76:	3343      	adds	r3, #67	; 0x43
    9f78:	701a      	strb	r2, [r3, #0]
    9f7a:	6863      	ldr	r3, [r4, #4]
    9f7c:	60a3      	str	r3, [r4, #8]
    9f7e:	2b00      	cmp	r3, #0
    9f80:	db5c      	blt.n	a03c <_printf_i+0x1d0>
    9f82:	2204      	movs	r2, #4
    9f84:	6821      	ldr	r1, [r4, #0]
    9f86:	4391      	bics	r1, r2
    9f88:	6021      	str	r1, [r4, #0]
    9f8a:	2d00      	cmp	r5, #0
    9f8c:	d158      	bne.n	a040 <_printf_i+0x1d4>
    9f8e:	9e04      	ldr	r6, [sp, #16]
    9f90:	2b00      	cmp	r3, #0
    9f92:	d064      	beq.n	a05e <_printf_i+0x1f2>
    9f94:	0026      	movs	r6, r4
    9f96:	9b03      	ldr	r3, [sp, #12]
    9f98:	3642      	adds	r6, #66	; 0x42
    9f9a:	781b      	ldrb	r3, [r3, #0]
    9f9c:	7033      	strb	r3, [r6, #0]
    9f9e:	e05e      	b.n	a05e <_printf_i+0x1f2>
    9fa0:	0648      	lsls	r0, r1, #25
    9fa2:	d5da      	bpl.n	9f5a <_printf_i+0xee>
    9fa4:	b2ad      	uxth	r5, r5
    9fa6:	e7d8      	b.n	9f5a <_printf_i+0xee>
    9fa8:	6809      	ldr	r1, [r1, #0]
    9faa:	681a      	ldr	r2, [r3, #0]
    9fac:	0608      	lsls	r0, r1, #24
    9fae:	d505      	bpl.n	9fbc <_printf_i+0x150>
    9fb0:	1d11      	adds	r1, r2, #4
    9fb2:	6019      	str	r1, [r3, #0]
    9fb4:	6813      	ldr	r3, [r2, #0]
    9fb6:	6962      	ldr	r2, [r4, #20]
    9fb8:	601a      	str	r2, [r3, #0]
    9fba:	e006      	b.n	9fca <_printf_i+0x15e>
    9fbc:	0649      	lsls	r1, r1, #25
    9fbe:	d5f7      	bpl.n	9fb0 <_printf_i+0x144>
    9fc0:	1d11      	adds	r1, r2, #4
    9fc2:	6019      	str	r1, [r3, #0]
    9fc4:	6813      	ldr	r3, [r2, #0]
    9fc6:	8aa2      	ldrh	r2, [r4, #20]
    9fc8:	801a      	strh	r2, [r3, #0]
    9fca:	2300      	movs	r3, #0
    9fcc:	9e04      	ldr	r6, [sp, #16]
    9fce:	6123      	str	r3, [r4, #16]
    9fd0:	e054      	b.n	a07c <_printf_i+0x210>
    9fd2:	681a      	ldr	r2, [r3, #0]
    9fd4:	1d11      	adds	r1, r2, #4
    9fd6:	6019      	str	r1, [r3, #0]
    9fd8:	6816      	ldr	r6, [r2, #0]
    9fda:	2100      	movs	r1, #0
    9fdc:	6862      	ldr	r2, [r4, #4]
    9fde:	0030      	movs	r0, r6
    9fe0:	f000 f908 	bl	a1f4 <memchr>
    9fe4:	2800      	cmp	r0, #0
    9fe6:	d001      	beq.n	9fec <_printf_i+0x180>
    9fe8:	1b80      	subs	r0, r0, r6
    9fea:	6060      	str	r0, [r4, #4]
    9fec:	6863      	ldr	r3, [r4, #4]
    9fee:	6123      	str	r3, [r4, #16]
    9ff0:	2300      	movs	r3, #0
    9ff2:	9a04      	ldr	r2, [sp, #16]
    9ff4:	7013      	strb	r3, [r2, #0]
    9ff6:	e041      	b.n	a07c <_printf_i+0x210>
    9ff8:	6923      	ldr	r3, [r4, #16]
    9ffa:	0032      	movs	r2, r6
    9ffc:	9906      	ldr	r1, [sp, #24]
    9ffe:	9805      	ldr	r0, [sp, #20]
    a000:	9d07      	ldr	r5, [sp, #28]
    a002:	47a8      	blx	r5
    a004:	1c43      	adds	r3, r0, #1
    a006:	d043      	beq.n	a090 <_printf_i+0x224>
    a008:	6823      	ldr	r3, [r4, #0]
    a00a:	2500      	movs	r5, #0
    a00c:	079b      	lsls	r3, r3, #30
    a00e:	d40f      	bmi.n	a030 <_printf_i+0x1c4>
    a010:	9b09      	ldr	r3, [sp, #36]	; 0x24
    a012:	68e0      	ldr	r0, [r4, #12]
    a014:	4298      	cmp	r0, r3
    a016:	da3d      	bge.n	a094 <_printf_i+0x228>
    a018:	0018      	movs	r0, r3
    a01a:	e03b      	b.n	a094 <_printf_i+0x228>
    a01c:	0022      	movs	r2, r4
    a01e:	2301      	movs	r3, #1
    a020:	3219      	adds	r2, #25
    a022:	9906      	ldr	r1, [sp, #24]
    a024:	9805      	ldr	r0, [sp, #20]
    a026:	9e07      	ldr	r6, [sp, #28]
    a028:	47b0      	blx	r6
    a02a:	1c43      	adds	r3, r0, #1
    a02c:	d030      	beq.n	a090 <_printf_i+0x224>
    a02e:	3501      	adds	r5, #1
    a030:	68e3      	ldr	r3, [r4, #12]
    a032:	9a09      	ldr	r2, [sp, #36]	; 0x24
    a034:	1a9b      	subs	r3, r3, r2
    a036:	429d      	cmp	r5, r3
    a038:	dbf0      	blt.n	a01c <_printf_i+0x1b0>
    a03a:	e7e9      	b.n	a010 <_printf_i+0x1a4>
    a03c:	2d00      	cmp	r5, #0
    a03e:	d0a9      	beq.n	9f94 <_printf_i+0x128>
    a040:	9e04      	ldr	r6, [sp, #16]
    a042:	0028      	movs	r0, r5
    a044:	0039      	movs	r1, r7
    a046:	f7ff f863 	bl	9110 <__aeabi_uidivmod>
    a04a:	9b03      	ldr	r3, [sp, #12]
    a04c:	3e01      	subs	r6, #1
    a04e:	5c5b      	ldrb	r3, [r3, r1]
    a050:	0028      	movs	r0, r5
    a052:	7033      	strb	r3, [r6, #0]
    a054:	0039      	movs	r1, r7
    a056:	f7fe ffd5 	bl	9004 <__udivsi3>
    a05a:	1e05      	subs	r5, r0, #0
    a05c:	d1f1      	bne.n	a042 <_printf_i+0x1d6>
    a05e:	2f08      	cmp	r7, #8
    a060:	d109      	bne.n	a076 <_printf_i+0x20a>
    a062:	6823      	ldr	r3, [r4, #0]
    a064:	07db      	lsls	r3, r3, #31
    a066:	d506      	bpl.n	a076 <_printf_i+0x20a>
    a068:	6863      	ldr	r3, [r4, #4]
    a06a:	6922      	ldr	r2, [r4, #16]
    a06c:	4293      	cmp	r3, r2
    a06e:	dc02      	bgt.n	a076 <_printf_i+0x20a>
    a070:	2330      	movs	r3, #48	; 0x30
    a072:	3e01      	subs	r6, #1
    a074:	7033      	strb	r3, [r6, #0]
    a076:	9b04      	ldr	r3, [sp, #16]
    a078:	1b9b      	subs	r3, r3, r6
    a07a:	6123      	str	r3, [r4, #16]
    a07c:	9b07      	ldr	r3, [sp, #28]
    a07e:	aa09      	add	r2, sp, #36	; 0x24
    a080:	9300      	str	r3, [sp, #0]
    a082:	0021      	movs	r1, r4
    a084:	9b06      	ldr	r3, [sp, #24]
    a086:	9805      	ldr	r0, [sp, #20]
    a088:	f7ff fe82 	bl	9d90 <_printf_common>
    a08c:	1c43      	adds	r3, r0, #1
    a08e:	d1b3      	bne.n	9ff8 <_printf_i+0x18c>
    a090:	2001      	movs	r0, #1
    a092:	4240      	negs	r0, r0
    a094:	b00b      	add	sp, #44	; 0x2c
    a096:	bdf0      	pop	{r4, r5, r6, r7, pc}
    a098:	0000a406 	.word	0x0000a406
    a09c:	0000a3f5 	.word	0x0000a3f5

0000a0a0 <_sbrk_r>:
    a0a0:	2300      	movs	r3, #0
    a0a2:	b570      	push	{r4, r5, r6, lr}
    a0a4:	4c06      	ldr	r4, [pc, #24]	; (a0c0 <_sbrk_r+0x20>)
    a0a6:	0005      	movs	r5, r0
    a0a8:	0008      	movs	r0, r1
    a0aa:	6023      	str	r3, [r4, #0]
    a0ac:	f7f7 ff38 	bl	1f20 <_sbrk>
    a0b0:	1c43      	adds	r3, r0, #1
    a0b2:	d103      	bne.n	a0bc <_sbrk_r+0x1c>
    a0b4:	6823      	ldr	r3, [r4, #0]
    a0b6:	2b00      	cmp	r3, #0
    a0b8:	d000      	beq.n	a0bc <_sbrk_r+0x1c>
    a0ba:	602b      	str	r3, [r5, #0]
    a0bc:	bd70      	pop	{r4, r5, r6, pc}
    a0be:	46c0      	nop			; (mov r8, r8)
    a0c0:	20001ac0 	.word	0x20001ac0

0000a0c4 <__sread>:
    a0c4:	b570      	push	{r4, r5, r6, lr}
    a0c6:	000c      	movs	r4, r1
    a0c8:	250e      	movs	r5, #14
    a0ca:	5f49      	ldrsh	r1, [r1, r5]
    a0cc:	f000 f8d8 	bl	a280 <_read_r>
    a0d0:	2800      	cmp	r0, #0
    a0d2:	db03      	blt.n	a0dc <__sread+0x18>
    a0d4:	6d63      	ldr	r3, [r4, #84]	; 0x54
    a0d6:	181b      	adds	r3, r3, r0
    a0d8:	6563      	str	r3, [r4, #84]	; 0x54
    a0da:	bd70      	pop	{r4, r5, r6, pc}
    a0dc:	89a3      	ldrh	r3, [r4, #12]
    a0de:	4a02      	ldr	r2, [pc, #8]	; (a0e8 <__sread+0x24>)
    a0e0:	4013      	ands	r3, r2
    a0e2:	81a3      	strh	r3, [r4, #12]
    a0e4:	e7f9      	b.n	a0da <__sread+0x16>
    a0e6:	46c0      	nop			; (mov r8, r8)
    a0e8:	ffffefff 	.word	0xffffefff

0000a0ec <__swrite>:
    a0ec:	b5f8      	push	{r3, r4, r5, r6, r7, lr}
    a0ee:	001f      	movs	r7, r3
    a0f0:	898b      	ldrh	r3, [r1, #12]
    a0f2:	0005      	movs	r5, r0
    a0f4:	000c      	movs	r4, r1
    a0f6:	0016      	movs	r6, r2
    a0f8:	05db      	lsls	r3, r3, #23
    a0fa:	d505      	bpl.n	a108 <__swrite+0x1c>
    a0fc:	230e      	movs	r3, #14
    a0fe:	5ec9      	ldrsh	r1, [r1, r3]
    a100:	2200      	movs	r2, #0
    a102:	2302      	movs	r3, #2
    a104:	f000 f862 	bl	a1cc <_lseek_r>
    a108:	89a3      	ldrh	r3, [r4, #12]
    a10a:	4a05      	ldr	r2, [pc, #20]	; (a120 <__swrite+0x34>)
    a10c:	0028      	movs	r0, r5
    a10e:	4013      	ands	r3, r2
    a110:	81a3      	strh	r3, [r4, #12]
    a112:	0032      	movs	r2, r6
    a114:	230e      	movs	r3, #14
    a116:	5ee1      	ldrsh	r1, [r4, r3]
    a118:	003b      	movs	r3, r7
    a11a:	f000 f81f 	bl	a15c <_write_r>
    a11e:	bdf8      	pop	{r3, r4, r5, r6, r7, pc}
    a120:	ffffefff 	.word	0xffffefff

0000a124 <__sseek>:
    a124:	b570      	push	{r4, r5, r6, lr}
    a126:	000c      	movs	r4, r1
    a128:	250e      	movs	r5, #14
    a12a:	5f49      	ldrsh	r1, [r1, r5]
    a12c:	f000 f84e 	bl	a1cc <_lseek_r>
    a130:	89a3      	ldrh	r3, [r4, #12]
    a132:	1c42      	adds	r2, r0, #1
    a134:	d103      	bne.n	a13e <__sseek+0x1a>
    a136:	4a05      	ldr	r2, [pc, #20]	; (a14c <__sseek+0x28>)
    a138:	4013      	ands	r3, r2
    a13a:	81a3      	strh	r3, [r4, #12]
    a13c:	bd70      	pop	{r4, r5, r6, pc}
    a13e:	2280      	movs	r2, #128	; 0x80
    a140:	0152      	lsls	r2, r2, #5
    a142:	4313      	orrs	r3, r2
    a144:	81a3      	strh	r3, [r4, #12]
    a146:	6560      	str	r0, [r4, #84]	; 0x54
    a148:	e7f8      	b.n	a13c <__sseek+0x18>
    a14a:	46c0      	nop			; (mov r8, r8)
    a14c:	ffffefff 	.word	0xffffefff

0000a150 <__sclose>:
    a150:	b510      	push	{r4, lr}
    a152:	230e      	movs	r3, #14
    a154:	5ec9      	ldrsh	r1, [r1, r3]
    a156:	f000 f815 	bl	a184 <_close_r>
    a15a:	bd10      	pop	{r4, pc}

0000a15c <_write_r>:
    a15c:	b570      	push	{r4, r5, r6, lr}
    a15e:	0005      	movs	r5, r0
    a160:	0008      	movs	r0, r1
    a162:	0011      	movs	r1, r2
    a164:	2200      	movs	r2, #0
    a166:	4c06      	ldr	r4, [pc, #24]	; (a180 <_write_r+0x24>)
    a168:	6022      	str	r2, [r4, #0]
    a16a:	001a      	movs	r2, r3
    a16c:	f7f7 feb0 	bl	1ed0 <_write>
    a170:	1c43      	adds	r3, r0, #1
    a172:	d103      	bne.n	a17c <_write_r+0x20>
    a174:	6823      	ldr	r3, [r4, #0]
    a176:	2b00      	cmp	r3, #0
    a178:	d000      	beq.n	a17c <_write_r+0x20>
    a17a:	602b      	str	r3, [r5, #0]
    a17c:	bd70      	pop	{r4, r5, r6, pc}
    a17e:	46c0      	nop			; (mov r8, r8)
    a180:	20001ac0 	.word	0x20001ac0

0000a184 <_close_r>:
    a184:	2300      	movs	r3, #0
    a186:	b570      	push	{r4, r5, r6, lr}
    a188:	4c06      	ldr	r4, [pc, #24]	; (a1a4 <_close_r+0x20>)
    a18a:	0005      	movs	r5, r0
    a18c:	0008      	movs	r0, r1
    a18e:	6023      	str	r3, [r4, #0]
    a190:	f7f7 fed8 	bl	1f44 <_close>
    a194:	1c43      	adds	r3, r0, #1
    a196:	d103      	bne.n	a1a0 <_close_r+0x1c>
    a198:	6823      	ldr	r3, [r4, #0]
    a19a:	2b00      	cmp	r3, #0
    a19c:	d000      	beq.n	a1a0 <_close_r+0x1c>
    a19e:	602b      	str	r3, [r5, #0]
    a1a0:	bd70      	pop	{r4, r5, r6, pc}
    a1a2:	46c0      	nop			; (mov r8, r8)
    a1a4:	20001ac0 	.word	0x20001ac0

0000a1a8 <_fstat_r>:
    a1a8:	2300      	movs	r3, #0
    a1aa:	b570      	push	{r4, r5, r6, lr}
    a1ac:	4c06      	ldr	r4, [pc, #24]	; (a1c8 <_fstat_r+0x20>)
    a1ae:	0005      	movs	r5, r0
    a1b0:	0008      	movs	r0, r1
    a1b2:	0011      	movs	r1, r2
    a1b4:	6023      	str	r3, [r4, #0]
    a1b6:	f7f7 fec8 	bl	1f4a <_fstat>
    a1ba:	1c43      	adds	r3, r0, #1
    a1bc:	d103      	bne.n	a1c6 <_fstat_r+0x1e>
    a1be:	6823      	ldr	r3, [r4, #0]
    a1c0:	2b00      	cmp	r3, #0
    a1c2:	d000      	beq.n	a1c6 <_fstat_r+0x1e>
    a1c4:	602b      	str	r3, [r5, #0]
    a1c6:	bd70      	pop	{r4, r5, r6, pc}
    a1c8:	20001ac0 	.word	0x20001ac0

0000a1cc <_lseek_r>:
    a1cc:	b570      	push	{r4, r5, r6, lr}
    a1ce:	0005      	movs	r5, r0
    a1d0:	0008      	movs	r0, r1
    a1d2:	0011      	movs	r1, r2
    a1d4:	2200      	movs	r2, #0
    a1d6:	4c06      	ldr	r4, [pc, #24]	; (a1f0 <_lseek_r+0x24>)
    a1d8:	6022      	str	r2, [r4, #0]
    a1da:	001a      	movs	r2, r3
    a1dc:	f7f7 feba 	bl	1f54 <_lseek>
    a1e0:	1c43      	adds	r3, r0, #1
    a1e2:	d103      	bne.n	a1ec <_lseek_r+0x20>
    a1e4:	6823      	ldr	r3, [r4, #0]
    a1e6:	2b00      	cmp	r3, #0
    a1e8:	d000      	beq.n	a1ec <_lseek_r+0x20>
    a1ea:	602b      	str	r3, [r5, #0]
    a1ec:	bd70      	pop	{r4, r5, r6, pc}
    a1ee:	46c0      	nop			; (mov r8, r8)
    a1f0:	20001ac0 	.word	0x20001ac0

0000a1f4 <memchr>:
    a1f4:	b2c9      	uxtb	r1, r1
    a1f6:	1882      	adds	r2, r0, r2
    a1f8:	4290      	cmp	r0, r2
    a1fa:	d101      	bne.n	a200 <memchr+0xc>
    a1fc:	2000      	movs	r0, #0
    a1fe:	4770      	bx	lr
    a200:	7803      	ldrb	r3, [r0, #0]
    a202:	428b      	cmp	r3, r1
    a204:	d0fb      	beq.n	a1fe <memchr+0xa>
    a206:	3001      	adds	r0, #1
    a208:	e7f6      	b.n	a1f8 <memchr+0x4>

0000a20a <memmove>:
    a20a:	b510      	push	{r4, lr}
    a20c:	4288      	cmp	r0, r1
    a20e:	d902      	bls.n	a216 <memmove+0xc>
    a210:	188b      	adds	r3, r1, r2
    a212:	4298      	cmp	r0, r3
    a214:	d308      	bcc.n	a228 <memmove+0x1e>
    a216:	2300      	movs	r3, #0
    a218:	429a      	cmp	r2, r3
    a21a:	d007      	beq.n	a22c <memmove+0x22>
    a21c:	5ccc      	ldrb	r4, [r1, r3]
    a21e:	54c4      	strb	r4, [r0, r3]
    a220:	3301      	adds	r3, #1
    a222:	e7f9      	b.n	a218 <memmove+0xe>
    a224:	5c8b      	ldrb	r3, [r1, r2]
    a226:	5483      	strb	r3, [r0, r2]
    a228:	3a01      	subs	r2, #1
    a22a:	d2fb      	bcs.n	a224 <memmove+0x1a>
    a22c:	bd10      	pop	{r4, pc}

0000a22e <__malloc_lock>:
    a22e:	4770      	bx	lr

0000a230 <__malloc_unlock>:
    a230:	4770      	bx	lr

0000a232 <_realloc_r>:
    a232:	b5f8      	push	{r3, r4, r5, r6, r7, lr}
    a234:	0007      	movs	r7, r0
    a236:	000d      	movs	r5, r1
    a238:	0016      	movs	r6, r2
    a23a:	2900      	cmp	r1, #0
    a23c:	d105      	bne.n	a24a <_realloc_r+0x18>
    a23e:	0011      	movs	r1, r2
    a240:	f7ff fbe2 	bl	9a08 <_malloc_r>
    a244:	0004      	movs	r4, r0
    a246:	0020      	movs	r0, r4
    a248:	bdf8      	pop	{r3, r4, r5, r6, r7, pc}
    a24a:	2a00      	cmp	r2, #0
    a24c:	d103      	bne.n	a256 <_realloc_r+0x24>
    a24e:	f7ff fb91 	bl	9974 <_free_r>
    a252:	0034      	movs	r4, r6
    a254:	e7f7      	b.n	a246 <_realloc_r+0x14>
    a256:	f000 f827 	bl	a2a8 <_malloc_usable_size_r>
    a25a:	002c      	movs	r4, r5
    a25c:	4286      	cmp	r6, r0
    a25e:	d9f2      	bls.n	a246 <_realloc_r+0x14>
    a260:	0031      	movs	r1, r6
    a262:	0038      	movs	r0, r7
    a264:	f7ff fbd0 	bl	9a08 <_malloc_r>
    a268:	1e04      	subs	r4, r0, #0
    a26a:	d0ec      	beq.n	a246 <_realloc_r+0x14>
    a26c:	0029      	movs	r1, r5
    a26e:	0032      	movs	r2, r6
    a270:	f7ff f89b 	bl	93aa <memcpy>
    a274:	0029      	movs	r1, r5
    a276:	0038      	movs	r0, r7
    a278:	f7ff fb7c 	bl	9974 <_free_r>
    a27c:	e7e3      	b.n	a246 <_realloc_r+0x14>
	...

0000a280 <_read_r>:
    a280:	b570      	push	{r4, r5, r6, lr}
    a282:	0005      	movs	r5, r0
    a284:	0008      	movs	r0, r1
    a286:	0011      	movs	r1, r2
    a288:	2200      	movs	r2, #0
    a28a:	4c06      	ldr	r4, [pc, #24]	; (a2a4 <_read_r+0x24>)
    a28c:	6022      	str	r2, [r4, #0]
    a28e:	001a      	movs	r2, r3
    a290:	f7f7 fdfc 	bl	1e8c <_read>
    a294:	1c43      	adds	r3, r0, #1
    a296:	d103      	bne.n	a2a0 <_read_r+0x20>
    a298:	6823      	ldr	r3, [r4, #0]
    a29a:	2b00      	cmp	r3, #0
    a29c:	d000      	beq.n	a2a0 <_read_r+0x20>
    a29e:	602b      	str	r3, [r5, #0]
    a2a0:	bd70      	pop	{r4, r5, r6, pc}
    a2a2:	46c0      	nop			; (mov r8, r8)
    a2a4:	20001ac0 	.word	0x20001ac0

0000a2a8 <_malloc_usable_size_r>:
    a2a8:	1f0b      	subs	r3, r1, #4
    a2aa:	681b      	ldr	r3, [r3, #0]
    a2ac:	1f18      	subs	r0, r3, #4
    a2ae:	2b00      	cmp	r3, #0
    a2b0:	da01      	bge.n	a2b6 <_malloc_usable_size_r+0xe>
    a2b2:	580b      	ldr	r3, [r1, r0]
    a2b4:	18c0      	adds	r0, r0, r3
    a2b6:	4770      	bx	lr
    a2b8:	42000800 	.word	0x42000800
    a2bc:	42000c00 	.word	0x42000c00
    a2c0:	42001000 	.word	0x42001000
    a2c4:	42001400 	.word	0x42001400
    a2c8:	42001800 	.word	0x42001800
    a2cc:	42001c00 	.word	0x42001c00
    a2d0:	00001272 	.word	0x00001272
    a2d4:	0000126e 	.word	0x0000126e
    a2d8:	0000126e 	.word	0x0000126e
    a2dc:	000012d4 	.word	0x000012d4
    a2e0:	000012d4 	.word	0x000012d4
    a2e4:	00001286 	.word	0x00001286
    a2e8:	00001278 	.word	0x00001278
    a2ec:	0000128c 	.word	0x0000128c
    a2f0:	000012c2 	.word	0x000012c2
    a2f4:	00001458 	.word	0x00001458
    a2f8:	00001438 	.word	0x00001438
    a2fc:	00001438 	.word	0x00001438
    a300:	000014c4 	.word	0x000014c4
    a304:	0000144a 	.word	0x0000144a
    a308:	00001466 	.word	0x00001466
    a30c:	0000143c 	.word	0x0000143c
    a310:	00001474 	.word	0x00001474
    a314:	000014b4 	.word	0x000014b4
    a318:	42002c00 	.word	0x42002c00
    a31c:	42003000 	.word	0x42003000
    a320:	42003400 	.word	0x42003400
    a324:	00002c3c 	.word	0x00002c3c
    a328:	00002d86 	.word	0x00002d86
    a32c:	00002c14 	.word	0x00002c14
    a330:	00002d8e 	.word	0x00002d8e
    a334:	00002c1c 	.word	0x00002c1c
    a338:	00002c24 	.word	0x00002c24
    a33c:	00002c2c 	.word	0x00002c2c
    a340:	00002c34 	.word	0x00002c34

0000a344 <tc_interrupt_vectors.11908>:
    a344:	00141312 00554f52 33302552 302d2064     ....ROU.R%03d -0
    a354:	34302578 00000078 00007b84 00007bb0     x%04x....{...{..
    a364:	00007c6a 00007ade 00007cb2 00007b84     j|...z...|...{..
    a374:	00007cdc 00007d44 00007b92              .|..D}...{..

0000a380 <_global_impure_ptr>:
    a380:	20000080                                ... 

0000a384 <__sf_fake_stderr>:
	...

0000a3a4 <__sf_fake_stdin>:
	...

0000a3c4 <__sf_fake_stdout>:
	...
    a3e4:	2b302d23 6c680020 6665004c 47464567     #-0+ .hlL.efgEFG
    a3f4:	32313000 36353433 41393837 45444342     .0123456789ABCDE
    a404:	31300046 35343332 39383736 64636261     F.0123456789abcd
    a414:	00006665                                ef..

0000a418 <_init>:
    a418:	b5f8      	push	{r3, r4, r5, r6, r7, lr}
    a41a:	46c0      	nop			; (mov r8, r8)
    a41c:	bcf8      	pop	{r3, r4, r5, r6, r7}
    a41e:	bc08      	pop	{r3}
    a420:	469e      	mov	lr, r3
    a422:	4770      	bx	lr

0000a424 <__init_array_start>:
    a424:	000000dd 	.word	0x000000dd

0000a428 <_fini>:
    a428:	b5f8      	push	{r3, r4, r5, r6, r7, lr}
    a42a:	46c0      	nop			; (mov r8, r8)
    a42c:	bcf8      	pop	{r3, r4, r5, r6, r7}
    a42e:	bc08      	pop	{r3}
    a430:	469e      	mov	lr, r3
    a432:	4770      	bx	lr

0000a434 <__fini_array_start>:
    a434:	000000b5 	.word	0x000000b5
