
APPS_WSN_DEMO_C.elf:     file format elf32-littlearm

Sections:
Idx Name          Size      VMA       LMA       File off  Algn
  0 .text         0000a62c  00000000  00000000  00010000  2**2
                  CONTENTS, ALLOC, LOAD, READONLY, CODE
  1 .relocate     000000dc  20000000  0000a62c  00020000  2**2
                  CONTENTS, ALLOC, LOAD, DATA
  2 .bss          00002018  200000e0  0000a710  000200e0  2**3
                  ALLOC
  3 .stack        00002000  200020f8  0000c728  000200e0  2**0
                  ALLOC
  4 .ARM.attributes 00000028  00000000  00000000  000200dc  2**0
                  CONTENTS, READONLY
  5 .comment      000000e5  00000000  00000000  00020104  2**0
                  CONTENTS, READONLY
  6 .debug_info   00000308  00000000  00000000  000201e9  2**0
                  CONTENTS, READONLY, DEBUGGING
  7 .debug_abbrev 0000012e  00000000  00000000  000204f1  2**0
                  CONTENTS, READONLY, DEBUGGING
  8 .debug_loc    000001e9  00000000  00000000  0002061f  2**0
                  CONTENTS, READONLY, DEBUGGING
  9 .debug_aranges 00000068  00000000  00000000  00020808  2**0
                  CONTENTS, READONLY, DEBUGGING
 10 .debug_ranges 00000058  00000000  00000000  00020870  2**0
                  CONTENTS, READONLY, DEBUGGING
 11 .debug_macro  00000a55  00000000  00000000  000208c8  2**0
                  CONTENTS, READONLY, DEBUGGING
 12 .debug_line   000002bd  00000000  00000000  0002131d  2**0
                  CONTENTS, READONLY, DEBUGGING
 13 .debug_str    00002b5e  00000000  00000000  000215da  2**0
                  CONTENTS, READONLY, DEBUGGING
 14 .debug_frame  00000954  00000000  00000000  00024138  2**2
                  CONTENTS, READONLY, DEBUGGING

Disassembly of section .text:

00000000 <exception_table>:
       0:	f8 40 00 20 29 22 00 00 25 22 00 00 25 22 00 00     .@. )"..%"..%"..
	...
      2c:	25 22 00 00 00 00 00 00 00 00 00 00 25 22 00 00     %"..........%"..
      3c:	25 22 00 00 25 22 00 00 25 22 00 00 25 22 00 00     %"..%"..%"..%"..
      4c:	25 22 00 00 5d 03 00 00 25 22 00 00 25 22 00 00     %"..]...%"..%"..
      5c:	25 22 00 00 25 22 00 00 d9 09 00 00 e9 09 00 00     %"..%"..........
      6c:	f9 09 00 00 09 0a 00 00 19 0a 00 00 29 0a 00 00     ............)...
      7c:	25 22 00 00 25 22 00 00 25 22 00 00 89 1d 00 00     %"..%"..%"......
      8c:	e9 1d 00 00 49 1e 00 00 00 00 00 00 00 00 00 00     ....I...........
      9c:	25 22 00 00 25 22 00 00 00 00 00 00 25 22 00 00     %"..%"......%"..
	...

000000b4 <__do_global_dtors_aux>:
      b4:	b510      	push	{r4, lr}
      b6:	4c06      	ldr	r4, [pc, #24]	; (d0 <__do_global_dtors_aux+0x1c>)
      b8:	7823      	ldrb	r3, [r4, #0]
      ba:	2b00      	cmp	r3, #0
      bc:	d107      	bne.n	ce <__do_global_dtors_aux+0x1a>
      be:	4b05      	ldr	r3, [pc, #20]	; (d4 <__do_global_dtors_aux+0x20>)
      c0:	2b00      	cmp	r3, #0
      c2:	d002      	beq.n	ca <__do_global_dtors_aux+0x16>
      c4:	4804      	ldr	r0, [pc, #16]	; (d8 <__do_global_dtors_aux+0x24>)
      c6:	e000      	b.n	ca <__do_global_dtors_aux+0x16>
      c8:	bf00      	nop
      ca:	2301      	movs	r3, #1
      cc:	7023      	strb	r3, [r4, #0]
      ce:	bd10      	pop	{r4, pc}
      d0:	200000e0 	.word	0x200000e0
      d4:	00000000 	.word	0x00000000
      d8:	0000a62c 	.word	0x0000a62c

000000dc <frame_dummy>:
      dc:	4b08      	ldr	r3, [pc, #32]	; (100 <frame_dummy+0x24>)
      de:	b510      	push	{r4, lr}
      e0:	2b00      	cmp	r3, #0
      e2:	d003      	beq.n	ec <frame_dummy+0x10>
      e4:	4907      	ldr	r1, [pc, #28]	; (104 <frame_dummy+0x28>)
      e6:	4808      	ldr	r0, [pc, #32]	; (108 <frame_dummy+0x2c>)
      e8:	e000      	b.n	ec <frame_dummy+0x10>
      ea:	bf00      	nop
      ec:	4807      	ldr	r0, [pc, #28]	; (10c <frame_dummy+0x30>)
      ee:	6803      	ldr	r3, [r0, #0]
      f0:	2b00      	cmp	r3, #0
      f2:	d100      	bne.n	f6 <frame_dummy+0x1a>
      f4:	bd10      	pop	{r4, pc}
      f6:	4b06      	ldr	r3, [pc, #24]	; (110 <frame_dummy+0x34>)
      f8:	2b00      	cmp	r3, #0
      fa:	d0fb      	beq.n	f4 <frame_dummy+0x18>
      fc:	4798      	blx	r3
      fe:	e7f9      	b.n	f4 <frame_dummy+0x18>
     100:	00000000 	.word	0x00000000
     104:	200000e4 	.word	0x200000e4
     108:	0000a62c 	.word	0x0000a62c
     10c:	0000a62c 	.word	0x0000a62c
     110:	00000000 	.word	0x00000000

00000114 <delay_init>:
     114:	b570      	push	{r4, r5, r6, lr}
     116:	4b09      	ldr	r3, [pc, #36]	; (13c <delay_init+0x28>)
     118:	2000      	movs	r0, #0
     11a:	4798      	blx	r3
     11c:	21fa      	movs	r1, #250	; 0xfa
     11e:	4c08      	ldr	r4, [pc, #32]	; (140 <delay_init+0x2c>)
     120:	0089      	lsls	r1, r1, #2
     122:	0005      	movs	r5, r0
     124:	47a0      	blx	r4
     126:	4b07      	ldr	r3, [pc, #28]	; (144 <delay_init+0x30>)
     128:	4907      	ldr	r1, [pc, #28]	; (148 <delay_init+0x34>)
     12a:	6018      	str	r0, [r3, #0]
     12c:	0028      	movs	r0, r5
     12e:	47a0      	blx	r4
     130:	2205      	movs	r2, #5
     132:	4b06      	ldr	r3, [pc, #24]	; (14c <delay_init+0x38>)
     134:	6018      	str	r0, [r3, #0]
     136:	4b06      	ldr	r3, [pc, #24]	; (150 <delay_init+0x3c>)
     138:	601a      	str	r2, [r3, #0]
     13a:	bd70      	pop	{r4, r5, r6, pc}
     13c:	00001aa1 	.word	0x00001aa1
     140:	00009239 	.word	0x00009239
     144:	20000000 	.word	0x20000000
     148:	000f4240 	.word	0x000f4240
     14c:	20000004 	.word	0x20000004
     150:	e000e010 	.word	0xe000e010

00000154 <delay_cycles_us>:
     154:	2180      	movs	r1, #128	; 0x80
     156:	b530      	push	{r4, r5, lr}
     158:	2500      	movs	r5, #0
     15a:	4b08      	ldr	r3, [pc, #32]	; (17c <delay_cycles_us+0x28>)
     15c:	4a08      	ldr	r2, [pc, #32]	; (180 <delay_cycles_us+0x2c>)
     15e:	681c      	ldr	r4, [r3, #0]
     160:	0249      	lsls	r1, r1, #9
     162:	3801      	subs	r0, #1
     164:	d308      	bcc.n	178 <delay_cycles_us+0x24>
     166:	2c00      	cmp	r4, #0
     168:	d0fb      	beq.n	162 <delay_cycles_us+0xe>
     16a:	6054      	str	r4, [r2, #4]
     16c:	6095      	str	r5, [r2, #8]
     16e:	6813      	ldr	r3, [r2, #0]
     170:	420b      	tst	r3, r1
     172:	d0fc      	beq.n	16e <delay_cycles_us+0x1a>
     174:	3801      	subs	r0, #1
     176:	d2f6      	bcs.n	166 <delay_cycles_us+0x12>
     178:	bd30      	pop	{r4, r5, pc}
     17a:	46c0      	nop			; (mov r8, r8)
     17c:	20000004 	.word	0x20000004
     180:	e000e010 	.word	0xe000e010

00000184 <delay_cycles_ms>:
     184:	2180      	movs	r1, #128	; 0x80
     186:	b530      	push	{r4, r5, lr}
     188:	2500      	movs	r5, #0
     18a:	4b08      	ldr	r3, [pc, #32]	; (1ac <delay_cycles_ms+0x28>)
     18c:	4a08      	ldr	r2, [pc, #32]	; (1b0 <delay_cycles_ms+0x2c>)
     18e:	681c      	ldr	r4, [r3, #0]
     190:	0249      	lsls	r1, r1, #9
     192:	3801      	subs	r0, #1
     194:	d308      	bcc.n	1a8 <delay_cycles_ms+0x24>
     196:	2c00      	cmp	r4, #0
     198:	d0fb      	beq.n	192 <delay_cycles_ms+0xe>
     19a:	6054      	str	r4, [r2, #4]
     19c:	6095      	str	r5, [r2, #8]
     19e:	6813      	ldr	r3, [r2, #0]
     1a0:	420b      	tst	r3, r1
     1a2:	d0fc      	beq.n	19e <delay_cycles_ms+0x1a>
     1a4:	3801      	subs	r0, #1
     1a6:	d2f6      	bcs.n	196 <delay_cycles_ms+0x12>
     1a8:	bd30      	pop	{r4, r5, pc}
     1aa:	46c0      	nop			; (mov r8, r8)
     1ac:	20000000 	.word	0x20000000
     1b0:	e000e010 	.word	0xe000e010

000001b4 <cpu_irq_enter_critical>:
     1b4:	4b0b      	ldr	r3, [pc, #44]	; (1e4 <cpu_irq_enter_critical+0x30>)
     1b6:	681a      	ldr	r2, [r3, #0]
     1b8:	2a00      	cmp	r2, #0
     1ba:	d105      	bne.n	1c8 <cpu_irq_enter_critical+0x14>
     1bc:	f3ef 8110 	mrs	r1, PRIMASK
     1c0:	2900      	cmp	r1, #0
     1c2:	d005      	beq.n	1d0 <cpu_irq_enter_critical+0x1c>
     1c4:	4908      	ldr	r1, [pc, #32]	; (1e8 <cpu_irq_enter_critical+0x34>)
     1c6:	700a      	strb	r2, [r1, #0]
     1c8:	681a      	ldr	r2, [r3, #0]
     1ca:	3201      	adds	r2, #1
     1cc:	601a      	str	r2, [r3, #0]
     1ce:	4770      	bx	lr
     1d0:	b672      	cpsid	i
     1d2:	f3bf 8f5f 	dmb	sy
     1d6:	4a05      	ldr	r2, [pc, #20]	; (1ec <cpu_irq_enter_critical+0x38>)
     1d8:	7011      	strb	r1, [r2, #0]
     1da:	4a03      	ldr	r2, [pc, #12]	; (1e8 <cpu_irq_enter_critical+0x34>)
     1dc:	3101      	adds	r1, #1
     1de:	7011      	strb	r1, [r2, #0]
     1e0:	e7f2      	b.n	1c8 <cpu_irq_enter_critical+0x14>
     1e2:	46c0      	nop			; (mov r8, r8)
     1e4:	200000fc 	.word	0x200000fc
     1e8:	20000100 	.word	0x20000100
     1ec:	20000008 	.word	0x20000008

000001f0 <cpu_irq_leave_critical>:
     1f0:	4b08      	ldr	r3, [pc, #32]	; (214 <cpu_irq_leave_critical+0x24>)
     1f2:	681a      	ldr	r2, [r3, #0]
     1f4:	3a01      	subs	r2, #1
     1f6:	601a      	str	r2, [r3, #0]
     1f8:	681b      	ldr	r3, [r3, #0]
     1fa:	2b00      	cmp	r3, #0
     1fc:	d109      	bne.n	212 <cpu_irq_leave_critical+0x22>
     1fe:	4b06      	ldr	r3, [pc, #24]	; (218 <cpu_irq_leave_critical+0x28>)
     200:	781b      	ldrb	r3, [r3, #0]
     202:	2b00      	cmp	r3, #0
     204:	d005      	beq.n	212 <cpu_irq_leave_critical+0x22>
     206:	2201      	movs	r2, #1
     208:	4b04      	ldr	r3, [pc, #16]	; (21c <cpu_irq_leave_critical+0x2c>)
     20a:	701a      	strb	r2, [r3, #0]
     20c:	f3bf 8f5f 	dmb	sy
     210:	b662      	cpsie	i
     212:	4770      	bx	lr
     214:	200000fc 	.word	0x200000fc
     218:	20000100 	.word	0x20000100
     21c:	20000008 	.word	0x20000008

00000220 <system_board_init>:
     220:	b5f0      	push	{r4, r5, r6, r7, lr}
     222:	b083      	sub	sp, #12
     224:	2501      	movs	r5, #1
     226:	466b      	mov	r3, sp
     228:	2600      	movs	r6, #0
     22a:	4c29      	ldr	r4, [pc, #164]	; (2d0 <system_board_init+0xb0>)
     22c:	4669      	mov	r1, sp
     22e:	2013      	movs	r0, #19
     230:	705d      	strb	r5, [r3, #1]
     232:	709e      	strb	r6, [r3, #2]
     234:	701d      	strb	r5, [r3, #0]
     236:	47a0      	blx	r4
     238:	2380      	movs	r3, #128	; 0x80
     23a:	4f26      	ldr	r7, [pc, #152]	; (2d4 <system_board_init+0xb4>)
     23c:	031b      	lsls	r3, r3, #12
     23e:	61bb      	str	r3, [r7, #24]
     240:	466b      	mov	r3, sp
     242:	4669      	mov	r1, sp
     244:	201c      	movs	r0, #28
     246:	701e      	strb	r6, [r3, #0]
     248:	705d      	strb	r5, [r3, #1]
     24a:	47a0      	blx	r4
     24c:	466b      	mov	r3, sp
     24e:	4669      	mov	r1, sp
     250:	2052      	movs	r0, #82	; 0x52
     252:	705d      	strb	r5, [r3, #1]
     254:	709e      	strb	r6, [r3, #2]
     256:	701d      	strb	r5, [r3, #0]
     258:	47a0      	blx	r4
     25a:	4669      	mov	r1, sp
     25c:	203e      	movs	r0, #62	; 0x3e
     25e:	47a0      	blx	r4
     260:	4669      	mov	r1, sp
     262:	203f      	movs	r0, #63	; 0x3f
     264:	47a0      	blx	r4
     266:	4669      	mov	r1, sp
     268:	202f      	movs	r0, #47	; 0x2f
     26a:	47a0      	blx	r4
     26c:	4669      	mov	r1, sp
     26e:	2014      	movs	r0, #20
     270:	47a0      	blx	r4
     272:	2280      	movs	r2, #128	; 0x80
     274:	4b18      	ldr	r3, [pc, #96]	; (2d8 <system_board_init+0xb8>)
     276:	02d2      	lsls	r2, r2, #11
     278:	619a      	str	r2, [r3, #24]
     27a:	2280      	movs	r2, #128	; 0x80
     27c:	4b17      	ldr	r3, [pc, #92]	; (2dc <system_board_init+0xbc>)
     27e:	05d2      	lsls	r2, r2, #23
     280:	619a      	str	r2, [r3, #24]
     282:	2280      	movs	r2, #128	; 0x80
     284:	0612      	lsls	r2, r2, #24
     286:	619a      	str	r2, [r3, #24]
     288:	2280      	movs	r2, #128	; 0x80
     28a:	0212      	lsls	r2, r2, #8
     28c:	619a      	str	r2, [r3, #24]
     28e:	2380      	movs	r3, #128	; 0x80
     290:	035b      	lsls	r3, r3, #13
     292:	61bb      	str	r3, [r7, #24]
     294:	466b      	mov	r3, sp
     296:	4669      	mov	r1, sp
     298:	2053      	movs	r0, #83	; 0x53
     29a:	701e      	strb	r6, [r3, #0]
     29c:	47a0      	blx	r4
     29e:	2380      	movs	r3, #128	; 0x80
     2a0:	4a0f      	ldr	r2, [pc, #60]	; (2e0 <system_board_init+0xc0>)
     2a2:	039b      	lsls	r3, r3, #14
     2a4:	6a11      	ldr	r1, [r2, #32]
     2a6:	ac01      	add	r4, sp, #4
     2a8:	430b      	orrs	r3, r1
     2aa:	6213      	str	r3, [r2, #32]
     2ac:	2204      	movs	r2, #4
     2ae:	4b0d      	ldr	r3, [pc, #52]	; (2e4 <system_board_init+0xc4>)
     2b0:	0021      	movs	r1, r4
     2b2:	801a      	strh	r2, [r3, #0]
     2b4:	2305      	movs	r3, #5
     2b6:	70a5      	strb	r5, [r4, #2]
     2b8:	7065      	strb	r5, [r4, #1]
     2ba:	2009      	movs	r0, #9
     2bc:	4d0a      	ldr	r5, [pc, #40]	; (2e8 <system_board_init+0xc8>)
     2be:	7023      	strb	r3, [r4, #0]
     2c0:	70e6      	strb	r6, [r4, #3]
     2c2:	47a8      	blx	r5
     2c4:	0021      	movs	r1, r4
     2c6:	200c      	movs	r0, #12
     2c8:	47a8      	blx	r5
     2ca:	b003      	add	sp, #12
     2cc:	bdf0      	pop	{r4, r5, r6, r7, pc}
     2ce:	46c0      	nop			; (mov r8, r8)
     2d0:	0000049d 	.word	0x0000049d
     2d4:	41004400 	.word	0x41004400
     2d8:	41004500 	.word	0x41004500
     2dc:	41004480 	.word	0x41004480
     2e0:	40000400 	.word	0x40000400
     2e4:	42005400 	.word	0x42005400
     2e8:	00001c55 	.word	0x00001c55

000002ec <extint_register_callback>:
     2ec:	2317      	movs	r3, #23
     2ee:	2a00      	cmp	r2, #0
     2f0:	d001      	beq.n	2f6 <extint_register_callback+0xa>
     2f2:	0018      	movs	r0, r3
     2f4:	4770      	bx	lr
     2f6:	4a06      	ldr	r2, [pc, #24]	; (310 <extint_register_callback+0x24>)
     2f8:	0089      	lsls	r1, r1, #2
     2fa:	588b      	ldr	r3, [r1, r2]
     2fc:	2b00      	cmp	r3, #0
     2fe:	d003      	beq.n	308 <extint_register_callback+0x1c>
     300:	4283      	cmp	r3, r0
     302:	d003      	beq.n	30c <extint_register_callback+0x20>
     304:	231d      	movs	r3, #29
     306:	e7f4      	b.n	2f2 <extint_register_callback+0x6>
     308:	5088      	str	r0, [r1, r2]
     30a:	e7f2      	b.n	2f2 <extint_register_callback+0x6>
     30c:	2300      	movs	r3, #0
     30e:	e7f0      	b.n	2f2 <extint_register_callback+0x6>
     310:	200003cc 	.word	0x200003cc

00000314 <extint_chan_enable_callback>:
     314:	2317      	movs	r3, #23
     316:	2900      	cmp	r1, #0
     318:	d001      	beq.n	31e <extint_chan_enable_callback+0xa>
     31a:	0018      	movs	r0, r3
     31c:	4770      	bx	lr
     31e:	281f      	cmp	r0, #31
     320:	d805      	bhi.n	32e <extint_chan_enable_callback+0x1a>
     322:	3b16      	subs	r3, #22
     324:	4083      	lsls	r3, r0
     326:	4a03      	ldr	r2, [pc, #12]	; (334 <extint_chan_enable_callback+0x20>)
     328:	60d3      	str	r3, [r2, #12]
     32a:	2300      	movs	r3, #0
     32c:	e7f5      	b.n	31a <extint_chan_enable_callback+0x6>
     32e:	60c9      	str	r1, [r1, #12]
     330:	deff      	udf	#255	; 0xff
     332:	46c0      	nop			; (mov r8, r8)
     334:	40001800 	.word	0x40001800

00000338 <extint_chan_disable_callback>:
     338:	2317      	movs	r3, #23
     33a:	2900      	cmp	r1, #0
     33c:	d001      	beq.n	342 <extint_chan_disable_callback+0xa>
     33e:	0018      	movs	r0, r3
     340:	4770      	bx	lr
     342:	281f      	cmp	r0, #31
     344:	d805      	bhi.n	352 <extint_chan_disable_callback+0x1a>
     346:	3b16      	subs	r3, #22
     348:	4083      	lsls	r3, r0
     34a:	4a03      	ldr	r2, [pc, #12]	; (358 <extint_chan_disable_callback+0x20>)
     34c:	6093      	str	r3, [r2, #8]
     34e:	2300      	movs	r3, #0
     350:	e7f5      	b.n	33e <extint_chan_disable_callback+0x6>
     352:	6089      	str	r1, [r1, #8]
     354:	deff      	udf	#255	; 0xff
     356:	46c0      	nop			; (mov r8, r8)
     358:	40001800 	.word	0x40001800

0000035c <EIC_Handler>:
     35c:	b5f8      	push	{r3, r4, r5, r6, r7, lr}
     35e:	2300      	movs	r3, #0
     360:	2601      	movs	r6, #1
     362:	4c0b      	ldr	r4, [pc, #44]	; (390 <EIC_Handler+0x34>)
     364:	4d0b      	ldr	r5, [pc, #44]	; (394 <EIC_Handler+0x38>)
     366:	4f0c      	ldr	r7, [pc, #48]	; (398 <EIC_Handler+0x3c>)
     368:	7023      	strb	r3, [r4, #0]
     36a:	0032      	movs	r2, r6
     36c:	409a      	lsls	r2, r3
     36e:	6929      	ldr	r1, [r5, #16]
     370:	4211      	tst	r1, r2
     372:	d006      	beq.n	382 <EIC_Handler+0x26>
     374:	612a      	str	r2, [r5, #16]
     376:	009b      	lsls	r3, r3, #2
     378:	59db      	ldr	r3, [r3, r7]
     37a:	2b00      	cmp	r3, #0
     37c:	d000      	beq.n	380 <EIC_Handler+0x24>
     37e:	4798      	blx	r3
     380:	7823      	ldrb	r3, [r4, #0]
     382:	3301      	adds	r3, #1
     384:	b2db      	uxtb	r3, r3
     386:	7023      	strb	r3, [r4, #0]
     388:	2b0f      	cmp	r3, #15
     38a:	d9ee      	bls.n	36a <EIC_Handler+0xe>
     38c:	bdf8      	pop	{r3, r4, r5, r6, r7, pc}
     38e:	46c0      	nop			; (mov r8, r8)
     390:	200003c8 	.word	0x200003c8
     394:	40001800 	.word	0x40001800
     398:	200003cc 	.word	0x200003cc

0000039c <_system_extint_init>:
     39c:	2140      	movs	r1, #64	; 0x40
     39e:	b510      	push	{r4, lr}
     3a0:	4a14      	ldr	r2, [pc, #80]	; (3f4 <_system_extint_init+0x58>)
     3a2:	b082      	sub	sp, #8
     3a4:	6993      	ldr	r3, [r2, #24]
     3a6:	2005      	movs	r0, #5
     3a8:	430b      	orrs	r3, r1
     3aa:	6193      	str	r3, [r2, #24]
     3ac:	2300      	movs	r3, #0
     3ae:	a901      	add	r1, sp, #4
     3b0:	700b      	strb	r3, [r1, #0]
     3b2:	4b11      	ldr	r3, [pc, #68]	; (3f8 <_system_extint_init+0x5c>)
     3b4:	4798      	blx	r3
     3b6:	4b11      	ldr	r3, [pc, #68]	; (3fc <_system_extint_init+0x60>)
     3b8:	2005      	movs	r0, #5
     3ba:	4798      	blx	r3
     3bc:	2201      	movs	r2, #1
     3be:	4c10      	ldr	r4, [pc, #64]	; (400 <_system_extint_init+0x64>)
     3c0:	7823      	ldrb	r3, [r4, #0]
     3c2:	4313      	orrs	r3, r2
     3c4:	7023      	strb	r3, [r4, #0]
     3c6:	7863      	ldrb	r3, [r4, #1]
     3c8:	b25b      	sxtb	r3, r3
     3ca:	2b00      	cmp	r3, #0
     3cc:	dbfb      	blt.n	3c6 <_system_extint_init+0x2a>
     3ce:	2240      	movs	r2, #64	; 0x40
     3d0:	4b0c      	ldr	r3, [pc, #48]	; (404 <_system_extint_init+0x68>)
     3d2:	2100      	movs	r1, #0
     3d4:	480c      	ldr	r0, [pc, #48]	; (408 <_system_extint_init+0x6c>)
     3d6:	4798      	blx	r3
     3d8:	2210      	movs	r2, #16
     3da:	4b0c      	ldr	r3, [pc, #48]	; (40c <_system_extint_init+0x70>)
     3dc:	601a      	str	r2, [r3, #0]
     3de:	7823      	ldrb	r3, [r4, #0]
     3e0:	3a0e      	subs	r2, #14
     3e2:	4313      	orrs	r3, r2
     3e4:	4a06      	ldr	r2, [pc, #24]	; (400 <_system_extint_init+0x64>)
     3e6:	7023      	strb	r3, [r4, #0]
     3e8:	7853      	ldrb	r3, [r2, #1]
     3ea:	b25b      	sxtb	r3, r3
     3ec:	2b00      	cmp	r3, #0
     3ee:	dbfb      	blt.n	3e8 <_system_extint_init+0x4c>
     3f0:	b002      	add	sp, #8
     3f2:	bd10      	pop	{r4, pc}
     3f4:	40000400 	.word	0x40000400
     3f8:	00001b29 	.word	0x00001b29
     3fc:	00001b8d 	.word	0x00001b8d
     400:	40001800 	.word	0x40001800
     404:	000095f1 	.word	0x000095f1
     408:	200003cc 	.word	0x200003cc
     40c:	e000e100 	.word	0xe000e100

00000410 <extint_chan_get_config_defaults>:
     410:	2300      	movs	r3, #0
     412:	2201      	movs	r2, #1
     414:	6003      	str	r3, [r0, #0]
     416:	6043      	str	r3, [r0, #4]
     418:	7283      	strb	r3, [r0, #10]
     41a:	3302      	adds	r3, #2
     41c:	7202      	strb	r2, [r0, #8]
     41e:	7242      	strb	r2, [r0, #9]
     420:	72c3      	strb	r3, [r0, #11]
     422:	4770      	bx	lr

00000424 <extint_chan_set_config>:
     424:	b5f0      	push	{r4, r5, r6, r7, lr}
     426:	2300      	movs	r3, #0
     428:	000c      	movs	r4, r1
     42a:	b083      	sub	sp, #12
     42c:	a901      	add	r1, sp, #4
     42e:	704b      	strb	r3, [r1, #1]
     430:	70cb      	strb	r3, [r1, #3]
     432:	7923      	ldrb	r3, [r4, #4]
     434:	0005      	movs	r5, r0
     436:	700b      	strb	r3, [r1, #0]
     438:	7a23      	ldrb	r3, [r4, #8]
     43a:	7820      	ldrb	r0, [r4, #0]
     43c:	708b      	strb	r3, [r1, #2]
     43e:	4b15      	ldr	r3, [pc, #84]	; (494 <extint_chan_set_config+0x70>)
     440:	4798      	blx	r3
     442:	2000      	movs	r0, #0
     444:	2d1f      	cmp	r5, #31
     446:	d800      	bhi.n	44a <extint_chan_set_config+0x26>
     448:	4813      	ldr	r0, [pc, #76]	; (498 <extint_chan_set_config+0x74>)
     44a:	2207      	movs	r2, #7
     44c:	7aa3      	ldrb	r3, [r4, #10]
     44e:	402a      	ands	r2, r5
     450:	0092      	lsls	r2, r2, #2
     452:	7ae7      	ldrb	r7, [r4, #11]
     454:	2b00      	cmp	r3, #0
     456:	d001      	beq.n	45c <extint_chan_set_config+0x38>
     458:	2308      	movs	r3, #8
     45a:	431f      	orrs	r7, r3
     45c:	260f      	movs	r6, #15
     45e:	4097      	lsls	r7, r2
     460:	4096      	lsls	r6, r2
     462:	003a      	movs	r2, r7
     464:	08eb      	lsrs	r3, r5, #3
     466:	009b      	lsls	r3, r3, #2
     468:	18c3      	adds	r3, r0, r3
     46a:	6999      	ldr	r1, [r3, #24]
     46c:	43b1      	bics	r1, r6
     46e:	430a      	orrs	r2, r1
     470:	619a      	str	r2, [r3, #24]
     472:	7a63      	ldrb	r3, [r4, #9]
     474:	2b00      	cmp	r3, #0
     476:	d106      	bne.n	486 <extint_chan_set_config+0x62>
     478:	2201      	movs	r2, #1
     47a:	40aa      	lsls	r2, r5
     47c:	6943      	ldr	r3, [r0, #20]
     47e:	4393      	bics	r3, r2
     480:	6143      	str	r3, [r0, #20]
     482:	b003      	add	sp, #12
     484:	bdf0      	pop	{r4, r5, r6, r7, pc}
     486:	2301      	movs	r3, #1
     488:	40ab      	lsls	r3, r5
     48a:	6942      	ldr	r2, [r0, #20]
     48c:	4313      	orrs	r3, r2
     48e:	6143      	str	r3, [r0, #20]
     490:	e7f7      	b.n	482 <extint_chan_set_config+0x5e>
     492:	46c0      	nop			; (mov r8, r8)
     494:	00001c55 	.word	0x00001c55
     498:	40001800 	.word	0x40001800

0000049c <port_pin_set_config>:
     49c:	2280      	movs	r2, #128	; 0x80
     49e:	b500      	push	{lr}
     4a0:	b083      	sub	sp, #12
     4a2:	ab01      	add	r3, sp, #4
     4a4:	701a      	strb	r2, [r3, #0]
     4a6:	780a      	ldrb	r2, [r1, #0]
     4a8:	705a      	strb	r2, [r3, #1]
     4aa:	784a      	ldrb	r2, [r1, #1]
     4ac:	709a      	strb	r2, [r3, #2]
     4ae:	788a      	ldrb	r2, [r1, #2]
     4b0:	0019      	movs	r1, r3
     4b2:	70da      	strb	r2, [r3, #3]
     4b4:	4b01      	ldr	r3, [pc, #4]	; (4bc <port_pin_set_config+0x20>)
     4b6:	4798      	blx	r3
     4b8:	b003      	add	sp, #12
     4ba:	bd00      	pop	{pc}
     4bc:	00001c55 	.word	0x00001c55

000004c0 <_sercom_get_sync_baud_val>:
     4c0:	b510      	push	{r4, lr}
     4c2:	0849      	lsrs	r1, r1, #1
     4c4:	2340      	movs	r3, #64	; 0x40
     4c6:	2400      	movs	r4, #0
     4c8:	4281      	cmp	r1, r0
     4ca:	d202      	bcs.n	4d2 <_sercom_get_sync_baud_val+0x12>
     4cc:	0018      	movs	r0, r3
     4ce:	bd10      	pop	{r4, pc}
     4d0:	001c      	movs	r4, r3
     4d2:	1c63      	adds	r3, r4, #1
     4d4:	1a09      	subs	r1, r1, r0
     4d6:	b29b      	uxth	r3, r3
     4d8:	4288      	cmp	r0, r1
     4da:	d9f9      	bls.n	4d0 <_sercom_get_sync_baud_val+0x10>
     4dc:	2340      	movs	r3, #64	; 0x40
     4de:	2cff      	cmp	r4, #255	; 0xff
     4e0:	d8f4      	bhi.n	4cc <_sercom_get_sync_baud_val+0xc>
     4e2:	8014      	strh	r4, [r2, #0]
     4e4:	2300      	movs	r3, #0
     4e6:	e7f1      	b.n	4cc <_sercom_get_sync_baud_val+0xc>

000004e8 <_sercom_get_async_baud_val>:
     4e8:	b5f0      	push	{r4, r5, r6, r7, lr}
     4ea:	46de      	mov	lr, fp
     4ec:	4645      	mov	r5, r8
     4ee:	4657      	mov	r7, sl
     4f0:	464e      	mov	r6, r9
     4f2:	b5e0      	push	{r5, r6, r7, lr}
     4f4:	b087      	sub	sp, #28
     4f6:	4693      	mov	fp, r2
     4f8:	aa10      	add	r2, sp, #64	; 0x40
     4fa:	7814      	ldrb	r4, [r2, #0]
     4fc:	0002      	movs	r2, r0
     4fe:	4688      	mov	r8, r1
     500:	4362      	muls	r2, r4
     502:	2140      	movs	r1, #64	; 0x40
     504:	4542      	cmp	r2, r8
     506:	d907      	bls.n	518 <_sercom_get_async_baud_val+0x30>
     508:	0008      	movs	r0, r1
     50a:	b007      	add	sp, #28
     50c:	bc3c      	pop	{r2, r3, r4, r5}
     50e:	4690      	mov	r8, r2
     510:	4699      	mov	r9, r3
     512:	46a2      	mov	sl, r4
     514:	46ab      	mov	fp, r5
     516:	bdf0      	pop	{r4, r5, r6, r7, pc}
     518:	2b00      	cmp	r3, #0
     51a:	d15f      	bne.n	5dc <_sercom_get_async_baud_val+0xf4>
     51c:	0002      	movs	r2, r0
     51e:	2100      	movs	r1, #0
     520:	0020      	movs	r0, r4
     522:	4c8a      	ldr	r4, [pc, #552]	; (74c <_sercom_get_async_baud_val+0x264>)
     524:	47a0      	blx	r4
     526:	4643      	mov	r3, r8
     528:	9300      	str	r3, [sp, #0]
     52a:	2300      	movs	r3, #0
     52c:	2120      	movs	r1, #32
     52e:	4698      	mov	r8, r3
     530:	468a      	mov	sl, r1
     532:	391f      	subs	r1, #31
     534:	2700      	movs	r7, #0
     536:	468c      	mov	ip, r1
     538:	4641      	mov	r1, r8
     53a:	4681      	mov	r9, r0
     53c:	9301      	str	r3, [sp, #4]
     53e:	46d8      	mov	r8, fp
     540:	2200      	movs	r2, #0
     542:	2300      	movs	r3, #0
     544:	203f      	movs	r0, #63	; 0x3f
     546:	9102      	str	r1, [sp, #8]
     548:	46bb      	mov	fp, r7
     54a:	e00f      	b.n	56c <_sercom_get_async_baud_val+0x84>
     54c:	42bd      	cmp	r5, r7
     54e:	d052      	beq.n	5f6 <_sercom_get_async_baud_val+0x10e>
     550:	46a3      	mov	fp, r4
     552:	9c00      	ldr	r4, [sp, #0]
     554:	9d01      	ldr	r5, [sp, #4]
     556:	9102      	str	r1, [sp, #8]
     558:	42bd      	cmp	r5, r7
     55a:	d834      	bhi.n	5c6 <_sercom_get_async_baud_val+0xde>
     55c:	42bd      	cmp	r5, r7
     55e:	d050      	beq.n	602 <_sercom_get_async_baud_val+0x11a>
     560:	0011      	movs	r1, r2
     562:	001c      	movs	r4, r3
     564:	000a      	movs	r2, r1
     566:	0023      	movs	r3, r4
     568:	3801      	subs	r0, #1
     56a:	d332      	bcc.n	5d2 <_sercom_get_async_baud_val+0xea>
     56c:	2120      	movs	r1, #32
     56e:	4249      	negs	r1, r1
     570:	1841      	adds	r1, r0, r1
     572:	d43a      	bmi.n	5ea <_sercom_get_async_baud_val+0x102>
     574:	4664      	mov	r4, ip
     576:	408c      	lsls	r4, r1
     578:	0021      	movs	r1, r4
     57a:	4664      	mov	r4, ip
     57c:	4084      	lsls	r4, r0
     57e:	1892      	adds	r2, r2, r2
     580:	415b      	adcs	r3, r3
     582:	9404      	str	r4, [sp, #16]
     584:	4666      	mov	r6, ip
     586:	464c      	mov	r4, r9
     588:	4316      	orrs	r6, r2
     58a:	420c      	tst	r4, r1
     58c:	d000      	beq.n	590 <_sercom_get_async_baud_val+0xa8>
     58e:	0032      	movs	r2, r6
     590:	0014      	movs	r4, r2
     592:	001d      	movs	r5, r3
     594:	0016      	movs	r6, r2
     596:	001f      	movs	r7, r3
     598:	9a00      	ldr	r2, [sp, #0]
     59a:	9b01      	ldr	r3, [sp, #4]
     59c:	1aa4      	subs	r4, r4, r2
     59e:	419d      	sbcs	r5, r3
     5a0:	0022      	movs	r2, r4
     5a2:	465c      	mov	r4, fp
     5a4:	002b      	movs	r3, r5
     5a6:	9d04      	ldr	r5, [sp, #16]
     5a8:	4325      	orrs	r5, r4
     5aa:	002c      	movs	r4, r5
     5ac:	9d02      	ldr	r5, [sp, #8]
     5ae:	4329      	orrs	r1, r5
     5b0:	9d01      	ldr	r5, [sp, #4]
     5b2:	42bd      	cmp	r5, r7
     5b4:	d9ca      	bls.n	54c <_sercom_get_async_baud_val+0x64>
     5b6:	465c      	mov	r4, fp
     5b8:	9902      	ldr	r1, [sp, #8]
     5ba:	46a3      	mov	fp, r4
     5bc:	9c00      	ldr	r4, [sp, #0]
     5be:	9d01      	ldr	r5, [sp, #4]
     5c0:	9102      	str	r1, [sp, #8]
     5c2:	42bd      	cmp	r5, r7
     5c4:	d9ca      	bls.n	55c <_sercom_get_async_baud_val+0x74>
     5c6:	0031      	movs	r1, r6
     5c8:	003c      	movs	r4, r7
     5ca:	000a      	movs	r2, r1
     5cc:	0023      	movs	r3, r4
     5ce:	3801      	subs	r0, #1
     5d0:	d2cc      	bcs.n	56c <_sercom_get_async_baud_val+0x84>
     5d2:	465f      	mov	r7, fp
     5d4:	427f      	negs	r7, r7
     5d6:	46c3      	mov	fp, r8
     5d8:	0c3f      	lsrs	r7, r7, #16
     5da:	e002      	b.n	5e2 <_sercom_get_async_baud_val+0xfa>
     5dc:	2700      	movs	r7, #0
     5de:	2b01      	cmp	r3, #1
     5e0:	d015      	beq.n	60e <_sercom_get_async_baud_val+0x126>
     5e2:	465b      	mov	r3, fp
     5e4:	2100      	movs	r1, #0
     5e6:	801f      	strh	r7, [r3, #0]
     5e8:	e78e      	b.n	508 <_sercom_get_async_baud_val+0x20>
     5ea:	4651      	mov	r1, sl
     5ec:	4664      	mov	r4, ip
     5ee:	1a09      	subs	r1, r1, r0
     5f0:	40cc      	lsrs	r4, r1
     5f2:	0021      	movs	r1, r4
     5f4:	e7c1      	b.n	57a <_sercom_get_async_baud_val+0x92>
     5f6:	9d00      	ldr	r5, [sp, #0]
     5f8:	42b5      	cmp	r5, r6
     5fa:	d9a9      	bls.n	550 <_sercom_get_async_baud_val+0x68>
     5fc:	465c      	mov	r4, fp
     5fe:	9902      	ldr	r1, [sp, #8]
     600:	e7db      	b.n	5ba <_sercom_get_async_baud_val+0xd2>
     602:	9900      	ldr	r1, [sp, #0]
     604:	42b1      	cmp	r1, r6
     606:	d9ab      	bls.n	560 <_sercom_get_async_baud_val+0x78>
     608:	0031      	movs	r1, r6
     60a:	003c      	movs	r4, r7
     60c:	e7dd      	b.n	5ca <_sercom_get_async_baud_val+0xe2>
     60e:	0022      	movs	r2, r4
     610:	2300      	movs	r3, #0
     612:	4c4e      	ldr	r4, [pc, #312]	; (74c <_sercom_get_async_baud_val+0x264>)
     614:	2100      	movs	r1, #0
     616:	47a0      	blx	r4
     618:	2401      	movs	r4, #1
     61a:	000b      	movs	r3, r1
     61c:	2100      	movs	r1, #0
     61e:	0002      	movs	r2, r0
     620:	468c      	mov	ip, r1
     622:	2000      	movs	r0, #0
     624:	2100      	movs	r1, #0
     626:	263f      	movs	r6, #63	; 0x3f
     628:	46a1      	mov	r9, r4
     62a:	e018      	b.n	65e <_sercom_get_async_baud_val+0x176>
     62c:	0004      	movs	r4, r0
     62e:	000d      	movs	r5, r1
     630:	0020      	movs	r0, r4
     632:	0029      	movs	r1, r5
     634:	1aa4      	subs	r4, r4, r2
     636:	419d      	sbcs	r5, r3
     638:	9400      	str	r4, [sp, #0]
     63a:	9501      	str	r5, [sp, #4]
     63c:	4664      	mov	r4, ip
     63e:	4327      	orrs	r7, r4
     640:	428b      	cmp	r3, r1
     642:	d81e      	bhi.n	682 <_sercom_get_async_baud_val+0x19a>
     644:	d01b      	beq.n	67e <_sercom_get_async_baud_val+0x196>
     646:	46bc      	mov	ip, r7
     648:	428b      	cmp	r3, r1
     64a:	d815      	bhi.n	678 <_sercom_get_async_baud_val+0x190>
     64c:	d012      	beq.n	674 <_sercom_get_async_baud_val+0x18c>
     64e:	9800      	ldr	r0, [sp, #0]
     650:	9901      	ldr	r1, [sp, #4]
     652:	4682      	mov	sl, r0
     654:	000c      	movs	r4, r1
     656:	4650      	mov	r0, sl
     658:	0021      	movs	r1, r4
     65a:	3e01      	subs	r6, #1
     65c:	d313      	bcc.n	686 <_sercom_get_async_baud_val+0x19e>
     65e:	464f      	mov	r7, r9
     660:	1800      	adds	r0, r0, r0
     662:	4149      	adcs	r1, r1
     664:	464c      	mov	r4, r9
     666:	40b7      	lsls	r7, r6
     668:	4645      	mov	r5, r8
     66a:	4304      	orrs	r4, r0
     66c:	422f      	tst	r7, r5
     66e:	d0dd      	beq.n	62c <_sercom_get_async_baud_val+0x144>
     670:	000d      	movs	r5, r1
     672:	e7dd      	b.n	630 <_sercom_get_async_baud_val+0x148>
     674:	4282      	cmp	r2, r0
     676:	d9ea      	bls.n	64e <_sercom_get_async_baud_val+0x166>
     678:	4682      	mov	sl, r0
     67a:	000c      	movs	r4, r1
     67c:	e7eb      	b.n	656 <_sercom_get_async_baud_val+0x16e>
     67e:	4282      	cmp	r2, r0
     680:	d9e1      	bls.n	646 <_sercom_get_async_baud_val+0x15e>
     682:	4667      	mov	r7, ip
     684:	e7df      	b.n	646 <_sercom_get_async_baud_val+0x15e>
     686:	2080      	movs	r0, #128	; 0x80
     688:	2140      	movs	r1, #64	; 0x40
     68a:	0180      	lsls	r0, r0, #6
     68c:	4287      	cmp	r7, r0
     68e:	d900      	bls.n	692 <_sercom_get_async_baud_val+0x1aa>
     690:	e73a      	b.n	508 <_sercom_get_async_baud_val+0x20>
     692:	4641      	mov	r1, r8
     694:	0f49      	lsrs	r1, r1, #29
     696:	000c      	movs	r4, r1
     698:	263f      	movs	r6, #63	; 0x3f
     69a:	4641      	mov	r1, r8
     69c:	46b4      	mov	ip, r6
     69e:	00c9      	lsls	r1, r1, #3
     6a0:	3e3e      	subs	r6, #62	; 0x3e
     6a2:	000d      	movs	r5, r1
     6a4:	46b0      	mov	r8, r6
     6a6:	2100      	movs	r1, #0
     6a8:	465e      	mov	r6, fp
     6aa:	4689      	mov	r9, r1
     6ac:	9705      	str	r7, [sp, #20]
     6ae:	2000      	movs	r0, #0
     6b0:	4667      	mov	r7, ip
     6b2:	2100      	movs	r1, #0
     6b4:	9604      	str	r6, [sp, #16]
     6b6:	46a2      	mov	sl, r4
     6b8:	46ac      	mov	ip, r5
     6ba:	e018      	b.n	6ee <_sercom_get_async_baud_val+0x206>
     6bc:	0004      	movs	r4, r0
     6be:	000d      	movs	r5, r1
     6c0:	0020      	movs	r0, r4
     6c2:	0029      	movs	r1, r5
     6c4:	1aa4      	subs	r4, r4, r2
     6c6:	419d      	sbcs	r5, r3
     6c8:	464e      	mov	r6, r9
     6ca:	9402      	str	r4, [sp, #8]
     6cc:	9503      	str	r5, [sp, #12]
     6ce:	9c00      	ldr	r4, [sp, #0]
     6d0:	4334      	orrs	r4, r6
     6d2:	0026      	movs	r6, r4
     6d4:	428b      	cmp	r3, r1
     6d6:	d828      	bhi.n	72a <_sercom_get_async_baud_val+0x242>
     6d8:	d025      	beq.n	726 <_sercom_get_async_baud_val+0x23e>
     6da:	46b1      	mov	r9, r6
     6dc:	428b      	cmp	r3, r1
     6de:	d81f      	bhi.n	720 <_sercom_get_async_baud_val+0x238>
     6e0:	d01c      	beq.n	71c <_sercom_get_async_baud_val+0x234>
     6e2:	9c02      	ldr	r4, [sp, #8]
     6e4:	9d03      	ldr	r5, [sp, #12]
     6e6:	0020      	movs	r0, r4
     6e8:	0029      	movs	r1, r5
     6ea:	3f01      	subs	r7, #1
     6ec:	d324      	bcc.n	738 <_sercom_get_async_baud_val+0x250>
     6ee:	2420      	movs	r4, #32
     6f0:	4264      	negs	r4, r4
     6f2:	193c      	adds	r4, r7, r4
     6f4:	d41b      	bmi.n	72e <_sercom_get_async_baud_val+0x246>
     6f6:	4645      	mov	r5, r8
     6f8:	40a5      	lsls	r5, r4
     6fa:	1800      	adds	r0, r0, r0
     6fc:	4149      	adcs	r1, r1
     6fe:	4644      	mov	r4, r8
     700:	4646      	mov	r6, r8
     702:	4304      	orrs	r4, r0
     704:	40be      	lsls	r6, r7
     706:	46a3      	mov	fp, r4
     708:	4664      	mov	r4, ip
     70a:	9600      	str	r6, [sp, #0]
     70c:	4034      	ands	r4, r6
     70e:	4656      	mov	r6, sl
     710:	4035      	ands	r5, r6
     712:	4325      	orrs	r5, r4
     714:	d0d2      	beq.n	6bc <_sercom_get_async_baud_val+0x1d4>
     716:	465c      	mov	r4, fp
     718:	000d      	movs	r5, r1
     71a:	e7d1      	b.n	6c0 <_sercom_get_async_baud_val+0x1d8>
     71c:	4282      	cmp	r2, r0
     71e:	d9e0      	bls.n	6e2 <_sercom_get_async_baud_val+0x1fa>
     720:	0004      	movs	r4, r0
     722:	000d      	movs	r5, r1
     724:	e7df      	b.n	6e6 <_sercom_get_async_baud_val+0x1fe>
     726:	4282      	cmp	r2, r0
     728:	d9d7      	bls.n	6da <_sercom_get_async_baud_val+0x1f2>
     72a:	464e      	mov	r6, r9
     72c:	e7d5      	b.n	6da <_sercom_get_async_baud_val+0x1f2>
     72e:	2420      	movs	r4, #32
     730:	4645      	mov	r5, r8
     732:	1be4      	subs	r4, r4, r7
     734:	40e5      	lsrs	r5, r4
     736:	e7e0      	b.n	6fa <_sercom_get_async_baud_val+0x212>
     738:	9b04      	ldr	r3, [sp, #16]
     73a:	9f05      	ldr	r7, [sp, #20]
     73c:	469b      	mov	fp, r3
     73e:	00fb      	lsls	r3, r7, #3
     740:	1af3      	subs	r3, r6, r3
     742:	b2db      	uxtb	r3, r3
     744:	035b      	lsls	r3, r3, #13
     746:	431f      	orrs	r7, r3
     748:	b2bf      	uxth	r7, r7
     74a:	e74a      	b.n	5e2 <_sercom_get_async_baud_val+0xfa>
     74c:	00009525 	.word	0x00009525

00000750 <sercom_set_gclk_generator>:
     750:	b530      	push	{r4, r5, lr}
     752:	4c0e      	ldr	r4, [pc, #56]	; (78c <sercom_set_gclk_generator+0x3c>)
     754:	b083      	sub	sp, #12
     756:	7823      	ldrb	r3, [r4, #0]
     758:	0005      	movs	r5, r0
     75a:	2b00      	cmp	r3, #0
     75c:	d006      	beq.n	76c <sercom_set_gclk_generator+0x1c>
     75e:	2900      	cmp	r1, #0
     760:	d104      	bne.n	76c <sercom_set_gclk_generator+0x1c>
     762:	7863      	ldrb	r3, [r4, #1]
     764:	4283      	cmp	r3, r0
     766:	d00f      	beq.n	788 <sercom_set_gclk_generator+0x38>
     768:	201d      	movs	r0, #29
     76a:	e00b      	b.n	784 <sercom_set_gclk_generator+0x34>
     76c:	a901      	add	r1, sp, #4
     76e:	2013      	movs	r0, #19
     770:	4b07      	ldr	r3, [pc, #28]	; (790 <sercom_set_gclk_generator+0x40>)
     772:	700d      	strb	r5, [r1, #0]
     774:	4798      	blx	r3
     776:	2013      	movs	r0, #19
     778:	4b06      	ldr	r3, [pc, #24]	; (794 <sercom_set_gclk_generator+0x44>)
     77a:	4798      	blx	r3
     77c:	2301      	movs	r3, #1
     77e:	2000      	movs	r0, #0
     780:	7065      	strb	r5, [r4, #1]
     782:	7023      	strb	r3, [r4, #0]
     784:	b003      	add	sp, #12
     786:	bd30      	pop	{r4, r5, pc}
     788:	2000      	movs	r0, #0
     78a:	e7fb      	b.n	784 <sercom_set_gclk_generator+0x34>
     78c:	20000104 	.word	0x20000104
     790:	00001b29 	.word	0x00001b29
     794:	00001b8d 	.word	0x00001b8d

00000798 <_sercom_get_default_pad>:
     798:	4b3a      	ldr	r3, [pc, #232]	; (884 <_sercom_get_default_pad+0xec>)
     79a:	4298      	cmp	r0, r3
     79c:	d043      	beq.n	826 <_sercom_get_default_pad+0x8e>
     79e:	d90a      	bls.n	7b6 <_sercom_get_default_pad+0x1e>
     7a0:	4b39      	ldr	r3, [pc, #228]	; (888 <_sercom_get_default_pad+0xf0>)
     7a2:	4298      	cmp	r0, r3
     7a4:	d017      	beq.n	7d6 <_sercom_get_default_pad+0x3e>
     7a6:	4b39      	ldr	r3, [pc, #228]	; (88c <_sercom_get_default_pad+0xf4>)
     7a8:	4298      	cmp	r0, r3
     7aa:	d032      	beq.n	812 <_sercom_get_default_pad+0x7a>
     7ac:	4b38      	ldr	r3, [pc, #224]	; (890 <_sercom_get_default_pad+0xf8>)
     7ae:	4298      	cmp	r0, r3
     7b0:	d01b      	beq.n	7ea <_sercom_get_default_pad+0x52>
     7b2:	2000      	movs	r0, #0
     7b4:	4770      	bx	lr
     7b6:	4b37      	ldr	r3, [pc, #220]	; (894 <_sercom_get_default_pad+0xfc>)
     7b8:	4298      	cmp	r0, r3
     7ba:	d020      	beq.n	7fe <_sercom_get_default_pad+0x66>
     7bc:	4b36      	ldr	r3, [pc, #216]	; (898 <_sercom_get_default_pad+0x100>)
     7be:	4298      	cmp	r0, r3
     7c0:	d1f7      	bne.n	7b2 <_sercom_get_default_pad+0x1a>
     7c2:	2901      	cmp	r1, #1
     7c4:	d043      	beq.n	84e <_sercom_get_default_pad+0xb6>
     7c6:	2900      	cmp	r1, #0
     7c8:	d03f      	beq.n	84a <_sercom_get_default_pad+0xb2>
     7ca:	2902      	cmp	r1, #2
     7cc:	d03b      	beq.n	846 <_sercom_get_default_pad+0xae>
     7ce:	2903      	cmp	r1, #3
     7d0:	d1ef      	bne.n	7b2 <_sercom_get_default_pad+0x1a>
     7d2:	4832      	ldr	r0, [pc, #200]	; (89c <_sercom_get_default_pad+0x104>)
     7d4:	e7ee      	b.n	7b4 <_sercom_get_default_pad+0x1c>
     7d6:	2901      	cmp	r1, #1
     7d8:	d031      	beq.n	83e <_sercom_get_default_pad+0xa6>
     7da:	2900      	cmp	r1, #0
     7dc:	d02d      	beq.n	83a <_sercom_get_default_pad+0xa2>
     7de:	2902      	cmp	r1, #2
     7e0:	d02f      	beq.n	842 <_sercom_get_default_pad+0xaa>
     7e2:	2903      	cmp	r1, #3
     7e4:	d1e5      	bne.n	7b2 <_sercom_get_default_pad+0x1a>
     7e6:	482e      	ldr	r0, [pc, #184]	; (8a0 <_sercom_get_default_pad+0x108>)
     7e8:	e7e4      	b.n	7b4 <_sercom_get_default_pad+0x1c>
     7ea:	2901      	cmp	r1, #1
     7ec:	d03f      	beq.n	86e <_sercom_get_default_pad+0xd6>
     7ee:	2900      	cmp	r1, #0
     7f0:	d03b      	beq.n	86a <_sercom_get_default_pad+0xd2>
     7f2:	2902      	cmp	r1, #2
     7f4:	d037      	beq.n	866 <_sercom_get_default_pad+0xce>
     7f6:	2903      	cmp	r1, #3
     7f8:	d1db      	bne.n	7b2 <_sercom_get_default_pad+0x1a>
     7fa:	482a      	ldr	r0, [pc, #168]	; (8a4 <_sercom_get_default_pad+0x10c>)
     7fc:	e7da      	b.n	7b4 <_sercom_get_default_pad+0x1c>
     7fe:	2901      	cmp	r1, #1
     800:	d03d      	beq.n	87e <_sercom_get_default_pad+0xe6>
     802:	2900      	cmp	r1, #0
     804:	d039      	beq.n	87a <_sercom_get_default_pad+0xe2>
     806:	2902      	cmp	r1, #2
     808:	d02b      	beq.n	862 <_sercom_get_default_pad+0xca>
     80a:	2903      	cmp	r1, #3
     80c:	d1d1      	bne.n	7b2 <_sercom_get_default_pad+0x1a>
     80e:	4826      	ldr	r0, [pc, #152]	; (8a8 <_sercom_get_default_pad+0x110>)
     810:	e7d0      	b.n	7b4 <_sercom_get_default_pad+0x1c>
     812:	2901      	cmp	r1, #1
     814:	d023      	beq.n	85e <_sercom_get_default_pad+0xc6>
     816:	2900      	cmp	r1, #0
     818:	d01f      	beq.n	85a <_sercom_get_default_pad+0xc2>
     81a:	2902      	cmp	r1, #2
     81c:	d01b      	beq.n	856 <_sercom_get_default_pad+0xbe>
     81e:	2903      	cmp	r1, #3
     820:	d1c7      	bne.n	7b2 <_sercom_get_default_pad+0x1a>
     822:	4822      	ldr	r0, [pc, #136]	; (8ac <_sercom_get_default_pad+0x114>)
     824:	e7c6      	b.n	7b4 <_sercom_get_default_pad+0x1c>
     826:	2901      	cmp	r1, #1
     828:	d025      	beq.n	876 <_sercom_get_default_pad+0xde>
     82a:	2900      	cmp	r1, #0
     82c:	d021      	beq.n	872 <_sercom_get_default_pad+0xda>
     82e:	2902      	cmp	r1, #2
     830:	d00f      	beq.n	852 <_sercom_get_default_pad+0xba>
     832:	2903      	cmp	r1, #3
     834:	d1bd      	bne.n	7b2 <_sercom_get_default_pad+0x1a>
     836:	481e      	ldr	r0, [pc, #120]	; (8b0 <_sercom_get_default_pad+0x118>)
     838:	e7bc      	b.n	7b4 <_sercom_get_default_pad+0x1c>
     83a:	481e      	ldr	r0, [pc, #120]	; (8b4 <_sercom_get_default_pad+0x11c>)
     83c:	e7ba      	b.n	7b4 <_sercom_get_default_pad+0x1c>
     83e:	481e      	ldr	r0, [pc, #120]	; (8b8 <_sercom_get_default_pad+0x120>)
     840:	e7b8      	b.n	7b4 <_sercom_get_default_pad+0x1c>
     842:	481e      	ldr	r0, [pc, #120]	; (8bc <_sercom_get_default_pad+0x124>)
     844:	e7b6      	b.n	7b4 <_sercom_get_default_pad+0x1c>
     846:	481e      	ldr	r0, [pc, #120]	; (8c0 <_sercom_get_default_pad+0x128>)
     848:	e7b4      	b.n	7b4 <_sercom_get_default_pad+0x1c>
     84a:	2003      	movs	r0, #3
     84c:	e7b2      	b.n	7b4 <_sercom_get_default_pad+0x1c>
     84e:	481d      	ldr	r0, [pc, #116]	; (8c4 <_sercom_get_default_pad+0x12c>)
     850:	e7b0      	b.n	7b4 <_sercom_get_default_pad+0x1c>
     852:	481d      	ldr	r0, [pc, #116]	; (8c8 <_sercom_get_default_pad+0x130>)
     854:	e7ae      	b.n	7b4 <_sercom_get_default_pad+0x1c>
     856:	481d      	ldr	r0, [pc, #116]	; (8cc <_sercom_get_default_pad+0x134>)
     858:	e7ac      	b.n	7b4 <_sercom_get_default_pad+0x1c>
     85a:	481d      	ldr	r0, [pc, #116]	; (8d0 <_sercom_get_default_pad+0x138>)
     85c:	e7aa      	b.n	7b4 <_sercom_get_default_pad+0x1c>
     85e:	481d      	ldr	r0, [pc, #116]	; (8d4 <_sercom_get_default_pad+0x13c>)
     860:	e7a8      	b.n	7b4 <_sercom_get_default_pad+0x1c>
     862:	481d      	ldr	r0, [pc, #116]	; (8d8 <_sercom_get_default_pad+0x140>)
     864:	e7a6      	b.n	7b4 <_sercom_get_default_pad+0x1c>
     866:	481d      	ldr	r0, [pc, #116]	; (8dc <_sercom_get_default_pad+0x144>)
     868:	e7a4      	b.n	7b4 <_sercom_get_default_pad+0x1c>
     86a:	481d      	ldr	r0, [pc, #116]	; (8e0 <_sercom_get_default_pad+0x148>)
     86c:	e7a2      	b.n	7b4 <_sercom_get_default_pad+0x1c>
     86e:	481d      	ldr	r0, [pc, #116]	; (8e4 <_sercom_get_default_pad+0x14c>)
     870:	e7a0      	b.n	7b4 <_sercom_get_default_pad+0x1c>
     872:	481d      	ldr	r0, [pc, #116]	; (8e8 <_sercom_get_default_pad+0x150>)
     874:	e79e      	b.n	7b4 <_sercom_get_default_pad+0x1c>
     876:	481d      	ldr	r0, [pc, #116]	; (8ec <_sercom_get_default_pad+0x154>)
     878:	e79c      	b.n	7b4 <_sercom_get_default_pad+0x1c>
     87a:	481d      	ldr	r0, [pc, #116]	; (8f0 <_sercom_get_default_pad+0x158>)
     87c:	e79a      	b.n	7b4 <_sercom_get_default_pad+0x1c>
     87e:	481d      	ldr	r0, [pc, #116]	; (8f4 <_sercom_get_default_pad+0x15c>)
     880:	e798      	b.n	7b4 <_sercom_get_default_pad+0x1c>
     882:	46c0      	nop			; (mov r8, r8)
     884:	42001000 	.word	0x42001000
     888:	42001800 	.word	0x42001800
     88c:	42001c00 	.word	0x42001c00
     890:	42001400 	.word	0x42001400
     894:	42000800 	.word	0x42000800
     898:	42000c00 	.word	0x42000c00
     89c:	001f0003 	.word	0x001f0003
     8a0:	00520005 	.word	0x00520005
     8a4:	00130003 	.word	0x00130003
     8a8:	00070003 	.word	0x00070003
     8ac:	00190003 	.word	0x00190003
     8b0:	000f0002 	.word	0x000f0002
     8b4:	00530005 	.word	0x00530005
     8b8:	003f0005 	.word	0x003f0005
     8bc:	003e0005 	.word	0x003e0005
     8c0:	001e0003 	.word	0x001e0003
     8c4:	00010003 	.word	0x00010003
     8c8:	000e0002 	.word	0x000e0002
     8cc:	00180003 	.word	0x00180003
     8d0:	00160003 	.word	0x00160003
     8d4:	00170003 	.word	0x00170003
     8d8:	00060003 	.word	0x00060003
     8dc:	00120003 	.word	0x00120003
     8e0:	00100003 	.word	0x00100003
     8e4:	00110003 	.word	0x00110003
     8e8:	000c0002 	.word	0x000c0002
     8ec:	000d0002 	.word	0x000d0002
     8f0:	00040003 	.word	0x00040003
     8f4:	00050003 	.word	0x00050003

000008f8 <_sercom_get_sercom_inst_index>:
     8f8:	b570      	push	{r4, r5, r6, lr}
     8fa:	b086      	sub	sp, #24
     8fc:	0001      	movs	r1, r0
     8fe:	4668      	mov	r0, sp
     900:	4b15      	ldr	r3, [pc, #84]	; (958 <_sercom_get_sercom_inst_index+0x60>)
     902:	cb70      	ldmia	r3!, {r4, r5, r6}
     904:	c070      	stmia	r0!, {r4, r5, r6}
     906:	cb70      	ldmia	r3!, {r4, r5, r6}
     908:	c070      	stmia	r0!, {r4, r5, r6}
     90a:	9b00      	ldr	r3, [sp, #0]
     90c:	428b      	cmp	r3, r1
     90e:	d011      	beq.n	934 <_sercom_get_sercom_inst_index+0x3c>
     910:	9b01      	ldr	r3, [sp, #4]
     912:	428b      	cmp	r3, r1
     914:	d011      	beq.n	93a <_sercom_get_sercom_inst_index+0x42>
     916:	9b02      	ldr	r3, [sp, #8]
     918:	428b      	cmp	r3, r1
     91a:	d011      	beq.n	940 <_sercom_get_sercom_inst_index+0x48>
     91c:	9b03      	ldr	r3, [sp, #12]
     91e:	428b      	cmp	r3, r1
     920:	d011      	beq.n	946 <_sercom_get_sercom_inst_index+0x4e>
     922:	9b04      	ldr	r3, [sp, #16]
     924:	428b      	cmp	r3, r1
     926:	d011      	beq.n	94c <_sercom_get_sercom_inst_index+0x54>
     928:	9b05      	ldr	r3, [sp, #20]
     92a:	2000      	movs	r0, #0
     92c:	428b      	cmp	r3, r1
     92e:	d010      	beq.n	952 <_sercom_get_sercom_inst_index+0x5a>
     930:	b006      	add	sp, #24
     932:	bd70      	pop	{r4, r5, r6, pc}
     934:	2000      	movs	r0, #0
     936:	b2c0      	uxtb	r0, r0
     938:	e7fa      	b.n	930 <_sercom_get_sercom_inst_index+0x38>
     93a:	2001      	movs	r0, #1
     93c:	b2c0      	uxtb	r0, r0
     93e:	e7f7      	b.n	930 <_sercom_get_sercom_inst_index+0x38>
     940:	2002      	movs	r0, #2
     942:	b2c0      	uxtb	r0, r0
     944:	e7f4      	b.n	930 <_sercom_get_sercom_inst_index+0x38>
     946:	2003      	movs	r0, #3
     948:	b2c0      	uxtb	r0, r0
     94a:	e7f1      	b.n	930 <_sercom_get_sercom_inst_index+0x38>
     94c:	2004      	movs	r0, #4
     94e:	b2c0      	uxtb	r0, r0
     950:	e7ee      	b.n	930 <_sercom_get_sercom_inst_index+0x38>
     952:	3005      	adds	r0, #5
     954:	b2c0      	uxtb	r0, r0
     956:	e7eb      	b.n	930 <_sercom_get_sercom_inst_index+0x38>
     958:	0000a4ec 	.word	0x0000a4ec

0000095c <_sercom_default_handler>:
     95c:	4770      	bx	lr
     95e:	46c0      	nop			; (mov r8, r8)

00000960 <_sercom_set_handler>:
     960:	b5f8      	push	{r3, r4, r5, r6, r7, lr}
     962:	4e0c      	ldr	r6, [pc, #48]	; (994 <_sercom_set_handler+0x34>)
     964:	0005      	movs	r5, r0
     966:	7833      	ldrb	r3, [r6, #0]
     968:	000f      	movs	r7, r1
     96a:	4c0b      	ldr	r4, [pc, #44]	; (998 <_sercom_set_handler+0x38>)
     96c:	2b00      	cmp	r3, #0
     96e:	d10d      	bne.n	98c <_sercom_set_handler+0x2c>
     970:	4b0a      	ldr	r3, [pc, #40]	; (99c <_sercom_set_handler+0x3c>)
     972:	2218      	movs	r2, #24
     974:	6023      	str	r3, [r4, #0]
     976:	6063      	str	r3, [r4, #4]
     978:	60a3      	str	r3, [r4, #8]
     97a:	60e3      	str	r3, [r4, #12]
     97c:	6123      	str	r3, [r4, #16]
     97e:	6163      	str	r3, [r4, #20]
     980:	2100      	movs	r1, #0
     982:	4b07      	ldr	r3, [pc, #28]	; (9a0 <_sercom_set_handler+0x40>)
     984:	4807      	ldr	r0, [pc, #28]	; (9a4 <_sercom_set_handler+0x44>)
     986:	4798      	blx	r3
     988:	2301      	movs	r3, #1
     98a:	7033      	strb	r3, [r6, #0]
     98c:	00ad      	lsls	r5, r5, #2
     98e:	5167      	str	r7, [r4, r5]
     990:	bdf8      	pop	{r3, r4, r5, r6, r7, pc}
     992:	46c0      	nop			; (mov r8, r8)
     994:	20000106 	.word	0x20000106
     998:	20000108 	.word	0x20000108
     99c:	0000095d 	.word	0x0000095d
     9a0:	000095f1 	.word	0x000095f1
     9a4:	2000040c 	.word	0x2000040c

000009a8 <_sercom_get_interrupt_vector>:
     9a8:	b500      	push	{lr}
     9aa:	b083      	sub	sp, #12
     9ac:	466a      	mov	r2, sp
     9ae:	2309      	movs	r3, #9
     9b0:	7013      	strb	r3, [r2, #0]
     9b2:	3301      	adds	r3, #1
     9b4:	7053      	strb	r3, [r2, #1]
     9b6:	3301      	adds	r3, #1
     9b8:	7093      	strb	r3, [r2, #2]
     9ba:	3301      	adds	r3, #1
     9bc:	70d3      	strb	r3, [r2, #3]
     9be:	3301      	adds	r3, #1
     9c0:	7113      	strb	r3, [r2, #4]
     9c2:	3301      	adds	r3, #1
     9c4:	7153      	strb	r3, [r2, #5]
     9c6:	4b03      	ldr	r3, [pc, #12]	; (9d4 <_sercom_get_interrupt_vector+0x2c>)
     9c8:	4798      	blx	r3
     9ca:	466b      	mov	r3, sp
     9cc:	5618      	ldrsb	r0, [r3, r0]
     9ce:	b003      	add	sp, #12
     9d0:	bd00      	pop	{pc}
     9d2:	46c0      	nop			; (mov r8, r8)
     9d4:	000008f9 	.word	0x000008f9

000009d8 <SERCOM0_Handler>:
     9d8:	b510      	push	{r4, lr}
     9da:	4b02      	ldr	r3, [pc, #8]	; (9e4 <SERCOM0_Handler+0xc>)
     9dc:	2000      	movs	r0, #0
     9de:	681b      	ldr	r3, [r3, #0]
     9e0:	4798      	blx	r3
     9e2:	bd10      	pop	{r4, pc}
     9e4:	20000108 	.word	0x20000108

000009e8 <SERCOM1_Handler>:
     9e8:	b510      	push	{r4, lr}
     9ea:	4b02      	ldr	r3, [pc, #8]	; (9f4 <SERCOM1_Handler+0xc>)
     9ec:	2001      	movs	r0, #1
     9ee:	685b      	ldr	r3, [r3, #4]
     9f0:	4798      	blx	r3
     9f2:	bd10      	pop	{r4, pc}
     9f4:	20000108 	.word	0x20000108

000009f8 <SERCOM2_Handler>:
     9f8:	b510      	push	{r4, lr}
     9fa:	4b02      	ldr	r3, [pc, #8]	; (a04 <SERCOM2_Handler+0xc>)
     9fc:	2002      	movs	r0, #2
     9fe:	689b      	ldr	r3, [r3, #8]
     a00:	4798      	blx	r3
     a02:	bd10      	pop	{r4, pc}
     a04:	20000108 	.word	0x20000108

00000a08 <SERCOM3_Handler>:
     a08:	b510      	push	{r4, lr}
     a0a:	4b02      	ldr	r3, [pc, #8]	; (a14 <SERCOM3_Handler+0xc>)
     a0c:	2003      	movs	r0, #3
     a0e:	68db      	ldr	r3, [r3, #12]
     a10:	4798      	blx	r3
     a12:	bd10      	pop	{r4, pc}
     a14:	20000108 	.word	0x20000108

00000a18 <SERCOM4_Handler>:
     a18:	b510      	push	{r4, lr}
     a1a:	4b02      	ldr	r3, [pc, #8]	; (a24 <SERCOM4_Handler+0xc>)
     a1c:	2004      	movs	r0, #4
     a1e:	691b      	ldr	r3, [r3, #16]
     a20:	4798      	blx	r3
     a22:	bd10      	pop	{r4, pc}
     a24:	20000108 	.word	0x20000108

00000a28 <SERCOM5_Handler>:
     a28:	b510      	push	{r4, lr}
     a2a:	4b02      	ldr	r3, [pc, #8]	; (a34 <SERCOM5_Handler+0xc>)
     a2c:	2005      	movs	r0, #5
     a2e:	695b      	ldr	r3, [r3, #20]
     a30:	4798      	blx	r3
     a32:	bd10      	pop	{r4, pc}
     a34:	20000108 	.word	0x20000108

00000a38 <spi_init>:
     a38:	b5f0      	push	{r4, r5, r6, r7, lr}
     a3a:	464e      	mov	r6, r9
     a3c:	4645      	mov	r5, r8
     a3e:	46de      	mov	lr, fp
     a40:	4657      	mov	r7, sl
     a42:	b5e0      	push	{r5, r6, r7, lr}
     a44:	0005      	movs	r5, r0
     a46:	6029      	str	r1, [r5, #0]
     a48:	680b      	ldr	r3, [r1, #0]
     a4a:	b087      	sub	sp, #28
     a4c:	000e      	movs	r6, r1
     a4e:	0014      	movs	r4, r2
     a50:	079b      	lsls	r3, r3, #30
     a52:	d40c      	bmi.n	a6e <spi_init+0x36>
     a54:	2701      	movs	r7, #1
     a56:	680b      	ldr	r3, [r1, #0]
     a58:	2005      	movs	r0, #5
     a5a:	421f      	tst	r7, r3
     a5c:	d100      	bne.n	a60 <spi_init+0x28>
     a5e:	e0df      	b.n	c20 <spi_init+0x1e8>
     a60:	b007      	add	sp, #28
     a62:	bc3c      	pop	{r2, r3, r4, r5}
     a64:	4690      	mov	r8, r2
     a66:	4699      	mov	r9, r3
     a68:	46a2      	mov	sl, r4
     a6a:	46ab      	mov	fp, r5
     a6c:	bdf0      	pop	{r4, r5, r6, r7, pc}
     a6e:	6b13      	ldr	r3, [r2, #48]	; 0x30
     a70:	6a90      	ldr	r0, [r2, #40]	; 0x28
     a72:	4698      	mov	r8, r3
     a74:	6b53      	ldr	r3, [r2, #52]	; 0x34
     a76:	6ad7      	ldr	r7, [r2, #44]	; 0x2c
     a78:	4699      	mov	r9, r3
     a7a:	2800      	cmp	r0, #0
     a7c:	d100      	bne.n	a80 <spi_init+0x48>
     a7e:	e0bf      	b.n	c00 <spi_init+0x1c8>
     a80:	1c43      	adds	r3, r0, #1
     a82:	d01e      	beq.n	ac2 <spi_init+0x8a>
     a84:	0402      	lsls	r2, r0, #16
     a86:	0c00      	lsrs	r0, r0, #16
     a88:	0c13      	lsrs	r3, r2, #16
     a8a:	b2c0      	uxtb	r0, r0
     a8c:	469b      	mov	fp, r3
     a8e:	09c1      	lsrs	r1, r0, #7
     a90:	0943      	lsrs	r3, r0, #5
     a92:	2900      	cmp	r1, #0
     a94:	d000      	beq.n	a98 <spi_init+0x60>
     a96:	e0be      	b.n	c16 <spi_init+0x1de>
     a98:	311f      	adds	r1, #31
     a9a:	4001      	ands	r1, r0
     a9c:	468c      	mov	ip, r1
     a9e:	49d3      	ldr	r1, [pc, #844]	; (dec <spi_init+0x3b4>)
     aa0:	01db      	lsls	r3, r3, #7
     aa2:	468a      	mov	sl, r1
     aa4:	4661      	mov	r1, ip
     aa6:	4453      	add	r3, sl
     aa8:	1859      	adds	r1, r3, r1
     aaa:	3140      	adds	r1, #64	; 0x40
     aac:	7809      	ldrb	r1, [r1, #0]
     aae:	468a      	mov	sl, r1
     ab0:	2101      	movs	r1, #1
     ab2:	4652      	mov	r2, sl
     ab4:	4211      	tst	r1, r2
     ab6:	d000      	beq.n	aba <spi_init+0x82>
     ab8:	e13c      	b.n	d34 <spi_init+0x2fc>
     aba:	2380      	movs	r3, #128	; 0x80
     abc:	455b      	cmp	r3, fp
     abe:	d000      	beq.n	ac2 <spi_init+0x8a>
     ac0:	e09a      	b.n	bf8 <spi_init+0x1c0>
     ac2:	2f00      	cmp	r7, #0
     ac4:	d100      	bne.n	ac8 <spi_init+0x90>
     ac6:	e0a0      	b.n	c0a <spi_init+0x1d2>
     ac8:	1c7b      	adds	r3, r7, #1
     aca:	d019      	beq.n	b00 <spi_init+0xc8>
     acc:	043a      	lsls	r2, r7, #16
     ace:	0c3f      	lsrs	r7, r7, #16
     ad0:	0c13      	lsrs	r3, r2, #16
     ad2:	b2f8      	uxtb	r0, r7
     ad4:	469a      	mov	sl, r3
     ad6:	09c1      	lsrs	r1, r0, #7
     ad8:	0943      	lsrs	r3, r0, #5
     ada:	2900      	cmp	r1, #0
     adc:	d000      	beq.n	ae0 <spi_init+0xa8>
     ade:	e09a      	b.n	c16 <spi_init+0x1de>
     ae0:	49c2      	ldr	r1, [pc, #776]	; (dec <spi_init+0x3b4>)
     ae2:	271f      	movs	r7, #31
     ae4:	468c      	mov	ip, r1
     ae6:	2201      	movs	r2, #1
     ae8:	01db      	lsls	r3, r3, #7
     aea:	4007      	ands	r7, r0
     aec:	4463      	add	r3, ip
     aee:	19d9      	adds	r1, r3, r7
     af0:	3140      	adds	r1, #64	; 0x40
     af2:	7809      	ldrb	r1, [r1, #0]
     af4:	420a      	tst	r2, r1
     af6:	d000      	beq.n	afa <spi_init+0xc2>
     af8:	e12c      	b.n	d54 <spi_init+0x31c>
     afa:	2380      	movs	r3, #128	; 0x80
     afc:	4553      	cmp	r3, sl
     afe:	d17b      	bne.n	bf8 <spi_init+0x1c0>
     b00:	4643      	mov	r3, r8
     b02:	2b00      	cmp	r3, #0
     b04:	d100      	bne.n	b08 <spi_init+0xd0>
     b06:	e13d      	b.n	d84 <spi_init+0x34c>
     b08:	4643      	mov	r3, r8
     b0a:	3301      	adds	r3, #1
     b0c:	d019      	beq.n	b42 <spi_init+0x10a>
     b0e:	4643      	mov	r3, r8
     b10:	041a      	lsls	r2, r3, #16
     b12:	0c13      	lsrs	r3, r2, #16
     b14:	469a      	mov	sl, r3
     b16:	4643      	mov	r3, r8
     b18:	0c18      	lsrs	r0, r3, #16
     b1a:	b2c0      	uxtb	r0, r0
     b1c:	0943      	lsrs	r3, r0, #5
     b1e:	09c1      	lsrs	r1, r0, #7
     b20:	d179      	bne.n	c16 <spi_init+0x1de>
     b22:	49b2      	ldr	r1, [pc, #712]	; (dec <spi_init+0x3b4>)
     b24:	271f      	movs	r7, #31
     b26:	468c      	mov	ip, r1
     b28:	2201      	movs	r2, #1
     b2a:	01db      	lsls	r3, r3, #7
     b2c:	4007      	ands	r7, r0
     b2e:	4463      	add	r3, ip
     b30:	19d9      	adds	r1, r3, r7
     b32:	3140      	adds	r1, #64	; 0x40
     b34:	7809      	ldrb	r1, [r1, #0]
     b36:	420a      	tst	r2, r1
     b38:	d000      	beq.n	b3c <spi_init+0x104>
     b3a:	e117      	b.n	d6c <spi_init+0x334>
     b3c:	2380      	movs	r3, #128	; 0x80
     b3e:	459a      	cmp	sl, r3
     b40:	d15a      	bne.n	bf8 <spi_init+0x1c0>
     b42:	464b      	mov	r3, r9
     b44:	2b00      	cmp	r3, #0
     b46:	d100      	bne.n	b4a <spi_init+0x112>
     b48:	e122      	b.n	d90 <spi_init+0x358>
     b4a:	464b      	mov	r3, r9
     b4c:	3301      	adds	r3, #1
     b4e:	d027      	beq.n	ba0 <spi_init+0x168>
     b50:	464b      	mov	r3, r9
     b52:	0419      	lsls	r1, r3, #16
     b54:	0c0b      	lsrs	r3, r1, #16
     b56:	469a      	mov	sl, r3
     b58:	464b      	mov	r3, r9
     b5a:	0c18      	lsrs	r0, r3, #16
     b5c:	b2c0      	uxtb	r0, r0
     b5e:	0943      	lsrs	r3, r0, #5
     b60:	09c2      	lsrs	r2, r0, #7
     b62:	d158      	bne.n	c16 <spi_init+0x1de>
     b64:	4aa1      	ldr	r2, [pc, #644]	; (dec <spi_init+0x3b4>)
     b66:	271f      	movs	r7, #31
     b68:	4694      	mov	ip, r2
     b6a:	01db      	lsls	r3, r3, #7
     b6c:	4463      	add	r3, ip
     b6e:	4007      	ands	r7, r0
     b70:	19da      	adds	r2, r3, r7
     b72:	3240      	adds	r2, #64	; 0x40
     b74:	7812      	ldrb	r2, [r2, #0]
     b76:	4690      	mov	r8, r2
     b78:	2201      	movs	r2, #1
     b7a:	4694      	mov	ip, r2
     b7c:	327f      	adds	r2, #127	; 0x7f
     b7e:	4691      	mov	r9, r2
     b80:	4661      	mov	r1, ip
     b82:	4642      	mov	r2, r8
     b84:	4211      	tst	r1, r2
     b86:	d009      	beq.n	b9c <spi_init+0x164>
     b88:	087f      	lsrs	r7, r7, #1
     b8a:	19db      	adds	r3, r3, r7
     b8c:	3330      	adds	r3, #48	; 0x30
     b8e:	781a      	ldrb	r2, [r3, #0]
     b90:	b2d2      	uxtb	r2, r2
     b92:	4201      	tst	r1, r0
     b94:	d100      	bne.n	b98 <spi_init+0x160>
     b96:	e101      	b.n	d9c <spi_init+0x364>
     b98:	0913      	lsrs	r3, r2, #4
     b9a:	4699      	mov	r9, r3
     b9c:	45ca      	cmp	sl, r9
     b9e:	d12b      	bne.n	bf8 <spi_init+0x1c0>
     ba0:	2013      	movs	r0, #19
     ba2:	4b93      	ldr	r3, [pc, #588]	; (df0 <spi_init+0x3b8>)
     ba4:	4798      	blx	r3
     ba6:	7822      	ldrb	r2, [r4, #0]
     ba8:	2700      	movs	r7, #0
     baa:	2a01      	cmp	r2, #1
     bac:	d100      	bne.n	bb0 <spi_init+0x178>
     bae:	e109      	b.n	dc4 <spi_init+0x38c>
     bb0:	68a2      	ldr	r2, [r4, #8]
     bb2:	6863      	ldr	r3, [r4, #4]
     bb4:	7c61      	ldrb	r1, [r4, #17]
     bb6:	4313      	orrs	r3, r2
     bb8:	68e2      	ldr	r2, [r4, #12]
     bba:	4313      	orrs	r3, r2
     bbc:	433b      	orrs	r3, r7
     bbe:	7c22      	ldrb	r2, [r4, #16]
     bc0:	2900      	cmp	r1, #0
     bc2:	d001      	beq.n	bc8 <spi_init+0x190>
     bc4:	2180      	movs	r1, #128	; 0x80
     bc6:	430b      	orrs	r3, r1
     bc8:	7ca1      	ldrb	r1, [r4, #18]
     bca:	2900      	cmp	r1, #0
     bcc:	d002      	beq.n	bd4 <spi_init+0x19c>
     bce:	2180      	movs	r1, #128	; 0x80
     bd0:	0289      	lsls	r1, r1, #10
     bd2:	430a      	orrs	r2, r1
     bd4:	7ce1      	ldrb	r1, [r4, #19]
     bd6:	2900      	cmp	r1, #0
     bd8:	d002      	beq.n	be0 <spi_init+0x1a8>
     bda:	2180      	movs	r1, #128	; 0x80
     bdc:	0089      	lsls	r1, r1, #2
     bde:	430a      	orrs	r2, r1
     be0:	7d21      	ldrb	r1, [r4, #20]
     be2:	2900      	cmp	r1, #0
     be4:	d002      	beq.n	bec <spi_init+0x1b4>
     be6:	2180      	movs	r1, #128	; 0x80
     be8:	0189      	lsls	r1, r1, #6
     bea:	430a      	orrs	r2, r1
     bec:	2002      	movs	r0, #2
     bee:	6831      	ldr	r1, [r6, #0]
     bf0:	4303      	orrs	r3, r0
     bf2:	428b      	cmp	r3, r1
     bf4:	d100      	bne.n	bf8 <spi_init+0x1c0>
     bf6:	e0d5      	b.n	da4 <spi_init+0x36c>
     bf8:	2300      	movs	r3, #0
     bfa:	201c      	movs	r0, #28
     bfc:	602b      	str	r3, [r5, #0]
     bfe:	e72f      	b.n	a60 <spi_init+0x28>
     c00:	2100      	movs	r1, #0
     c02:	0030      	movs	r0, r6
     c04:	4b7b      	ldr	r3, [pc, #492]	; (df4 <spi_init+0x3bc>)
     c06:	4798      	blx	r3
     c08:	e73a      	b.n	a80 <spi_init+0x48>
     c0a:	2101      	movs	r1, #1
     c0c:	0030      	movs	r0, r6
     c0e:	4b79      	ldr	r3, [pc, #484]	; (df4 <spi_init+0x3bc>)
     c10:	4798      	blx	r3
     c12:	0007      	movs	r7, r0
     c14:	e758      	b.n	ac8 <spi_init+0x90>
     c16:	231f      	movs	r3, #31
     c18:	4018      	ands	r0, r3
     c1a:	3040      	adds	r0, #64	; 0x40
     c1c:	7803      	ldrb	r3, [r0, #0]
     c1e:	deff      	udf	#255	; 0xff
     c20:	0008      	movs	r0, r1
     c22:	4b75      	ldr	r3, [pc, #468]	; (df8 <spi_init+0x3c0>)
     c24:	4798      	blx	r3
     c26:	1c81      	adds	r1, r0, #2
     c28:	408f      	lsls	r7, r1
     c2a:	4b74      	ldr	r3, [pc, #464]	; (dfc <spi_init+0x3c4>)
     c2c:	3014      	adds	r0, #20
     c2e:	6a1a      	ldr	r2, [r3, #32]
     c30:	4669      	mov	r1, sp
     c32:	4317      	orrs	r7, r2
     c34:	621f      	str	r7, [r3, #32]
     c36:	2324      	movs	r3, #36	; 0x24
     c38:	466a      	mov	r2, sp
     c3a:	4698      	mov	r8, r3
     c3c:	5ce3      	ldrb	r3, [r4, r3]
     c3e:	b2c7      	uxtb	r7, r0
     c40:	7013      	strb	r3, [r2, #0]
     c42:	0038      	movs	r0, r7
     c44:	4b6e      	ldr	r3, [pc, #440]	; (e00 <spi_init+0x3c8>)
     c46:	4798      	blx	r3
     c48:	0038      	movs	r0, r7
     c4a:	4b6e      	ldr	r3, [pc, #440]	; (e04 <spi_init+0x3cc>)
     c4c:	4798      	blx	r3
     c4e:	4643      	mov	r3, r8
     c50:	2100      	movs	r1, #0
     c52:	5ce0      	ldrb	r0, [r4, r3]
     c54:	4b6c      	ldr	r3, [pc, #432]	; (e08 <spi_init+0x3d0>)
     c56:	4798      	blx	r3
     c58:	7823      	ldrb	r3, [r4, #0]
     c5a:	2b01      	cmp	r3, #1
     c5c:	d100      	bne.n	c60 <spi_init+0x228>
     c5e:	e0ab      	b.n	db8 <spi_init+0x380>
     c60:	682a      	ldr	r2, [r5, #0]
     c62:	4669      	mov	r1, sp
     c64:	4691      	mov	r9, r2
     c66:	2280      	movs	r2, #128	; 0x80
     c68:	710a      	strb	r2, [r1, #4]
     c6a:	2200      	movs	r2, #0
     c6c:	4668      	mov	r0, sp
     c6e:	714a      	strb	r2, [r1, #5]
     c70:	2101      	movs	r1, #1
     c72:	71c2      	strb	r2, [r0, #7]
     c74:	7181      	strb	r1, [r0, #6]
     c76:	2b00      	cmp	r3, #0
     c78:	d100      	bne.n	c7c <spi_init+0x244>
     c7a:	7183      	strb	r3, [r0, #6]
     c7c:	6aa3      	ldr	r3, [r4, #40]	; 0x28
     c7e:	af02      	add	r7, sp, #8
     c80:	9302      	str	r3, [sp, #8]
     c82:	6ae3      	ldr	r3, [r4, #44]	; 0x2c
     c84:	2600      	movs	r6, #0
     c86:	607b      	str	r3, [r7, #4]
     c88:	6b23      	ldr	r3, [r4, #48]	; 0x30
     c8a:	60bb      	str	r3, [r7, #8]
     c8c:	6b63      	ldr	r3, [r4, #52]	; 0x34
     c8e:	60fb      	str	r3, [r7, #12]
     c90:	4b58      	ldr	r3, [pc, #352]	; (df4 <spi_init+0x3bc>)
     c92:	469b      	mov	fp, r3
     c94:	4b5d      	ldr	r3, [pc, #372]	; (e0c <spi_init+0x3d4>)
     c96:	469a      	mov	sl, r3
     c98:	00b3      	lsls	r3, r6, #2
     c9a:	58f8      	ldr	r0, [r7, r3]
     c9c:	b2f1      	uxtb	r1, r6
     c9e:	2800      	cmp	r0, #0
     ca0:	d045      	beq.n	d2e <spi_init+0x2f6>
     ca2:	1c43      	adds	r3, r0, #1
     ca4:	d005      	beq.n	cb2 <spi_init+0x27a>
     ca6:	466b      	mov	r3, sp
     ca8:	7118      	strb	r0, [r3, #4]
     caa:	0c00      	lsrs	r0, r0, #16
     cac:	b2c0      	uxtb	r0, r0
     cae:	a901      	add	r1, sp, #4
     cb0:	47d0      	blx	sl
     cb2:	3601      	adds	r6, #1
     cb4:	2e04      	cmp	r6, #4
     cb6:	d1ef      	bne.n	c98 <spi_init+0x260>
     cb8:	7823      	ldrb	r3, [r4, #0]
     cba:	466a      	mov	r2, sp
     cbc:	716b      	strb	r3, [r5, #5]
     cbe:	7c23      	ldrb	r3, [r4, #16]
     cc0:	71ab      	strb	r3, [r5, #6]
     cc2:	7ca3      	ldrb	r3, [r4, #18]
     cc4:	71eb      	strb	r3, [r5, #7]
     cc6:	7d23      	ldrb	r3, [r4, #20]
     cc8:	722b      	strb	r3, [r5, #8]
     cca:	2300      	movs	r3, #0
     ccc:	8053      	strh	r3, [r2, #2]
     cce:	7823      	ldrb	r3, [r4, #0]
     cd0:	2b01      	cmp	r3, #1
     cd2:	d100      	bne.n	cd6 <spi_init+0x29e>
     cd4:	e0a0      	b.n	e18 <spi_init+0x3e0>
     cd6:	68a2      	ldr	r2, [r4, #8]
     cd8:	6863      	ldr	r3, [r4, #4]
     cda:	7c21      	ldrb	r1, [r4, #16]
     cdc:	4313      	orrs	r3, r2
     cde:	68e2      	ldr	r2, [r4, #12]
     ce0:	4313      	orrs	r3, r2
     ce2:	7c62      	ldrb	r2, [r4, #17]
     ce4:	2a00      	cmp	r2, #0
     ce6:	d11f      	bne.n	d28 <spi_init+0x2f0>
     ce8:	4a49      	ldr	r2, [pc, #292]	; (e10 <spi_init+0x3d8>)
     cea:	7892      	ldrb	r2, [r2, #2]
     cec:	0792      	lsls	r2, r2, #30
     cee:	d41b      	bmi.n	d28 <spi_init+0x2f0>
     cf0:	7ca2      	ldrb	r2, [r4, #18]
     cf2:	2a00      	cmp	r2, #0
     cf4:	d002      	beq.n	cfc <spi_init+0x2c4>
     cf6:	2280      	movs	r2, #128	; 0x80
     cf8:	0292      	lsls	r2, r2, #10
     cfa:	4311      	orrs	r1, r2
     cfc:	7ce2      	ldrb	r2, [r4, #19]
     cfe:	2a00      	cmp	r2, #0
     d00:	d002      	beq.n	d08 <spi_init+0x2d0>
     d02:	2280      	movs	r2, #128	; 0x80
     d04:	0092      	lsls	r2, r2, #2
     d06:	4311      	orrs	r1, r2
     d08:	7d22      	ldrb	r2, [r4, #20]
     d0a:	2a00      	cmp	r2, #0
     d0c:	d002      	beq.n	d14 <spi_init+0x2dc>
     d0e:	2280      	movs	r2, #128	; 0x80
     d10:	0192      	lsls	r2, r2, #6
     d12:	4311      	orrs	r1, r2
     d14:	464a      	mov	r2, r9
     d16:	6812      	ldr	r2, [r2, #0]
     d18:	2000      	movs	r0, #0
     d1a:	4313      	orrs	r3, r2
     d1c:	464a      	mov	r2, r9
     d1e:	6013      	str	r3, [r2, #0]
     d20:	6853      	ldr	r3, [r2, #4]
     d22:	430b      	orrs	r3, r1
     d24:	6053      	str	r3, [r2, #4]
     d26:	e69b      	b.n	a60 <spi_init+0x28>
     d28:	2280      	movs	r2, #128	; 0x80
     d2a:	4313      	orrs	r3, r2
     d2c:	e7e0      	b.n	cf0 <spi_init+0x2b8>
     d2e:	4648      	mov	r0, r9
     d30:	47d8      	blx	fp
     d32:	e7b6      	b.n	ca2 <spi_init+0x26a>
     d34:	4662      	mov	r2, ip
     d36:	0852      	lsrs	r2, r2, #1
     d38:	4694      	mov	ip, r2
     d3a:	4463      	add	r3, ip
     d3c:	3330      	adds	r3, #48	; 0x30
     d3e:	781b      	ldrb	r3, [r3, #0]
     d40:	b2db      	uxtb	r3, r3
     d42:	469c      	mov	ip, r3
     d44:	091b      	lsrs	r3, r3, #4
     d46:	4201      	tst	r1, r0
     d48:	d000      	beq.n	d4c <spi_init+0x314>
     d4a:	e6b7      	b.n	abc <spi_init+0x84>
     d4c:	230f      	movs	r3, #15
     d4e:	4662      	mov	r2, ip
     d50:	4013      	ands	r3, r2
     d52:	e6b3      	b.n	abc <spi_init+0x84>
     d54:	087f      	lsrs	r7, r7, #1
     d56:	19db      	adds	r3, r3, r7
     d58:	3330      	adds	r3, #48	; 0x30
     d5a:	7819      	ldrb	r1, [r3, #0]
     d5c:	b2c9      	uxtb	r1, r1
     d5e:	090b      	lsrs	r3, r1, #4
     d60:	4202      	tst	r2, r0
     d62:	d000      	beq.n	d66 <spi_init+0x32e>
     d64:	e6ca      	b.n	afc <spi_init+0xc4>
     d66:	230f      	movs	r3, #15
     d68:	400b      	ands	r3, r1
     d6a:	e6c7      	b.n	afc <spi_init+0xc4>
     d6c:	087f      	lsrs	r7, r7, #1
     d6e:	19db      	adds	r3, r3, r7
     d70:	3330      	adds	r3, #48	; 0x30
     d72:	7819      	ldrb	r1, [r3, #0]
     d74:	b2c9      	uxtb	r1, r1
     d76:	090b      	lsrs	r3, r1, #4
     d78:	4202      	tst	r2, r0
     d7a:	d000      	beq.n	d7e <spi_init+0x346>
     d7c:	e6df      	b.n	b3e <spi_init+0x106>
     d7e:	230f      	movs	r3, #15
     d80:	400b      	ands	r3, r1
     d82:	e6dc      	b.n	b3e <spi_init+0x106>
     d84:	2102      	movs	r1, #2
     d86:	0030      	movs	r0, r6
     d88:	4b1a      	ldr	r3, [pc, #104]	; (df4 <spi_init+0x3bc>)
     d8a:	4798      	blx	r3
     d8c:	4680      	mov	r8, r0
     d8e:	e6bb      	b.n	b08 <spi_init+0xd0>
     d90:	2103      	movs	r1, #3
     d92:	0030      	movs	r0, r6
     d94:	4b17      	ldr	r3, [pc, #92]	; (df4 <spi_init+0x3bc>)
     d96:	4798      	blx	r3
     d98:	4681      	mov	r9, r0
     d9a:	e6d6      	b.n	b4a <spi_init+0x112>
     d9c:	230f      	movs	r3, #15
     d9e:	401a      	ands	r2, r3
     da0:	4691      	mov	r9, r2
     da2:	e6fb      	b.n	b9c <spi_init+0x164>
     da4:	6873      	ldr	r3, [r6, #4]
     da6:	4293      	cmp	r3, r2
     da8:	d000      	beq.n	dac <spi_init+0x374>
     daa:	e725      	b.n	bf8 <spi_init+0x1c0>
     dac:	7823      	ldrb	r3, [r4, #0]
     dae:	2000      	movs	r0, #0
     db0:	716b      	strb	r3, [r5, #5]
     db2:	7c23      	ldrb	r3, [r4, #16]
     db4:	71ab      	strb	r3, [r5, #6]
     db6:	e653      	b.n	a60 <spi_init+0x28>
     db8:	220c      	movs	r2, #12
     dba:	6833      	ldr	r3, [r6, #0]
     dbc:	4313      	orrs	r3, r2
     dbe:	6033      	str	r3, [r6, #0]
     dc0:	7823      	ldrb	r3, [r4, #0]
     dc2:	e74d      	b.n	c60 <spi_init+0x228>
     dc4:	0001      	movs	r1, r0
     dc6:	4b13      	ldr	r3, [pc, #76]	; (e14 <spi_init+0x3dc>)
     dc8:	aa02      	add	r2, sp, #8
     dca:	69a0      	ldr	r0, [r4, #24]
     dcc:	4798      	blx	r3
     dce:	0003      	movs	r3, r0
     dd0:	2017      	movs	r0, #23
     dd2:	2b00      	cmp	r3, #0
     dd4:	d000      	beq.n	dd8 <spi_init+0x3a0>
     dd6:	e643      	b.n	a60 <spi_init+0x28>
     dd8:	466a      	mov	r2, sp
     dda:	7b33      	ldrb	r3, [r6, #12]
     ddc:	7a12      	ldrb	r2, [r2, #8]
     dde:	3005      	adds	r0, #5
     de0:	429a      	cmp	r2, r3
     de2:	d000      	beq.n	de6 <spi_init+0x3ae>
     de4:	e63c      	b.n	a60 <spi_init+0x28>
     de6:	370c      	adds	r7, #12
     de8:	e6e2      	b.n	bb0 <spi_init+0x178>
     dea:	46c0      	nop			; (mov r8, r8)
     dec:	41004400 	.word	0x41004400
     df0:	00001bbd 	.word	0x00001bbd
     df4:	00000799 	.word	0x00000799
     df8:	000008f9 	.word	0x000008f9
     dfc:	40000400 	.word	0x40000400
     e00:	00001b29 	.word	0x00001b29
     e04:	00001b8d 	.word	0x00001b8d
     e08:	00000751 	.word	0x00000751
     e0c:	00001c55 	.word	0x00001c55
     e10:	41002000 	.word	0x41002000
     e14:	000004c1 	.word	0x000004c1
     e18:	4b0b      	ldr	r3, [pc, #44]	; (e48 <spi_init+0x410>)
     e1a:	6828      	ldr	r0, [r5, #0]
     e1c:	4798      	blx	r3
     e1e:	3014      	adds	r0, #20
     e20:	4b0a      	ldr	r3, [pc, #40]	; (e4c <spi_init+0x414>)
     e22:	b2c0      	uxtb	r0, r0
     e24:	4798      	blx	r3
     e26:	466b      	mov	r3, sp
     e28:	0001      	movs	r1, r0
     e2a:	1c9a      	adds	r2, r3, #2
     e2c:	69a0      	ldr	r0, [r4, #24]
     e2e:	4b08      	ldr	r3, [pc, #32]	; (e50 <spi_init+0x418>)
     e30:	4798      	blx	r3
     e32:	0003      	movs	r3, r0
     e34:	2017      	movs	r0, #23
     e36:	2b00      	cmp	r3, #0
     e38:	d000      	beq.n	e3c <spi_init+0x404>
     e3a:	e611      	b.n	a60 <spi_init+0x28>
     e3c:	466b      	mov	r3, sp
     e3e:	464a      	mov	r2, r9
     e40:	789b      	ldrb	r3, [r3, #2]
     e42:	7313      	strb	r3, [r2, #12]
     e44:	e747      	b.n	cd6 <spi_init+0x29e>
     e46:	46c0      	nop			; (mov r8, r8)
     e48:	000008f9 	.word	0x000008f9
     e4c:	00001bbd 	.word	0x00001bbd
     e50:	000004c1 	.word	0x000004c1

00000e54 <spi_select_slave>:
     e54:	b570      	push	{r4, r5, r6, lr}
     e56:	7943      	ldrb	r3, [r0, #5]
     e58:	2415      	movs	r4, #21
     e5a:	2b01      	cmp	r3, #1
     e5c:	d001      	beq.n	e62 <spi_select_slave+0xe>
     e5e:	0020      	movs	r0, r4
     e60:	bd70      	pop	{r4, r5, r6, pc}
     e62:	7a04      	ldrb	r4, [r0, #8]
     e64:	2c00      	cmp	r4, #0
     e66:	d13a      	bne.n	ede <spi_select_slave+0x8a>
     e68:	2a00      	cmp	r2, #0
     e6a:	d03a      	beq.n	ee2 <spi_select_slave+0x8e>
     e6c:	784a      	ldrb	r2, [r1, #1]
     e6e:	2a00      	cmp	r2, #0
     e70:	d046      	beq.n	f00 <spi_select_slave+0xac>
     e72:	6802      	ldr	r2, [r0, #0]
     e74:	7e12      	ldrb	r2, [r2, #24]
     e76:	401a      	ands	r2, r3
     e78:	d10d      	bne.n	e96 <spi_select_slave+0x42>
     e7a:	7808      	ldrb	r0, [r1, #0]
     e7c:	0941      	lsrs	r1, r0, #5
     e7e:	09c4      	lsrs	r4, r0, #7
     e80:	d13c      	bne.n	efc <spi_select_slave+0xa8>
     e82:	321f      	adds	r2, #31
     e84:	4002      	ands	r2, r0
     e86:	4093      	lsls	r3, r2
     e88:	01ca      	lsls	r2, r1, #7
     e8a:	4926      	ldr	r1, [pc, #152]	; (f24 <spi_select_slave+0xd0>)
     e8c:	3405      	adds	r4, #5
     e8e:	468c      	mov	ip, r1
     e90:	4462      	add	r2, ip
     e92:	6193      	str	r3, [r2, #24]
     e94:	e7e3      	b.n	e5e <spi_select_slave+0xa>
     e96:	780d      	ldrb	r5, [r1, #0]
     e98:	096a      	lsrs	r2, r5, #5
     e9a:	09ee      	lsrs	r6, r5, #7
     e9c:	d13f      	bne.n	f1e <spi_select_slave+0xca>
     e9e:	241f      	movs	r4, #31
     ea0:	402c      	ands	r4, r5
     ea2:	001d      	movs	r5, r3
     ea4:	40a5      	lsls	r5, r4
     ea6:	002c      	movs	r4, r5
     ea8:	4d1e      	ldr	r5, [pc, #120]	; (f24 <spi_select_slave+0xd0>)
     eaa:	01d2      	lsls	r2, r2, #7
     eac:	46ac      	mov	ip, r5
     eae:	4462      	add	r2, ip
     eb0:	6154      	str	r4, [r2, #20]
     eb2:	6802      	ldr	r2, [r0, #0]
     eb4:	788c      	ldrb	r4, [r1, #2]
     eb6:	7e11      	ldrb	r1, [r2, #24]
     eb8:	420b      	tst	r3, r1
     eba:	d000      	beq.n	ebe <spi_select_slave+0x6a>
     ebc:	6294      	str	r4, [r2, #40]	; 0x28
     ebe:	79c3      	ldrb	r3, [r0, #7]
     ec0:	2b00      	cmp	r3, #0
     ec2:	d10c      	bne.n	ede <spi_select_slave+0x8a>
     ec4:	2104      	movs	r1, #4
     ec6:	6802      	ldr	r2, [r0, #0]
     ec8:	7e13      	ldrb	r3, [r2, #24]
     eca:	4219      	tst	r1, r3
     ecc:	d0fc      	beq.n	ec8 <spi_select_slave+0x74>
     ece:	7e13      	ldrb	r3, [r2, #24]
     ed0:	4219      	tst	r1, r3
     ed2:	d004      	beq.n	ede <spi_select_slave+0x8a>
     ed4:	8b53      	ldrh	r3, [r2, #26]
     ed6:	075b      	lsls	r3, r3, #29
     ed8:	d500      	bpl.n	edc <spi_select_slave+0x88>
     eda:	8351      	strh	r1, [r2, #26]
     edc:	6a93      	ldr	r3, [r2, #40]	; 0x28
     ede:	2400      	movs	r4, #0
     ee0:	e7bd      	b.n	e5e <spi_select_slave+0xa>
     ee2:	7808      	ldrb	r0, [r1, #0]
     ee4:	0941      	lsrs	r1, r0, #5
     ee6:	09c4      	lsrs	r4, r0, #7
     ee8:	d108      	bne.n	efc <spi_select_slave+0xa8>
     eea:	221f      	movs	r2, #31
     eec:	4002      	ands	r2, r0
     eee:	4093      	lsls	r3, r2
     ef0:	01ca      	lsls	r2, r1, #7
     ef2:	490c      	ldr	r1, [pc, #48]	; (f24 <spi_select_slave+0xd0>)
     ef4:	468c      	mov	ip, r1
     ef6:	4462      	add	r2, ip
     ef8:	6193      	str	r3, [r2, #24]
     efa:	e7b0      	b.n	e5e <spi_select_slave+0xa>
     efc:	6192      	str	r2, [r2, #24]
     efe:	deff      	udf	#255	; 0xff
     f00:	7808      	ldrb	r0, [r1, #0]
     f02:	0941      	lsrs	r1, r0, #5
     f04:	09c4      	lsrs	r4, r0, #7
     f06:	d108      	bne.n	f1a <spi_select_slave+0xc6>
     f08:	221f      	movs	r2, #31
     f0a:	4002      	ands	r2, r0
     f0c:	4093      	lsls	r3, r2
     f0e:	01ca      	lsls	r2, r1, #7
     f10:	4904      	ldr	r1, [pc, #16]	; (f24 <spi_select_slave+0xd0>)
     f12:	468c      	mov	ip, r1
     f14:	4462      	add	r2, ip
     f16:	6153      	str	r3, [r2, #20]
     f18:	e7a1      	b.n	e5e <spi_select_slave+0xa>
     f1a:	6152      	str	r2, [r2, #20]
     f1c:	deff      	udf	#255	; 0xff
     f1e:	6164      	str	r4, [r4, #20]
     f20:	deff      	udf	#255	; 0xff
     f22:	46c0      	nop			; (mov r8, r8)
     f24:	41004400 	.word	0x41004400

00000f28 <usart_init>:
     f28:	b5f0      	push	{r4, r5, r6, r7, lr}
     f2a:	464e      	mov	r6, r9
     f2c:	4645      	mov	r5, r8
     f2e:	46de      	mov	lr, fp
     f30:	4657      	mov	r7, sl
     f32:	b5e0      	push	{r5, r6, r7, lr}
     f34:	0005      	movs	r5, r0
     f36:	4bbc      	ldr	r3, [pc, #752]	; (1228 <usart_init+0x300>)
     f38:	000c      	movs	r4, r1
     f3a:	b091      	sub	sp, #68	; 0x44
     f3c:	6029      	str	r1, [r5, #0]
     f3e:	0008      	movs	r0, r1
     f40:	4690      	mov	r8, r2
     f42:	4699      	mov	r9, r3
     f44:	4798      	blx	r3
     f46:	2301      	movs	r3, #1
     f48:	6822      	ldr	r2, [r4, #0]
     f4a:	0006      	movs	r6, r0
     f4c:	2005      	movs	r0, #5
     f4e:	4213      	tst	r3, r2
     f50:	d006      	beq.n	f60 <usart_init+0x38>
     f52:	b011      	add	sp, #68	; 0x44
     f54:	bc3c      	pop	{r2, r3, r4, r5}
     f56:	4690      	mov	r8, r2
     f58:	4699      	mov	r9, r3
     f5a:	46a2      	mov	sl, r4
     f5c:	46ab      	mov	fp, r5
     f5e:	bdf0      	pop	{r4, r5, r6, r7, pc}
     f60:	2702      	movs	r7, #2
     f62:	6822      	ldr	r2, [r4, #0]
     f64:	3017      	adds	r0, #23
     f66:	4017      	ands	r7, r2
     f68:	d1f3      	bne.n	f52 <usart_init+0x2a>
     f6a:	1cb0      	adds	r0, r6, #2
     f6c:	4083      	lsls	r3, r0
     f6e:	4aaf      	ldr	r2, [pc, #700]	; (122c <usart_init+0x304>)
     f70:	3614      	adds	r6, #20
     f72:	6a11      	ldr	r1, [r2, #32]
     f74:	b2f6      	uxtb	r6, r6
     f76:	430b      	orrs	r3, r1
     f78:	6213      	str	r3, [r2, #32]
     f7a:	232d      	movs	r3, #45	; 0x2d
     f7c:	469a      	mov	sl, r3
     f7e:	4643      	mov	r3, r8
     f80:	4652      	mov	r2, sl
     f82:	5c9b      	ldrb	r3, [r3, r2]
     f84:	a90a      	add	r1, sp, #40	; 0x28
     f86:	700b      	strb	r3, [r1, #0]
     f88:	0030      	movs	r0, r6
     f8a:	4ba9      	ldr	r3, [pc, #676]	; (1230 <usart_init+0x308>)
     f8c:	4798      	blx	r3
     f8e:	0030      	movs	r0, r6
     f90:	4ba8      	ldr	r3, [pc, #672]	; (1234 <usart_init+0x30c>)
     f92:	4798      	blx	r3
     f94:	4652      	mov	r2, sl
     f96:	4643      	mov	r3, r8
     f98:	2100      	movs	r1, #0
     f9a:	5c98      	ldrb	r0, [r3, r2]
     f9c:	4ba6      	ldr	r3, [pc, #664]	; (1238 <usart_init+0x310>)
     f9e:	4798      	blx	r3
     fa0:	4643      	mov	r3, r8
     fa2:	7adb      	ldrb	r3, [r3, #11]
     fa4:	4642      	mov	r2, r8
     fa6:	716b      	strb	r3, [r5, #5]
     fa8:	2324      	movs	r3, #36	; 0x24
     faa:	5cd3      	ldrb	r3, [r2, r3]
     fac:	ae0c      	add	r6, sp, #48	; 0x30
     fae:	71ab      	strb	r3, [r5, #6]
     fb0:	2325      	movs	r3, #37	; 0x25
     fb2:	5cd3      	ldrb	r3, [r2, r3]
     fb4:	71eb      	strb	r3, [r5, #7]
     fb6:	7ed3      	ldrb	r3, [r2, #27]
     fb8:	722b      	strb	r3, [r5, #8]
     fba:	7f13      	ldrb	r3, [r2, #28]
     fbc:	726b      	strb	r3, [r5, #9]
     fbe:	682b      	ldr	r3, [r5, #0]
     fc0:	0018      	movs	r0, r3
     fc2:	469a      	mov	sl, r3
     fc4:	47c8      	blx	r9
     fc6:	4643      	mov	r3, r8
     fc8:	8037      	strh	r7, [r6, #0]
     fca:	8a1a      	ldrh	r2, [r3, #16]
     fcc:	2380      	movs	r3, #128	; 0x80
     fce:	3014      	adds	r0, #20
     fd0:	9202      	str	r2, [sp, #8]
     fd2:	01db      	lsls	r3, r3, #7
     fd4:	429a      	cmp	r2, r3
     fd6:	d100      	bne.n	fda <usart_init+0xb2>
     fd8:	e0d2      	b.n	1180 <usart_init+0x258>
     fda:	d800      	bhi.n	fde <usart_init+0xb6>
     fdc:	e0ee      	b.n	11bc <usart_init+0x294>
     fde:	23c0      	movs	r3, #192	; 0xc0
     fe0:	01db      	lsls	r3, r3, #7
     fe2:	429a      	cmp	r2, r3
     fe4:	d100      	bne.n	fe8 <usart_init+0xc0>
     fe6:	e0f7      	b.n	11d8 <usart_init+0x2b0>
     fe8:	2380      	movs	r3, #128	; 0x80
     fea:	021b      	lsls	r3, r3, #8
     fec:	429a      	cmp	r2, r3
     fee:	d000      	beq.n	ff2 <usart_init+0xca>
     ff0:	e0ed      	b.n	11ce <usart_init+0x2a6>
     ff2:	2303      	movs	r3, #3
     ff4:	9309      	str	r3, [sp, #36]	; 0x24
     ff6:	2300      	movs	r3, #0
     ff8:	9308      	str	r3, [sp, #32]
     ffa:	4643      	mov	r3, r8
     ffc:	681b      	ldr	r3, [r3, #0]
     ffe:	4642      	mov	r2, r8
    1000:	9303      	str	r3, [sp, #12]
    1002:	4643      	mov	r3, r8
    1004:	68db      	ldr	r3, [r3, #12]
    1006:	9304      	str	r3, [sp, #16]
    1008:	4643      	mov	r3, r8
    100a:	695b      	ldr	r3, [r3, #20]
    100c:	9305      	str	r3, [sp, #20]
    100e:	4643      	mov	r3, r8
    1010:	7e1b      	ldrb	r3, [r3, #24]
    1012:	9306      	str	r3, [sp, #24]
    1014:	2326      	movs	r3, #38	; 0x26
    1016:	5cd3      	ldrb	r3, [r2, r3]
    1018:	9307      	str	r3, [sp, #28]
    101a:	6853      	ldr	r3, [r2, #4]
    101c:	469b      	mov	fp, r3
    101e:	2b00      	cmp	r3, #0
    1020:	d100      	bne.n	1024 <usart_init+0xfc>
    1022:	e0b7      	b.n	1194 <usart_init+0x26c>
    1024:	2380      	movs	r3, #128	; 0x80
    1026:	055b      	lsls	r3, r3, #21
    1028:	459b      	cmp	fp, r3
    102a:	d000      	beq.n	102e <usart_init+0x106>
    102c:	e0b0      	b.n	1190 <usart_init+0x268>
    102e:	2327      	movs	r3, #39	; 0x27
    1030:	5cd3      	ldrb	r3, [r2, r3]
    1032:	2100      	movs	r1, #0
    1034:	2b00      	cmp	r3, #0
    1036:	d100      	bne.n	103a <usart_init+0x112>
    1038:	e0ea      	b.n	1210 <usart_init+0x2e8>
    103a:	4643      	mov	r3, r8
    103c:	7e5b      	ldrb	r3, [r3, #25]
    103e:	2b00      	cmp	r3, #0
    1040:	d003      	beq.n	104a <usart_init+0x122>
    1042:	4643      	mov	r3, r8
    1044:	4652      	mov	r2, sl
    1046:	7e9b      	ldrb	r3, [r3, #26]
    1048:	7393      	strb	r3, [r2, #14]
    104a:	682a      	ldr	r2, [r5, #0]
    104c:	9f02      	ldr	r7, [sp, #8]
    104e:	69d3      	ldr	r3, [r2, #28]
    1050:	2b00      	cmp	r3, #0
    1052:	d1fc      	bne.n	104e <usart_init+0x126>
    1054:	4653      	mov	r3, sl
    1056:	9a04      	ldr	r2, [sp, #16]
    1058:	8199      	strh	r1, [r3, #12]
    105a:	9b03      	ldr	r3, [sp, #12]
    105c:	4313      	orrs	r3, r2
    105e:	9a05      	ldr	r2, [sp, #20]
    1060:	4313      	orrs	r3, r2
    1062:	465a      	mov	r2, fp
    1064:	4313      	orrs	r3, r2
    1066:	431f      	orrs	r7, r3
    1068:	9b06      	ldr	r3, [sp, #24]
    106a:	4642      	mov	r2, r8
    106c:	021b      	lsls	r3, r3, #8
    106e:	431f      	orrs	r7, r3
    1070:	9b07      	ldr	r3, [sp, #28]
    1072:	075b      	lsls	r3, r3, #29
    1074:	431f      	orrs	r7, r3
    1076:	2327      	movs	r3, #39	; 0x27
    1078:	5cd3      	ldrb	r3, [r2, r3]
    107a:	2b00      	cmp	r3, #0
    107c:	d101      	bne.n	1082 <usart_init+0x15a>
    107e:	3304      	adds	r3, #4
    1080:	431f      	orrs	r7, r3
    1082:	4643      	mov	r3, r8
    1084:	4642      	mov	r2, r8
    1086:	7e5b      	ldrb	r3, [r3, #25]
    1088:	7f12      	ldrb	r2, [r2, #28]
    108a:	029b      	lsls	r3, r3, #10
    108c:	0252      	lsls	r2, r2, #9
    108e:	4313      	orrs	r3, r2
    1090:	4642      	mov	r2, r8
    1092:	7f52      	ldrb	r2, [r2, #29]
    1094:	4641      	mov	r1, r8
    1096:	0212      	lsls	r2, r2, #8
    1098:	4313      	orrs	r3, r2
    109a:	2224      	movs	r2, #36	; 0x24
    109c:	5c8a      	ldrb	r2, [r1, r2]
    109e:	0452      	lsls	r2, r2, #17
    10a0:	4313      	orrs	r3, r2
    10a2:	2225      	movs	r2, #37	; 0x25
    10a4:	5c8a      	ldrb	r2, [r1, r2]
    10a6:	7a89      	ldrb	r1, [r1, #10]
    10a8:	0412      	lsls	r2, r2, #16
    10aa:	4313      	orrs	r3, r2
    10ac:	4642      	mov	r2, r8
    10ae:	7ad2      	ldrb	r2, [r2, #11]
    10b0:	4311      	orrs	r1, r2
    10b2:	4319      	orrs	r1, r3
    10b4:	4643      	mov	r3, r8
    10b6:	891b      	ldrh	r3, [r3, #8]
    10b8:	2bff      	cmp	r3, #255	; 0xff
    10ba:	d100      	bne.n	10be <usart_init+0x196>
    10bc:	e091      	b.n	11e2 <usart_init+0x2ba>
    10be:	2280      	movs	r2, #128	; 0x80
    10c0:	0452      	lsls	r2, r2, #17
    10c2:	4317      	orrs	r7, r2
    10c4:	4319      	orrs	r1, r3
    10c6:	232c      	movs	r3, #44	; 0x2c
    10c8:	4642      	mov	r2, r8
    10ca:	5cd3      	ldrb	r3, [r2, r3]
    10cc:	2b00      	cmp	r3, #0
    10ce:	d103      	bne.n	10d8 <usart_init+0x1b0>
    10d0:	4b5a      	ldr	r3, [pc, #360]	; (123c <usart_init+0x314>)
    10d2:	789b      	ldrb	r3, [r3, #2]
    10d4:	079b      	lsls	r3, r3, #30
    10d6:	d501      	bpl.n	10dc <usart_init+0x1b4>
    10d8:	2380      	movs	r3, #128	; 0x80
    10da:	431f      	orrs	r7, r3
    10dc:	682a      	ldr	r2, [r5, #0]
    10de:	69d3      	ldr	r3, [r2, #28]
    10e0:	2b00      	cmp	r3, #0
    10e2:	d1fc      	bne.n	10de <usart_init+0x1b6>
    10e4:	4653      	mov	r3, sl
    10e6:	6059      	str	r1, [r3, #4]
    10e8:	682a      	ldr	r2, [r5, #0]
    10ea:	69d3      	ldr	r3, [r2, #28]
    10ec:	2b00      	cmp	r3, #0
    10ee:	d1fc      	bne.n	10ea <usart_init+0x1c2>
    10f0:	4652      	mov	r2, sl
    10f2:	a908      	add	r1, sp, #32
    10f4:	6017      	str	r7, [r2, #0]
    10f6:	734b      	strb	r3, [r1, #13]
    10f8:	73cb      	strb	r3, [r1, #15]
    10fa:	738b      	strb	r3, [r1, #14]
    10fc:	4643      	mov	r3, r8
    10fe:	6b1b      	ldr	r3, [r3, #48]	; 0x30
    1100:	2280      	movs	r2, #128	; 0x80
    1102:	930c      	str	r3, [sp, #48]	; 0x30
    1104:	4643      	mov	r3, r8
    1106:	6b5b      	ldr	r3, [r3, #52]	; 0x34
    1108:	2700      	movs	r7, #0
    110a:	6073      	str	r3, [r6, #4]
    110c:	4643      	mov	r3, r8
    110e:	6b9b      	ldr	r3, [r3, #56]	; 0x38
    1110:	730a      	strb	r2, [r1, #12]
    1112:	60b3      	str	r3, [r6, #8]
    1114:	4643      	mov	r3, r8
    1116:	6bdb      	ldr	r3, [r3, #60]	; 0x3c
    1118:	60f3      	str	r3, [r6, #12]
    111a:	4b49      	ldr	r3, [pc, #292]	; (1240 <usart_init+0x318>)
    111c:	469b      	mov	fp, r3
    111e:	4b49      	ldr	r3, [pc, #292]	; (1244 <usart_init+0x31c>)
    1120:	469a      	mov	sl, r3
    1122:	00bb      	lsls	r3, r7, #2
    1124:	58f0      	ldr	r0, [r6, r3]
    1126:	b2f9      	uxtb	r1, r7
    1128:	2800      	cmp	r0, #0
    112a:	d02e      	beq.n	118a <usart_init+0x262>
    112c:	1c43      	adds	r3, r0, #1
    112e:	d005      	beq.n	113c <usart_init+0x214>
    1130:	ab08      	add	r3, sp, #32
    1132:	7318      	strb	r0, [r3, #12]
    1134:	0c00      	lsrs	r0, r0, #16
    1136:	b2c0      	uxtb	r0, r0
    1138:	a90b      	add	r1, sp, #44	; 0x2c
    113a:	47d0      	blx	sl
    113c:	3701      	adds	r7, #1
    113e:	2f04      	cmp	r7, #4
    1140:	d1ef      	bne.n	1122 <usart_init+0x1fa>
    1142:	0028      	movs	r0, r5
    1144:	2100      	movs	r1, #0
    1146:	2218      	movs	r2, #24
    1148:	4b3f      	ldr	r3, [pc, #252]	; (1248 <usart_init+0x320>)
    114a:	300c      	adds	r0, #12
    114c:	4798      	blx	r3
    114e:	2200      	movs	r2, #0
    1150:	2300      	movs	r3, #0
    1152:	85ea      	strh	r2, [r5, #46]	; 0x2e
    1154:	62aa      	str	r2, [r5, #40]	; 0x28
    1156:	626a      	str	r2, [r5, #36]	; 0x24
    1158:	85aa      	strh	r2, [r5, #44]	; 0x2c
    115a:	3230      	adds	r2, #48	; 0x30
    115c:	54ab      	strb	r3, [r5, r2]
    115e:	3201      	adds	r2, #1
    1160:	54ab      	strb	r3, [r5, r2]
    1162:	3201      	adds	r2, #1
    1164:	54ab      	strb	r3, [r5, r2]
    1166:	3201      	adds	r2, #1
    1168:	54ab      	strb	r3, [r5, r2]
    116a:	6828      	ldr	r0, [r5, #0]
    116c:	47c8      	blx	r9
    116e:	0004      	movs	r4, r0
    1170:	4b36      	ldr	r3, [pc, #216]	; (124c <usart_init+0x324>)
    1172:	4937      	ldr	r1, [pc, #220]	; (1250 <usart_init+0x328>)
    1174:	4798      	blx	r3
    1176:	4b37      	ldr	r3, [pc, #220]	; (1254 <usart_init+0x32c>)
    1178:	00a4      	lsls	r4, r4, #2
    117a:	50e5      	str	r5, [r4, r3]
    117c:	2000      	movs	r0, #0
    117e:	e6e8      	b.n	f52 <usart_init+0x2a>
    1180:	2308      	movs	r3, #8
    1182:	9309      	str	r3, [sp, #36]	; 0x24
    1184:	2300      	movs	r3, #0
    1186:	9308      	str	r3, [sp, #32]
    1188:	e737      	b.n	ffa <usart_init+0xd2>
    118a:	0020      	movs	r0, r4
    118c:	47d8      	blx	fp
    118e:	e7cd      	b.n	112c <usart_init+0x204>
    1190:	2100      	movs	r1, #0
    1192:	e752      	b.n	103a <usart_init+0x112>
    1194:	2327      	movs	r3, #39	; 0x27
    1196:	4642      	mov	r2, r8
    1198:	5cd3      	ldrb	r3, [r2, r3]
    119a:	2b00      	cmp	r3, #0
    119c:	d02a      	beq.n	11f4 <usart_init+0x2cc>
    119e:	4641      	mov	r1, r8
    11a0:	4640      	mov	r0, r8
    11a2:	9b09      	ldr	r3, [sp, #36]	; 0x24
    11a4:	0032      	movs	r2, r6
    11a6:	9300      	str	r3, [sp, #0]
    11a8:	6a89      	ldr	r1, [r1, #40]	; 0x28
    11aa:	9b08      	ldr	r3, [sp, #32]
    11ac:	6a00      	ldr	r0, [r0, #32]
    11ae:	4f2a      	ldr	r7, [pc, #168]	; (1258 <usart_init+0x330>)
    11b0:	47b8      	blx	r7
    11b2:	2800      	cmp	r0, #0
    11b4:	d000      	beq.n	11b8 <usart_init+0x290>
    11b6:	e6cc      	b.n	f52 <usart_init+0x2a>
    11b8:	8831      	ldrh	r1, [r6, #0]
    11ba:	e73e      	b.n	103a <usart_init+0x112>
    11bc:	2380      	movs	r3, #128	; 0x80
    11be:	019b      	lsls	r3, r3, #6
    11c0:	429a      	cmp	r2, r3
    11c2:	d104      	bne.n	11ce <usart_init+0x2a6>
    11c4:	2310      	movs	r3, #16
    11c6:	9309      	str	r3, [sp, #36]	; 0x24
    11c8:	3b0f      	subs	r3, #15
    11ca:	9308      	str	r3, [sp, #32]
    11cc:	e715      	b.n	ffa <usart_init+0xd2>
    11ce:	2310      	movs	r3, #16
    11d0:	9309      	str	r3, [sp, #36]	; 0x24
    11d2:	2300      	movs	r3, #0
    11d4:	9308      	str	r3, [sp, #32]
    11d6:	e710      	b.n	ffa <usart_init+0xd2>
    11d8:	2308      	movs	r3, #8
    11da:	9309      	str	r3, [sp, #36]	; 0x24
    11dc:	3b07      	subs	r3, #7
    11de:	9308      	str	r3, [sp, #32]
    11e0:	e70b      	b.n	ffa <usart_init+0xd2>
    11e2:	4643      	mov	r3, r8
    11e4:	7edb      	ldrb	r3, [r3, #27]
    11e6:	2b00      	cmp	r3, #0
    11e8:	d100      	bne.n	11ec <usart_init+0x2c4>
    11ea:	e76c      	b.n	10c6 <usart_init+0x19e>
    11ec:	2380      	movs	r3, #128	; 0x80
    11ee:	04db      	lsls	r3, r3, #19
    11f0:	431f      	orrs	r7, r3
    11f2:	e768      	b.n	10c6 <usart_init+0x19e>
    11f4:	6a13      	ldr	r3, [r2, #32]
    11f6:	b2c0      	uxtb	r0, r0
    11f8:	001f      	movs	r7, r3
    11fa:	4b18      	ldr	r3, [pc, #96]	; (125c <usart_init+0x334>)
    11fc:	4798      	blx	r3
    11fe:	9b09      	ldr	r3, [sp, #36]	; 0x24
    1200:	0001      	movs	r1, r0
    1202:	9300      	str	r3, [sp, #0]
    1204:	0032      	movs	r2, r6
    1206:	9b08      	ldr	r3, [sp, #32]
    1208:	0038      	movs	r0, r7
    120a:	4f13      	ldr	r7, [pc, #76]	; (1258 <usart_init+0x330>)
    120c:	47b8      	blx	r7
    120e:	e7d0      	b.n	11b2 <usart_init+0x28a>
    1210:	6a13      	ldr	r3, [r2, #32]
    1212:	b2c0      	uxtb	r0, r0
    1214:	001f      	movs	r7, r3
    1216:	4b11      	ldr	r3, [pc, #68]	; (125c <usart_init+0x334>)
    1218:	4798      	blx	r3
    121a:	0032      	movs	r2, r6
    121c:	0001      	movs	r1, r0
    121e:	4b10      	ldr	r3, [pc, #64]	; (1260 <usart_init+0x338>)
    1220:	0038      	movs	r0, r7
    1222:	4798      	blx	r3
    1224:	e7c5      	b.n	11b2 <usart_init+0x28a>
    1226:	46c0      	nop			; (mov r8, r8)
    1228:	000008f9 	.word	0x000008f9
    122c:	40000400 	.word	0x40000400
    1230:	00001b29 	.word	0x00001b29
    1234:	00001b8d 	.word	0x00001b8d
    1238:	00000751 	.word	0x00000751
    123c:	41002000 	.word	0x41002000
    1240:	00000799 	.word	0x00000799
    1244:	00001c55 	.word	0x00001c55
    1248:	000095f1 	.word	0x000095f1
    124c:	00000961 	.word	0x00000961
    1250:	000014d1 	.word	0x000014d1
    1254:	2000040c 	.word	0x2000040c
    1258:	000004e9 	.word	0x000004e9
    125c:	00001bbd 	.word	0x00001bbd
    1260:	000004c1 	.word	0x000004c1

00001264 <usart_write_wait>:
    1264:	79c2      	ldrb	r2, [r0, #7]
    1266:	231c      	movs	r3, #28
    1268:	2a00      	cmp	r2, #0
    126a:	d101      	bne.n	1270 <usart_write_wait+0xc>
    126c:	0018      	movs	r0, r3
    126e:	4770      	bx	lr
    1270:	8dc2      	ldrh	r2, [r0, #46]	; 0x2e
    1272:	3b17      	subs	r3, #23
    1274:	2a00      	cmp	r2, #0
    1276:	d1f9      	bne.n	126c <usart_write_wait+0x8>
    1278:	6803      	ldr	r3, [r0, #0]
    127a:	69da      	ldr	r2, [r3, #28]
    127c:	2a00      	cmp	r2, #0
    127e:	d1fc      	bne.n	127a <usart_write_wait+0x16>
    1280:	8519      	strh	r1, [r3, #40]	; 0x28
    1282:	2102      	movs	r1, #2
    1284:	7e1a      	ldrb	r2, [r3, #24]
    1286:	4211      	tst	r1, r2
    1288:	d0fc      	beq.n	1284 <usart_write_wait+0x20>
    128a:	2300      	movs	r3, #0
    128c:	e7ee      	b.n	126c <usart_write_wait+0x8>
    128e:	46c0      	nop			; (mov r8, r8)

00001290 <usart_read_wait>:
    1290:	7982      	ldrb	r2, [r0, #6]
    1292:	0003      	movs	r3, r0
    1294:	201c      	movs	r0, #28
    1296:	2a00      	cmp	r2, #0
    1298:	d100      	bne.n	129c <usart_read_wait+0xc>
    129a:	4770      	bx	lr
    129c:	8d9a      	ldrh	r2, [r3, #44]	; 0x2c
    129e:	3817      	subs	r0, #23
    12a0:	2a00      	cmp	r2, #0
    12a2:	d1fa      	bne.n	129a <usart_read_wait+0xa>
    12a4:	681a      	ldr	r2, [r3, #0]
    12a6:	7e13      	ldrb	r3, [r2, #24]
    12a8:	075b      	lsls	r3, r3, #29
    12aa:	d5f6      	bpl.n	129a <usart_read_wait+0xa>
    12ac:	69d3      	ldr	r3, [r2, #28]
    12ae:	2b00      	cmp	r3, #0
    12b0:	d1fc      	bne.n	12ac <usart_read_wait+0x1c>
    12b2:	8b53      	ldrh	r3, [r2, #26]
    12b4:	b2db      	uxtb	r3, r3
    12b6:	0698      	lsls	r0, r3, #26
    12b8:	d005      	beq.n	12c6 <usart_read_wait+0x36>
    12ba:	2002      	movs	r0, #2
    12bc:	4218      	tst	r0, r3
    12be:	d006      	beq.n	12ce <usart_read_wait+0x3e>
    12c0:	8350      	strh	r0, [r2, #26]
    12c2:	3018      	adds	r0, #24
    12c4:	e7e9      	b.n	129a <usart_read_wait+0xa>
    12c6:	8d13      	ldrh	r3, [r2, #40]	; 0x28
    12c8:	2000      	movs	r0, #0
    12ca:	800b      	strh	r3, [r1, #0]
    12cc:	e7e5      	b.n	129a <usart_read_wait+0xa>
    12ce:	2004      	movs	r0, #4
    12d0:	4218      	tst	r0, r3
    12d2:	d002      	beq.n	12da <usart_read_wait+0x4a>
    12d4:	8350      	strh	r0, [r2, #26]
    12d6:	301a      	adds	r0, #26
    12d8:	e7df      	b.n	129a <usart_read_wait+0xa>
    12da:	2001      	movs	r0, #1
    12dc:	4218      	tst	r0, r3
    12de:	d002      	beq.n	12e6 <usart_read_wait+0x56>
    12e0:	8350      	strh	r0, [r2, #26]
    12e2:	3012      	adds	r0, #18
    12e4:	e7d9      	b.n	129a <usart_read_wait+0xa>
    12e6:	2010      	movs	r0, #16
    12e8:	4203      	tst	r3, r0
    12ea:	d002      	beq.n	12f2 <usart_read_wait+0x62>
    12ec:	8350      	strh	r0, [r2, #26]
    12ee:	3032      	adds	r0, #50	; 0x32
    12f0:	e7d3      	b.n	129a <usart_read_wait+0xa>
    12f2:	2020      	movs	r0, #32
    12f4:	4203      	tst	r3, r0
    12f6:	d0e6      	beq.n	12c6 <usart_read_wait+0x36>
    12f8:	8350      	strh	r0, [r2, #26]
    12fa:	3021      	adds	r0, #33	; 0x21
    12fc:	e7cd      	b.n	129a <usart_read_wait+0xa>
    12fe:	46c0      	nop			; (mov r8, r8)

00001300 <usart_write_buffer_wait>:
    1300:	b5f0      	push	{r4, r5, r6, r7, lr}
    1302:	46d6      	mov	lr, sl
    1304:	464f      	mov	r7, r9
    1306:	4646      	mov	r6, r8
    1308:	2317      	movs	r3, #23
    130a:	b5c0      	push	{r6, r7, lr}
    130c:	2a00      	cmp	r2, #0
    130e:	d105      	bne.n	131c <usart_write_buffer_wait+0x1c>
    1310:	0018      	movs	r0, r3
    1312:	bc1c      	pop	{r2, r3, r4}
    1314:	4690      	mov	r8, r2
    1316:	4699      	mov	r9, r3
    1318:	46a2      	mov	sl, r4
    131a:	bdf0      	pop	{r4, r5, r6, r7, pc}
    131c:	79c4      	ldrb	r4, [r0, #7]
    131e:	3305      	adds	r3, #5
    1320:	2c00      	cmp	r4, #0
    1322:	d0f5      	beq.n	1310 <usart_write_buffer_wait+0x10>
    1324:	6804      	ldr	r4, [r0, #0]
    1326:	69e3      	ldr	r3, [r4, #28]
    1328:	2b00      	cmp	r3, #0
    132a:	d1fc      	bne.n	1326 <usart_write_buffer_wait+0x26>
    132c:	3a01      	subs	r2, #1
    132e:	b293      	uxth	r3, r2
    1330:	469a      	mov	sl, r3
    1332:	2302      	movs	r3, #2
    1334:	469c      	mov	ip, r3
    1336:	4b22      	ldr	r3, [pc, #136]	; (13c0 <usart_write_buffer_wait+0xc0>)
    1338:	2700      	movs	r7, #0
    133a:	2501      	movs	r5, #1
    133c:	4698      	mov	r8, r3
    133e:	7e23      	ldrb	r3, [r4, #24]
    1340:	421d      	tst	r5, r3
    1342:	d107      	bne.n	1354 <usart_write_buffer_wait+0x54>
    1344:	4b1e      	ldr	r3, [pc, #120]	; (13c0 <usart_write_buffer_wait+0xc0>)
    1346:	e002      	b.n	134e <usart_write_buffer_wait+0x4e>
    1348:	3b01      	subs	r3, #1
    134a:	2b00      	cmp	r3, #0
    134c:	d036      	beq.n	13bc <usart_write_buffer_wait+0xbc>
    134e:	7e22      	ldrb	r2, [r4, #24]
    1350:	4215      	tst	r5, r2
    1352:	d0f9      	beq.n	1348 <usart_write_buffer_wait+0x48>
    1354:	7946      	ldrb	r6, [r0, #5]
    1356:	1c7b      	adds	r3, r7, #1
    1358:	b29b      	uxth	r3, r3
    135a:	5dca      	ldrb	r2, [r1, r7]
    135c:	2e01      	cmp	r6, #1
    135e:	d026      	beq.n	13ae <usart_write_buffer_wait+0xae>
    1360:	b292      	uxth	r2, r2
    1362:	4691      	mov	r9, r2
    1364:	001f      	movs	r7, r3
    1366:	79c3      	ldrb	r3, [r0, #7]
    1368:	2b00      	cmp	r3, #0
    136a:	d00c      	beq.n	1386 <usart_write_buffer_wait+0x86>
    136c:	8dc3      	ldrh	r3, [r0, #46]	; 0x2e
    136e:	2b00      	cmp	r3, #0
    1370:	d109      	bne.n	1386 <usart_write_buffer_wait+0x86>
    1372:	6803      	ldr	r3, [r0, #0]
    1374:	69da      	ldr	r2, [r3, #28]
    1376:	2a00      	cmp	r2, #0
    1378:	d1fc      	bne.n	1374 <usart_write_buffer_wait+0x74>
    137a:	464a      	mov	r2, r9
    137c:	851a      	strh	r2, [r3, #40]	; 0x28
    137e:	4666      	mov	r6, ip
    1380:	7e1a      	ldrb	r2, [r3, #24]
    1382:	4216      	tst	r6, r2
    1384:	d0fb      	beq.n	137e <usart_write_buffer_wait+0x7e>
    1386:	4656      	mov	r6, sl
    1388:	3e01      	subs	r6, #1
    138a:	b2b3      	uxth	r3, r6
    138c:	469a      	mov	sl, r3
    138e:	4543      	cmp	r3, r8
    1390:	d1d5      	bne.n	133e <usart_write_buffer_wait+0x3e>
    1392:	7e23      	ldrb	r3, [r4, #24]
    1394:	079b      	lsls	r3, r3, #30
    1396:	d408      	bmi.n	13aa <usart_write_buffer_wait+0xaa>
    1398:	4656      	mov	r6, sl
    139a:	2202      	movs	r2, #2
    139c:	e002      	b.n	13a4 <usart_write_buffer_wait+0xa4>
    139e:	3e01      	subs	r6, #1
    13a0:	2e00      	cmp	r6, #0
    13a2:	d00b      	beq.n	13bc <usart_write_buffer_wait+0xbc>
    13a4:	7e23      	ldrb	r3, [r4, #24]
    13a6:	421a      	tst	r2, r3
    13a8:	d0f9      	beq.n	139e <usart_write_buffer_wait+0x9e>
    13aa:	2300      	movs	r3, #0
    13ac:	e7b0      	b.n	1310 <usart_write_buffer_wait+0x10>
    13ae:	5ccb      	ldrb	r3, [r1, r3]
    13b0:	3702      	adds	r7, #2
    13b2:	021b      	lsls	r3, r3, #8
    13b4:	4313      	orrs	r3, r2
    13b6:	b2bf      	uxth	r7, r7
    13b8:	4699      	mov	r9, r3
    13ba:	e7d4      	b.n	1366 <usart_write_buffer_wait+0x66>
    13bc:	2312      	movs	r3, #18
    13be:	e7a7      	b.n	1310 <usart_write_buffer_wait+0x10>
    13c0:	0000ffff 	.word	0x0000ffff

000013c4 <usart_read_buffer_wait>:
    13c4:	b5f0      	push	{r4, r5, r6, r7, lr}
    13c6:	46de      	mov	lr, fp
    13c8:	4657      	mov	r7, sl
    13ca:	464e      	mov	r6, r9
    13cc:	4645      	mov	r5, r8
    13ce:	b5e0      	push	{r5, r6, r7, lr}
    13d0:	2317      	movs	r3, #23
    13d2:	b083      	sub	sp, #12
    13d4:	2a00      	cmp	r2, #0
    13d6:	d107      	bne.n	13e8 <usart_read_buffer_wait+0x24>
    13d8:	0018      	movs	r0, r3
    13da:	b003      	add	sp, #12
    13dc:	bc3c      	pop	{r2, r3, r4, r5}
    13de:	4690      	mov	r8, r2
    13e0:	4699      	mov	r9, r3
    13e2:	46a2      	mov	sl, r4
    13e4:	46ab      	mov	fp, r5
    13e6:	bdf0      	pop	{r4, r5, r6, r7, pc}
    13e8:	7983      	ldrb	r3, [r0, #6]
    13ea:	2b00      	cmp	r3, #0
    13ec:	d101      	bne.n	13f2 <usart_read_buffer_wait+0x2e>
    13ee:	231c      	movs	r3, #28
    13f0:	e7f2      	b.n	13d8 <usart_read_buffer_wait+0x14>
    13f2:	2502      	movs	r5, #2
    13f4:	46ab      	mov	fp, r5
    13f6:	3d01      	subs	r5, #1
    13f8:	46aa      	mov	sl, r5
    13fa:	350f      	adds	r5, #15
    13fc:	46a9      	mov	r9, r5
    13fe:	4d33      	ldr	r5, [pc, #204]	; (14cc <usart_read_buffer_wait+0x108>)
    1400:	2600      	movs	r6, #0
    1402:	2304      	movs	r3, #4
    1404:	46a8      	mov	r8, r5
    1406:	3a01      	subs	r2, #1
    1408:	6804      	ldr	r4, [r0, #0]
    140a:	b292      	uxth	r2, r2
    140c:	7e25      	ldrb	r5, [r4, #24]
    140e:	422b      	tst	r3, r5
    1410:	d107      	bne.n	1422 <usart_read_buffer_wait+0x5e>
    1412:	4d2e      	ldr	r5, [pc, #184]	; (14cc <usart_read_buffer_wait+0x108>)
    1414:	e002      	b.n	141c <usart_read_buffer_wait+0x58>
    1416:	3d01      	subs	r5, #1
    1418:	2d00      	cmp	r5, #0
    141a:	d00a      	beq.n	1432 <usart_read_buffer_wait+0x6e>
    141c:	7e27      	ldrb	r7, [r4, #24]
    141e:	423b      	tst	r3, r7
    1420:	d0f9      	beq.n	1416 <usart_read_buffer_wait+0x52>
    1422:	7985      	ldrb	r5, [r0, #6]
    1424:	2d00      	cmp	r5, #0
    1426:	d0e2      	beq.n	13ee <usart_read_buffer_wait+0x2a>
    1428:	8d85      	ldrh	r5, [r0, #44]	; 0x2c
    142a:	2d00      	cmp	r5, #0
    142c:	d003      	beq.n	1436 <usart_read_buffer_wait+0x72>
    142e:	2305      	movs	r3, #5
    1430:	e7d2      	b.n	13d8 <usart_read_buffer_wait+0x14>
    1432:	2312      	movs	r3, #18
    1434:	e7d0      	b.n	13d8 <usart_read_buffer_wait+0x14>
    1436:	6805      	ldr	r5, [r0, #0]
    1438:	7e2f      	ldrb	r7, [r5, #24]
    143a:	423b      	tst	r3, r7
    143c:	d0f7      	beq.n	142e <usart_read_buffer_wait+0x6a>
    143e:	69ef      	ldr	r7, [r5, #28]
    1440:	2f00      	cmp	r7, #0
    1442:	d1fc      	bne.n	143e <usart_read_buffer_wait+0x7a>
    1444:	8b6f      	ldrh	r7, [r5, #26]
    1446:	46ac      	mov	ip, r5
    1448:	253f      	movs	r5, #63	; 0x3f
    144a:	b2ff      	uxtb	r7, r7
    144c:	423d      	tst	r5, r7
    144e:	d007      	beq.n	1460 <usart_read_buffer_wait+0x9c>
    1450:	465d      	mov	r5, fp
    1452:	423d      	tst	r5, r7
    1454:	d01b      	beq.n	148e <usart_read_buffer_wait+0xca>
    1456:	465b      	mov	r3, fp
    1458:	4665      	mov	r5, ip
    145a:	836b      	strh	r3, [r5, #26]
    145c:	231a      	movs	r3, #26
    145e:	e7bb      	b.n	13d8 <usart_read_buffer_wait+0x14>
    1460:	4665      	mov	r5, ip
    1462:	8d2d      	ldrh	r5, [r5, #40]	; 0x28
    1464:	1c77      	adds	r7, r6, #1
    1466:	b2bf      	uxth	r7, r7
    1468:	b2ad      	uxth	r5, r5
    146a:	9701      	str	r7, [sp, #4]
    146c:	558d      	strb	r5, [r1, r6]
    146e:	7947      	ldrb	r7, [r0, #5]
    1470:	2f01      	cmp	r7, #1
    1472:	d006      	beq.n	1482 <usart_read_buffer_wait+0xbe>
    1474:	9e01      	ldr	r6, [sp, #4]
    1476:	3a01      	subs	r2, #1
    1478:	b292      	uxth	r2, r2
    147a:	4542      	cmp	r2, r8
    147c:	d1c6      	bne.n	140c <usart_read_buffer_wait+0x48>
    147e:	2300      	movs	r3, #0
    1480:	e7aa      	b.n	13d8 <usart_read_buffer_wait+0x14>
    1482:	9f01      	ldr	r7, [sp, #4]
    1484:	3602      	adds	r6, #2
    1486:	0a2d      	lsrs	r5, r5, #8
    1488:	b2b6      	uxth	r6, r6
    148a:	55cd      	strb	r5, [r1, r7]
    148c:	e7f3      	b.n	1476 <usart_read_buffer_wait+0xb2>
    148e:	423b      	tst	r3, r7
    1490:	d003      	beq.n	149a <usart_read_buffer_wait+0xd6>
    1492:	4665      	mov	r5, ip
    1494:	836b      	strh	r3, [r5, #26]
    1496:	231e      	movs	r3, #30
    1498:	e79e      	b.n	13d8 <usart_read_buffer_wait+0x14>
    149a:	4655      	mov	r5, sl
    149c:	423d      	tst	r5, r7
    149e:	d004      	beq.n	14aa <usart_read_buffer_wait+0xe6>
    14a0:	4653      	mov	r3, sl
    14a2:	4665      	mov	r5, ip
    14a4:	836b      	strh	r3, [r5, #26]
    14a6:	2313      	movs	r3, #19
    14a8:	e796      	b.n	13d8 <usart_read_buffer_wait+0x14>
    14aa:	464d      	mov	r5, r9
    14ac:	422f      	tst	r7, r5
    14ae:	d004      	beq.n	14ba <usart_read_buffer_wait+0xf6>
    14b0:	464b      	mov	r3, r9
    14b2:	4665      	mov	r5, ip
    14b4:	836b      	strh	r3, [r5, #26]
    14b6:	2342      	movs	r3, #66	; 0x42
    14b8:	e78e      	b.n	13d8 <usart_read_buffer_wait+0x14>
    14ba:	2520      	movs	r5, #32
    14bc:	422f      	tst	r7, r5
    14be:	d0cf      	beq.n	1460 <usart_read_buffer_wait+0x9c>
    14c0:	2320      	movs	r3, #32
    14c2:	4665      	mov	r5, ip
    14c4:	836b      	strh	r3, [r5, #26]
    14c6:	2341      	movs	r3, #65	; 0x41
    14c8:	e786      	b.n	13d8 <usart_read_buffer_wait+0x14>
    14ca:	46c0      	nop			; (mov r8, r8)
    14cc:	0000ffff 	.word	0x0000ffff

000014d0 <_usart_interrupt_handler>:
    14d0:	b5f8      	push	{r3, r4, r5, r6, r7, lr}
    14d2:	4b62      	ldr	r3, [pc, #392]	; (165c <_usart_interrupt_handler+0x18c>)
    14d4:	0080      	lsls	r0, r0, #2
    14d6:	58c5      	ldr	r5, [r0, r3]
    14d8:	682c      	ldr	r4, [r5, #0]
    14da:	69e3      	ldr	r3, [r4, #28]
    14dc:	2b00      	cmp	r3, #0
    14de:	d1fc      	bne.n	14da <_usart_interrupt_handler+0xa>
    14e0:	7e23      	ldrb	r3, [r4, #24]
    14e2:	7da6      	ldrb	r6, [r4, #22]
    14e4:	2231      	movs	r2, #49	; 0x31
    14e6:	401e      	ands	r6, r3
    14e8:	2330      	movs	r3, #48	; 0x30
    14ea:	5caf      	ldrb	r7, [r5, r2]
    14ec:	5ceb      	ldrb	r3, [r5, r3]
    14ee:	401f      	ands	r7, r3
    14f0:	2301      	movs	r3, #1
    14f2:	4233      	tst	r3, r6
    14f4:	d019      	beq.n	152a <_usart_interrupt_handler+0x5a>
    14f6:	8dea      	ldrh	r2, [r5, #46]	; 0x2e
    14f8:	2a00      	cmp	r2, #0
    14fa:	d04d      	beq.n	1598 <_usart_interrupt_handler+0xc8>
    14fc:	6aaa      	ldr	r2, [r5, #40]	; 0x28
    14fe:	1c51      	adds	r1, r2, #1
    1500:	7813      	ldrb	r3, [r2, #0]
    1502:	62a9      	str	r1, [r5, #40]	; 0x28
    1504:	7969      	ldrb	r1, [r5, #5]
    1506:	b2db      	uxtb	r3, r3
    1508:	2901      	cmp	r1, #1
    150a:	d100      	bne.n	150e <_usart_interrupt_handler+0x3e>
    150c:	e075      	b.n	15fa <_usart_interrupt_handler+0x12a>
    150e:	b29b      	uxth	r3, r3
    1510:	05db      	lsls	r3, r3, #23
    1512:	0ddb      	lsrs	r3, r3, #23
    1514:	8523      	strh	r3, [r4, #40]	; 0x28
    1516:	8deb      	ldrh	r3, [r5, #46]	; 0x2e
    1518:	3b01      	subs	r3, #1
    151a:	b29b      	uxth	r3, r3
    151c:	85eb      	strh	r3, [r5, #46]	; 0x2e
    151e:	2b00      	cmp	r3, #0
    1520:	d103      	bne.n	152a <_usart_interrupt_handler+0x5a>
    1522:	3301      	adds	r3, #1
    1524:	7523      	strb	r3, [r4, #20]
    1526:	3301      	adds	r3, #1
    1528:	75a3      	strb	r3, [r4, #22]
    152a:	2302      	movs	r3, #2
    152c:	4233      	tst	r3, r6
    152e:	d005      	beq.n	153c <_usart_interrupt_handler+0x6c>
    1530:	2200      	movs	r2, #0
    1532:	7523      	strb	r3, [r4, #20]
    1534:	3331      	adds	r3, #49	; 0x31
    1536:	54ea      	strb	r2, [r5, r3]
    1538:	07fb      	lsls	r3, r7, #31
    153a:	d43b      	bmi.n	15b4 <_usart_interrupt_handler+0xe4>
    153c:	2304      	movs	r3, #4
    153e:	4233      	tst	r3, r6
    1540:	d012      	beq.n	1568 <_usart_interrupt_handler+0x98>
    1542:	8daa      	ldrh	r2, [r5, #44]	; 0x2c
    1544:	2a00      	cmp	r2, #0
    1546:	d025      	beq.n	1594 <_usart_interrupt_handler+0xc4>
    1548:	8b63      	ldrh	r3, [r4, #26]
    154a:	b2db      	uxtb	r3, r3
    154c:	071a      	lsls	r2, r3, #28
    154e:	d535      	bpl.n	15bc <_usart_interrupt_handler+0xec>
    1550:	2237      	movs	r2, #55	; 0x37
    1552:	4013      	ands	r3, r2
    1554:	d035      	beq.n	15c2 <_usart_interrupt_handler+0xf2>
    1556:	2202      	movs	r2, #2
    1558:	421a      	tst	r2, r3
    155a:	d054      	beq.n	1606 <_usart_interrupt_handler+0x136>
    155c:	211a      	movs	r1, #26
    155e:	2332      	movs	r3, #50	; 0x32
    1560:	54e9      	strb	r1, [r5, r3]
    1562:	8362      	strh	r2, [r4, #26]
    1564:	077b      	lsls	r3, r7, #29
    1566:	d459      	bmi.n	161c <_usart_interrupt_handler+0x14c>
    1568:	2310      	movs	r3, #16
    156a:	4233      	tst	r3, r6
    156c:	d003      	beq.n	1576 <_usart_interrupt_handler+0xa6>
    156e:	7523      	strb	r3, [r4, #20]
    1570:	7623      	strb	r3, [r4, #24]
    1572:	423b      	tst	r3, r7
    1574:	d116      	bne.n	15a4 <_usart_interrupt_handler+0xd4>
    1576:	2320      	movs	r3, #32
    1578:	4233      	tst	r3, r6
    157a:	d003      	beq.n	1584 <_usart_interrupt_handler+0xb4>
    157c:	7523      	strb	r3, [r4, #20]
    157e:	7623      	strb	r3, [r4, #24]
    1580:	073b      	lsls	r3, r7, #28
    1582:	d413      	bmi.n	15ac <_usart_interrupt_handler+0xdc>
    1584:	2308      	movs	r3, #8
    1586:	4233      	tst	r3, r6
    1588:	d003      	beq.n	1592 <_usart_interrupt_handler+0xc2>
    158a:	7523      	strb	r3, [r4, #20]
    158c:	7623      	strb	r3, [r4, #24]
    158e:	06bb      	lsls	r3, r7, #26
    1590:	d404      	bmi.n	159c <_usart_interrupt_handler+0xcc>
    1592:	bdf8      	pop	{r3, r4, r5, r6, r7, pc}
    1594:	7523      	strb	r3, [r4, #20]
    1596:	e7e7      	b.n	1568 <_usart_interrupt_handler+0x98>
    1598:	7523      	strb	r3, [r4, #20]
    159a:	e7c6      	b.n	152a <_usart_interrupt_handler+0x5a>
    159c:	6a2b      	ldr	r3, [r5, #32]
    159e:	0028      	movs	r0, r5
    15a0:	4798      	blx	r3
    15a2:	e7f6      	b.n	1592 <_usart_interrupt_handler+0xc2>
    15a4:	0028      	movs	r0, r5
    15a6:	69eb      	ldr	r3, [r5, #28]
    15a8:	4798      	blx	r3
    15aa:	e7e4      	b.n	1576 <_usart_interrupt_handler+0xa6>
    15ac:	0028      	movs	r0, r5
    15ae:	69ab      	ldr	r3, [r5, #24]
    15b0:	4798      	blx	r3
    15b2:	e7e7      	b.n	1584 <_usart_interrupt_handler+0xb4>
    15b4:	0028      	movs	r0, r5
    15b6:	68eb      	ldr	r3, [r5, #12]
    15b8:	4798      	blx	r3
    15ba:	e7bf      	b.n	153c <_usart_interrupt_handler+0x6c>
    15bc:	223f      	movs	r2, #63	; 0x3f
    15be:	4013      	ands	r3, r2
    15c0:	d1c9      	bne.n	1556 <_usart_interrupt_handler+0x86>
    15c2:	8d23      	ldrh	r3, [r4, #40]	; 0x28
    15c4:	6a69      	ldr	r1, [r5, #36]	; 0x24
    15c6:	05db      	lsls	r3, r3, #23
    15c8:	0ddb      	lsrs	r3, r3, #23
    15ca:	b2da      	uxtb	r2, r3
    15cc:	700a      	strb	r2, [r1, #0]
    15ce:	6a6a      	ldr	r2, [r5, #36]	; 0x24
    15d0:	1c51      	adds	r1, r2, #1
    15d2:	6269      	str	r1, [r5, #36]	; 0x24
    15d4:	7969      	ldrb	r1, [r5, #5]
    15d6:	2901      	cmp	r1, #1
    15d8:	d029      	beq.n	162e <_usart_interrupt_handler+0x15e>
    15da:	8dab      	ldrh	r3, [r5, #44]	; 0x2c
    15dc:	3b01      	subs	r3, #1
    15de:	b29b      	uxth	r3, r3
    15e0:	85ab      	strh	r3, [r5, #44]	; 0x2c
    15e2:	2b00      	cmp	r3, #0
    15e4:	d1c0      	bne.n	1568 <_usart_interrupt_handler+0x98>
    15e6:	2204      	movs	r2, #4
    15e8:	7522      	strb	r2, [r4, #20]
    15ea:	322e      	adds	r2, #46	; 0x2e
    15ec:	54ab      	strb	r3, [r5, r2]
    15ee:	07bb      	lsls	r3, r7, #30
    15f0:	d5ba      	bpl.n	1568 <_usart_interrupt_handler+0x98>
    15f2:	0028      	movs	r0, r5
    15f4:	692b      	ldr	r3, [r5, #16]
    15f6:	4798      	blx	r3
    15f8:	e7b6      	b.n	1568 <_usart_interrupt_handler+0x98>
    15fa:	7851      	ldrb	r1, [r2, #1]
    15fc:	3202      	adds	r2, #2
    15fe:	0209      	lsls	r1, r1, #8
    1600:	430b      	orrs	r3, r1
    1602:	62aa      	str	r2, [r5, #40]	; 0x28
    1604:	e784      	b.n	1510 <_usart_interrupt_handler+0x40>
    1606:	2204      	movs	r2, #4
    1608:	421a      	tst	r2, r3
    160a:	d10b      	bne.n	1624 <_usart_interrupt_handler+0x154>
    160c:	2201      	movs	r2, #1
    160e:	421a      	tst	r2, r3
    1610:	d013      	beq.n	163a <_usart_interrupt_handler+0x16a>
    1612:	2113      	movs	r1, #19
    1614:	2332      	movs	r3, #50	; 0x32
    1616:	54e9      	strb	r1, [r5, r3]
    1618:	8362      	strh	r2, [r4, #26]
    161a:	e7a3      	b.n	1564 <_usart_interrupt_handler+0x94>
    161c:	0028      	movs	r0, r5
    161e:	696b      	ldr	r3, [r5, #20]
    1620:	4798      	blx	r3
    1622:	e7a1      	b.n	1568 <_usart_interrupt_handler+0x98>
    1624:	211e      	movs	r1, #30
    1626:	2332      	movs	r3, #50	; 0x32
    1628:	54e9      	strb	r1, [r5, r3]
    162a:	8362      	strh	r2, [r4, #26]
    162c:	e79a      	b.n	1564 <_usart_interrupt_handler+0x94>
    162e:	0a1b      	lsrs	r3, r3, #8
    1630:	7053      	strb	r3, [r2, #1]
    1632:	6a6b      	ldr	r3, [r5, #36]	; 0x24
    1634:	3301      	adds	r3, #1
    1636:	626b      	str	r3, [r5, #36]	; 0x24
    1638:	e7cf      	b.n	15da <_usart_interrupt_handler+0x10a>
    163a:	2210      	movs	r2, #16
    163c:	421a      	tst	r2, r3
    163e:	d004      	beq.n	164a <_usart_interrupt_handler+0x17a>
    1640:	2142      	movs	r1, #66	; 0x42
    1642:	2332      	movs	r3, #50	; 0x32
    1644:	54e9      	strb	r1, [r5, r3]
    1646:	8362      	strh	r2, [r4, #26]
    1648:	e78c      	b.n	1564 <_usart_interrupt_handler+0x94>
    164a:	2220      	movs	r2, #32
    164c:	421a      	tst	r2, r3
    164e:	d100      	bne.n	1652 <_usart_interrupt_handler+0x182>
    1650:	e788      	b.n	1564 <_usart_interrupt_handler+0x94>
    1652:	2141      	movs	r1, #65	; 0x41
    1654:	2332      	movs	r3, #50	; 0x32
    1656:	54e9      	strb	r1, [r5, r3]
    1658:	8362      	strh	r2, [r4, #26]
    165a:	e783      	b.n	1564 <_usart_interrupt_handler+0x94>
    165c:	2000040c 	.word	0x2000040c

00001660 <system_clock_source_get_hz>:
    1660:	b510      	push	{r4, lr}
    1662:	2808      	cmp	r0, #8
    1664:	d82d      	bhi.n	16c2 <system_clock_source_get_hz+0x62>
    1666:	4b1c      	ldr	r3, [pc, #112]	; (16d8 <system_clock_source_get_hz+0x78>)
    1668:	0080      	lsls	r0, r0, #2
    166a:	581b      	ldr	r3, [r3, r0]
    166c:	469f      	mov	pc, r3
    166e:	2080      	movs	r0, #128	; 0x80
    1670:	0200      	lsls	r0, r0, #8
    1672:	bd10      	pop	{r4, pc}
    1674:	4b19      	ldr	r3, [pc, #100]	; (16dc <system_clock_source_get_hz+0x7c>)
    1676:	6958      	ldr	r0, [r3, #20]
    1678:	e7fb      	b.n	1672 <system_clock_source_get_hz+0x12>
    167a:	4b19      	ldr	r3, [pc, #100]	; (16e0 <system_clock_source_get_hz+0x80>)
    167c:	4819      	ldr	r0, [pc, #100]	; (16e4 <system_clock_source_get_hz+0x84>)
    167e:	6a1b      	ldr	r3, [r3, #32]
    1680:	059b      	lsls	r3, r3, #22
    1682:	0f9b      	lsrs	r3, r3, #30
    1684:	40d8      	lsrs	r0, r3
    1686:	e7f4      	b.n	1672 <system_clock_source_get_hz+0x12>
    1688:	4c14      	ldr	r4, [pc, #80]	; (16dc <system_clock_source_get_hz+0x7c>)
    168a:	2000      	movs	r0, #0
    168c:	6823      	ldr	r3, [r4, #0]
    168e:	079b      	lsls	r3, r3, #30
    1690:	d5ef      	bpl.n	1672 <system_clock_source_get_hz+0x12>
    1692:	2210      	movs	r2, #16
    1694:	4912      	ldr	r1, [pc, #72]	; (16e0 <system_clock_source_get_hz+0x80>)
    1696:	68cb      	ldr	r3, [r1, #12]
    1698:	421a      	tst	r2, r3
    169a:	d0fc      	beq.n	1696 <system_clock_source_get_hz+0x36>
    169c:	2324      	movs	r3, #36	; 0x24
    169e:	6822      	ldr	r2, [r4, #0]
    16a0:	4013      	ands	r3, r2
    16a2:	2b04      	cmp	r3, #4
    16a4:	d00f      	beq.n	16c6 <system_clock_source_get_hz+0x66>
    16a6:	4810      	ldr	r0, [pc, #64]	; (16e8 <system_clock_source_get_hz+0x88>)
    16a8:	e7e3      	b.n	1672 <system_clock_source_get_hz+0x12>
    16aa:	4b0c      	ldr	r3, [pc, #48]	; (16dc <system_clock_source_get_hz+0x7c>)
    16ac:	6918      	ldr	r0, [r3, #16]
    16ae:	e7e0      	b.n	1672 <system_clock_source_get_hz+0x12>
    16b0:	2350      	movs	r3, #80	; 0x50
    16b2:	4a0b      	ldr	r2, [pc, #44]	; (16e0 <system_clock_source_get_hz+0x80>)
    16b4:	2000      	movs	r0, #0
    16b6:	5cd3      	ldrb	r3, [r2, r3]
    16b8:	075b      	lsls	r3, r3, #29
    16ba:	d5da      	bpl.n	1672 <system_clock_source_get_hz+0x12>
    16bc:	4b07      	ldr	r3, [pc, #28]	; (16dc <system_clock_source_get_hz+0x7c>)
    16be:	68d8      	ldr	r0, [r3, #12]
    16c0:	e7d7      	b.n	1672 <system_clock_source_get_hz+0x12>
    16c2:	2000      	movs	r0, #0
    16c4:	e7d5      	b.n	1672 <system_clock_source_get_hz+0x12>
    16c6:	4b09      	ldr	r3, [pc, #36]	; (16ec <system_clock_source_get_hz+0x8c>)
    16c8:	2000      	movs	r0, #0
    16ca:	4798      	blx	r3
    16cc:	68a3      	ldr	r3, [r4, #8]
    16ce:	041b      	lsls	r3, r3, #16
    16d0:	0c1b      	lsrs	r3, r3, #16
    16d2:	4358      	muls	r0, r3
    16d4:	e7cd      	b.n	1672 <system_clock_source_get_hz+0x12>
    16d6:	46c0      	nop			; (mov r8, r8)
    16d8:	0000a504 	.word	0x0000a504
    16dc:	20000120 	.word	0x20000120
    16e0:	40000800 	.word	0x40000800
    16e4:	007a1200 	.word	0x007a1200
    16e8:	02dc6c00 	.word	0x02dc6c00
    16ec:	00001bbd 	.word	0x00001bbd

000016f0 <system_clock_source_dfll_set_config>:
    16f0:	b510      	push	{r4, lr}
    16f2:	7a03      	ldrb	r3, [r0, #8]
    16f4:	8942      	ldrh	r2, [r0, #10]
    16f6:	069b      	lsls	r3, r3, #26
    16f8:	0592      	lsls	r2, r2, #22
    16fa:	0d92      	lsrs	r2, r2, #22
    16fc:	0c1b      	lsrs	r3, r3, #16
    16fe:	4313      	orrs	r3, r2
    1700:	4a17      	ldr	r2, [pc, #92]	; (1760 <system_clock_source_dfll_set_config+0x70>)
    1702:	6053      	str	r3, [r2, #4]
    1704:	79c1      	ldrb	r1, [r0, #7]
    1706:	7983      	ldrb	r3, [r0, #6]
    1708:	8884      	ldrh	r4, [r0, #4]
    170a:	430b      	orrs	r3, r1
    170c:	8841      	ldrh	r1, [r0, #2]
    170e:	4321      	orrs	r1, r4
    1710:	430b      	orrs	r3, r1
    1712:	7841      	ldrb	r1, [r0, #1]
    1714:	01c9      	lsls	r1, r1, #7
    1716:	430b      	orrs	r3, r1
    1718:	6013      	str	r3, [r2, #0]
    171a:	7803      	ldrb	r3, [r0, #0]
    171c:	2b04      	cmp	r3, #4
    171e:	d010      	beq.n	1742 <system_clock_source_dfll_set_config+0x52>
    1720:	2b20      	cmp	r3, #32
    1722:	d10d      	bne.n	1740 <system_clock_source_dfll_set_config+0x50>
    1724:	7b03      	ldrb	r3, [r0, #12]
    1726:	8a01      	ldrh	r1, [r0, #16]
    1728:	069b      	lsls	r3, r3, #26
    172a:	430b      	orrs	r3, r1
    172c:	89c1      	ldrh	r1, [r0, #14]
    172e:	480d      	ldr	r0, [pc, #52]	; (1764 <system_clock_source_dfll_set_config+0x74>)
    1730:	0409      	lsls	r1, r1, #16
    1732:	4001      	ands	r1, r0
    1734:	430b      	orrs	r3, r1
    1736:	6093      	str	r3, [r2, #8]
    1738:	6811      	ldr	r1, [r2, #0]
    173a:	4b0b      	ldr	r3, [pc, #44]	; (1768 <system_clock_source_dfll_set_config+0x78>)
    173c:	430b      	orrs	r3, r1
    173e:	6013      	str	r3, [r2, #0]
    1740:	bd10      	pop	{r4, pc}
    1742:	7b01      	ldrb	r1, [r0, #12]
    1744:	8a04      	ldrh	r4, [r0, #16]
    1746:	0689      	lsls	r1, r1, #26
    1748:	89c0      	ldrh	r0, [r0, #14]
    174a:	4321      	orrs	r1, r4
    174c:	4c05      	ldr	r4, [pc, #20]	; (1764 <system_clock_source_dfll_set_config+0x74>)
    174e:	0400      	lsls	r0, r0, #16
    1750:	4020      	ands	r0, r4
    1752:	4301      	orrs	r1, r0
    1754:	6091      	str	r1, [r2, #8]
    1756:	6811      	ldr	r1, [r2, #0]
    1758:	430b      	orrs	r3, r1
    175a:	6013      	str	r3, [r2, #0]
    175c:	e7f0      	b.n	1740 <system_clock_source_dfll_set_config+0x50>
    175e:	46c0      	nop			; (mov r8, r8)
    1760:	20000120 	.word	0x20000120
    1764:	03ff0000 	.word	0x03ff0000
    1768:	00000424 	.word	0x00000424

0000176c <system_clock_init>:
    176c:	b5f0      	push	{r4, r5, r6, r7, lr}
    176e:	464e      	mov	r6, r9
    1770:	4645      	mov	r5, r8
    1772:	46de      	mov	lr, fp
    1774:	4657      	mov	r7, sl
    1776:	22c2      	movs	r2, #194	; 0xc2
    1778:	211e      	movs	r1, #30
    177a:	b5e0      	push	{r5, r6, r7, lr}
    177c:	4b72      	ldr	r3, [pc, #456]	; (1948 <system_clock_init+0x1dc>)
    177e:	00d2      	lsls	r2, r2, #3
    1780:	609a      	str	r2, [r3, #8]
    1782:	4a72      	ldr	r2, [pc, #456]	; (194c <system_clock_init+0x1e0>)
    1784:	2600      	movs	r6, #0
    1786:	6853      	ldr	r3, [r2, #4]
    1788:	b089      	sub	sp, #36	; 0x24
    178a:	438b      	bics	r3, r1
    178c:	391a      	subs	r1, #26
    178e:	430b      	orrs	r3, r1
    1790:	6053      	str	r3, [r2, #4]
    1792:	2303      	movs	r3, #3
    1794:	ad03      	add	r5, sp, #12
    1796:	4c6e      	ldr	r4, [pc, #440]	; (1950 <system_clock_init+0x1e4>)
    1798:	702b      	strb	r3, [r5, #0]
    179a:	b2f0      	uxtb	r0, r6
    179c:	0029      	movs	r1, r5
    179e:	3601      	adds	r6, #1
    17a0:	47a0      	blx	r4
    17a2:	2e25      	cmp	r6, #37	; 0x25
    17a4:	d1f9      	bne.n	179a <system_clock_init+0x2e>
    17a6:	2180      	movs	r1, #128	; 0x80
    17a8:	4b67      	ldr	r3, [pc, #412]	; (1948 <system_clock_init+0x1dc>)
    17aa:	4f6a      	ldr	r7, [pc, #424]	; (1954 <system_clock_init+0x1e8>)
    17ac:	0209      	lsls	r1, r1, #8
    17ae:	8a9a      	ldrh	r2, [r3, #20]
    17b0:	6179      	str	r1, [r7, #20]
    17b2:	2104      	movs	r1, #4
    17b4:	430a      	orrs	r2, r1
    17b6:	2108      	movs	r1, #8
    17b8:	430a      	orrs	r2, r1
    17ba:	2110      	movs	r1, #16
    17bc:	438a      	bics	r2, r1
    17be:	2120      	movs	r1, #32
    17c0:	430a      	orrs	r2, r1
    17c2:	4965      	ldr	r1, [pc, #404]	; (1958 <system_clock_init+0x1ec>)
    17c4:	400a      	ands	r2, r1
    17c6:	21c0      	movs	r1, #192	; 0xc0
    17c8:	00c9      	lsls	r1, r1, #3
    17ca:	430a      	orrs	r2, r1
    17cc:	4963      	ldr	r1, [pc, #396]	; (195c <system_clock_init+0x1f0>)
    17ce:	400a      	ands	r2, r1
    17d0:	2102      	movs	r1, #2
    17d2:	829a      	strh	r2, [r3, #20]
    17d4:	8a9a      	ldrh	r2, [r3, #20]
    17d6:	430a      	orrs	r2, r1
    17d8:	829a      	strh	r2, [r3, #20]
    17da:	68da      	ldr	r2, [r3, #12]
    17dc:	4211      	tst	r1, r2
    17de:	d0fc      	beq.n	17da <system_clock_init+0x6e>
    17e0:	2080      	movs	r0, #128	; 0x80
    17e2:	8a9a      	ldrh	r2, [r3, #20]
    17e4:	4302      	orrs	r2, r0
    17e6:	829a      	strh	r2, [r3, #20]
    17e8:	4a5d      	ldr	r2, [pc, #372]	; (1960 <system_clock_init+0x1f4>)
    17ea:	699e      	ldr	r6, [r3, #24]
    17ec:	4690      	mov	r8, r2
    17ee:	6812      	ldr	r2, [r2, #0]
    17f0:	485c      	ldr	r0, [pc, #368]	; (1964 <system_clock_init+0x1f8>)
    17f2:	04d2      	lsls	r2, r2, #19
    17f4:	0e52      	lsrs	r2, r2, #25
    17f6:	4006      	ands	r6, r0
    17f8:	0412      	lsls	r2, r2, #16
    17fa:	4332      	orrs	r2, r6
    17fc:	20f9      	movs	r0, #249	; 0xf9
    17fe:	2604      	movs	r6, #4
    1800:	619a      	str	r2, [r3, #24]
    1802:	699a      	ldr	r2, [r3, #24]
    1804:	00c0      	lsls	r0, r0, #3
    1806:	4332      	orrs	r2, r6
    1808:	4302      	orrs	r2, r0
    180a:	4854      	ldr	r0, [pc, #336]	; (195c <system_clock_init+0x1f0>)
    180c:	4002      	ands	r2, r0
    180e:	619a      	str	r2, [r3, #24]
    1810:	699a      	ldr	r2, [r3, #24]
    1812:	4311      	orrs	r1, r2
    1814:	6199      	str	r1, [r3, #24]
    1816:	2300      	movs	r3, #0
    1818:	2200      	movs	r2, #0
    181a:	71ab      	strb	r3, [r5, #6]
    181c:	71eb      	strb	r3, [r5, #7]
    181e:	706b      	strb	r3, [r5, #1]
    1820:	4643      	mov	r3, r8
    1822:	806a      	strh	r2, [r5, #2]
    1824:	80aa      	strh	r2, [r5, #4]
    1826:	323f      	adds	r2, #63	; 0x3f
    1828:	816a      	strh	r2, [r5, #10]
    182a:	702e      	strb	r6, [r5, #0]
    182c:	681b      	ldr	r3, [r3, #0]
    182e:	0e9b      	lsrs	r3, r3, #26
    1830:	2b3f      	cmp	r3, #63	; 0x3f
    1832:	d100      	bne.n	1836 <system_clock_init+0xca>
    1834:	e086      	b.n	1944 <system_clock_init+0x1d8>
    1836:	722b      	strb	r3, [r5, #8]
    1838:	4b4b      	ldr	r3, [pc, #300]	; (1968 <system_clock_init+0x1fc>)
    183a:	0028      	movs	r0, r5
    183c:	822b      	strh	r3, [r5, #16]
    183e:	2303      	movs	r3, #3
    1840:	732b      	strb	r3, [r5, #12]
    1842:	231f      	movs	r3, #31
    1844:	81eb      	strh	r3, [r5, #14]
    1846:	4d40      	ldr	r5, [pc, #256]	; (1948 <system_clock_init+0x1dc>)
    1848:	4b48      	ldr	r3, [pc, #288]	; (196c <system_clock_init+0x200>)
    184a:	4798      	blx	r3
    184c:	6a2b      	ldr	r3, [r5, #32]
    184e:	4a48      	ldr	r2, [pc, #288]	; (1970 <system_clock_init+0x204>)
    1850:	2600      	movs	r6, #0
    1852:	4013      	ands	r3, r2
    1854:	2202      	movs	r2, #2
    1856:	622b      	str	r3, [r5, #32]
    1858:	6a2b      	ldr	r3, [r5, #32]
    185a:	4692      	mov	sl, r2
    185c:	4313      	orrs	r3, r2
    185e:	622b      	str	r3, [r5, #32]
    1860:	4b44      	ldr	r3, [pc, #272]	; (1974 <system_clock_init+0x208>)
    1862:	4798      	blx	r3
    1864:	466b      	mov	r3, sp
    1866:	466a      	mov	r2, sp
    1868:	705e      	strb	r6, [r3, #1]
    186a:	721e      	strb	r6, [r3, #8]
    186c:	725e      	strb	r6, [r3, #9]
    186e:	2305      	movs	r3, #5
    1870:	7013      	strb	r3, [r2, #0]
    1872:	331b      	adds	r3, #27
    1874:	469b      	mov	fp, r3
    1876:	9301      	str	r3, [sp, #4]
    1878:	4b3f      	ldr	r3, [pc, #252]	; (1978 <system_clock_init+0x20c>)
    187a:	4669      	mov	r1, sp
    187c:	2001      	movs	r0, #1
    187e:	4699      	mov	r9, r3
    1880:	4798      	blx	r3
    1882:	4b3e      	ldr	r3, [pc, #248]	; (197c <system_clock_init+0x210>)
    1884:	2001      	movs	r0, #1
    1886:	4698      	mov	r8, r3
    1888:	4798      	blx	r3
    188a:	466b      	mov	r3, sp
    188c:	466a      	mov	r2, sp
    188e:	705e      	strb	r6, [r3, #1]
    1890:	725e      	strb	r6, [r3, #9]
    1892:	2304      	movs	r3, #4
    1894:	7013      	strb	r3, [r2, #0]
    1896:	465b      	mov	r3, fp
    1898:	2201      	movs	r2, #1
    189a:	9301      	str	r3, [sp, #4]
    189c:	466b      	mov	r3, sp
    189e:	4669      	mov	r1, sp
    18a0:	2002      	movs	r0, #2
    18a2:	721a      	strb	r2, [r3, #8]
    18a4:	47c8      	blx	r9
    18a6:	2002      	movs	r0, #2
    18a8:	47c0      	blx	r8
    18aa:	466b      	mov	r3, sp
    18ac:	2203      	movs	r2, #3
    18ae:	705e      	strb	r6, [r3, #1]
    18b0:	701a      	strb	r2, [r3, #0]
    18b2:	721e      	strb	r6, [r3, #8]
    18b4:	725e      	strb	r6, [r3, #9]
    18b6:	465b      	mov	r3, fp
    18b8:	4669      	mov	r1, sp
    18ba:	2004      	movs	r0, #4
    18bc:	9301      	str	r3, [sp, #4]
    18be:	47c8      	blx	r9
    18c0:	2004      	movs	r0, #4
    18c2:	47c0      	blx	r8
    18c4:	2201      	movs	r2, #1
    18c6:	466b      	mov	r3, sp
    18c8:	4669      	mov	r1, sp
    18ca:	2000      	movs	r0, #0
    18cc:	701a      	strb	r2, [r3, #0]
    18ce:	47a0      	blx	r4
    18d0:	4b2b      	ldr	r3, [pc, #172]	; (1980 <system_clock_init+0x214>)
    18d2:	2000      	movs	r0, #0
    18d4:	4798      	blx	r3
    18d6:	4652      	mov	r2, sl
    18d8:	683b      	ldr	r3, [r7, #0]
    18da:	4313      	orrs	r3, r2
    18dc:	603b      	str	r3, [r7, #0]
    18de:	84aa      	strh	r2, [r5, #36]	; 0x24
    18e0:	320e      	adds	r2, #14
    18e2:	68eb      	ldr	r3, [r5, #12]
    18e4:	421a      	tst	r2, r3
    18e6:	d0fc      	beq.n	18e2 <system_clock_init+0x176>
    18e8:	68bb      	ldr	r3, [r7, #8]
    18ea:	2110      	movs	r1, #16
    18ec:	62eb      	str	r3, [r5, #44]	; 0x2c
    18ee:	687b      	ldr	r3, [r7, #4]
    18f0:	4a15      	ldr	r2, [pc, #84]	; (1948 <system_clock_init+0x1dc>)
    18f2:	62ab      	str	r3, [r5, #40]	; 0x28
    18f4:	2300      	movs	r3, #0
    18f6:	84ab      	strh	r3, [r5, #36]	; 0x24
    18f8:	68d3      	ldr	r3, [r2, #12]
    18fa:	4219      	tst	r1, r3
    18fc:	d0fc      	beq.n	18f8 <system_clock_init+0x18c>
    18fe:	683b      	ldr	r3, [r7, #0]
    1900:	4911      	ldr	r1, [pc, #68]	; (1948 <system_clock_init+0x1dc>)
    1902:	b29b      	uxth	r3, r3
    1904:	8493      	strh	r3, [r2, #36]	; 0x24
    1906:	22d0      	movs	r2, #208	; 0xd0
    1908:	68cb      	ldr	r3, [r1, #12]
    190a:	4013      	ands	r3, r2
    190c:	2bd0      	cmp	r3, #208	; 0xd0
    190e:	d1fb      	bne.n	1908 <system_clock_init+0x19c>
    1910:	2300      	movs	r3, #0
    1912:	4a1c      	ldr	r2, [pc, #112]	; (1984 <system_clock_init+0x218>)
    1914:	4669      	mov	r1, sp
    1916:	7213      	strb	r3, [r2, #8]
    1918:	7253      	strb	r3, [r2, #9]
    191a:	7293      	strb	r3, [r2, #10]
    191c:	72d3      	strb	r3, [r2, #11]
    191e:	2201      	movs	r2, #1
    1920:	9201      	str	r2, [sp, #4]
    1922:	466a      	mov	r2, sp
    1924:	2000      	movs	r0, #0
    1926:	7053      	strb	r3, [r2, #1]
    1928:	7213      	strb	r3, [r2, #8]
    192a:	7253      	strb	r3, [r2, #9]
    192c:	3307      	adds	r3, #7
    192e:	7013      	strb	r3, [r2, #0]
    1930:	47c8      	blx	r9
    1932:	2000      	movs	r0, #0
    1934:	47c0      	blx	r8
    1936:	b009      	add	sp, #36	; 0x24
    1938:	bc3c      	pop	{r2, r3, r4, r5}
    193a:	4690      	mov	r8, r2
    193c:	4699      	mov	r9, r3
    193e:	46a2      	mov	sl, r4
    1940:	46ab      	mov	fp, r5
    1942:	bdf0      	pop	{r4, r5, r6, r7, pc}
    1944:	3b20      	subs	r3, #32
    1946:	e776      	b.n	1836 <system_clock_init+0xca>
    1948:	40000800 	.word	0x40000800
    194c:	41004000 	.word	0x41004000
    1950:	00001b29 	.word	0x00001b29
    1954:	20000120 	.word	0x20000120
    1958:	fffff83f 	.word	0xfffff83f
    195c:	ffffefff 	.word	0xffffefff
    1960:	00806024 	.word	0x00806024
    1964:	ff80ffff 	.word	0xff80ffff
    1968:	ffffb71b 	.word	0xffffb71b
    196c:	000016f1 	.word	0x000016f1
    1970:	fffffc3f 	.word	0xfffffc3f
    1974:	00001989 	.word	0x00001989
    1978:	000019ad 	.word	0x000019ad
    197c:	00001a61 	.word	0x00001a61
    1980:	00001b8d 	.word	0x00001b8d
    1984:	40000400 	.word	0x40000400

00001988 <system_gclk_init>:
    1988:	2108      	movs	r1, #8
    198a:	4a06      	ldr	r2, [pc, #24]	; (19a4 <system_gclk_init+0x1c>)
    198c:	6993      	ldr	r3, [r2, #24]
    198e:	430b      	orrs	r3, r1
    1990:	6193      	str	r3, [r2, #24]
    1992:	2301      	movs	r3, #1
    1994:	4a04      	ldr	r2, [pc, #16]	; (19a8 <system_gclk_init+0x20>)
    1996:	3907      	subs	r1, #7
    1998:	7013      	strb	r3, [r2, #0]
    199a:	7813      	ldrb	r3, [r2, #0]
    199c:	4219      	tst	r1, r3
    199e:	d1fc      	bne.n	199a <system_gclk_init+0x12>
    19a0:	4770      	bx	lr
    19a2:	46c0      	nop			; (mov r8, r8)
    19a4:	40000400 	.word	0x40000400
    19a8:	40000c00 	.word	0x40000c00

000019ac <system_gclk_gen_set_config>:
    19ac:	b570      	push	{r4, r5, r6, lr}
    19ae:	780b      	ldrb	r3, [r1, #0]
    19b0:	0006      	movs	r6, r0
    19b2:	021b      	lsls	r3, r3, #8
    19b4:	4303      	orrs	r3, r0
    19b6:	001d      	movs	r5, r3
    19b8:	784b      	ldrb	r3, [r1, #1]
    19ba:	0004      	movs	r4, r0
    19bc:	2b00      	cmp	r3, #0
    19be:	d002      	beq.n	19c6 <system_gclk_gen_set_config+0x1a>
    19c0:	2380      	movs	r3, #128	; 0x80
    19c2:	02db      	lsls	r3, r3, #11
    19c4:	431d      	orrs	r5, r3
    19c6:	7a4b      	ldrb	r3, [r1, #9]
    19c8:	2b00      	cmp	r3, #0
    19ca:	d002      	beq.n	19d2 <system_gclk_gen_set_config+0x26>
    19cc:	2380      	movs	r3, #128	; 0x80
    19ce:	031b      	lsls	r3, r3, #12
    19d0:	431d      	orrs	r5, r3
    19d2:	6848      	ldr	r0, [r1, #4]
    19d4:	2801      	cmp	r0, #1
    19d6:	d90f      	bls.n	19f8 <system_gclk_gen_set_config+0x4c>
    19d8:	1e43      	subs	r3, r0, #1
    19da:	4218      	tst	r0, r3
    19dc:	d12f      	bne.n	1a3e <system_gclk_gen_set_config+0x92>
    19de:	2802      	cmp	r0, #2
    19e0:	d033      	beq.n	1a4a <system_gclk_gen_set_config+0x9e>
    19e2:	2302      	movs	r3, #2
    19e4:	2400      	movs	r4, #0
    19e6:	3401      	adds	r4, #1
    19e8:	005b      	lsls	r3, r3, #1
    19ea:	4298      	cmp	r0, r3
    19ec:	d8fb      	bhi.n	19e6 <system_gclk_gen_set_config+0x3a>
    19ee:	0224      	lsls	r4, r4, #8
    19f0:	2380      	movs	r3, #128	; 0x80
    19f2:	035b      	lsls	r3, r3, #13
    19f4:	4334      	orrs	r4, r6
    19f6:	431d      	orrs	r5, r3
    19f8:	7a0b      	ldrb	r3, [r1, #8]
    19fa:	2b00      	cmp	r3, #0
    19fc:	d002      	beq.n	1a04 <system_gclk_gen_set_config+0x58>
    19fe:	2380      	movs	r3, #128	; 0x80
    1a00:	039b      	lsls	r3, r3, #14
    1a02:	431d      	orrs	r5, r3
    1a04:	4a12      	ldr	r2, [pc, #72]	; (1a50 <system_gclk_gen_set_config+0xa4>)
    1a06:	7853      	ldrb	r3, [r2, #1]
    1a08:	b25b      	sxtb	r3, r3
    1a0a:	2b00      	cmp	r3, #0
    1a0c:	dbfb      	blt.n	1a06 <system_gclk_gen_set_config+0x5a>
    1a0e:	4b11      	ldr	r3, [pc, #68]	; (1a54 <system_gclk_gen_set_config+0xa8>)
    1a10:	4798      	blx	r3
    1a12:	4b11      	ldr	r3, [pc, #68]	; (1a58 <system_gclk_gen_set_config+0xac>)
    1a14:	4a0e      	ldr	r2, [pc, #56]	; (1a50 <system_gclk_gen_set_config+0xa4>)
    1a16:	701e      	strb	r6, [r3, #0]
    1a18:	7853      	ldrb	r3, [r2, #1]
    1a1a:	b25b      	sxtb	r3, r3
    1a1c:	2b00      	cmp	r3, #0
    1a1e:	dbfb      	blt.n	1a18 <system_gclk_gen_set_config+0x6c>
    1a20:	490b      	ldr	r1, [pc, #44]	; (1a50 <system_gclk_gen_set_config+0xa4>)
    1a22:	6094      	str	r4, [r2, #8]
    1a24:	784a      	ldrb	r2, [r1, #1]
    1a26:	b252      	sxtb	r2, r2
    1a28:	2a00      	cmp	r2, #0
    1a2a:	dbfb      	blt.n	1a24 <system_gclk_gen_set_config+0x78>
    1a2c:	2280      	movs	r2, #128	; 0x80
    1a2e:	684b      	ldr	r3, [r1, #4]
    1a30:	0252      	lsls	r2, r2, #9
    1a32:	4013      	ands	r3, r2
    1a34:	432b      	orrs	r3, r5
    1a36:	604b      	str	r3, [r1, #4]
    1a38:	4b08      	ldr	r3, [pc, #32]	; (1a5c <system_gclk_gen_set_config+0xb0>)
    1a3a:	4798      	blx	r3
    1a3c:	bd70      	pop	{r4, r5, r6, pc}
    1a3e:	2380      	movs	r3, #128	; 0x80
    1a40:	0204      	lsls	r4, r0, #8
    1a42:	029b      	lsls	r3, r3, #10
    1a44:	4334      	orrs	r4, r6
    1a46:	431d      	orrs	r5, r3
    1a48:	e7d6      	b.n	19f8 <system_gclk_gen_set_config+0x4c>
    1a4a:	2400      	movs	r4, #0
    1a4c:	e7d0      	b.n	19f0 <system_gclk_gen_set_config+0x44>
    1a4e:	46c0      	nop			; (mov r8, r8)
    1a50:	40000c00 	.word	0x40000c00
    1a54:	000001b5 	.word	0x000001b5
    1a58:	40000c08 	.word	0x40000c08
    1a5c:	000001f1 	.word	0x000001f1

00001a60 <system_gclk_gen_enable>:
    1a60:	b510      	push	{r4, lr}
    1a62:	0004      	movs	r4, r0
    1a64:	4a0a      	ldr	r2, [pc, #40]	; (1a90 <system_gclk_gen_enable+0x30>)
    1a66:	7853      	ldrb	r3, [r2, #1]
    1a68:	b25b      	sxtb	r3, r3
    1a6a:	2b00      	cmp	r3, #0
    1a6c:	dbfb      	blt.n	1a66 <system_gclk_gen_enable+0x6>
    1a6e:	4b09      	ldr	r3, [pc, #36]	; (1a94 <system_gclk_gen_enable+0x34>)
    1a70:	4798      	blx	r3
    1a72:	4b09      	ldr	r3, [pc, #36]	; (1a98 <system_gclk_gen_enable+0x38>)
    1a74:	4a06      	ldr	r2, [pc, #24]	; (1a90 <system_gclk_gen_enable+0x30>)
    1a76:	701c      	strb	r4, [r3, #0]
    1a78:	7853      	ldrb	r3, [r2, #1]
    1a7a:	b25b      	sxtb	r3, r3
    1a7c:	2b00      	cmp	r3, #0
    1a7e:	dbfb      	blt.n	1a78 <system_gclk_gen_enable+0x18>
    1a80:	2380      	movs	r3, #128	; 0x80
    1a82:	6851      	ldr	r1, [r2, #4]
    1a84:	025b      	lsls	r3, r3, #9
    1a86:	430b      	orrs	r3, r1
    1a88:	6053      	str	r3, [r2, #4]
    1a8a:	4b04      	ldr	r3, [pc, #16]	; (1a9c <system_gclk_gen_enable+0x3c>)
    1a8c:	4798      	blx	r3
    1a8e:	bd10      	pop	{r4, pc}
    1a90:	40000c00 	.word	0x40000c00
    1a94:	000001b5 	.word	0x000001b5
    1a98:	40000c04 	.word	0x40000c04
    1a9c:	000001f1 	.word	0x000001f1

00001aa0 <system_gclk_gen_get_hz>:
    1aa0:	b570      	push	{r4, r5, r6, lr}
    1aa2:	0004      	movs	r4, r0
    1aa4:	4a19      	ldr	r2, [pc, #100]	; (1b0c <system_gclk_gen_get_hz+0x6c>)
    1aa6:	7853      	ldrb	r3, [r2, #1]
    1aa8:	b25b      	sxtb	r3, r3
    1aaa:	2b00      	cmp	r3, #0
    1aac:	dbfb      	blt.n	1aa6 <system_gclk_gen_get_hz+0x6>
    1aae:	4b18      	ldr	r3, [pc, #96]	; (1b10 <system_gclk_gen_get_hz+0x70>)
    1ab0:	4798      	blx	r3
    1ab2:	4b18      	ldr	r3, [pc, #96]	; (1b14 <system_gclk_gen_get_hz+0x74>)
    1ab4:	4d15      	ldr	r5, [pc, #84]	; (1b0c <system_gclk_gen_get_hz+0x6c>)
    1ab6:	701c      	strb	r4, [r3, #0]
    1ab8:	786b      	ldrb	r3, [r5, #1]
    1aba:	b25b      	sxtb	r3, r3
    1abc:	2b00      	cmp	r3, #0
    1abe:	dbfb      	blt.n	1ab8 <system_gclk_gen_get_hz+0x18>
    1ac0:	6868      	ldr	r0, [r5, #4]
    1ac2:	4b15      	ldr	r3, [pc, #84]	; (1b18 <system_gclk_gen_get_hz+0x78>)
    1ac4:	04c0      	lsls	r0, r0, #19
    1ac6:	0ec0      	lsrs	r0, r0, #27
    1ac8:	4798      	blx	r3
    1aca:	0006      	movs	r6, r0
    1acc:	4b11      	ldr	r3, [pc, #68]	; (1b14 <system_gclk_gen_get_hz+0x74>)
    1ace:	4a0f      	ldr	r2, [pc, #60]	; (1b0c <system_gclk_gen_get_hz+0x6c>)
    1ad0:	701c      	strb	r4, [r3, #0]
    1ad2:	686d      	ldr	r5, [r5, #4]
    1ad4:	4b11      	ldr	r3, [pc, #68]	; (1b1c <system_gclk_gen_get_hz+0x7c>)
    1ad6:	02ed      	lsls	r5, r5, #11
    1ad8:	0fed      	lsrs	r5, r5, #31
    1ada:	701c      	strb	r4, [r3, #0]
    1adc:	7853      	ldrb	r3, [r2, #1]
    1ade:	b25b      	sxtb	r3, r3
    1ae0:	2b00      	cmp	r3, #0
    1ae2:	dbfb      	blt.n	1adc <system_gclk_gen_get_hz+0x3c>
    1ae4:	6891      	ldr	r1, [r2, #8]
    1ae6:	4b0e      	ldr	r3, [pc, #56]	; (1b20 <system_gclk_gen_get_hz+0x80>)
    1ae8:	0209      	lsls	r1, r1, #8
    1aea:	0c0c      	lsrs	r4, r1, #16
    1aec:	4798      	blx	r3
    1aee:	2d00      	cmp	r5, #0
    1af0:	d003      	beq.n	1afa <system_gclk_gen_get_hz+0x5a>
    1af2:	3401      	adds	r4, #1
    1af4:	40e6      	lsrs	r6, r4
    1af6:	0030      	movs	r0, r6
    1af8:	bd70      	pop	{r4, r5, r6, pc}
    1afa:	2c01      	cmp	r4, #1
    1afc:	d9fb      	bls.n	1af6 <system_gclk_gen_get_hz+0x56>
    1afe:	0030      	movs	r0, r6
    1b00:	0021      	movs	r1, r4
    1b02:	4b08      	ldr	r3, [pc, #32]	; (1b24 <system_gclk_gen_get_hz+0x84>)
    1b04:	4798      	blx	r3
    1b06:	0006      	movs	r6, r0
    1b08:	e7f5      	b.n	1af6 <system_gclk_gen_get_hz+0x56>
    1b0a:	46c0      	nop			; (mov r8, r8)
    1b0c:	40000c00 	.word	0x40000c00
    1b10:	000001b5 	.word	0x000001b5
    1b14:	40000c04 	.word	0x40000c04
    1b18:	00001661 	.word	0x00001661
    1b1c:	40000c08 	.word	0x40000c08
    1b20:	000001f1 	.word	0x000001f1
    1b24:	00009239 	.word	0x00009239

00001b28 <system_gclk_chan_set_config>:
    1b28:	b570      	push	{r4, r5, r6, lr}
    1b2a:	0004      	movs	r4, r0
    1b2c:	780d      	ldrb	r5, [r1, #0]
    1b2e:	4b11      	ldr	r3, [pc, #68]	; (1b74 <system_gclk_chan_set_config+0x4c>)
    1b30:	022d      	lsls	r5, r5, #8
    1b32:	4305      	orrs	r5, r0
    1b34:	4798      	blx	r3
    1b36:	4b10      	ldr	r3, [pc, #64]	; (1b78 <system_gclk_chan_set_config+0x50>)
    1b38:	4a10      	ldr	r2, [pc, #64]	; (1b7c <system_gclk_chan_set_config+0x54>)
    1b3a:	701c      	strb	r4, [r3, #0]
    1b3c:	4c10      	ldr	r4, [pc, #64]	; (1b80 <system_gclk_chan_set_config+0x58>)
    1b3e:	8863      	ldrh	r3, [r4, #2]
    1b40:	051b      	lsls	r3, r3, #20
    1b42:	0f19      	lsrs	r1, r3, #28
    1b44:	8863      	ldrh	r3, [r4, #2]
    1b46:	4013      	ands	r3, r2
    1b48:	8063      	strh	r3, [r4, #2]
    1b4a:	8863      	ldrh	r3, [r4, #2]
    1b4c:	4a0d      	ldr	r2, [pc, #52]	; (1b84 <system_gclk_chan_set_config+0x5c>)
    1b4e:	4013      	ands	r3, r2
    1b50:	2280      	movs	r2, #128	; 0x80
    1b52:	8063      	strh	r3, [r4, #2]
    1b54:	01d2      	lsls	r2, r2, #7
    1b56:	8863      	ldrh	r3, [r4, #2]
    1b58:	4213      	tst	r3, r2
    1b5a:	d1fc      	bne.n	1b56 <system_gclk_chan_set_config+0x2e>
    1b5c:	8862      	ldrh	r2, [r4, #2]
    1b5e:	020b      	lsls	r3, r1, #8
    1b60:	4906      	ldr	r1, [pc, #24]	; (1b7c <system_gclk_chan_set_config+0x54>)
    1b62:	b2ad      	uxth	r5, r5
    1b64:	400a      	ands	r2, r1
    1b66:	4313      	orrs	r3, r2
    1b68:	8063      	strh	r3, [r4, #2]
    1b6a:	4b07      	ldr	r3, [pc, #28]	; (1b88 <system_gclk_chan_set_config+0x60>)
    1b6c:	4798      	blx	r3
    1b6e:	8065      	strh	r5, [r4, #2]
    1b70:	bd70      	pop	{r4, r5, r6, pc}
    1b72:	46c0      	nop			; (mov r8, r8)
    1b74:	000001b5 	.word	0x000001b5
    1b78:	40000c02 	.word	0x40000c02
    1b7c:	fffff0ff 	.word	0xfffff0ff
    1b80:	40000c00 	.word	0x40000c00
    1b84:	ffffbfff 	.word	0xffffbfff
    1b88:	000001f1 	.word	0x000001f1

00001b8c <system_gclk_chan_enable>:
    1b8c:	b510      	push	{r4, lr}
    1b8e:	0004      	movs	r4, r0
    1b90:	4b06      	ldr	r3, [pc, #24]	; (1bac <system_gclk_chan_enable+0x20>)
    1b92:	4798      	blx	r3
    1b94:	4b06      	ldr	r3, [pc, #24]	; (1bb0 <system_gclk_chan_enable+0x24>)
    1b96:	4a07      	ldr	r2, [pc, #28]	; (1bb4 <system_gclk_chan_enable+0x28>)
    1b98:	701c      	strb	r4, [r3, #0]
    1b9a:	2380      	movs	r3, #128	; 0x80
    1b9c:	8851      	ldrh	r1, [r2, #2]
    1b9e:	01db      	lsls	r3, r3, #7
    1ba0:	430b      	orrs	r3, r1
    1ba2:	8053      	strh	r3, [r2, #2]
    1ba4:	4b04      	ldr	r3, [pc, #16]	; (1bb8 <system_gclk_chan_enable+0x2c>)
    1ba6:	4798      	blx	r3
    1ba8:	bd10      	pop	{r4, pc}
    1baa:	46c0      	nop			; (mov r8, r8)
    1bac:	000001b5 	.word	0x000001b5
    1bb0:	40000c02 	.word	0x40000c02
    1bb4:	40000c00 	.word	0x40000c00
    1bb8:	000001f1 	.word	0x000001f1

00001bbc <system_gclk_chan_get_hz>:
    1bbc:	b5f8      	push	{r3, r4, r5, r6, r7, lr}
    1bbe:	0004      	movs	r4, r0
    1bc0:	4f1c      	ldr	r7, [pc, #112]	; (1c34 <system_gclk_chan_get_hz+0x78>)
    1bc2:	47b8      	blx	r7
    1bc4:	4b1c      	ldr	r3, [pc, #112]	; (1c38 <system_gclk_chan_get_hz+0x7c>)
    1bc6:	4d1d      	ldr	r5, [pc, #116]	; (1c3c <system_gclk_chan_get_hz+0x80>)
    1bc8:	701c      	strb	r4, [r3, #0]
    1bca:	886c      	ldrh	r4, [r5, #2]
    1bcc:	4e1c      	ldr	r6, [pc, #112]	; (1c40 <system_gclk_chan_get_hz+0x84>)
    1bce:	0524      	lsls	r4, r4, #20
    1bd0:	0f24      	lsrs	r4, r4, #28
    1bd2:	47b0      	blx	r6
    1bd4:	786b      	ldrb	r3, [r5, #1]
    1bd6:	b25b      	sxtb	r3, r3
    1bd8:	2b00      	cmp	r3, #0
    1bda:	dbfb      	blt.n	1bd4 <system_gclk_chan_get_hz+0x18>
    1bdc:	47b8      	blx	r7
    1bde:	4b19      	ldr	r3, [pc, #100]	; (1c44 <system_gclk_chan_get_hz+0x88>)
    1be0:	4d16      	ldr	r5, [pc, #88]	; (1c3c <system_gclk_chan_get_hz+0x80>)
    1be2:	701c      	strb	r4, [r3, #0]
    1be4:	786b      	ldrb	r3, [r5, #1]
    1be6:	b25b      	sxtb	r3, r3
    1be8:	2b00      	cmp	r3, #0
    1bea:	dbfb      	blt.n	1be4 <system_gclk_chan_get_hz+0x28>
    1bec:	6868      	ldr	r0, [r5, #4]
    1bee:	4b16      	ldr	r3, [pc, #88]	; (1c48 <system_gclk_chan_get_hz+0x8c>)
    1bf0:	04c0      	lsls	r0, r0, #19
    1bf2:	0ec0      	lsrs	r0, r0, #27
    1bf4:	4798      	blx	r3
    1bf6:	0007      	movs	r7, r0
    1bf8:	4b12      	ldr	r3, [pc, #72]	; (1c44 <system_gclk_chan_get_hz+0x88>)
    1bfa:	4a10      	ldr	r2, [pc, #64]	; (1c3c <system_gclk_chan_get_hz+0x80>)
    1bfc:	701c      	strb	r4, [r3, #0]
    1bfe:	686d      	ldr	r5, [r5, #4]
    1c00:	4b12      	ldr	r3, [pc, #72]	; (1c4c <system_gclk_chan_get_hz+0x90>)
    1c02:	02ed      	lsls	r5, r5, #11
    1c04:	0fed      	lsrs	r5, r5, #31
    1c06:	701c      	strb	r4, [r3, #0]
    1c08:	7853      	ldrb	r3, [r2, #1]
    1c0a:	b25b      	sxtb	r3, r3
    1c0c:	2b00      	cmp	r3, #0
    1c0e:	dbfb      	blt.n	1c08 <system_gclk_chan_get_hz+0x4c>
    1c10:	6891      	ldr	r1, [r2, #8]
    1c12:	0209      	lsls	r1, r1, #8
    1c14:	0c0c      	lsrs	r4, r1, #16
    1c16:	47b0      	blx	r6
    1c18:	2d00      	cmp	r5, #0
    1c1a:	d003      	beq.n	1c24 <system_gclk_chan_get_hz+0x68>
    1c1c:	3401      	adds	r4, #1
    1c1e:	40e7      	lsrs	r7, r4
    1c20:	0038      	movs	r0, r7
    1c22:	bdf8      	pop	{r3, r4, r5, r6, r7, pc}
    1c24:	2c01      	cmp	r4, #1
    1c26:	d9fb      	bls.n	1c20 <system_gclk_chan_get_hz+0x64>
    1c28:	0038      	movs	r0, r7
    1c2a:	0021      	movs	r1, r4
    1c2c:	4b08      	ldr	r3, [pc, #32]	; (1c50 <system_gclk_chan_get_hz+0x94>)
    1c2e:	4798      	blx	r3
    1c30:	0007      	movs	r7, r0
    1c32:	e7f5      	b.n	1c20 <system_gclk_chan_get_hz+0x64>
    1c34:	000001b5 	.word	0x000001b5
    1c38:	40000c02 	.word	0x40000c02
    1c3c:	40000c00 	.word	0x40000c00
    1c40:	000001f1 	.word	0x000001f1
    1c44:	40000c04 	.word	0x40000c04
    1c48:	00001661 	.word	0x00001661
    1c4c:	40000c08 	.word	0x40000c08
    1c50:	00009239 	.word	0x00009239

00001c54 <system_pinmux_pin_set_config>:
    1c54:	b570      	push	{r4, r5, r6, lr}
    1c56:	09c2      	lsrs	r2, r0, #7
    1c58:	2300      	movs	r3, #0
    1c5a:	2a00      	cmp	r2, #0
    1c5c:	d104      	bne.n	1c68 <system_pinmux_pin_set_config+0x14>
    1c5e:	4a2f      	ldr	r2, [pc, #188]	; (1d1c <system_pinmux_pin_set_config+0xc8>)
    1c60:	0943      	lsrs	r3, r0, #5
    1c62:	4694      	mov	ip, r2
    1c64:	01db      	lsls	r3, r3, #7
    1c66:	4463      	add	r3, ip
    1c68:	221f      	movs	r2, #31
    1c6a:	4010      	ands	r0, r2
    1c6c:	3a1e      	subs	r2, #30
    1c6e:	4082      	lsls	r2, r0
    1c70:	78c8      	ldrb	r0, [r1, #3]
    1c72:	2800      	cmp	r0, #0
    1c74:	d131      	bne.n	1cda <system_pinmux_pin_set_config+0x86>
    1c76:	7808      	ldrb	r0, [r1, #0]
    1c78:	2880      	cmp	r0, #128	; 0x80
    1c7a:	d047      	beq.n	1d0c <system_pinmux_pin_set_config+0xb8>
    1c7c:	2480      	movs	r4, #128	; 0x80
    1c7e:	0600      	lsls	r0, r0, #24
    1c80:	0264      	lsls	r4, r4, #9
    1c82:	4320      	orrs	r0, r4
    1c84:	784c      	ldrb	r4, [r1, #1]
    1c86:	2502      	movs	r5, #2
    1c88:	0026      	movs	r6, r4
    1c8a:	43ae      	bics	r6, r5
    1c8c:	d107      	bne.n	1c9e <system_pinmux_pin_set_config+0x4a>
    1c8e:	788c      	ldrb	r4, [r1, #2]
    1c90:	2c00      	cmp	r4, #0
    1c92:	d137      	bne.n	1d04 <system_pinmux_pin_set_config+0xb0>
    1c94:	2480      	movs	r4, #128	; 0x80
    1c96:	02a4      	lsls	r4, r4, #10
    1c98:	4320      	orrs	r0, r4
    1c9a:	605a      	str	r2, [r3, #4]
    1c9c:	784c      	ldrb	r4, [r1, #1]
    1c9e:	3c01      	subs	r4, #1
    1ca0:	2c01      	cmp	r4, #1
    1ca2:	d935      	bls.n	1d10 <system_pinmux_pin_set_config+0xbc>
    1ca4:	24a0      	movs	r4, #160	; 0xa0
    1ca6:	0415      	lsls	r5, r2, #16
    1ca8:	0c2d      	lsrs	r5, r5, #16
    1caa:	05e4      	lsls	r4, r4, #23
    1cac:	432c      	orrs	r4, r5
    1cae:	4304      	orrs	r4, r0
    1cb0:	629c      	str	r4, [r3, #40]	; 0x28
    1cb2:	24d0      	movs	r4, #208	; 0xd0
    1cb4:	0c15      	lsrs	r5, r2, #16
    1cb6:	0624      	lsls	r4, r4, #24
    1cb8:	432c      	orrs	r4, r5
    1cba:	4304      	orrs	r4, r0
    1cbc:	629c      	str	r4, [r3, #40]	; 0x28
    1cbe:	78cc      	ldrb	r4, [r1, #3]
    1cc0:	2c00      	cmp	r4, #0
    1cc2:	d109      	bne.n	1cd8 <system_pinmux_pin_set_config+0x84>
    1cc4:	0340      	lsls	r0, r0, #13
    1cc6:	d503      	bpl.n	1cd0 <system_pinmux_pin_set_config+0x7c>
    1cc8:	7888      	ldrb	r0, [r1, #2]
    1cca:	2801      	cmp	r0, #1
    1ccc:	d023      	beq.n	1d16 <system_pinmux_pin_set_config+0xc2>
    1cce:	615a      	str	r2, [r3, #20]
    1cd0:	7849      	ldrb	r1, [r1, #1]
    1cd2:	3901      	subs	r1, #1
    1cd4:	2901      	cmp	r1, #1
    1cd6:	d913      	bls.n	1d00 <system_pinmux_pin_set_config+0xac>
    1cd8:	bd70      	pop	{r4, r5, r6, pc}
    1cda:	20a0      	movs	r0, #160	; 0xa0
    1cdc:	0414      	lsls	r4, r2, #16
    1cde:	0c24      	lsrs	r4, r4, #16
    1ce0:	05c0      	lsls	r0, r0, #23
    1ce2:	4320      	orrs	r0, r4
    1ce4:	605a      	str	r2, [r3, #4]
    1ce6:	6298      	str	r0, [r3, #40]	; 0x28
    1ce8:	20d0      	movs	r0, #208	; 0xd0
    1cea:	0c14      	lsrs	r4, r2, #16
    1cec:	0600      	lsls	r0, r0, #24
    1cee:	4320      	orrs	r0, r4
    1cf0:	6298      	str	r0, [r3, #40]	; 0x28
    1cf2:	78c8      	ldrb	r0, [r1, #3]
    1cf4:	2800      	cmp	r0, #0
    1cf6:	d1ef      	bne.n	1cd8 <system_pinmux_pin_set_config+0x84>
    1cf8:	7849      	ldrb	r1, [r1, #1]
    1cfa:	3901      	subs	r1, #1
    1cfc:	2901      	cmp	r1, #1
    1cfe:	d8eb      	bhi.n	1cd8 <system_pinmux_pin_set_config+0x84>
    1d00:	609a      	str	r2, [r3, #8]
    1d02:	e7e9      	b.n	1cd8 <system_pinmux_pin_set_config+0x84>
    1d04:	24c0      	movs	r4, #192	; 0xc0
    1d06:	02e4      	lsls	r4, r4, #11
    1d08:	4320      	orrs	r0, r4
    1d0a:	e7c6      	b.n	1c9a <system_pinmux_pin_set_config+0x46>
    1d0c:	2000      	movs	r0, #0
    1d0e:	e7b9      	b.n	1c84 <system_pinmux_pin_set_config+0x30>
    1d10:	4c03      	ldr	r4, [pc, #12]	; (1d20 <system_pinmux_pin_set_config+0xcc>)
    1d12:	4020      	ands	r0, r4
    1d14:	e7c6      	b.n	1ca4 <system_pinmux_pin_set_config+0x50>
    1d16:	619a      	str	r2, [r3, #24]
    1d18:	e7da      	b.n	1cd0 <system_pinmux_pin_set_config+0x7c>
    1d1a:	46c0      	nop			; (mov r8, r8)
    1d1c:	41004400 	.word	0x41004400
    1d20:	fffbffff 	.word	0xfffbffff

00001d24 <_system_dummy_init>:
    1d24:	4770      	bx	lr
    1d26:	46c0      	nop			; (mov r8, r8)

00001d28 <system_init>:
    1d28:	b510      	push	{r4, lr}
    1d2a:	4b05      	ldr	r3, [pc, #20]	; (1d40 <system_init+0x18>)
    1d2c:	4798      	blx	r3
    1d2e:	4b05      	ldr	r3, [pc, #20]	; (1d44 <system_init+0x1c>)
    1d30:	4798      	blx	r3
    1d32:	4b05      	ldr	r3, [pc, #20]	; (1d48 <system_init+0x20>)
    1d34:	4798      	blx	r3
    1d36:	4b05      	ldr	r3, [pc, #20]	; (1d4c <system_init+0x24>)
    1d38:	4798      	blx	r3
    1d3a:	4b05      	ldr	r3, [pc, #20]	; (1d50 <system_init+0x28>)
    1d3c:	4798      	blx	r3
    1d3e:	bd10      	pop	{r4, pc}
    1d40:	0000176d 	.word	0x0000176d
    1d44:	00000221 	.word	0x00000221
    1d48:	00001d25 	.word	0x00001d25
    1d4c:	0000039d 	.word	0x0000039d
    1d50:	00001d25 	.word	0x00001d25

00001d54 <tc_register_callback>:
    1d54:	1c93      	adds	r3, r2, #2
    1d56:	009b      	lsls	r3, r3, #2
    1d58:	5019      	str	r1, [r3, r0]
    1d5a:	2a02      	cmp	r2, #2
    1d5c:	d009      	beq.n	1d72 <tc_register_callback+0x1e>
    1d5e:	2a03      	cmp	r2, #3
    1d60:	d00c      	beq.n	1d7c <tc_register_callback+0x28>
    1d62:	2301      	movs	r3, #1
    1d64:	4093      	lsls	r3, r2
    1d66:	001a      	movs	r2, r3
    1d68:	7e03      	ldrb	r3, [r0, #24]
    1d6a:	4313      	orrs	r3, r2
    1d6c:	7603      	strb	r3, [r0, #24]
    1d6e:	2000      	movs	r0, #0
    1d70:	4770      	bx	lr
    1d72:	2210      	movs	r2, #16
    1d74:	7e03      	ldrb	r3, [r0, #24]
    1d76:	4313      	orrs	r3, r2
    1d78:	7603      	strb	r3, [r0, #24]
    1d7a:	e7f8      	b.n	1d6e <tc_register_callback+0x1a>
    1d7c:	2220      	movs	r2, #32
    1d7e:	7e03      	ldrb	r3, [r0, #24]
    1d80:	4313      	orrs	r3, r2
    1d82:	7603      	strb	r3, [r0, #24]
    1d84:	e7f3      	b.n	1d6e <tc_register_callback+0x1a>
    1d86:	46c0      	nop			; (mov r8, r8)

00001d88 <TC3_Handler>:
    1d88:	b570      	push	{r4, r5, r6, lr}
    1d8a:	2601      	movs	r6, #1
    1d8c:	4b15      	ldr	r3, [pc, #84]	; (1de4 <TC3_Handler+0x5c>)
    1d8e:	681d      	ldr	r5, [r3, #0]
    1d90:	682b      	ldr	r3, [r5, #0]
    1d92:	7e2a      	ldrb	r2, [r5, #24]
    1d94:	7e6c      	ldrb	r4, [r5, #25]
    1d96:	7b9b      	ldrb	r3, [r3, #14]
    1d98:	4014      	ands	r4, r2
    1d9a:	401c      	ands	r4, r3
    1d9c:	4226      	tst	r6, r4
    1d9e:	d11a      	bne.n	1dd6 <TC3_Handler+0x4e>
    1da0:	2602      	movs	r6, #2
    1da2:	4226      	tst	r6, r4
    1da4:	d111      	bne.n	1dca <TC3_Handler+0x42>
    1da6:	2610      	movs	r6, #16
    1da8:	4226      	tst	r6, r4
    1daa:	d108      	bne.n	1dbe <TC3_Handler+0x36>
    1dac:	2620      	movs	r6, #32
    1dae:	4226      	tst	r6, r4
    1db0:	d004      	beq.n	1dbc <TC3_Handler+0x34>
    1db2:	696b      	ldr	r3, [r5, #20]
    1db4:	0028      	movs	r0, r5
    1db6:	4798      	blx	r3
    1db8:	682b      	ldr	r3, [r5, #0]
    1dba:	739e      	strb	r6, [r3, #14]
    1dbc:	bd70      	pop	{r4, r5, r6, pc}
    1dbe:	692b      	ldr	r3, [r5, #16]
    1dc0:	0028      	movs	r0, r5
    1dc2:	4798      	blx	r3
    1dc4:	682b      	ldr	r3, [r5, #0]
    1dc6:	739e      	strb	r6, [r3, #14]
    1dc8:	e7f0      	b.n	1dac <TC3_Handler+0x24>
    1dca:	68eb      	ldr	r3, [r5, #12]
    1dcc:	0028      	movs	r0, r5
    1dce:	4798      	blx	r3
    1dd0:	682b      	ldr	r3, [r5, #0]
    1dd2:	739e      	strb	r6, [r3, #14]
    1dd4:	e7e7      	b.n	1da6 <TC3_Handler+0x1e>
    1dd6:	68ab      	ldr	r3, [r5, #8]
    1dd8:	0028      	movs	r0, r5
    1dda:	4798      	blx	r3
    1ddc:	682b      	ldr	r3, [r5, #0]
    1dde:	739e      	strb	r6, [r3, #14]
    1de0:	e7de      	b.n	1da0 <TC3_Handler+0x18>
    1de2:	46c0      	nop			; (mov r8, r8)
    1de4:	20000424 	.word	0x20000424

00001de8 <TC4_Handler>:
    1de8:	b570      	push	{r4, r5, r6, lr}
    1dea:	2601      	movs	r6, #1
    1dec:	4b15      	ldr	r3, [pc, #84]	; (1e44 <TC4_Handler+0x5c>)
    1dee:	685d      	ldr	r5, [r3, #4]
    1df0:	682b      	ldr	r3, [r5, #0]
    1df2:	7e2a      	ldrb	r2, [r5, #24]
    1df4:	7e6c      	ldrb	r4, [r5, #25]
    1df6:	7b9b      	ldrb	r3, [r3, #14]
    1df8:	4014      	ands	r4, r2
    1dfa:	401c      	ands	r4, r3
    1dfc:	4226      	tst	r6, r4
    1dfe:	d11a      	bne.n	1e36 <TC4_Handler+0x4e>
    1e00:	2602      	movs	r6, #2
    1e02:	4226      	tst	r6, r4
    1e04:	d111      	bne.n	1e2a <TC4_Handler+0x42>
    1e06:	2610      	movs	r6, #16
    1e08:	4226      	tst	r6, r4
    1e0a:	d108      	bne.n	1e1e <TC4_Handler+0x36>
    1e0c:	2620      	movs	r6, #32
    1e0e:	4226      	tst	r6, r4
    1e10:	d004      	beq.n	1e1c <TC4_Handler+0x34>
    1e12:	696b      	ldr	r3, [r5, #20]
    1e14:	0028      	movs	r0, r5
    1e16:	4798      	blx	r3
    1e18:	682b      	ldr	r3, [r5, #0]
    1e1a:	739e      	strb	r6, [r3, #14]
    1e1c:	bd70      	pop	{r4, r5, r6, pc}
    1e1e:	692b      	ldr	r3, [r5, #16]
    1e20:	0028      	movs	r0, r5
    1e22:	4798      	blx	r3
    1e24:	682b      	ldr	r3, [r5, #0]
    1e26:	739e      	strb	r6, [r3, #14]
    1e28:	e7f0      	b.n	1e0c <TC4_Handler+0x24>
    1e2a:	68eb      	ldr	r3, [r5, #12]
    1e2c:	0028      	movs	r0, r5
    1e2e:	4798      	blx	r3
    1e30:	682b      	ldr	r3, [r5, #0]
    1e32:	739e      	strb	r6, [r3, #14]
    1e34:	e7e7      	b.n	1e06 <TC4_Handler+0x1e>
    1e36:	68ab      	ldr	r3, [r5, #8]
    1e38:	0028      	movs	r0, r5
    1e3a:	4798      	blx	r3
    1e3c:	682b      	ldr	r3, [r5, #0]
    1e3e:	739e      	strb	r6, [r3, #14]
    1e40:	e7de      	b.n	1e00 <TC4_Handler+0x18>
    1e42:	46c0      	nop			; (mov r8, r8)
    1e44:	20000424 	.word	0x20000424

00001e48 <TC5_Handler>:
    1e48:	b570      	push	{r4, r5, r6, lr}
    1e4a:	2601      	movs	r6, #1
    1e4c:	4b15      	ldr	r3, [pc, #84]	; (1ea4 <TC5_Handler+0x5c>)
    1e4e:	689d      	ldr	r5, [r3, #8]
    1e50:	682b      	ldr	r3, [r5, #0]
    1e52:	7e2a      	ldrb	r2, [r5, #24]
    1e54:	7e6c      	ldrb	r4, [r5, #25]
    1e56:	7b9b      	ldrb	r3, [r3, #14]
    1e58:	4014      	ands	r4, r2
    1e5a:	401c      	ands	r4, r3
    1e5c:	4226      	tst	r6, r4
    1e5e:	d11a      	bne.n	1e96 <TC5_Handler+0x4e>
    1e60:	2602      	movs	r6, #2
    1e62:	4226      	tst	r6, r4
    1e64:	d111      	bne.n	1e8a <TC5_Handler+0x42>
    1e66:	2610      	movs	r6, #16
    1e68:	4226      	tst	r6, r4
    1e6a:	d108      	bne.n	1e7e <TC5_Handler+0x36>
    1e6c:	2620      	movs	r6, #32
    1e6e:	4226      	tst	r6, r4
    1e70:	d004      	beq.n	1e7c <TC5_Handler+0x34>
    1e72:	696b      	ldr	r3, [r5, #20]
    1e74:	0028      	movs	r0, r5
    1e76:	4798      	blx	r3
    1e78:	682b      	ldr	r3, [r5, #0]
    1e7a:	739e      	strb	r6, [r3, #14]
    1e7c:	bd70      	pop	{r4, r5, r6, pc}
    1e7e:	692b      	ldr	r3, [r5, #16]
    1e80:	0028      	movs	r0, r5
    1e82:	4798      	blx	r3
    1e84:	682b      	ldr	r3, [r5, #0]
    1e86:	739e      	strb	r6, [r3, #14]
    1e88:	e7f0      	b.n	1e6c <TC5_Handler+0x24>
    1e8a:	68eb      	ldr	r3, [r5, #12]
    1e8c:	0028      	movs	r0, r5
    1e8e:	4798      	blx	r3
    1e90:	682b      	ldr	r3, [r5, #0]
    1e92:	739e      	strb	r6, [r3, #14]
    1e94:	e7e7      	b.n	1e66 <TC5_Handler+0x1e>
    1e96:	68ab      	ldr	r3, [r5, #8]
    1e98:	0028      	movs	r0, r5
    1e9a:	4798      	blx	r3
    1e9c:	682b      	ldr	r3, [r5, #0]
    1e9e:	739e      	strb	r6, [r3, #14]
    1ea0:	e7de      	b.n	1e60 <TC5_Handler+0x18>
    1ea2:	46c0      	nop			; (mov r8, r8)
    1ea4:	20000424 	.word	0x20000424

00001ea8 <_tc_get_inst_index>:
    1ea8:	4b0e      	ldr	r3, [pc, #56]	; (1ee4 <_tc_get_inst_index+0x3c>)
    1eaa:	0001      	movs	r1, r0
    1eac:	0018      	movs	r0, r3
    1eae:	b570      	push	{r4, r5, r6, lr}
    1eb0:	b084      	sub	sp, #16
    1eb2:	aa01      	add	r2, sp, #4
    1eb4:	c870      	ldmia	r0!, {r4, r5, r6}
    1eb6:	c270      	stmia	r2!, {r4, r5, r6}
    1eb8:	9a01      	ldr	r2, [sp, #4]
    1eba:	4291      	cmp	r1, r2
    1ebc:	d008      	beq.n	1ed0 <_tc_get_inst_index+0x28>
    1ebe:	685a      	ldr	r2, [r3, #4]
    1ec0:	4291      	cmp	r1, r2
    1ec2:	d008      	beq.n	1ed6 <_tc_get_inst_index+0x2e>
    1ec4:	689b      	ldr	r3, [r3, #8]
    1ec6:	2000      	movs	r0, #0
    1ec8:	428b      	cmp	r3, r1
    1eca:	d007      	beq.n	1edc <_tc_get_inst_index+0x34>
    1ecc:	b004      	add	sp, #16
    1ece:	bd70      	pop	{r4, r5, r6, pc}
    1ed0:	2000      	movs	r0, #0
    1ed2:	b2c0      	uxtb	r0, r0
    1ed4:	e7fa      	b.n	1ecc <_tc_get_inst_index+0x24>
    1ed6:	2001      	movs	r0, #1
    1ed8:	b2c0      	uxtb	r0, r0
    1eda:	e7f7      	b.n	1ecc <_tc_get_inst_index+0x24>
    1edc:	3002      	adds	r0, #2
    1ede:	b2c0      	uxtb	r0, r0
    1ee0:	e7f4      	b.n	1ecc <_tc_get_inst_index+0x24>
    1ee2:	46c0      	nop			; (mov r8, r8)
    1ee4:	0000a528 	.word	0x0000a528

00001ee8 <tc_init>:
    1ee8:	b5f0      	push	{r4, r5, r6, r7, lr}
    1eea:	4647      	mov	r7, r8
    1eec:	46ce      	mov	lr, r9
    1eee:	b580      	push	{r7, lr}
    1ef0:	4ba7      	ldr	r3, [pc, #668]	; (2190 <STACK_SIZE+0x190>)
    1ef2:	b087      	sub	sp, #28
    1ef4:	ad03      	add	r5, sp, #12
    1ef6:	000f      	movs	r7, r1
    1ef8:	4690      	mov	r8, r2
    1efa:	0019      	movs	r1, r3
    1efc:	002a      	movs	r2, r5
    1efe:	0004      	movs	r4, r0
    1f00:	469c      	mov	ip, r3
    1f02:	c949      	ldmia	r1!, {r0, r3, r6}
    1f04:	c249      	stmia	r2!, {r0, r3, r6}
    1f06:	9a03      	ldr	r2, [sp, #12]
    1f08:	42ba      	cmp	r2, r7
    1f0a:	d100      	bne.n	1f0e <tc_init+0x26>
    1f0c:	e10d      	b.n	212a <STACK_SIZE+0x12a>
    1f0e:	4663      	mov	r3, ip
    1f10:	685a      	ldr	r2, [r3, #4]
    1f12:	4297      	cmp	r7, r2
    1f14:	d100      	bne.n	1f18 <tc_init+0x30>
    1f16:	e10b      	b.n	2130 <STACK_SIZE+0x130>
    1f18:	2200      	movs	r2, #0
    1f1a:	689b      	ldr	r3, [r3, #8]
    1f1c:	4691      	mov	r9, r2
    1f1e:	429f      	cmp	r7, r3
    1f20:	d100      	bne.n	1f24 <tc_init+0x3c>
    1f22:	e108      	b.n	2136 <STACK_SIZE+0x136>
    1f24:	231b      	movs	r3, #27
    1f26:	ae01      	add	r6, sp, #4
    1f28:	7033      	strb	r3, [r6, #0]
    1f2a:	3301      	adds	r3, #1
    1f2c:	7073      	strb	r3, [r6, #1]
    1f2e:	70b3      	strb	r3, [r6, #2]
    1f30:	2380      	movs	r3, #128	; 0x80
    1f32:	011b      	lsls	r3, r3, #4
    1f34:	802b      	strh	r3, [r5, #0]
    1f36:	2380      	movs	r3, #128	; 0x80
    1f38:	015b      	lsls	r3, r3, #5
    1f3a:	806b      	strh	r3, [r5, #2]
    1f3c:	2380      	movs	r3, #128	; 0x80
    1f3e:	019b      	lsls	r3, r3, #6
    1f40:	80ab      	strh	r3, [r5, #4]
    1f42:	2300      	movs	r3, #0
    1f44:	60a3      	str	r3, [r4, #8]
    1f46:	60e3      	str	r3, [r4, #12]
    1f48:	6123      	str	r3, [r4, #16]
    1f4a:	6163      	str	r3, [r4, #20]
    1f4c:	7623      	strb	r3, [r4, #24]
    1f4e:	7663      	strb	r3, [r4, #25]
    1f50:	464b      	mov	r3, r9
    1f52:	4a90      	ldr	r2, [pc, #576]	; (2194 <STACK_SIZE+0x194>)
    1f54:	009b      	lsls	r3, r3, #2
    1f56:	509c      	str	r4, [r3, r2]
    1f58:	4643      	mov	r3, r8
    1f5a:	6027      	str	r7, [r4, #0]
    1f5c:	789b      	ldrb	r3, [r3, #2]
    1f5e:	2b08      	cmp	r3, #8
    1f60:	d00a      	beq.n	1f78 <tc_init+0x90>
    1f62:	7123      	strb	r3, [r4, #4]
    1f64:	883b      	ldrh	r3, [r7, #0]
    1f66:	2201      	movs	r2, #1
    1f68:	2005      	movs	r0, #5
    1f6a:	07db      	lsls	r3, r3, #31
    1f6c:	d509      	bpl.n	1f82 <tc_init+0x9a>
    1f6e:	b007      	add	sp, #28
    1f70:	bc0c      	pop	{r2, r3}
    1f72:	4690      	mov	r8, r2
    1f74:	4699      	mov	r9, r3
    1f76:	bdf0      	pop	{r4, r5, r6, r7, pc}
    1f78:	464a      	mov	r2, r9
    1f7a:	2017      	movs	r0, #23
    1f7c:	07d2      	lsls	r2, r2, #31
    1f7e:	d5f6      	bpl.n	1f6e <tc_init+0x86>
    1f80:	e7ef      	b.n	1f62 <tc_init+0x7a>
    1f82:	7bfb      	ldrb	r3, [r7, #15]
    1f84:	3017      	adds	r0, #23
    1f86:	06db      	lsls	r3, r3, #27
    1f88:	d4f1      	bmi.n	1f6e <tc_init+0x86>
    1f8a:	2302      	movs	r3, #2
    1f8c:	8839      	ldrh	r1, [r7, #0]
    1f8e:	400b      	ands	r3, r1
    1f90:	d1ed      	bne.n	1f6e <tc_init+0x86>
    1f92:	4641      	mov	r1, r8
    1f94:	7c09      	ldrb	r1, [r1, #16]
    1f96:	2900      	cmp	r1, #0
    1f98:	d000      	beq.n	1f9c <tc_init+0xb4>
    1f9a:	e0d2      	b.n	2142 <STACK_SIZE+0x142>
    1f9c:	4643      	mov	r3, r8
    1f9e:	7f1b      	ldrb	r3, [r3, #28]
    1fa0:	2b00      	cmp	r3, #0
    1fa2:	d000      	beq.n	1fa6 <tc_init+0xbe>
    1fa4:	e0d9      	b.n	215a <STACK_SIZE+0x15a>
    1fa6:	464b      	mov	r3, r9
    1fa8:	4a7b      	ldr	r2, [pc, #492]	; (2198 <STACK_SIZE+0x198>)
    1faa:	005b      	lsls	r3, r3, #1
    1fac:	6a11      	ldr	r1, [r2, #32]
    1fae:	5aeb      	ldrh	r3, [r5, r3]
    1fb0:	430b      	orrs	r3, r1
    1fb2:	6213      	str	r3, [r2, #32]
    1fb4:	4643      	mov	r3, r8
    1fb6:	789b      	ldrb	r3, [r3, #2]
    1fb8:	2b08      	cmp	r3, #8
    1fba:	d100      	bne.n	1fbe <tc_init+0xd6>
    1fbc:	e0df      	b.n	217e <STACK_SIZE+0x17e>
    1fbe:	4643      	mov	r3, r8
    1fc0:	466a      	mov	r2, sp
    1fc2:	781b      	ldrb	r3, [r3, #0]
    1fc4:	4669      	mov	r1, sp
    1fc6:	7013      	strb	r3, [r2, #0]
    1fc8:	464b      	mov	r3, r9
    1fca:	5cf5      	ldrb	r5, [r6, r3]
    1fcc:	4b73      	ldr	r3, [pc, #460]	; (219c <STACK_SIZE+0x19c>)
    1fce:	0028      	movs	r0, r5
    1fd0:	4798      	blx	r3
    1fd2:	4b73      	ldr	r3, [pc, #460]	; (21a0 <STACK_SIZE+0x1a0>)
    1fd4:	0028      	movs	r0, r5
    1fd6:	4798      	blx	r3
    1fd8:	4643      	mov	r3, r8
    1fda:	4642      	mov	r2, r8
    1fdc:	8919      	ldrh	r1, [r3, #8]
    1fde:	889b      	ldrh	r3, [r3, #4]
    1fe0:	430b      	orrs	r3, r1
    1fe2:	7891      	ldrb	r1, [r2, #2]
    1fe4:	7992      	ldrb	r2, [r2, #6]
    1fe6:	4311      	orrs	r1, r2
    1fe8:	4319      	orrs	r1, r3
    1fea:	4643      	mov	r3, r8
    1fec:	785b      	ldrb	r3, [r3, #1]
    1fee:	2b00      	cmp	r3, #0
    1ff0:	d002      	beq.n	1ff8 <tc_init+0x110>
    1ff2:	2380      	movs	r3, #128	; 0x80
    1ff4:	011b      	lsls	r3, r3, #4
    1ff6:	4319      	orrs	r1, r3
    1ff8:	6822      	ldr	r2, [r4, #0]
    1ffa:	7bd3      	ldrb	r3, [r2, #15]
    1ffc:	b25b      	sxtb	r3, r3
    1ffe:	2b00      	cmp	r3, #0
    2000:	dbfb      	blt.n	1ffa <tc_init+0x112>
    2002:	4643      	mov	r3, r8
    2004:	8039      	strh	r1, [r7, #0]
    2006:	7b5b      	ldrb	r3, [r3, #13]
    2008:	2b00      	cmp	r3, #0
    200a:	d000      	beq.n	200e <STACK_SIZE+0xe>
    200c:	e096      	b.n	213c <STACK_SIZE+0x13c>
    200e:	2101      	movs	r1, #1
    2010:	2200      	movs	r2, #0
    2012:	4643      	mov	r3, r8
    2014:	7b9b      	ldrb	r3, [r3, #14]
    2016:	2b00      	cmp	r3, #0
    2018:	d100      	bne.n	201c <STACK_SIZE+0x1c>
    201a:	0011      	movs	r1, r2
    201c:	6822      	ldr	r2, [r4, #0]
    201e:	7bd3      	ldrb	r3, [r2, #15]
    2020:	b25b      	sxtb	r3, r3
    2022:	2b00      	cmp	r3, #0
    2024:	dbfb      	blt.n	201e <STACK_SIZE+0x1e>
    2026:	23ff      	movs	r3, #255	; 0xff
    2028:	713b      	strb	r3, [r7, #4]
    202a:	2900      	cmp	r1, #0
    202c:	d005      	beq.n	203a <STACK_SIZE+0x3a>
    202e:	6822      	ldr	r2, [r4, #0]
    2030:	7bd3      	ldrb	r3, [r2, #15]
    2032:	b25b      	sxtb	r3, r3
    2034:	2b00      	cmp	r3, #0
    2036:	dbfb      	blt.n	2030 <STACK_SIZE+0x30>
    2038:	7179      	strb	r1, [r7, #5]
    203a:	4643      	mov	r3, r8
    203c:	7a99      	ldrb	r1, [r3, #10]
    203e:	7adb      	ldrb	r3, [r3, #11]
    2040:	2b00      	cmp	r3, #0
    2042:	d001      	beq.n	2048 <STACK_SIZE+0x48>
    2044:	2310      	movs	r3, #16
    2046:	4319      	orrs	r1, r3
    2048:	4643      	mov	r3, r8
    204a:	7b1b      	ldrb	r3, [r3, #12]
    204c:	2b00      	cmp	r3, #0
    204e:	d001      	beq.n	2054 <STACK_SIZE+0x54>
    2050:	2320      	movs	r3, #32
    2052:	4319      	orrs	r1, r3
    2054:	6822      	ldr	r2, [r4, #0]
    2056:	7bd3      	ldrb	r3, [r2, #15]
    2058:	b25b      	sxtb	r3, r3
    205a:	2b00      	cmp	r3, #0
    205c:	dbfb      	blt.n	2056 <STACK_SIZE+0x56>
    205e:	71b9      	strb	r1, [r7, #6]
    2060:	6822      	ldr	r2, [r4, #0]
    2062:	7bd3      	ldrb	r3, [r2, #15]
    2064:	b25b      	sxtb	r3, r3
    2066:	2b00      	cmp	r3, #0
    2068:	dbfb      	blt.n	2062 <STACK_SIZE+0x62>
    206a:	7923      	ldrb	r3, [r4, #4]
    206c:	2b04      	cmp	r3, #4
    206e:	d01e      	beq.n	20ae <STACK_SIZE+0xae>
    2070:	2b08      	cmp	r3, #8
    2072:	d041      	beq.n	20f8 <STACK_SIZE+0xf8>
    2074:	2017      	movs	r0, #23
    2076:	2b00      	cmp	r3, #0
    2078:	d000      	beq.n	207c <STACK_SIZE+0x7c>
    207a:	e778      	b.n	1f6e <tc_init+0x86>
    207c:	7bd3      	ldrb	r3, [r2, #15]
    207e:	b25b      	sxtb	r3, r3
    2080:	2b00      	cmp	r3, #0
    2082:	dbfb      	blt.n	207c <STACK_SIZE+0x7c>
    2084:	4643      	mov	r3, r8
    2086:	8d1b      	ldrh	r3, [r3, #40]	; 0x28
    2088:	823b      	strh	r3, [r7, #16]
    208a:	6822      	ldr	r2, [r4, #0]
    208c:	7bd3      	ldrb	r3, [r2, #15]
    208e:	b25b      	sxtb	r3, r3
    2090:	2b00      	cmp	r3, #0
    2092:	dbfb      	blt.n	208c <STACK_SIZE+0x8c>
    2094:	4643      	mov	r3, r8
    2096:	8d5b      	ldrh	r3, [r3, #42]	; 0x2a
    2098:	833b      	strh	r3, [r7, #24]
    209a:	6822      	ldr	r2, [r4, #0]
    209c:	7bd3      	ldrb	r3, [r2, #15]
    209e:	b25b      	sxtb	r3, r3
    20a0:	2b00      	cmp	r3, #0
    20a2:	dbfb      	blt.n	209c <STACK_SIZE+0x9c>
    20a4:	4643      	mov	r3, r8
    20a6:	8d9b      	ldrh	r3, [r3, #44]	; 0x2c
    20a8:	2000      	movs	r0, #0
    20aa:	837b      	strh	r3, [r7, #26]
    20ac:	e75f      	b.n	1f6e <tc_init+0x86>
    20ae:	7bd3      	ldrb	r3, [r2, #15]
    20b0:	b25b      	sxtb	r3, r3
    20b2:	2b00      	cmp	r3, #0
    20b4:	dbfb      	blt.n	20ae <STACK_SIZE+0xae>
    20b6:	4642      	mov	r2, r8
    20b8:	2328      	movs	r3, #40	; 0x28
    20ba:	5cd3      	ldrb	r3, [r2, r3]
    20bc:	743b      	strb	r3, [r7, #16]
    20be:	6822      	ldr	r2, [r4, #0]
    20c0:	7bd3      	ldrb	r3, [r2, #15]
    20c2:	b25b      	sxtb	r3, r3
    20c4:	2b00      	cmp	r3, #0
    20c6:	dbfb      	blt.n	20c0 <STACK_SIZE+0xc0>
    20c8:	4642      	mov	r2, r8
    20ca:	2329      	movs	r3, #41	; 0x29
    20cc:	5cd3      	ldrb	r3, [r2, r3]
    20ce:	753b      	strb	r3, [r7, #20]
    20d0:	6822      	ldr	r2, [r4, #0]
    20d2:	7bd3      	ldrb	r3, [r2, #15]
    20d4:	b25b      	sxtb	r3, r3
    20d6:	2b00      	cmp	r3, #0
    20d8:	dbfb      	blt.n	20d2 <STACK_SIZE+0xd2>
    20da:	4642      	mov	r2, r8
    20dc:	232a      	movs	r3, #42	; 0x2a
    20de:	5cd3      	ldrb	r3, [r2, r3]
    20e0:	763b      	strb	r3, [r7, #24]
    20e2:	6822      	ldr	r2, [r4, #0]
    20e4:	7bd3      	ldrb	r3, [r2, #15]
    20e6:	b25b      	sxtb	r3, r3
    20e8:	2b00      	cmp	r3, #0
    20ea:	dbfb      	blt.n	20e4 <STACK_SIZE+0xe4>
    20ec:	232b      	movs	r3, #43	; 0x2b
    20ee:	4642      	mov	r2, r8
    20f0:	5cd3      	ldrb	r3, [r2, r3]
    20f2:	2000      	movs	r0, #0
    20f4:	767b      	strb	r3, [r7, #25]
    20f6:	e73a      	b.n	1f6e <tc_init+0x86>
    20f8:	7bd3      	ldrb	r3, [r2, #15]
    20fa:	b25b      	sxtb	r3, r3
    20fc:	2b00      	cmp	r3, #0
    20fe:	dbfb      	blt.n	20f8 <STACK_SIZE+0xf8>
    2100:	4643      	mov	r3, r8
    2102:	6a9b      	ldr	r3, [r3, #40]	; 0x28
    2104:	613b      	str	r3, [r7, #16]
    2106:	6822      	ldr	r2, [r4, #0]
    2108:	7bd3      	ldrb	r3, [r2, #15]
    210a:	b25b      	sxtb	r3, r3
    210c:	2b00      	cmp	r3, #0
    210e:	dbfb      	blt.n	2108 <STACK_SIZE+0x108>
    2110:	4643      	mov	r3, r8
    2112:	6adb      	ldr	r3, [r3, #44]	; 0x2c
    2114:	61bb      	str	r3, [r7, #24]
    2116:	6822      	ldr	r2, [r4, #0]
    2118:	7bd3      	ldrb	r3, [r2, #15]
    211a:	b25b      	sxtb	r3, r3
    211c:	2b00      	cmp	r3, #0
    211e:	dbfb      	blt.n	2118 <STACK_SIZE+0x118>
    2120:	4643      	mov	r3, r8
    2122:	6b1b      	ldr	r3, [r3, #48]	; 0x30
    2124:	2000      	movs	r0, #0
    2126:	61fb      	str	r3, [r7, #28]
    2128:	e721      	b.n	1f6e <tc_init+0x86>
    212a:	2300      	movs	r3, #0
    212c:	4699      	mov	r9, r3
    212e:	e6f9      	b.n	1f24 <tc_init+0x3c>
    2130:	2301      	movs	r3, #1
    2132:	4699      	mov	r9, r3
    2134:	e6f6      	b.n	1f24 <tc_init+0x3c>
    2136:	2302      	movs	r3, #2
    2138:	4699      	mov	r9, r3
    213a:	e6f3      	b.n	1f24 <tc_init+0x3c>
    213c:	2105      	movs	r1, #5
    213e:	2204      	movs	r2, #4
    2140:	e767      	b.n	2012 <STACK_SIZE+0x12>
    2142:	a902      	add	r1, sp, #8
    2144:	70cb      	strb	r3, [r1, #3]
    2146:	4643      	mov	r3, r8
    2148:	7e1b      	ldrb	r3, [r3, #24]
    214a:	708a      	strb	r2, [r1, #2]
    214c:	700b      	strb	r3, [r1, #0]
    214e:	4643      	mov	r3, r8
    2150:	7d18      	ldrb	r0, [r3, #20]
    2152:	4b14      	ldr	r3, [pc, #80]	; (21a4 <STACK_SIZE+0x1a4>)
    2154:	704a      	strb	r2, [r1, #1]
    2156:	4798      	blx	r3
    2158:	e720      	b.n	1f9c <tc_init+0xb4>
    215a:	2200      	movs	r2, #0
    215c:	a902      	add	r1, sp, #8
    215e:	70ca      	strb	r2, [r1, #3]
    2160:	2024      	movs	r0, #36	; 0x24
    2162:	4642      	mov	r2, r8
    2164:	2301      	movs	r3, #1
    2166:	1812      	adds	r2, r2, r0
    2168:	7812      	ldrb	r2, [r2, #0]
    216a:	708b      	strb	r3, [r1, #2]
    216c:	700a      	strb	r2, [r1, #0]
    216e:	704b      	strb	r3, [r1, #1]
    2170:	2220      	movs	r2, #32
    2172:	4643      	mov	r3, r8
    2174:	189b      	adds	r3, r3, r2
    2176:	7818      	ldrb	r0, [r3, #0]
    2178:	4b0a      	ldr	r3, [pc, #40]	; (21a4 <STACK_SIZE+0x1a4>)
    217a:	4798      	blx	r3
    217c:	e713      	b.n	1fa6 <tc_init+0xbe>
    217e:	464b      	mov	r3, r9
    2180:	1c59      	adds	r1, r3, #1
    2182:	0049      	lsls	r1, r1, #1
    2184:	6a10      	ldr	r0, [r2, #32]
    2186:	5a6b      	ldrh	r3, [r5, r1]
    2188:	4303      	orrs	r3, r0
    218a:	6213      	str	r3, [r2, #32]
    218c:	e717      	b.n	1fbe <tc_init+0xd6>
    218e:	46c0      	nop			; (mov r8, r8)
    2190:	0000a528 	.word	0x0000a528
    2194:	20000424 	.word	0x20000424
    2198:	40000400 	.word	0x40000400
    219c:	00001b29 	.word	0x00001b29
    21a0:	00001b8d 	.word	0x00001b8d
    21a4:	00001c55 	.word	0x00001c55

000021a8 <tc_get_count_value>:
    21a8:	6802      	ldr	r2, [r0, #0]
    21aa:	7bd3      	ldrb	r3, [r2, #15]
    21ac:	b25b      	sxtb	r3, r3
    21ae:	2b00      	cmp	r3, #0
    21b0:	dbfb      	blt.n	21aa <tc_get_count_value+0x2>
    21b2:	7903      	ldrb	r3, [r0, #4]
    21b4:	2b04      	cmp	r3, #4
    21b6:	d00a      	beq.n	21ce <tc_get_count_value+0x26>
    21b8:	2b08      	cmp	r3, #8
    21ba:	d006      	beq.n	21ca <tc_get_count_value+0x22>
    21bc:	2000      	movs	r0, #0
    21be:	2b00      	cmp	r3, #0
    21c0:	d000      	beq.n	21c4 <tc_get_count_value+0x1c>
    21c2:	4770      	bx	lr
    21c4:	8a10      	ldrh	r0, [r2, #16]
    21c6:	b280      	uxth	r0, r0
    21c8:	e7fb      	b.n	21c2 <tc_get_count_value+0x1a>
    21ca:	6910      	ldr	r0, [r2, #16]
    21cc:	e7f9      	b.n	21c2 <tc_get_count_value+0x1a>
    21ce:	7c10      	ldrb	r0, [r2, #16]
    21d0:	b2c0      	uxtb	r0, r0
    21d2:	e7f6      	b.n	21c2 <tc_get_count_value+0x1a>

000021d4 <tc_set_compare_value>:
    21d4:	b510      	push	{r4, lr}
    21d6:	6804      	ldr	r4, [r0, #0]
    21d8:	7be3      	ldrb	r3, [r4, #15]
    21da:	b25b      	sxtb	r3, r3
    21dc:	2b00      	cmp	r3, #0
    21de:	dbfb      	blt.n	21d8 <tc_set_compare_value+0x4>
    21e0:	7903      	ldrb	r3, [r0, #4]
    21e2:	2b04      	cmp	r3, #4
    21e4:	d016      	beq.n	2214 <tc_set_compare_value+0x40>
    21e6:	2b08      	cmp	r3, #8
    21e8:	d00c      	beq.n	2204 <tc_set_compare_value+0x30>
    21ea:	2017      	movs	r0, #23
    21ec:	2b00      	cmp	r3, #0
    21ee:	d000      	beq.n	21f2 <tc_set_compare_value+0x1e>
    21f0:	bd10      	pop	{r4, pc}
    21f2:	2017      	movs	r0, #23
    21f4:	2901      	cmp	r1, #1
    21f6:	d8fb      	bhi.n	21f0 <tc_set_compare_value+0x1c>
    21f8:	310c      	adds	r1, #12
    21fa:	b292      	uxth	r2, r2
    21fc:	0049      	lsls	r1, r1, #1
    21fe:	530a      	strh	r2, [r1, r4]
    2200:	2000      	movs	r0, #0
    2202:	e7f5      	b.n	21f0 <tc_set_compare_value+0x1c>
    2204:	2017      	movs	r0, #23
    2206:	2901      	cmp	r1, #1
    2208:	d8f2      	bhi.n	21f0 <tc_set_compare_value+0x1c>
    220a:	3106      	adds	r1, #6
    220c:	0089      	lsls	r1, r1, #2
    220e:	510a      	str	r2, [r1, r4]
    2210:	2000      	movs	r0, #0
    2212:	e7ed      	b.n	21f0 <tc_set_compare_value+0x1c>
    2214:	2017      	movs	r0, #23
    2216:	2901      	cmp	r1, #1
    2218:	d8ea      	bhi.n	21f0 <tc_set_compare_value+0x1c>
    221a:	b2d2      	uxtb	r2, r2
    221c:	1861      	adds	r1, r4, r1
    221e:	760a      	strb	r2, [r1, #24]
    2220:	2000      	movs	r0, #0
    2222:	e7e5      	b.n	21f0 <tc_set_compare_value+0x1c>

00002224 <Dummy_Handler>:
    2224:	e7fe      	b.n	2224 <Dummy_Handler>
    2226:	46c0      	nop			; (mov r8, r8)

00002228 <Reset_Handler>:
    2228:	4925      	ldr	r1, [pc, #148]	; (22c0 <Reset_Handler+0x98>)
    222a:	4826      	ldr	r0, [pc, #152]	; (22c4 <Reset_Handler+0x9c>)
    222c:	b5f8      	push	{r3, r4, r5, r6, r7, lr}
    222e:	4281      	cmp	r1, r0
    2230:	d009      	beq.n	2246 <Reset_Handler+0x1e>
    2232:	4b25      	ldr	r3, [pc, #148]	; (22c8 <Reset_Handler+0xa0>)
    2234:	4298      	cmp	r0, r3
    2236:	d206      	bcs.n	2246 <Reset_Handler+0x1e>
    2238:	43c2      	mvns	r2, r0
    223a:	18d2      	adds	r2, r2, r3
    223c:	0892      	lsrs	r2, r2, #2
    223e:	3201      	adds	r2, #1
    2240:	0092      	lsls	r2, r2, #2
    2242:	4b22      	ldr	r3, [pc, #136]	; (22cc <Reset_Handler+0xa4>)
    2244:	4798      	blx	r3
    2246:	4822      	ldr	r0, [pc, #136]	; (22d0 <Reset_Handler+0xa8>)
    2248:	4b22      	ldr	r3, [pc, #136]	; (22d4 <Reset_Handler+0xac>)
    224a:	4298      	cmp	r0, r3
    224c:	d207      	bcs.n	225e <Reset_Handler+0x36>
    224e:	43c2      	mvns	r2, r0
    2250:	18d2      	adds	r2, r2, r3
    2252:	0892      	lsrs	r2, r2, #2
    2254:	3201      	adds	r2, #1
    2256:	0092      	lsls	r2, r2, #2
    2258:	2100      	movs	r1, #0
    225a:	4b1f      	ldr	r3, [pc, #124]	; (22d8 <Reset_Handler+0xb0>)
    225c:	4798      	blx	r3
    225e:	21ff      	movs	r1, #255	; 0xff
    2260:	4b1e      	ldr	r3, [pc, #120]	; (22dc <Reset_Handler+0xb4>)
    2262:	4a1f      	ldr	r2, [pc, #124]	; (22e0 <Reset_Handler+0xb8>)
    2264:	438b      	bics	r3, r1
    2266:	6093      	str	r3, [r2, #8]
    2268:	2390      	movs	r3, #144	; 0x90
    226a:	2503      	movs	r5, #3
    226c:	2402      	movs	r4, #2
    226e:	270c      	movs	r7, #12
    2270:	2608      	movs	r6, #8
    2272:	4a1c      	ldr	r2, [pc, #112]	; (22e4 <Reset_Handler+0xbc>)
    2274:	39fd      	subs	r1, #253	; 0xfd
    2276:	005b      	lsls	r3, r3, #1
    2278:	50d1      	str	r1, [r2, r3]
    227a:	4a1b      	ldr	r2, [pc, #108]	; (22e8 <Reset_Handler+0xc0>)
    227c:	78d3      	ldrb	r3, [r2, #3]
    227e:	43ab      	bics	r3, r5
    2280:	4323      	orrs	r3, r4
    2282:	70d3      	strb	r3, [r2, #3]
    2284:	78d3      	ldrb	r3, [r2, #3]
    2286:	43bb      	bics	r3, r7
    2288:	4333      	orrs	r3, r6
    228a:	70d3      	strb	r3, [r2, #3]
    228c:	2230      	movs	r2, #48	; 0x30
    228e:	4b17      	ldr	r3, [pc, #92]	; (22ec <Reset_Handler+0xc4>)
    2290:	7b98      	ldrb	r0, [r3, #14]
    2292:	4390      	bics	r0, r2
    2294:	2220      	movs	r2, #32
    2296:	4310      	orrs	r0, r2
    2298:	7398      	strb	r0, [r3, #14]
    229a:	7b99      	ldrb	r1, [r3, #14]
    229c:	43b9      	bics	r1, r7
    229e:	4331      	orrs	r1, r6
    22a0:	7399      	strb	r1, [r3, #14]
    22a2:	2180      	movs	r1, #128	; 0x80
    22a4:	7b9a      	ldrb	r2, [r3, #14]
    22a6:	43aa      	bics	r2, r5
    22a8:	4322      	orrs	r2, r4
    22aa:	739a      	strb	r2, [r3, #14]
    22ac:	4a10      	ldr	r2, [pc, #64]	; (22f0 <Reset_Handler+0xc8>)
    22ae:	6853      	ldr	r3, [r2, #4]
    22b0:	430b      	orrs	r3, r1
    22b2:	6053      	str	r3, [r2, #4]
    22b4:	4b0f      	ldr	r3, [pc, #60]	; (22f4 <Reset_Handler+0xcc>)
    22b6:	4798      	blx	r3
    22b8:	4b0f      	ldr	r3, [pc, #60]	; (22f8 <Reset_Handler+0xd0>)
    22ba:	4798      	blx	r3
    22bc:	e7fe      	b.n	22bc <Reset_Handler+0x94>
    22be:	46c0      	nop			; (mov r8, r8)
    22c0:	0000a62c 	.word	0x0000a62c
    22c4:	20000000 	.word	0x20000000
    22c8:	200000dc 	.word	0x200000dc
    22cc:	000095df 	.word	0x000095df
    22d0:	200000e0 	.word	0x200000e0
    22d4:	200020f8 	.word	0x200020f8
    22d8:	000095f1 	.word	0x000095f1
    22dc:	00000000 	.word	0x00000000
    22e0:	e000ed00 	.word	0xe000ed00
    22e4:	41007000 	.word	0x41007000
    22e8:	41005000 	.word	0x41005000
    22ec:	41004800 	.word	0x41004800
    22f0:	41004000 	.word	0x41004000
    22f4:	00009579 	.word	0x00009579
    22f8:	00004c59 	.word	0x00004c59

000022fc <_read>:
    22fc:	b5f0      	push	{r4, r5, r6, r7, lr}
    22fe:	46c6      	mov	lr, r8
    2300:	000c      	movs	r4, r1
    2302:	b500      	push	{lr}
    2304:	4690      	mov	r8, r2
    2306:	2800      	cmp	r0, #0
    2308:	d112      	bne.n	2330 <_read+0x34>
    230a:	2a00      	cmp	r2, #0
    230c:	dd0d      	ble.n	232a <_read+0x2e>
    230e:	4e0a      	ldr	r6, [pc, #40]	; (2338 <_read+0x3c>)
    2310:	4d0a      	ldr	r5, [pc, #40]	; (233c <_read+0x40>)
    2312:	188f      	adds	r7, r1, r2
    2314:	0021      	movs	r1, r4
    2316:	6830      	ldr	r0, [r6, #0]
    2318:	682b      	ldr	r3, [r5, #0]
    231a:	3401      	adds	r4, #1
    231c:	4798      	blx	r3
    231e:	42bc      	cmp	r4, r7
    2320:	d1f8      	bne.n	2314 <_read+0x18>
    2322:	4640      	mov	r0, r8
    2324:	bc04      	pop	{r2}
    2326:	4690      	mov	r8, r2
    2328:	bdf0      	pop	{r4, r5, r6, r7, pc}
    232a:	2300      	movs	r3, #0
    232c:	4698      	mov	r8, r3
    232e:	e7f8      	b.n	2322 <_read+0x26>
    2330:	2301      	movs	r3, #1
    2332:	425b      	negs	r3, r3
    2334:	4698      	mov	r8, r3
    2336:	e7f4      	b.n	2322 <_read+0x26>
    2338:	20000438 	.word	0x20000438
    233c:	20000430 	.word	0x20000430

00002340 <_write>:
    2340:	b5f0      	push	{r4, r5, r6, r7, lr}
    2342:	46c6      	mov	lr, r8
    2344:	3801      	subs	r0, #1
    2346:	b500      	push	{lr}
    2348:	000e      	movs	r6, r1
    234a:	0015      	movs	r5, r2
    234c:	2802      	cmp	r0, #2
    234e:	d810      	bhi.n	2372 <_write+0x32>
    2350:	2400      	movs	r4, #0
    2352:	2a00      	cmp	r2, #0
    2354:	d00f      	beq.n	2376 <_write+0x36>
    2356:	4b0a      	ldr	r3, [pc, #40]	; (2380 <_write+0x40>)
    2358:	4f0a      	ldr	r7, [pc, #40]	; (2384 <_write+0x44>)
    235a:	4698      	mov	r8, r3
    235c:	e002      	b.n	2364 <_write+0x24>
    235e:	3401      	adds	r4, #1
    2360:	42a5      	cmp	r5, r4
    2362:	d008      	beq.n	2376 <_write+0x36>
    2364:	4643      	mov	r3, r8
    2366:	5d31      	ldrb	r1, [r6, r4]
    2368:	6818      	ldr	r0, [r3, #0]
    236a:	683b      	ldr	r3, [r7, #0]
    236c:	4798      	blx	r3
    236e:	2800      	cmp	r0, #0
    2370:	daf5      	bge.n	235e <_write+0x1e>
    2372:	2401      	movs	r4, #1
    2374:	4264      	negs	r4, r4
    2376:	0020      	movs	r0, r4
    2378:	bc04      	pop	{r2}
    237a:	4690      	mov	r8, r2
    237c:	bdf0      	pop	{r4, r5, r6, r7, pc}
    237e:	46c0      	nop			; (mov r8, r8)
    2380:	20000438 	.word	0x20000438
    2384:	20000434 	.word	0x20000434

00002388 <_sbrk>:
    2388:	4a04      	ldr	r2, [pc, #16]	; (239c <_sbrk+0x14>)
    238a:	6813      	ldr	r3, [r2, #0]
    238c:	2b00      	cmp	r3, #0
    238e:	d003      	beq.n	2398 <_sbrk+0x10>
    2390:	1818      	adds	r0, r3, r0
    2392:	6010      	str	r0, [r2, #0]
    2394:	0018      	movs	r0, r3
    2396:	4770      	bx	lr
    2398:	4b01      	ldr	r3, [pc, #4]	; (23a0 <_sbrk+0x18>)
    239a:	e7f9      	b.n	2390 <_sbrk+0x8>
    239c:	20000138 	.word	0x20000138
    23a0:	200040f8 	.word	0x200040f8

000023a4 <_close>:
    23a4:	2001      	movs	r0, #1
    23a6:	4240      	negs	r0, r0
    23a8:	4770      	bx	lr
    23aa:	46c0      	nop			; (mov r8, r8)

000023ac <_fstat>:
    23ac:	2380      	movs	r3, #128	; 0x80
    23ae:	019b      	lsls	r3, r3, #6
    23b0:	2000      	movs	r0, #0
    23b2:	604b      	str	r3, [r1, #4]
    23b4:	4770      	bx	lr
    23b6:	46c0      	nop			; (mov r8, r8)

000023b8 <_lseek>:
    23b8:	2000      	movs	r0, #0
    23ba:	4770      	bx	lr

000023bc <usart_serial_getchar>:
    23bc:	b5f0      	push	{r4, r5, r6, r7, lr}
    23be:	b083      	sub	sp, #12
    23c0:	466b      	mov	r3, sp
    23c2:	1d9c      	adds	r4, r3, #6
    23c4:	2300      	movs	r3, #0
    23c6:	0006      	movs	r6, r0
    23c8:	000f      	movs	r7, r1
    23ca:	4d05      	ldr	r5, [pc, #20]	; (23e0 <usart_serial_getchar+0x24>)
    23cc:	8023      	strh	r3, [r4, #0]
    23ce:	0021      	movs	r1, r4
    23d0:	0030      	movs	r0, r6
    23d2:	47a8      	blx	r5
    23d4:	2800      	cmp	r0, #0
    23d6:	d1fa      	bne.n	23ce <usart_serial_getchar+0x12>
    23d8:	8823      	ldrh	r3, [r4, #0]
    23da:	703b      	strb	r3, [r7, #0]
    23dc:	b003      	add	sp, #12
    23de:	bdf0      	pop	{r4, r5, r6, r7, pc}
    23e0:	00001291 	.word	0x00001291

000023e4 <usart_serial_putchar>:
    23e4:	b570      	push	{r4, r5, r6, lr}
    23e6:	0006      	movs	r6, r0
    23e8:	4d03      	ldr	r5, [pc, #12]	; (23f8 <usart_serial_putchar+0x14>)
    23ea:	b28c      	uxth	r4, r1
    23ec:	0021      	movs	r1, r4
    23ee:	0030      	movs	r0, r6
    23f0:	47a8      	blx	r5
    23f2:	2800      	cmp	r0, #0
    23f4:	d1fa      	bne.n	23ec <usart_serial_putchar+0x8>
    23f6:	bd70      	pop	{r4, r5, r6, pc}
    23f8:	00001265 	.word	0x00001265

000023fc <USART_HOST_ISR_VECT>:
    23fc:	b510      	push	{r4, lr}
    23fe:	b082      	sub	sp, #8
    2400:	466b      	mov	r3, sp
    2402:	1ddc      	adds	r4, r3, #7
    2404:	2201      	movs	r2, #1
    2406:	0021      	movs	r1, r4
    2408:	4b0d      	ldr	r3, [pc, #52]	; (2440 <USART_HOST_ISR_VECT+0x44>)
    240a:	480e      	ldr	r0, [pc, #56]	; (2444 <USART_HOST_ISR_VECT+0x48>)
    240c:	4798      	blx	r3
    240e:	b672      	cpsid	i
    2410:	f3bf 8f5f 	dmb	sy
    2414:	2300      	movs	r3, #0
    2416:	4a0c      	ldr	r2, [pc, #48]	; (2448 <USART_HOST_ISR_VECT+0x4c>)
    2418:	490c      	ldr	r1, [pc, #48]	; (244c <USART_HOST_ISR_VECT+0x50>)
    241a:	7013      	strb	r3, [r2, #0]
    241c:	7824      	ldrb	r4, [r4, #0]
    241e:	780b      	ldrb	r3, [r1, #0]
    2420:	480b      	ldr	r0, [pc, #44]	; (2450 <USART_HOST_ISR_VECT+0x54>)
    2422:	54c4      	strb	r4, [r0, r3]
    2424:	2b9b      	cmp	r3, #155	; 0x9b
    2426:	d009      	beq.n	243c <USART_HOST_ISR_VECT+0x40>
    2428:	3301      	adds	r3, #1
    242a:	b2db      	uxtb	r3, r3
    242c:	700b      	strb	r3, [r1, #0]
    242e:	2301      	movs	r3, #1
    2430:	7013      	strb	r3, [r2, #0]
    2432:	f3bf 8f5f 	dmb	sy
    2436:	b662      	cpsie	i
    2438:	b002      	add	sp, #8
    243a:	bd10      	pop	{r4, pc}
    243c:	2300      	movs	r3, #0
    243e:	e7f5      	b.n	242c <USART_HOST_ISR_VECT+0x30>
    2440:	000013c5 	.word	0x000013c5
    2444:	2000013c 	.word	0x2000013c
    2448:	20000008 	.word	0x20000008
    244c:	2000020d 	.word	0x2000020d
    2450:	20000170 	.word	0x20000170

00002454 <sio2host_init>:
    2454:	b570      	push	{r4, r5, r6, lr}
    2456:	b090      	sub	sp, #64	; 0x40
    2458:	4669      	mov	r1, sp
    245a:	22ff      	movs	r2, #255	; 0xff
    245c:	2380      	movs	r3, #128	; 0x80
    245e:	810a      	strh	r2, [r1, #8]
    2460:	2202      	movs	r2, #2
    2462:	05db      	lsls	r3, r3, #23
    2464:	9300      	str	r3, [sp, #0]
    2466:	2300      	movs	r3, #0
    2468:	32ff      	adds	r2, #255	; 0xff
    246a:	9209      	str	r2, [sp, #36]	; 0x24
    246c:	3ad5      	subs	r2, #213	; 0xd5
    246e:	548b      	strb	r3, [r1, r2]
    2470:	3201      	adds	r2, #1
    2472:	548b      	strb	r3, [r1, r2]
    2474:	728b      	strb	r3, [r1, #10]
    2476:	72cb      	strb	r3, [r1, #11]
    2478:	820b      	strh	r3, [r1, #16]
    247a:	9301      	str	r3, [sp, #4]
    247c:	930a      	str	r3, [sp, #40]	; 0x28
    247e:	9305      	str	r3, [sp, #20]
    2480:	2313      	movs	r3, #19
    2482:	768b      	strb	r3, [r1, #26]
    2484:	2380      	movs	r3, #128	; 0x80
    2486:	035b      	lsls	r3, r3, #13
    2488:	9303      	str	r3, [sp, #12]
    248a:	4b31      	ldr	r3, [pc, #196]	; (2550 <sio2host_init+0xfc>)
    248c:	2200      	movs	r2, #0
    248e:	930c      	str	r3, [sp, #48]	; 0x30
    2490:	4b30      	ldr	r3, [pc, #192]	; (2554 <sio2host_init+0x100>)
    2492:	4c31      	ldr	r4, [pc, #196]	; (2558 <sio2host_init+0x104>)
    2494:	930d      	str	r3, [sp, #52]	; 0x34
    2496:	2301      	movs	r3, #1
    2498:	425b      	negs	r3, r3
    249a:	930e      	str	r3, [sp, #56]	; 0x38
    249c:	930f      	str	r3, [sp, #60]	; 0x3c
    249e:	2396      	movs	r3, #150	; 0x96
    24a0:	021b      	lsls	r3, r3, #8
    24a2:	9308      	str	r3, [sp, #32]
    24a4:	4b2d      	ldr	r3, [pc, #180]	; (255c <sio2host_init+0x108>)
    24a6:	76ca      	strb	r2, [r1, #27]
    24a8:	760a      	strb	r2, [r1, #24]
    24aa:	770a      	strb	r2, [r1, #28]
    24ac:	764a      	strb	r2, [r1, #25]
    24ae:	774a      	strb	r2, [r1, #29]
    24b0:	601c      	str	r4, [r3, #0]
    24b2:	4a2b      	ldr	r2, [pc, #172]	; (2560 <sio2host_init+0x10c>)
    24b4:	4b2b      	ldr	r3, [pc, #172]	; (2564 <sio2host_init+0x110>)
    24b6:	492c      	ldr	r1, [pc, #176]	; (2568 <sio2host_init+0x114>)
    24b8:	601a      	str	r2, [r3, #0]
    24ba:	4a2c      	ldr	r2, [pc, #176]	; (256c <sio2host_init+0x118>)
    24bc:	4b2c      	ldr	r3, [pc, #176]	; (2570 <sio2host_init+0x11c>)
    24be:	0020      	movs	r0, r4
    24c0:	601a      	str	r2, [r3, #0]
    24c2:	466a      	mov	r2, sp
    24c4:	4b2b      	ldr	r3, [pc, #172]	; (2574 <sio2host_init+0x120>)
    24c6:	4798      	blx	r3
    24c8:	4e2b      	ldr	r6, [pc, #172]	; (2578 <sio2host_init+0x124>)
    24ca:	4d2c      	ldr	r5, [pc, #176]	; (257c <sio2host_init+0x128>)
    24cc:	6833      	ldr	r3, [r6, #0]
    24ce:	2100      	movs	r1, #0
    24d0:	6898      	ldr	r0, [r3, #8]
    24d2:	47a8      	blx	r5
    24d4:	6833      	ldr	r3, [r6, #0]
    24d6:	2100      	movs	r1, #0
    24d8:	6858      	ldr	r0, [r3, #4]
    24da:	47a8      	blx	r5
    24dc:	6825      	ldr	r5, [r4, #0]
    24de:	4b28      	ldr	r3, [pc, #160]	; (2580 <sio2host_init+0x12c>)
    24e0:	0028      	movs	r0, r5
    24e2:	4798      	blx	r3
    24e4:	231f      	movs	r3, #31
    24e6:	4018      	ands	r0, r3
    24e8:	3b1e      	subs	r3, #30
    24ea:	4083      	lsls	r3, r0
    24ec:	4a25      	ldr	r2, [pc, #148]	; (2584 <sio2host_init+0x130>)
    24ee:	6013      	str	r3, [r2, #0]
    24f0:	6822      	ldr	r2, [r4, #0]
    24f2:	69d3      	ldr	r3, [r2, #28]
    24f4:	2b00      	cmp	r3, #0
    24f6:	d1fc      	bne.n	24f2 <sio2host_init+0x9e>
    24f8:	2202      	movs	r2, #2
    24fa:	682b      	ldr	r3, [r5, #0]
    24fc:	4313      	orrs	r3, r2
    24fe:	602b      	str	r3, [r5, #0]
    2500:	6823      	ldr	r3, [r4, #0]
    2502:	69da      	ldr	r2, [r3, #28]
    2504:	2a00      	cmp	r2, #0
    2506:	d1fc      	bne.n	2502 <sio2host_init+0xae>
    2508:	2280      	movs	r2, #128	; 0x80
    250a:	6859      	ldr	r1, [r3, #4]
    250c:	0252      	lsls	r2, r2, #9
    250e:	430a      	orrs	r2, r1
    2510:	605a      	str	r2, [r3, #4]
    2512:	2201      	movs	r2, #1
    2514:	71e2      	strb	r2, [r4, #7]
    2516:	69da      	ldr	r2, [r3, #28]
    2518:	2a00      	cmp	r2, #0
    251a:	d1fc      	bne.n	2516 <sio2host_init+0xc2>
    251c:	69da      	ldr	r2, [r3, #28]
    251e:	2a00      	cmp	r2, #0
    2520:	d1fc      	bne.n	251c <sio2host_init+0xc8>
    2522:	2280      	movs	r2, #128	; 0x80
    2524:	6859      	ldr	r1, [r3, #4]
    2526:	0292      	lsls	r2, r2, #10
    2528:	430a      	orrs	r2, r1
    252a:	605a      	str	r2, [r3, #4]
    252c:	2201      	movs	r2, #1
    252e:	71a2      	strb	r2, [r4, #6]
    2530:	69da      	ldr	r2, [r3, #28]
    2532:	2a00      	cmp	r2, #0
    2534:	d1fc      	bne.n	2530 <sio2host_init+0xdc>
    2536:	4914      	ldr	r1, [pc, #80]	; (2588 <sio2host_init+0x134>)
    2538:	2000      	movs	r0, #0
    253a:	4b14      	ldr	r3, [pc, #80]	; (258c <sio2host_init+0x138>)
    253c:	4798      	blx	r3
    253e:	2204      	movs	r2, #4
    2540:	4b09      	ldr	r3, [pc, #36]	; (2568 <sio2host_init+0x114>)
    2542:	759a      	strb	r2, [r3, #22]
    2544:	4b0f      	ldr	r3, [pc, #60]	; (2584 <sio2host_init+0x130>)
    2546:	32fd      	adds	r2, #253	; 0xfd
    2548:	32ff      	adds	r2, #255	; 0xff
    254a:	601a      	str	r2, [r3, #0]
    254c:	b010      	add	sp, #64	; 0x40
    254e:	bd70      	pop	{r4, r5, r6, pc}
    2550:	00040003 	.word	0x00040003
    2554:	00050003 	.word	0x00050003
    2558:	2000013c 	.word	0x2000013c
    255c:	20000438 	.word	0x20000438
    2560:	000023e5 	.word	0x000023e5
    2564:	20000434 	.word	0x20000434
    2568:	42000800 	.word	0x42000800
    256c:	000023bd 	.word	0x000023bd
    2570:	20000430 	.word	0x20000430
    2574:	00000f29 	.word	0x00000f29
    2578:	20000078 	.word	0x20000078
    257c:	00009679 	.word	0x00009679
    2580:	000009a9 	.word	0x000009a9
    2584:	e000e100 	.word	0xe000e100
    2588:	000023fd 	.word	0x000023fd
    258c:	00000961 	.word	0x00000961

00002590 <sio2host_rx>:
    2590:	b5f0      	push	{r4, r5, r6, r7, lr}
    2592:	4b22      	ldr	r3, [pc, #136]	; (261c <sio2host_rx+0x8c>)
    2594:	4d22      	ldr	r5, [pc, #136]	; (2620 <sio2host_rx+0x90>)
    2596:	781b      	ldrb	r3, [r3, #0]
    2598:	782e      	ldrb	r6, [r5, #0]
    259a:	0004      	movs	r4, r0
    259c:	42b3      	cmp	r3, r6
    259e:	d325      	bcc.n	25ec <sio2host_rx+0x5c>
    25a0:	1b9a      	subs	r2, r3, r6
    25a2:	4820      	ldr	r0, [pc, #128]	; (2624 <sio2host_rx+0x94>)
    25a4:	b2d2      	uxtb	r2, r2
    25a6:	7002      	strb	r2, [r0, #0]
    25a8:	2a00      	cmp	r2, #0
    25aa:	d027      	beq.n	25fc <sio2host_rx+0x6c>
    25ac:	2a9b      	cmp	r2, #155	; 0x9b
    25ae:	d927      	bls.n	2600 <sio2host_rx+0x70>
    25b0:	229c      	movs	r2, #156	; 0x9c
    25b2:	702b      	strb	r3, [r5, #0]
    25b4:	7002      	strb	r2, [r0, #0]
    25b6:	1c08      	adds	r0, r1, #0
    25b8:	299c      	cmp	r1, #156	; 0x9c
    25ba:	d828      	bhi.n	260e <sio2host_rx+0x7e>
    25bc:	b2c0      	uxtb	r0, r0
    25be:	2800      	cmp	r0, #0
    25c0:	d01c      	beq.n	25fc <sio2host_rx+0x6c>
    25c2:	1e41      	subs	r1, r0, #1
    25c4:	b2c9      	uxtb	r1, r1
    25c6:	3101      	adds	r1, #1
    25c8:	1861      	adds	r1, r4, r1
    25ca:	4e17      	ldr	r6, [pc, #92]	; (2628 <sio2host_rx+0x98>)
    25cc:	e003      	b.n	25d6 <sio2host_rx+0x46>
    25ce:	3301      	adds	r3, #1
    25d0:	b2db      	uxtb	r3, r3
    25d2:	42a1      	cmp	r1, r4
    25d4:	d008      	beq.n	25e8 <sio2host_rx+0x58>
    25d6:	5cf2      	ldrb	r2, [r6, r3]
    25d8:	7022      	strb	r2, [r4, #0]
    25da:	3401      	adds	r4, #1
    25dc:	2b9b      	cmp	r3, #155	; 0x9b
    25de:	d1f6      	bne.n	25ce <sio2host_rx+0x3e>
    25e0:	2300      	movs	r3, #0
    25e2:	b2db      	uxtb	r3, r3
    25e4:	42a1      	cmp	r1, r4
    25e6:	d1f6      	bne.n	25d6 <sio2host_rx+0x46>
    25e8:	702b      	strb	r3, [r5, #0]
    25ea:	bdf0      	pop	{r4, r5, r6, r7, pc}
    25ec:	001a      	movs	r2, r3
    25ee:	3a64      	subs	r2, #100	; 0x64
    25f0:	1b92      	subs	r2, r2, r6
    25f2:	480c      	ldr	r0, [pc, #48]	; (2624 <sio2host_rx+0x94>)
    25f4:	b2d2      	uxtb	r2, r2
    25f6:	7002      	strb	r2, [r0, #0]
    25f8:	2a00      	cmp	r2, #0
    25fa:	d1d7      	bne.n	25ac <sio2host_rx+0x1c>
    25fc:	2000      	movs	r0, #0
    25fe:	e7f4      	b.n	25ea <sio2host_rx+0x5a>
    2600:	b2d7      	uxtb	r7, r2
    2602:	1c08      	adds	r0, r1, #0
    2604:	42b9      	cmp	r1, r7
    2606:	d804      	bhi.n	2612 <sio2host_rx+0x82>
    2608:	b2c0      	uxtb	r0, r0
    260a:	0033      	movs	r3, r6
    260c:	e7d7      	b.n	25be <sio2host_rx+0x2e>
    260e:	1c10      	adds	r0, r2, #0
    2610:	e7d4      	b.n	25bc <sio2host_rx+0x2c>
    2612:	1c10      	adds	r0, r2, #0
    2614:	b2c0      	uxtb	r0, r0
    2616:	0033      	movs	r3, r6
    2618:	e7d1      	b.n	25be <sio2host_rx+0x2e>
    261a:	46c0      	nop			; (mov r8, r8)
    261c:	2000020d 	.word	0x2000020d
    2620:	2000020c 	.word	0x2000020c
    2624:	2000020e 	.word	0x2000020e
    2628:	20000170 	.word	0x20000170

0000262c <sio2host_putchar>:
    262c:	b570      	push	{r4, r5, r6, lr}
    262e:	b082      	sub	sp, #8
    2630:	466b      	mov	r3, sp
    2632:	4e06      	ldr	r6, [pc, #24]	; (264c <sio2host_putchar+0x20>)
    2634:	1ddc      	adds	r4, r3, #7
    2636:	4d06      	ldr	r5, [pc, #24]	; (2650 <sio2host_putchar+0x24>)
    2638:	7020      	strb	r0, [r4, #0]
    263a:	2201      	movs	r2, #1
    263c:	0021      	movs	r1, r4
    263e:	0030      	movs	r0, r6
    2640:	47a8      	blx	r5
    2642:	2800      	cmp	r0, #0
    2644:	d1f9      	bne.n	263a <sio2host_putchar+0xe>
    2646:	b002      	add	sp, #8
    2648:	bd70      	pop	{r4, r5, r6, pc}
    264a:	46c0      	nop			; (mov r8, r8)
    264c:	2000013c 	.word	0x2000013c
    2650:	00001301 	.word	0x00001301

00002654 <MiMAC_SetAltAddress>:
    2654:	b510      	push	{r4, lr}
    2656:	4b09      	ldr	r3, [pc, #36]	; (267c <MiMAC_SetAltAddress+0x28>)
    2658:	7802      	ldrb	r2, [r0, #0]
    265a:	4c09      	ldr	r4, [pc, #36]	; (2680 <MiMAC_SetAltAddress+0x2c>)
    265c:	701a      	strb	r2, [r3, #0]
    265e:	7842      	ldrb	r2, [r0, #1]
    2660:	705a      	strb	r2, [r3, #1]
    2662:	780a      	ldrb	r2, [r1, #0]
    2664:	8818      	ldrh	r0, [r3, #0]
    2666:	7022      	strb	r2, [r4, #0]
    2668:	784a      	ldrb	r2, [r1, #1]
    266a:	4b06      	ldr	r3, [pc, #24]	; (2684 <MiMAC_SetAltAddress+0x30>)
    266c:	7062      	strb	r2, [r4, #1]
    266e:	4798      	blx	r3
    2670:	8820      	ldrh	r0, [r4, #0]
    2672:	4b05      	ldr	r3, [pc, #20]	; (2688 <MiMAC_SetAltAddress+0x34>)
    2674:	4798      	blx	r3
    2676:	2001      	movs	r0, #1
    2678:	bd10      	pop	{r4, pc}
    267a:	46c0      	nop			; (mov r8, r8)
    267c:	20000440 	.word	0x20000440
    2680:	20000458 	.word	0x20000458
    2684:	00002f39 	.word	0x00002f39
    2688:	00002f19 	.word	0x00002f19

0000268c <MiMAC_Set>:
    268c:	b510      	push	{r4, lr}
    268e:	2800      	cmp	r0, #0
    2690:	d10a      	bne.n	26a8 <MiMAC_Set+0x1c>
    2692:	780b      	ldrb	r3, [r1, #0]
    2694:	2b1a      	cmp	r3, #26
    2696:	d900      	bls.n	269a <MiMAC_Set+0xe>
    2698:	bd10      	pop	{r4, pc}
    269a:	4a04      	ldr	r2, [pc, #16]	; (26ac <MiMAC_Set+0x20>)
    269c:	0018      	movs	r0, r3
    269e:	7013      	strb	r3, [r2, #0]
    26a0:	4b03      	ldr	r3, [pc, #12]	; (26b0 <MiMAC_Set+0x24>)
    26a2:	4798      	blx	r3
    26a4:	2001      	movs	r0, #1
    26a6:	e7f7      	b.n	2698 <MiMAC_Set+0xc>
    26a8:	2000      	movs	r0, #0
    26aa:	e7f5      	b.n	2698 <MiMAC_Set+0xc>
    26ac:	2000045a 	.word	0x2000045a
    26b0:	00002ef5 	.word	0x00002ef5

000026b4 <MiMAC_Init>:
    26b4:	b530      	push	{r4, r5, lr}
    26b6:	4b12      	ldr	r3, [pc, #72]	; (2700 <MiMAC_Init+0x4c>)
    26b8:	b083      	sub	sp, #12
    26ba:	9101      	str	r1, [sp, #4]
    26bc:	9000      	str	r0, [sp, #0]
    26be:	4798      	blx	r3
    26c0:	4d10      	ldr	r5, [pc, #64]	; (2704 <MiMAC_Init+0x50>)
    26c2:	466c      	mov	r4, sp
    26c4:	002b      	movs	r3, r5
    26c6:	cc06      	ldmia	r4!, {r1, r2}
    26c8:	c306      	stmia	r3!, {r1, r2}
    26ca:	4b0f      	ldr	r3, [pc, #60]	; (2708 <MiMAC_Init+0x54>)
    26cc:	4798      	blx	r3
    26ce:	0004      	movs	r4, r0
    26d0:	4b0e      	ldr	r3, [pc, #56]	; (270c <MiMAC_Init+0x58>)
    26d2:	2001      	movs	r0, #1
    26d4:	4798      	blx	r3
    26d6:	220b      	movs	r2, #11
    26d8:	4b0d      	ldr	r3, [pc, #52]	; (2710 <MiMAC_Init+0x5c>)
    26da:	6868      	ldr	r0, [r5, #4]
    26dc:	701c      	strb	r4, [r3, #0]
    26de:	4b0d      	ldr	r3, [pc, #52]	; (2714 <MiMAC_Init+0x60>)
    26e0:	701a      	strb	r2, [r3, #0]
    26e2:	4b0d      	ldr	r3, [pc, #52]	; (2718 <MiMAC_Init+0x64>)
    26e4:	4798      	blx	r3
    26e6:	2200      	movs	r2, #0
    26e8:	217f      	movs	r1, #127	; 0x7f
    26ea:	4b0c      	ldr	r3, [pc, #48]	; (271c <MiMAC_Init+0x68>)
    26ec:	2001      	movs	r0, #1
    26ee:	701a      	strb	r2, [r3, #0]
    26f0:	545a      	strb	r2, [r3, r1]
    26f2:	317f      	adds	r1, #127	; 0x7f
    26f4:	545a      	strb	r2, [r3, r1]
    26f6:	217e      	movs	r1, #126	; 0x7e
    26f8:	31ff      	adds	r1, #255	; 0xff
    26fa:	545a      	strb	r2, [r3, r1]
    26fc:	b003      	add	sp, #12
    26fe:	bd30      	pop	{r4, r5, pc}
    2700:	00002e35 	.word	0x00002e35
    2704:	20000448 	.word	0x20000448
    2708:	00002d61 	.word	0x00002d61
    270c:	00002e7d 	.word	0x00002e7d
    2710:	2000043c 	.word	0x2000043c
    2714:	2000045a 	.word	0x2000045a
    2718:	000030a9 	.word	0x000030a9
    271c:	2000045c 	.word	0x2000045c

00002720 <MiMAC_SendPacket>:
    2720:	b5f0      	push	{r4, r5, r6, r7, lr}
    2722:	4657      	mov	r7, sl
    2724:	464e      	mov	r6, r9
    2726:	4645      	mov	r5, r8
    2728:	46de      	mov	lr, fp
    272a:	468c      	mov	ip, r1
    272c:	b5e0      	push	{r5, r6, r7, lr}
    272e:	b0a7      	sub	sp, #156	; 0x9c
    2730:	4699      	mov	r9, r3
    2732:	ab30      	add	r3, sp, #192	; 0xc0
    2734:	781d      	ldrb	r5, [r3, #0]
    2736:	ab31      	add	r3, sp, #196	; 0xc4
    2738:	af03      	add	r7, sp, #12
    273a:	781b      	ldrb	r3, [r3, #0]
    273c:	9003      	str	r0, [sp, #12]
    273e:	b2c0      	uxtb	r0, r0
    2740:	6079      	str	r1, [r7, #4]
    2742:	0681      	lsls	r1, r0, #26
    2744:	0016      	movs	r6, r2
    2746:	9301      	str	r3, [sp, #4]
    2748:	0fcb      	lsrs	r3, r1, #31
    274a:	9300      	str	r3, [sp, #0]
    274c:	4663      	mov	r3, ip
    274e:	0a36      	lsrs	r6, r6, #8
    2750:	60ba      	str	r2, [r7, #8]
    2752:	9302      	str	r3, [sp, #8]
    2754:	b2d2      	uxtb	r2, r2
    2756:	b2f6      	uxtb	r6, r6
    2758:	0743      	lsls	r3, r0, #29
    275a:	d500      	bpl.n	275e <MiMAC_SendPacket+0x3e>
    275c:	2201      	movs	r2, #1
    275e:	2403      	movs	r4, #3
    2760:	4004      	ands	r4, r0
    2762:	2c01      	cmp	r4, #1
    2764:	d100      	bne.n	2768 <MiMAC_SendPacket+0x48>
    2766:	e0ce      	b.n	2906 <MiMAC_SendPacket+0x1e6>
    2768:	4263      	negs	r3, r4
    276a:	4163      	adcs	r3, r4
    276c:	b2db      	uxtb	r3, r3
    276e:	469c      	mov	ip, r3
    2770:	897b      	ldrh	r3, [r7, #10]
    2772:	469a      	mov	sl, r3
    2774:	4b79      	ldr	r3, [pc, #484]	; (295c <MiMAC_SendPacket+0x23c>)
    2776:	4698      	mov	r8, r3
    2778:	881b      	ldrh	r3, [r3, #0]
    277a:	4553      	cmp	r3, sl
    277c:	d100      	bne.n	2780 <MiMAC_SendPacket+0x60>
    277e:	e0d0      	b.n	2922 <MiMAC_SendPacket+0x202>
    2780:	2109      	movs	r1, #9
    2782:	468b      	mov	fp, r1
    2784:	2100      	movs	r1, #0
    2786:	230f      	movs	r3, #15
    2788:	468a      	mov	sl, r1
    278a:	2a00      	cmp	r2, #0
    278c:	d000      	beq.n	2790 <MiMAC_SendPacket+0x70>
    278e:	465b      	mov	r3, fp
    2790:	2e00      	cmp	r6, #0
    2792:	d068      	beq.n	2866 <MiMAC_SendPacket+0x146>
    2794:	2124      	movs	r1, #36	; 0x24
    2796:	3302      	adds	r3, #2
    2798:	b2db      	uxtb	r3, r3
    279a:	4008      	ands	r0, r1
    279c:	2820      	cmp	r0, #32
    279e:	d068      	beq.n	2872 <MiMAC_SendPacket+0x152>
    27a0:	2c03      	cmp	r4, #3
    27a2:	d06b      	beq.n	287c <MiMAC_SendPacket+0x15c>
    27a4:	ac06      	add	r4, sp, #24
    27a6:	195b      	adds	r3, r3, r5
    27a8:	7023      	strb	r3, [r4, #0]
    27aa:	4663      	mov	r3, ip
    27ac:	2020      	movs	r0, #32
    27ae:	7839      	ldrb	r1, [r7, #0]
    27b0:	7063      	strb	r3, [r4, #1]
    27b2:	9b00      	ldr	r3, [sp, #0]
    27b4:	4381      	bics	r1, r0
    27b6:	015b      	lsls	r3, r3, #5
    27b8:	4319      	orrs	r1, r3
    27ba:	43cb      	mvns	r3, r1
    27bc:	7039      	strb	r1, [r7, #0]
    27be:	079b      	lsls	r3, r3, #30
    27c0:	d100      	bne.n	27c4 <MiMAC_SendPacket+0xa4>
    27c2:	e0a3      	b.n	290c <MiMAC_SendPacket+0x1ec>
    27c4:	2a00      	cmp	r2, #0
    27c6:	d060      	beq.n	288a <MiMAC_SendPacket+0x16a>
    27c8:	2e00      	cmp	r6, #0
    27ca:	d000      	beq.n	27ce <MiMAC_SendPacket+0xae>
    27cc:	e0b7      	b.n	293e <MiMAC_SendPacket+0x21e>
    27ce:	23c8      	movs	r3, #200	; 0xc8
    27d0:	70a3      	strb	r3, [r4, #2]
    27d2:	4a63      	ldr	r2, [pc, #396]	; (2960 <MiMAC_SendPacket+0x240>)
    27d4:	7813      	ldrb	r3, [r2, #0]
    27d6:	1c58      	adds	r0, r3, #1
    27d8:	7010      	strb	r0, [r2, #0]
    27da:	70e3      	strb	r3, [r4, #3]
    27dc:	7abb      	ldrb	r3, [r7, #10]
    27de:	7123      	strb	r3, [r4, #4]
    27e0:	7afb      	ldrb	r3, [r7, #11]
    27e2:	7163      	strb	r3, [r4, #5]
    27e4:	074b      	lsls	r3, r1, #29
    27e6:	d400      	bmi.n	27ea <MiMAC_SendPacket+0xca>
    27e8:	e0ac      	b.n	2944 <MiMAC_SendPacket+0x224>
    27ea:	23ff      	movs	r3, #255	; 0xff
    27ec:	2208      	movs	r2, #8
    27ee:	2109      	movs	r1, #9
    27f0:	71a3      	strb	r3, [r4, #6]
    27f2:	71e3      	strb	r3, [r4, #7]
    27f4:	3bf7      	subs	r3, #247	; 0xf7
    27f6:	4650      	mov	r0, sl
    27f8:	2800      	cmp	r0, #0
    27fa:	d10a      	bne.n	2812 <MiMAC_SendPacket+0xf2>
    27fc:	4640      	mov	r0, r8
    27fe:	7800      	ldrb	r0, [r0, #0]
    2800:	54a0      	strb	r0, [r4, r2]
    2802:	4640      	mov	r0, r8
    2804:	1c9a      	adds	r2, r3, #2
    2806:	7840      	ldrb	r0, [r0, #1]
    2808:	3303      	adds	r3, #3
    280a:	b2d2      	uxtb	r2, r2
    280c:	5460      	strb	r0, [r4, r1]
    280e:	b2d9      	uxtb	r1, r3
    2810:	0013      	movs	r3, r2
    2812:	2e00      	cmp	r6, #0
    2814:	d054      	beq.n	28c0 <MiMAC_SendPacket+0x1a0>
    2816:	4853      	ldr	r0, [pc, #332]	; (2964 <MiMAC_SendPacket+0x244>)
    2818:	3302      	adds	r3, #2
    281a:	7806      	ldrb	r6, [r0, #0]
    281c:	b2db      	uxtb	r3, r3
    281e:	54a6      	strb	r6, [r4, r2]
    2820:	7842      	ldrb	r2, [r0, #1]
    2822:	5462      	strb	r2, [r4, r1]
    2824:	2d00      	cmp	r5, #0
    2826:	d009      	beq.n	283c <MiMAC_SendPacket+0x11c>
    2828:	464a      	mov	r2, r9
    282a:	18ed      	adds	r5, r5, r3
    282c:	b2ed      	uxtb	r5, r5
    282e:	7810      	ldrb	r0, [r2, #0]
    2830:	1c59      	adds	r1, r3, #1
    2832:	54e0      	strb	r0, [r4, r3]
    2834:	b2cb      	uxtb	r3, r1
    2836:	3201      	adds	r2, #1
    2838:	42ab      	cmp	r3, r5
    283a:	d1f8      	bne.n	282e <MiMAC_SendPacket+0x10e>
    283c:	464a      	mov	r2, r9
    283e:	4b4a      	ldr	r3, [pc, #296]	; (2968 <MiMAC_SendPacket+0x248>)
    2840:	0020      	movs	r0, r4
    2842:	601a      	str	r2, [r3, #0]
    2844:	9a32      	ldr	r2, [sp, #200]	; 0xc8
    2846:	4b49      	ldr	r3, [pc, #292]	; (296c <MiMAC_SendPacket+0x24c>)
    2848:	601a      	str	r2, [r3, #0]
    284a:	466a      	mov	r2, sp
    284c:	4b48      	ldr	r3, [pc, #288]	; (2970 <MiMAC_SendPacket+0x250>)
    284e:	7912      	ldrb	r2, [r2, #4]
    2850:	701a      	strb	r2, [r3, #0]
    2852:	4b48      	ldr	r3, [pc, #288]	; (2974 <MiMAC_SendPacket+0x254>)
    2854:	4798      	blx	r3
    2856:	2001      	movs	r0, #1
    2858:	b027      	add	sp, #156	; 0x9c
    285a:	bc3c      	pop	{r2, r3, r4, r5}
    285c:	4690      	mov	r8, r2
    285e:	4699      	mov	r9, r3
    2860:	46a2      	mov	sl, r4
    2862:	46ab      	mov	fp, r5
    2864:	bdf0      	pop	{r4, r5, r6, r7, pc}
    2866:	2124      	movs	r1, #36	; 0x24
    2868:	3308      	adds	r3, #8
    286a:	b2db      	uxtb	r3, r3
    286c:	4008      	ands	r0, r1
    286e:	2820      	cmp	r0, #32
    2870:	d196      	bne.n	27a0 <MiMAC_SendPacket+0x80>
    2872:	4661      	mov	r1, ip
    2874:	4301      	orrs	r1, r0
    2876:	468c      	mov	ip, r1
    2878:	2c03      	cmp	r4, #3
    287a:	d193      	bne.n	27a4 <MiMAC_SendPacket+0x84>
    287c:	2300      	movs	r3, #0
    287e:	2601      	movs	r6, #1
    2880:	9300      	str	r3, [sp, #0]
    2882:	469a      	mov	sl, r3
    2884:	469c      	mov	ip, r3
    2886:	3307      	adds	r3, #7
    2888:	e78c      	b.n	27a4 <MiMAC_SendPacket+0x84>
    288a:	2e00      	cmp	r6, #0
    288c:	d163      	bne.n	2956 <MiMAC_SendPacket+0x236>
    288e:	23cc      	movs	r3, #204	; 0xcc
    2890:	70a3      	strb	r3, [r4, #2]
    2892:	4a33      	ldr	r2, [pc, #204]	; (2960 <MiMAC_SendPacket+0x240>)
    2894:	7813      	ldrb	r3, [r2, #0]
    2896:	1c58      	adds	r0, r3, #1
    2898:	7010      	strb	r0, [r2, #0]
    289a:	70e3      	strb	r3, [r4, #3]
    289c:	7abb      	ldrb	r3, [r7, #10]
    289e:	7123      	strb	r3, [r4, #4]
    28a0:	7afb      	ldrb	r3, [r7, #11]
    28a2:	7163      	strb	r3, [r4, #5]
    28a4:	074b      	lsls	r3, r1, #29
    28a6:	d4a0      	bmi.n	27ea <MiMAC_SendPacket+0xca>
    28a8:	ab02      	add	r3, sp, #8
    28aa:	469c      	mov	ip, r3
    28ac:	2016      	movs	r0, #22
    28ae:	2208      	movs	r2, #8
    28b0:	9902      	ldr	r1, [sp, #8]
    28b2:	4b31      	ldr	r3, [pc, #196]	; (2978 <MiMAC_SendPacket+0x258>)
    28b4:	4460      	add	r0, ip
    28b6:	4798      	blx	r3
    28b8:	220e      	movs	r2, #14
    28ba:	210f      	movs	r1, #15
    28bc:	230e      	movs	r3, #14
    28be:	e79a      	b.n	27f6 <MiMAC_SendPacket+0xd6>
    28c0:	4a2e      	ldr	r2, [pc, #184]	; (297c <MiMAC_SendPacket+0x25c>)
    28c2:	6852      	ldr	r2, [r2, #4]
    28c4:	7811      	ldrb	r1, [r2, #0]
    28c6:	54e1      	strb	r1, [r4, r3]
    28c8:	7850      	ldrb	r0, [r2, #1]
    28ca:	1c59      	adds	r1, r3, #1
    28cc:	b2c9      	uxtb	r1, r1
    28ce:	5460      	strb	r0, [r4, r1]
    28d0:	7890      	ldrb	r0, [r2, #2]
    28d2:	1c99      	adds	r1, r3, #2
    28d4:	b2c9      	uxtb	r1, r1
    28d6:	5460      	strb	r0, [r4, r1]
    28d8:	78d0      	ldrb	r0, [r2, #3]
    28da:	1cd9      	adds	r1, r3, #3
    28dc:	b2c9      	uxtb	r1, r1
    28de:	5460      	strb	r0, [r4, r1]
    28e0:	7910      	ldrb	r0, [r2, #4]
    28e2:	1d19      	adds	r1, r3, #4
    28e4:	b2c9      	uxtb	r1, r1
    28e6:	5460      	strb	r0, [r4, r1]
    28e8:	7950      	ldrb	r0, [r2, #5]
    28ea:	1d59      	adds	r1, r3, #5
    28ec:	b2c9      	uxtb	r1, r1
    28ee:	5460      	strb	r0, [r4, r1]
    28f0:	7990      	ldrb	r0, [r2, #6]
    28f2:	1d99      	adds	r1, r3, #6
    28f4:	b2c9      	uxtb	r1, r1
    28f6:	5460      	strb	r0, [r4, r1]
    28f8:	79d1      	ldrb	r1, [r2, #7]
    28fa:	1dda      	adds	r2, r3, #7
    28fc:	b2d2      	uxtb	r2, r2
    28fe:	3308      	adds	r3, #8
    2900:	54a1      	strb	r1, [r4, r2]
    2902:	b2db      	uxtb	r3, r3
    2904:	e78e      	b.n	2824 <MiMAC_SendPacket+0x104>
    2906:	2303      	movs	r3, #3
    2908:	469c      	mov	ip, r3
    290a:	e731      	b.n	2770 <MiMAC_SendPacket+0x50>
    290c:	2380      	movs	r3, #128	; 0x80
    290e:	4a14      	ldr	r2, [pc, #80]	; (2960 <MiMAC_SendPacket+0x240>)
    2910:	70a3      	strb	r3, [r4, #2]
    2912:	7813      	ldrb	r3, [r2, #0]
    2914:	1c59      	adds	r1, r3, #1
    2916:	7011      	strb	r1, [r2, #0]
    2918:	70e3      	strb	r3, [r4, #3]
    291a:	2204      	movs	r2, #4
    291c:	2105      	movs	r1, #5
    291e:	2304      	movs	r3, #4
    2920:	e769      	b.n	27f6 <MiMAC_SendPacket+0xd6>
    2922:	4917      	ldr	r1, [pc, #92]	; (2980 <MiMAC_SendPacket+0x260>)
    2924:	428b      	cmp	r3, r1
    2926:	d100      	bne.n	292a <MiMAC_SendPacket+0x20a>
    2928:	e72a      	b.n	2780 <MiMAC_SendPacket+0x60>
    292a:	2340      	movs	r3, #64	; 0x40
    292c:	4661      	mov	r1, ip
    292e:	4319      	orrs	r1, r3
    2930:	468c      	mov	ip, r1
    2932:	2107      	movs	r1, #7
    2934:	468b      	mov	fp, r1
    2936:	3906      	subs	r1, #6
    2938:	3b33      	subs	r3, #51	; 0x33
    293a:	468a      	mov	sl, r1
    293c:	e725      	b.n	278a <MiMAC_SendPacket+0x6a>
    293e:	2388      	movs	r3, #136	; 0x88
    2940:	70a3      	strb	r3, [r4, #2]
    2942:	e746      	b.n	27d2 <MiMAC_SendPacket+0xb2>
    2944:	9a02      	ldr	r2, [sp, #8]
    2946:	2109      	movs	r1, #9
    2948:	7813      	ldrb	r3, [r2, #0]
    294a:	71a3      	strb	r3, [r4, #6]
    294c:	7853      	ldrb	r3, [r2, #1]
    294e:	2208      	movs	r2, #8
    2950:	71e3      	strb	r3, [r4, #7]
    2952:	2308      	movs	r3, #8
    2954:	e74f      	b.n	27f6 <MiMAC_SendPacket+0xd6>
    2956:	238c      	movs	r3, #140	; 0x8c
    2958:	70a3      	strb	r3, [r4, #2]
    295a:	e79a      	b.n	2892 <MiMAC_SendPacket+0x172>
    295c:	20000458 	.word	0x20000458
    2960:	2000043c 	.word	0x2000043c
    2964:	20000440 	.word	0x20000440
    2968:	20000218 	.word	0x20000218
    296c:	20000210 	.word	0x20000210
    2970:	20000214 	.word	0x20000214
    2974:	00002cf5 	.word	0x00002cf5
    2978:	000095df 	.word	0x000095df
    297c:	20000448 	.word	0x20000448
    2980:	0000ffff 	.word	0x0000ffff

00002984 <MiMAC_DiscardPacket>:
    2984:	4b04      	ldr	r3, [pc, #16]	; (2998 <MiMAC_DiscardPacket+0x14>)
    2986:	781b      	ldrb	r3, [r3, #0]
    2988:	2b03      	cmp	r3, #3
    298a:	d804      	bhi.n	2996 <MiMAC_DiscardPacket+0x12>
    298c:	2100      	movs	r1, #0
    298e:	01da      	lsls	r2, r3, #7
    2990:	1ad3      	subs	r3, r2, r3
    2992:	4a02      	ldr	r2, [pc, #8]	; (299c <MiMAC_DiscardPacket+0x18>)
    2994:	5499      	strb	r1, [r3, r2]
    2996:	4770      	bx	lr
    2998:	20000009 	.word	0x20000009
    299c:	2000045c 	.word	0x2000045c

000029a0 <MiMAC_ReceivedPacket>:
    29a0:	b5f0      	push	{r4, r5, r6, r7, lr}
    29a2:	46de      	mov	lr, fp
    29a4:	4657      	mov	r7, sl
    29a6:	464e      	mov	r6, r9
    29a8:	4645      	mov	r5, r8
    29aa:	23ff      	movs	r3, #255	; 0xff
    29ac:	b5e0      	push	{r5, r6, r7, lr}
    29ae:	49af      	ldr	r1, [pc, #700]	; (2c6c <MiMAC_ReceivedPacket+0x2cc>)
    29b0:	4aaf      	ldr	r2, [pc, #700]	; (2c70 <MiMAC_ReceivedPacket+0x2d0>)
    29b2:	700b      	strb	r3, [r1, #0]
    29b4:	7813      	ldrb	r3, [r2, #0]
    29b6:	2b00      	cmp	r3, #0
    29b8:	d000      	beq.n	29bc <MiMAC_ReceivedPacket+0x1c>
    29ba:	e0f6      	b.n	2baa <MiMAC_ReceivedPacket+0x20a>
    29bc:	337f      	adds	r3, #127	; 0x7f
    29be:	5cd3      	ldrb	r3, [r2, r3]
    29c0:	2b00      	cmp	r3, #0
    29c2:	d000      	beq.n	29c6 <MiMAC_ReceivedPacket+0x26>
    29c4:	e136      	b.n	2c34 <MiMAC_ReceivedPacket+0x294>
    29c6:	33fe      	adds	r3, #254	; 0xfe
    29c8:	5cd3      	ldrb	r3, [r2, r3]
    29ca:	2b00      	cmp	r3, #0
    29cc:	d000      	beq.n	29d0 <MiMAC_ReceivedPacket+0x30>
    29ce:	e134      	b.n	2c3a <MiMAC_ReceivedPacket+0x29a>
    29d0:	237e      	movs	r3, #126	; 0x7e
    29d2:	33ff      	adds	r3, #255	; 0xff
    29d4:	5cd3      	ldrb	r3, [r2, r3]
    29d6:	2b00      	cmp	r3, #0
    29d8:	d106      	bne.n	29e8 <MiMAC_ReceivedPacket+0x48>
    29da:	2000      	movs	r0, #0
    29dc:	bc3c      	pop	{r2, r3, r4, r5}
    29de:	4690      	mov	r8, r2
    29e0:	4699      	mov	r9, r3
    29e2:	46a2      	mov	sl, r4
    29e4:	46ab      	mov	fp, r5
    29e6:	bdf0      	pop	{r4, r5, r6, r7, pc}
    29e8:	2003      	movs	r0, #3
    29ea:	2703      	movs	r7, #3
    29ec:	01fc      	lsls	r4, r7, #7
    29ee:	7008      	strb	r0, [r1, #0]
    29f0:	1be1      	subs	r1, r4, r7
    29f2:	1856      	adds	r6, r2, r1
    29f4:	468b      	mov	fp, r1
    29f6:	7871      	ldrb	r1, [r6, #1]
    29f8:	468c      	mov	ip, r1
    29fa:	2140      	movs	r1, #64	; 0x40
    29fc:	4660      	mov	r0, ip
    29fe:	4008      	ands	r0, r1
    2a00:	4681      	mov	r9, r0
    2a02:	2000      	movs	r0, #0
    2a04:	499b      	ldr	r1, [pc, #620]	; (2c74 <MiMAC_ReceivedPacket+0x2d4>)
    2a06:	7008      	strb	r0, [r1, #0]
    2a08:	73c8      	strb	r0, [r1, #15]
    2a0a:	78b0      	ldrb	r0, [r6, #2]
    2a0c:	4682      	mov	sl, r0
    2a0e:	2033      	movs	r0, #51	; 0x33
    2a10:	4655      	mov	r5, sl
    2a12:	4385      	bics	r5, r0
    2a14:	2d88      	cmp	r5, #136	; 0x88
    2a16:	d037      	beq.n	2a88 <MiMAC_ReceivedPacket+0xe8>
    2a18:	d90b      	bls.n	2a32 <MiMAC_ReceivedPacket+0x92>
    2a1a:	2dc8      	cmp	r5, #200	; 0xc8
    2a1c:	d100      	bne.n	2a20 <MiMAC_ReceivedPacket+0x80>
    2a1e:	e08e      	b.n	2b3e <MiMAC_ReceivedPacket+0x19e>
    2a20:	2dcc      	cmp	r5, #204	; 0xcc
    2a22:	d076      	beq.n	2b12 <MiMAC_ReceivedPacket+0x172>
    2a24:	2d8c      	cmp	r5, #140	; 0x8c
    2a26:	d05b      	beq.n	2ae0 <MiMAC_ReceivedPacket+0x140>
    2a28:	2300      	movs	r3, #0
    2a2a:	1be4      	subs	r4, r4, r7
    2a2c:	5513      	strb	r3, [r2, r4]
    2a2e:	2000      	movs	r0, #0
    2a30:	e7d4      	b.n	29dc <MiMAC_ReceivedPacket+0x3c>
    2a32:	2d08      	cmp	r5, #8
    2a34:	d048      	beq.n	2ac8 <MiMAC_ReceivedPacket+0x128>
    2a36:	2d80      	cmp	r5, #128	; 0x80
    2a38:	d1f6      	bne.n	2a28 <MiMAC_ReceivedPacket+0x88>
    2a3a:	207c      	movs	r0, #124	; 0x7c
    2a3c:	4240      	negs	r0, r0
    2a3e:	7008      	strb	r0, [r1, #0]
    2a40:	307d      	adds	r0, #125	; 0x7d
    2a42:	73c8      	strb	r0, [r1, #15]
    2a44:	7930      	ldrb	r0, [r6, #4]
    2a46:	465d      	mov	r5, fp
    2a48:	7408      	strb	r0, [r1, #16]
    2a4a:	7970      	ldrb	r0, [r6, #5]
    2a4c:	3508      	adds	r5, #8
    2a4e:	7448      	strb	r0, [r1, #17]
    2a50:	4658      	mov	r0, fp
    2a52:	3006      	adds	r0, #6
    2a54:	1810      	adds	r0, r2, r0
    2a56:	6048      	str	r0, [r1, #4]
    2a58:	0018      	movs	r0, r3
    2a5a:	1955      	adds	r5, r2, r5
    2a5c:	380b      	subs	r0, #11
    2a5e:	7308      	strb	r0, [r1, #12]
    2a60:	608d      	str	r5, [r1, #8]
    2a62:	2008      	movs	r0, #8
    2a64:	4665      	mov	r5, ip
    2a66:	4028      	ands	r0, r5
    2a68:	d1de      	bne.n	2a28 <MiMAC_ReceivedPacket+0x88>
    2a6a:	2507      	movs	r5, #7
    2a6c:	4666      	mov	r6, ip
    2a6e:	4035      	ands	r5, r6
    2a70:	2d01      	cmp	r5, #1
    2a72:	d100      	bne.n	2a76 <MiMAC_ReceivedPacket+0xd6>
    2a74:	e080      	b.n	2b78 <MiMAC_ReceivedPacket+0x1d8>
    2a76:	2d00      	cmp	r5, #0
    2a78:	d100      	bne.n	2a7c <MiMAC_ReceivedPacket+0xdc>
    2a7a:	e091      	b.n	2ba0 <MiMAC_ReceivedPacket+0x200>
    2a7c:	2d03      	cmp	r5, #3
    2a7e:	d100      	bne.n	2a82 <MiMAC_ReceivedPacket+0xe2>
    2a80:	e088      	b.n	2b94 <MiMAC_ReceivedPacket+0x1f4>
    2a82:	1be4      	subs	r4, r4, r7
    2a84:	5510      	strb	r0, [r2, r4]
    2a86:	e7a8      	b.n	29da <MiMAC_ReceivedPacket+0x3a>
    2a88:	79b0      	ldrb	r0, [r6, #6]
    2a8a:	28ff      	cmp	r0, #255	; 0xff
    2a8c:	d100      	bne.n	2a90 <MiMAC_ReceivedPacket+0xf0>
    2a8e:	e0de      	b.n	2c4e <MiMAC_ReceivedPacket+0x2ae>
    2a90:	2080      	movs	r0, #128	; 0x80
    2a92:	780d      	ldrb	r5, [r1, #0]
    2a94:	4240      	negs	r0, r0
    2a96:	4328      	orrs	r0, r5
    2a98:	7008      	strb	r0, [r1, #0]
    2a9a:	2001      	movs	r0, #1
    2a9c:	73c8      	strb	r0, [r1, #15]
    2a9e:	4648      	mov	r0, r9
    2aa0:	2800      	cmp	r0, #0
    2aa2:	d000      	beq.n	2aa6 <MiMAC_ReceivedPacket+0x106>
    2aa4:	e095      	b.n	2bd2 <MiMAC_ReceivedPacket+0x232>
    2aa6:	1be0      	subs	r0, r4, r7
    2aa8:	1815      	adds	r5, r2, r0
    2aaa:	7a2e      	ldrb	r6, [r5, #8]
    2aac:	7a6d      	ldrb	r5, [r5, #9]
    2aae:	740e      	strb	r6, [r1, #16]
    2ab0:	744d      	strb	r5, [r1, #17]
    2ab2:	0005      	movs	r5, r0
    2ab4:	350a      	adds	r5, #10
    2ab6:	1955      	adds	r5, r2, r5
    2ab8:	604d      	str	r5, [r1, #4]
    2aba:	001d      	movs	r5, r3
    2abc:	300c      	adds	r0, #12
    2abe:	3d0f      	subs	r5, #15
    2ac0:	1810      	adds	r0, r2, r0
    2ac2:	730d      	strb	r5, [r1, #12]
    2ac4:	6088      	str	r0, [r1, #8]
    2ac6:	e7cc      	b.n	2a62 <MiMAC_ReceivedPacket+0xc2>
    2ac8:	79b0      	ldrb	r0, [r6, #6]
    2aca:	28ff      	cmp	r0, #255	; 0xff
    2acc:	d100      	bne.n	2ad0 <MiMAC_ReceivedPacket+0x130>
    2ace:	e0b7      	b.n	2c40 <MiMAC_ReceivedPacket+0x2a0>
    2ad0:	0018      	movs	r0, r3
    2ad2:	380a      	subs	r0, #10
    2ad4:	7308      	strb	r0, [r1, #12]
    2ad6:	1be0      	subs	r0, r4, r7
    2ad8:	3008      	adds	r0, #8
    2ada:	1810      	adds	r0, r2, r0
    2adc:	6088      	str	r0, [r1, #8]
    2ade:	e7c0      	b.n	2a62 <MiMAC_ReceivedPacket+0xc2>
    2ae0:	2080      	movs	r0, #128	; 0x80
    2ae2:	4240      	negs	r0, r0
    2ae4:	7008      	strb	r0, [r1, #0]
    2ae6:	3081      	adds	r0, #129	; 0x81
    2ae8:	73c8      	strb	r0, [r1, #15]
    2aea:	4648      	mov	r0, r9
    2aec:	2800      	cmp	r0, #0
    2aee:	d100      	bne.n	2af2 <MiMAC_ReceivedPacket+0x152>
    2af0:	e080      	b.n	2bf4 <MiMAC_ReceivedPacket+0x254>
    2af2:	7930      	ldrb	r0, [r6, #4]
    2af4:	465d      	mov	r5, fp
    2af6:	7408      	strb	r0, [r1, #16]
    2af8:	7970      	ldrb	r0, [r6, #5]
    2afa:	3510      	adds	r5, #16
    2afc:	7448      	strb	r0, [r1, #17]
    2afe:	4658      	mov	r0, fp
    2b00:	300e      	adds	r0, #14
    2b02:	1810      	adds	r0, r2, r0
    2b04:	6048      	str	r0, [r1, #4]
    2b06:	0018      	movs	r0, r3
    2b08:	1955      	adds	r5, r2, r5
    2b0a:	3813      	subs	r0, #19
    2b0c:	7308      	strb	r0, [r1, #12]
    2b0e:	608d      	str	r5, [r1, #8]
    2b10:	e7a7      	b.n	2a62 <MiMAC_ReceivedPacket+0xc2>
    2b12:	2080      	movs	r0, #128	; 0x80
    2b14:	4240      	negs	r0, r0
    2b16:	7008      	strb	r0, [r1, #0]
    2b18:	4648      	mov	r0, r9
    2b1a:	2800      	cmp	r0, #0
    2b1c:	d07a      	beq.n	2c14 <MiMAC_ReceivedPacket+0x274>
    2b1e:	7930      	ldrb	r0, [r6, #4]
    2b20:	465d      	mov	r5, fp
    2b22:	7408      	strb	r0, [r1, #16]
    2b24:	7970      	ldrb	r0, [r6, #5]
    2b26:	3516      	adds	r5, #22
    2b28:	7448      	strb	r0, [r1, #17]
    2b2a:	4658      	mov	r0, fp
    2b2c:	300e      	adds	r0, #14
    2b2e:	1810      	adds	r0, r2, r0
    2b30:	6048      	str	r0, [r1, #4]
    2b32:	0018      	movs	r0, r3
    2b34:	1955      	adds	r5, r2, r5
    2b36:	3819      	subs	r0, #25
    2b38:	7308      	strb	r0, [r1, #12]
    2b3a:	608d      	str	r5, [r1, #8]
    2b3c:	e791      	b.n	2a62 <MiMAC_ReceivedPacket+0xc2>
    2b3e:	79b0      	ldrb	r0, [r6, #6]
    2b40:	28ff      	cmp	r0, #255	; 0xff
    2b42:	d100      	bne.n	2b46 <MiMAC_ReceivedPacket+0x1a6>
    2b44:	e08a      	b.n	2c5c <MiMAC_ReceivedPacket+0x2bc>
    2b46:	2080      	movs	r0, #128	; 0x80
    2b48:	780d      	ldrb	r5, [r1, #0]
    2b4a:	4240      	negs	r0, r0
    2b4c:	4328      	orrs	r0, r5
    2b4e:	7008      	strb	r0, [r1, #0]
    2b50:	4648      	mov	r0, r9
    2b52:	2800      	cmp	r0, #0
    2b54:	d02c      	beq.n	2bb0 <MiMAC_ReceivedPacket+0x210>
    2b56:	1be0      	subs	r0, r4, r7
    2b58:	1815      	adds	r5, r2, r0
    2b5a:	792e      	ldrb	r6, [r5, #4]
    2b5c:	796d      	ldrb	r5, [r5, #5]
    2b5e:	740e      	strb	r6, [r1, #16]
    2b60:	744d      	strb	r5, [r1, #17]
    2b62:	0005      	movs	r5, r0
    2b64:	3508      	adds	r5, #8
    2b66:	1955      	adds	r5, r2, r5
    2b68:	604d      	str	r5, [r1, #4]
    2b6a:	001d      	movs	r5, r3
    2b6c:	3010      	adds	r0, #16
    2b6e:	3d13      	subs	r5, #19
    2b70:	1810      	adds	r0, r2, r0
    2b72:	730d      	strb	r5, [r1, #12]
    2b74:	6088      	str	r0, [r1, #8]
    2b76:	e774      	b.n	2a62 <MiMAC_ReceivedPacket+0xc2>
    2b78:	2503      	movs	r5, #3
    2b7a:	7808      	ldrb	r0, [r1, #0]
    2b7c:	43a8      	bics	r0, r5
    2b7e:	7008      	strb	r0, [r1, #0]
    2b80:	1be4      	subs	r4, r4, r7
    2b82:	1912      	adds	r2, r2, r4
    2b84:	18d0      	adds	r0, r2, r3
    2b86:	3801      	subs	r0, #1
    2b88:	7800      	ldrb	r0, [r0, #0]
    2b8a:	5cd3      	ldrb	r3, [r2, r3]
    2b8c:	7388      	strb	r0, [r1, #14]
    2b8e:	734b      	strb	r3, [r1, #13]
    2b90:	2001      	movs	r0, #1
    2b92:	e723      	b.n	29dc <MiMAC_ReceivedPacket+0x3c>
    2b94:	7808      	ldrb	r0, [r1, #0]
    2b96:	43a8      	bics	r0, r5
    2b98:	2501      	movs	r5, #1
    2b9a:	4328      	orrs	r0, r5
    2b9c:	7008      	strb	r0, [r1, #0]
    2b9e:	e7ef      	b.n	2b80 <MiMAC_ReceivedPacket+0x1e0>
    2ba0:	2503      	movs	r5, #3
    2ba2:	7808      	ldrb	r0, [r1, #0]
    2ba4:	4328      	orrs	r0, r5
    2ba6:	7008      	strb	r0, [r1, #0]
    2ba8:	e7ea      	b.n	2b80 <MiMAC_ReceivedPacket+0x1e0>
    2baa:	2000      	movs	r0, #0
    2bac:	2700      	movs	r7, #0
    2bae:	e71d      	b.n	29ec <MiMAC_ReceivedPacket+0x4c>
    2bb0:	1be0      	subs	r0, r4, r7
    2bb2:	1815      	adds	r5, r2, r0
    2bb4:	7a2e      	ldrb	r6, [r5, #8]
    2bb6:	7a6d      	ldrb	r5, [r5, #9]
    2bb8:	740e      	strb	r6, [r1, #16]
    2bba:	744d      	strb	r5, [r1, #17]
    2bbc:	0005      	movs	r5, r0
    2bbe:	350a      	adds	r5, #10
    2bc0:	1955      	adds	r5, r2, r5
    2bc2:	604d      	str	r5, [r1, #4]
    2bc4:	001d      	movs	r5, r3
    2bc6:	3012      	adds	r0, #18
    2bc8:	3d15      	subs	r5, #21
    2bca:	1810      	adds	r0, r2, r0
    2bcc:	730d      	strb	r5, [r1, #12]
    2bce:	6088      	str	r0, [r1, #8]
    2bd0:	e747      	b.n	2a62 <MiMAC_ReceivedPacket+0xc2>
    2bd2:	1be0      	subs	r0, r4, r7
    2bd4:	1815      	adds	r5, r2, r0
    2bd6:	792e      	ldrb	r6, [r5, #4]
    2bd8:	796d      	ldrb	r5, [r5, #5]
    2bda:	740e      	strb	r6, [r1, #16]
    2bdc:	744d      	strb	r5, [r1, #17]
    2bde:	0005      	movs	r5, r0
    2be0:	3508      	adds	r5, #8
    2be2:	1955      	adds	r5, r2, r5
    2be4:	604d      	str	r5, [r1, #4]
    2be6:	001d      	movs	r5, r3
    2be8:	300a      	adds	r0, #10
    2bea:	3d0d      	subs	r5, #13
    2bec:	1810      	adds	r0, r2, r0
    2bee:	730d      	strb	r5, [r1, #12]
    2bf0:	6088      	str	r0, [r1, #8]
    2bf2:	e736      	b.n	2a62 <MiMAC_ReceivedPacket+0xc2>
    2bf4:	7b70      	ldrb	r0, [r6, #13]
    2bf6:	465d      	mov	r5, fp
    2bf8:	7408      	strb	r0, [r1, #16]
    2bfa:	7bb0      	ldrb	r0, [r6, #14]
    2bfc:	3512      	adds	r5, #18
    2bfe:	7448      	strb	r0, [r1, #17]
    2c00:	4658      	mov	r0, fp
    2c02:	300f      	adds	r0, #15
    2c04:	1810      	adds	r0, r2, r0
    2c06:	6048      	str	r0, [r1, #4]
    2c08:	0018      	movs	r0, r3
    2c0a:	1955      	adds	r5, r2, r5
    2c0c:	3815      	subs	r0, #21
    2c0e:	7308      	strb	r0, [r1, #12]
    2c10:	608d      	str	r5, [r1, #8]
    2c12:	e726      	b.n	2a62 <MiMAC_ReceivedPacket+0xc2>
    2c14:	7bb0      	ldrb	r0, [r6, #14]
    2c16:	465d      	mov	r5, fp
    2c18:	7408      	strb	r0, [r1, #16]
    2c1a:	7bf0      	ldrb	r0, [r6, #15]
    2c1c:	3518      	adds	r5, #24
    2c1e:	7448      	strb	r0, [r1, #17]
    2c20:	4658      	mov	r0, fp
    2c22:	3010      	adds	r0, #16
    2c24:	1810      	adds	r0, r2, r0
    2c26:	6048      	str	r0, [r1, #4]
    2c28:	0018      	movs	r0, r3
    2c2a:	1955      	adds	r5, r2, r5
    2c2c:	381b      	subs	r0, #27
    2c2e:	7308      	strb	r0, [r1, #12]
    2c30:	608d      	str	r5, [r1, #8]
    2c32:	e716      	b.n	2a62 <MiMAC_ReceivedPacket+0xc2>
    2c34:	2001      	movs	r0, #1
    2c36:	2701      	movs	r7, #1
    2c38:	e6d8      	b.n	29ec <MiMAC_ReceivedPacket+0x4c>
    2c3a:	2002      	movs	r0, #2
    2c3c:	2702      	movs	r7, #2
    2c3e:	e6d5      	b.n	29ec <MiMAC_ReceivedPacket+0x4c>
    2c40:	79f0      	ldrb	r0, [r6, #7]
    2c42:	28ff      	cmp	r0, #255	; 0xff
    2c44:	d000      	beq.n	2c48 <MiMAC_ReceivedPacket+0x2a8>
    2c46:	e743      	b.n	2ad0 <MiMAC_ReceivedPacket+0x130>
    2c48:	2004      	movs	r0, #4
    2c4a:	7008      	strb	r0, [r1, #0]
    2c4c:	e740      	b.n	2ad0 <MiMAC_ReceivedPacket+0x130>
    2c4e:	79f0      	ldrb	r0, [r6, #7]
    2c50:	28ff      	cmp	r0, #255	; 0xff
    2c52:	d000      	beq.n	2c56 <MiMAC_ReceivedPacket+0x2b6>
    2c54:	e71c      	b.n	2a90 <MiMAC_ReceivedPacket+0xf0>
    2c56:	2004      	movs	r0, #4
    2c58:	7008      	strb	r0, [r1, #0]
    2c5a:	e719      	b.n	2a90 <MiMAC_ReceivedPacket+0xf0>
    2c5c:	79f0      	ldrb	r0, [r6, #7]
    2c5e:	28ff      	cmp	r0, #255	; 0xff
    2c60:	d000      	beq.n	2c64 <MiMAC_ReceivedPacket+0x2c4>
    2c62:	e770      	b.n	2b46 <MiMAC_ReceivedPacket+0x1a6>
    2c64:	2004      	movs	r0, #4
    2c66:	7008      	strb	r0, [r1, #0]
    2c68:	e76d      	b.n	2b46 <MiMAC_ReceivedPacket+0x1a6>
    2c6a:	46c0      	nop			; (mov r8, r8)
    2c6c:	20000009 	.word	0x20000009
    2c70:	2000045c 	.word	0x2000045c
    2c74:	20002080 	.word	0x20002080

00002c78 <MiMAC_ChannelAssessment>:
    2c78:	0003      	movs	r3, r0
    2c7a:	b510      	push	{r4, lr}
    2c7c:	2000      	movs	r0, #0
    2c7e:	2b01      	cmp	r3, #1
    2c80:	d000      	beq.n	2c84 <MiMAC_ChannelAssessment+0xc>
    2c82:	bd10      	pop	{r4, pc}
    2c84:	4b01      	ldr	r3, [pc, #4]	; (2c8c <MiMAC_ChannelAssessment+0x14>)
    2c86:	4798      	blx	r3
    2c88:	e7fb      	b.n	2c82 <MiMAC_ChannelAssessment+0xa>
    2c8a:	46c0      	nop			; (mov r8, r8)
    2c8c:	00002fb1 	.word	0x00002fb1

00002c90 <MiMAC_SymbolToTicks>:
    2c90:	0100      	lsls	r0, r0, #4
    2c92:	4770      	bx	lr

00002c94 <MiMAC_GetPHYChannelInfo>:
    2c94:	4800      	ldr	r0, [pc, #0]	; (2c98 <MiMAC_GetPHYChannelInfo+0x4>)
    2c96:	4770      	bx	lr
    2c98:	07fff800 	.word	0x07fff800

00002c9c <PHY_DataConf>:
    2c9c:	2201      	movs	r2, #1
    2c9e:	4b02      	ldr	r3, [pc, #8]	; (2ca8 <PHY_DataConf+0xc>)
    2ca0:	7018      	strb	r0, [r3, #0]
    2ca2:	4b02      	ldr	r3, [pc, #8]	; (2cac <PHY_DataConf+0x10>)
    2ca4:	701a      	strb	r2, [r3, #0]
    2ca6:	4770      	bx	lr
    2ca8:	20000450 	.word	0x20000450
    2cac:	2000020f 	.word	0x2000020f

00002cb0 <MiMAC_Task>:
    2cb0:	4b0a      	ldr	r3, [pc, #40]	; (2cdc <MiMAC_Task+0x2c>)
    2cb2:	b510      	push	{r4, lr}
    2cb4:	4798      	blx	r3
    2cb6:	4b0a      	ldr	r3, [pc, #40]	; (2ce0 <MiMAC_Task+0x30>)
    2cb8:	681b      	ldr	r3, [r3, #0]
    2cba:	2b00      	cmp	r3, #0
    2cbc:	d00c      	beq.n	2cd8 <MiMAC_Task+0x28>
    2cbe:	4c09      	ldr	r4, [pc, #36]	; (2ce4 <MiMAC_Task+0x34>)
    2cc0:	7822      	ldrb	r2, [r4, #0]
    2cc2:	2a00      	cmp	r2, #0
    2cc4:	d008      	beq.n	2cd8 <MiMAC_Task+0x28>
    2cc6:	4a08      	ldr	r2, [pc, #32]	; (2ce8 <MiMAC_Task+0x38>)
    2cc8:	4908      	ldr	r1, [pc, #32]	; (2cec <MiMAC_Task+0x3c>)
    2cca:	4809      	ldr	r0, [pc, #36]	; (2cf0 <MiMAC_Task+0x40>)
    2ccc:	6812      	ldr	r2, [r2, #0]
    2cce:	7809      	ldrb	r1, [r1, #0]
    2cd0:	7800      	ldrb	r0, [r0, #0]
    2cd2:	4798      	blx	r3
    2cd4:	2300      	movs	r3, #0
    2cd6:	7023      	strb	r3, [r4, #0]
    2cd8:	bd10      	pop	{r4, pc}
    2cda:	46c0      	nop			; (mov r8, r8)
    2cdc:	000030c9 	.word	0x000030c9
    2ce0:	20000210 	.word	0x20000210
    2ce4:	2000020f 	.word	0x2000020f
    2ce8:	20000218 	.word	0x20000218
    2cec:	20000450 	.word	0x20000450
    2cf0:	20000214 	.word	0x20000214

00002cf4 <PHY_DataReq>:
    2cf4:	b5f8      	push	{r3, r4, r5, r6, r7, lr}
    2cf6:	0007      	movs	r7, r0
    2cf8:	261f      	movs	r6, #31
    2cfa:	4d14      	ldr	r5, [pc, #80]	; (2d4c <PHY_DataReq+0x58>)
    2cfc:	4c14      	ldr	r4, [pc, #80]	; (2d50 <PHY_DataReq+0x5c>)
    2cfe:	2103      	movs	r1, #3
    2d00:	2002      	movs	r0, #2
    2d02:	47a8      	blx	r5
    2d04:	2001      	movs	r0, #1
    2d06:	47a0      	blx	r4
    2d08:	4030      	ands	r0, r6
    2d0a:	2808      	cmp	r0, #8
    2d0c:	d1f7      	bne.n	2cfe <PHY_DataReq+0xa>
    2d0e:	261f      	movs	r6, #31
    2d10:	2119      	movs	r1, #25
    2d12:	2002      	movs	r0, #2
    2d14:	47a8      	blx	r5
    2d16:	2001      	movs	r0, #1
    2d18:	47a0      	blx	r4
    2d1a:	4030      	ands	r0, r6
    2d1c:	2819      	cmp	r0, #25
    2d1e:	d1f7      	bne.n	2d10 <PHY_DataReq+0x1c>
    2d20:	380a      	subs	r0, #10
    2d22:	47a0      	blx	r4
    2d24:	7839      	ldrb	r1, [r7, #0]
    2d26:	0038      	movs	r0, r7
    2d28:	1c8b      	adds	r3, r1, #2
    2d2a:	3101      	adds	r1, #1
    2d2c:	703b      	strb	r3, [r7, #0]
    2d2e:	b2c9      	uxtb	r1, r1
    2d30:	4b08      	ldr	r3, [pc, #32]	; (2d54 <PHY_DataReq+0x60>)
    2d32:	4798      	blx	r3
    2d34:	2203      	movs	r2, #3
    2d36:	4b08      	ldr	r3, [pc, #32]	; (2d58 <PHY_DataReq+0x64>)
    2d38:	701a      	strb	r2, [r3, #0]
    2d3a:	2280      	movs	r2, #128	; 0x80
    2d3c:	4b07      	ldr	r3, [pc, #28]	; (2d5c <PHY_DataReq+0x68>)
    2d3e:	0352      	lsls	r2, r2, #13
    2d40:	619a      	str	r2, [r3, #24]
    2d42:	46c0      	nop			; (mov r8, r8)
    2d44:	46c0      	nop			; (mov r8, r8)
    2d46:	615a      	str	r2, [r3, #20]
    2d48:	bdf8      	pop	{r3, r4, r5, r6, r7, pc}
    2d4a:	46c0      	nop			; (mov r8, r8)
    2d4c:	000041b9 	.word	0x000041b9
    2d50:	000040bd 	.word	0x000040bd
    2d54:	00004401 	.word	0x00004401
    2d58:	2000029d 	.word	0x2000029d
    2d5c:	41004400 	.word	0x41004400

00002d60 <PHY_RandomReq>:
    2d60:	b5f8      	push	{r3, r4, r5, r6, r7, lr}
    2d62:	46ce      	mov	lr, r9
    2d64:	4647      	mov	r7, r8
    2d66:	261f      	movs	r6, #31
    2d68:	b580      	push	{r7, lr}
    2d6a:	4d2d      	ldr	r5, [pc, #180]	; (2e20 <PHY_RandomReq+0xc0>)
    2d6c:	4c2d      	ldr	r4, [pc, #180]	; (2e24 <PHY_RandomReq+0xc4>)
    2d6e:	2103      	movs	r1, #3
    2d70:	2002      	movs	r0, #2
    2d72:	47a8      	blx	r5
    2d74:	2001      	movs	r0, #1
    2d76:	47a0      	blx	r4
    2d78:	4030      	ands	r0, r6
    2d7a:	2808      	cmp	r0, #8
    2d7c:	d1f7      	bne.n	2d6e <PHY_RandomReq+0xe>
    2d7e:	261f      	movs	r6, #31
    2d80:	2106      	movs	r1, #6
    2d82:	2002      	movs	r0, #2
    2d84:	47a8      	blx	r5
    2d86:	2001      	movs	r0, #1
    2d88:	47a0      	blx	r4
    2d8a:	4030      	ands	r0, r6
    2d8c:	2806      	cmp	r0, #6
    2d8e:	d1f7      	bne.n	2d80 <PHY_RandomReq+0x20>
    2d90:	2300      	movs	r3, #0
    2d92:	4699      	mov	r9, r3
    2d94:	4b24      	ldr	r3, [pc, #144]	; (2e28 <PHY_RandomReq+0xc8>)
    2d96:	2600      	movs	r6, #0
    2d98:	4698      	mov	r8, r3
    2d9a:	2703      	movs	r7, #3
    2d9c:	2001      	movs	r0, #1
    2d9e:	47c0      	blx	r8
    2da0:	2006      	movs	r0, #6
    2da2:	47a0      	blx	r4
    2da4:	0940      	lsrs	r0, r0, #5
    2da6:	4038      	ands	r0, r7
    2da8:	464b      	mov	r3, r9
    2daa:	40b0      	lsls	r0, r6
    2dac:	4318      	orrs	r0, r3
    2dae:	b283      	uxth	r3, r0
    2db0:	3602      	adds	r6, #2
    2db2:	4699      	mov	r9, r3
    2db4:	2e10      	cmp	r6, #16
    2db6:	d1f1      	bne.n	2d9c <PHY_RandomReq+0x3c>
    2db8:	360f      	adds	r6, #15
    2dba:	2103      	movs	r1, #3
    2dbc:	2002      	movs	r0, #2
    2dbe:	47a8      	blx	r5
    2dc0:	2001      	movs	r0, #1
    2dc2:	47a0      	blx	r4
    2dc4:	4030      	ands	r0, r6
    2dc6:	2808      	cmp	r0, #8
    2dc8:	d1f7      	bne.n	2dba <PHY_RandomReq+0x5a>
    2dca:	261f      	movs	r6, #31
    2dcc:	2108      	movs	r1, #8
    2dce:	2002      	movs	r0, #2
    2dd0:	47a8      	blx	r5
    2dd2:	2001      	movs	r0, #1
    2dd4:	47a0      	blx	r4
    2dd6:	4030      	ands	r0, r6
    2dd8:	2808      	cmp	r0, #8
    2dda:	d1f7      	bne.n	2dcc <PHY_RandomReq+0x6c>
    2ddc:	3007      	adds	r0, #7
    2dde:	47a0      	blx	r4
    2de0:	4b12      	ldr	r3, [pc, #72]	; (2e2c <PHY_RandomReq+0xcc>)
    2de2:	781b      	ldrb	r3, [r3, #0]
    2de4:	2b00      	cmp	r3, #0
    2de6:	d104      	bne.n	2df2 <PHY_RandomReq+0x92>
    2de8:	4648      	mov	r0, r9
    2dea:	bc0c      	pop	{r2, r3}
    2dec:	4690      	mov	r8, r2
    2dee:	4699      	mov	r9, r3
    2df0:	bdf8      	pop	{r3, r4, r5, r6, r7, pc}
    2df2:	261f      	movs	r6, #31
    2df4:	2103      	movs	r1, #3
    2df6:	2002      	movs	r0, #2
    2df8:	47a8      	blx	r5
    2dfa:	2001      	movs	r0, #1
    2dfc:	47a0      	blx	r4
    2dfe:	4030      	ands	r0, r6
    2e00:	2808      	cmp	r0, #8
    2e02:	d1f7      	bne.n	2df4 <PHY_RandomReq+0x94>
    2e04:	261f      	movs	r6, #31
    2e06:	2116      	movs	r1, #22
    2e08:	2002      	movs	r0, #2
    2e0a:	47a8      	blx	r5
    2e0c:	2001      	movs	r0, #1
    2e0e:	47a0      	blx	r4
    2e10:	4030      	ands	r0, r6
    2e12:	2816      	cmp	r0, #22
    2e14:	d1f7      	bne.n	2e06 <PHY_RandomReq+0xa6>
    2e16:	2201      	movs	r2, #1
    2e18:	4b05      	ldr	r3, [pc, #20]	; (2e30 <PHY_RandomReq+0xd0>)
    2e1a:	701a      	strb	r2, [r3, #0]
    2e1c:	e7e4      	b.n	2de8 <PHY_RandomReq+0x88>
    2e1e:	46c0      	nop			; (mov r8, r8)
    2e20:	000041b9 	.word	0x000041b9
    2e24:	000040bd 	.word	0x000040bd
    2e28:	00000155 	.word	0x00000155
    2e2c:	2000029c 	.word	0x2000029c
    2e30:	2000029d 	.word	0x2000029d

00002e34 <PHY_Init>:
    2e34:	b570      	push	{r4, r5, r6, lr}
    2e36:	4b0c      	ldr	r3, [pc, #48]	; (2e68 <PHY_Init+0x34>)
    2e38:	4798      	blx	r3
    2e3a:	4b0c      	ldr	r3, [pc, #48]	; (2e6c <PHY_Init+0x38>)
    2e3c:	4798      	blx	r3
    2e3e:	2200      	movs	r2, #0
    2e40:	251f      	movs	r5, #31
    2e42:	4b0b      	ldr	r3, [pc, #44]	; (2e70 <PHY_Init+0x3c>)
    2e44:	4c0b      	ldr	r4, [pc, #44]	; (2e74 <PHY_Init+0x40>)
    2e46:	4e0c      	ldr	r6, [pc, #48]	; (2e78 <PHY_Init+0x44>)
    2e48:	701a      	strb	r2, [r3, #0]
    2e4a:	2108      	movs	r1, #8
    2e4c:	2002      	movs	r0, #2
    2e4e:	47a0      	blx	r4
    2e50:	2001      	movs	r0, #1
    2e52:	47b0      	blx	r6
    2e54:	4028      	ands	r0, r5
    2e56:	2808      	cmp	r0, #8
    2e58:	d1f7      	bne.n	2e4a <PHY_Init+0x16>
    2e5a:	212e      	movs	r1, #46	; 0x2e
    2e5c:	3804      	subs	r0, #4
    2e5e:	47a0      	blx	r4
    2e60:	21a0      	movs	r1, #160	; 0xa0
    2e62:	200c      	movs	r0, #12
    2e64:	47a0      	blx	r4
    2e66:	bd70      	pop	{r4, r5, r6, pc}
    2e68:	00003f71 	.word	0x00003f71
    2e6c:	0000408d 	.word	0x0000408d
    2e70:	2000029c 	.word	0x2000029c
    2e74:	000041b9 	.word	0x000041b9
    2e78:	000040bd 	.word	0x000040bd

00002e7c <PHY_SetRxState>:
    2e7c:	b5f8      	push	{r3, r4, r5, r6, r7, lr}
    2e7e:	261f      	movs	r6, #31
    2e80:	4f18      	ldr	r7, [pc, #96]	; (2ee4 <PHY_SetRxState+0x68>)
    2e82:	4d19      	ldr	r5, [pc, #100]	; (2ee8 <PHY_SetRxState+0x6c>)
    2e84:	4c19      	ldr	r4, [pc, #100]	; (2eec <PHY_SetRxState+0x70>)
    2e86:	7038      	strb	r0, [r7, #0]
    2e88:	2103      	movs	r1, #3
    2e8a:	2002      	movs	r0, #2
    2e8c:	47a8      	blx	r5
    2e8e:	2001      	movs	r0, #1
    2e90:	47a0      	blx	r4
    2e92:	4030      	ands	r0, r6
    2e94:	2808      	cmp	r0, #8
    2e96:	d1f7      	bne.n	2e88 <PHY_SetRxState+0xc>
    2e98:	261f      	movs	r6, #31
    2e9a:	2108      	movs	r1, #8
    2e9c:	2002      	movs	r0, #2
    2e9e:	47a8      	blx	r5
    2ea0:	2001      	movs	r0, #1
    2ea2:	47a0      	blx	r4
    2ea4:	4030      	ands	r0, r6
    2ea6:	2808      	cmp	r0, #8
    2ea8:	d1f7      	bne.n	2e9a <PHY_SetRxState+0x1e>
    2eaa:	3007      	adds	r0, #7
    2eac:	47a0      	blx	r4
    2eae:	783b      	ldrb	r3, [r7, #0]
    2eb0:	2b00      	cmp	r3, #0
    2eb2:	d100      	bne.n	2eb6 <PHY_SetRxState+0x3a>
    2eb4:	bdf8      	pop	{r3, r4, r5, r6, r7, pc}
    2eb6:	261f      	movs	r6, #31
    2eb8:	2103      	movs	r1, #3
    2eba:	2002      	movs	r0, #2
    2ebc:	47a8      	blx	r5
    2ebe:	2001      	movs	r0, #1
    2ec0:	47a0      	blx	r4
    2ec2:	4030      	ands	r0, r6
    2ec4:	2808      	cmp	r0, #8
    2ec6:	d1f7      	bne.n	2eb8 <PHY_SetRxState+0x3c>
    2ec8:	261f      	movs	r6, #31
    2eca:	2116      	movs	r1, #22
    2ecc:	2002      	movs	r0, #2
    2ece:	47a8      	blx	r5
    2ed0:	2001      	movs	r0, #1
    2ed2:	47a0      	blx	r4
    2ed4:	4030      	ands	r0, r6
    2ed6:	2816      	cmp	r0, #22
    2ed8:	d1f7      	bne.n	2eca <PHY_SetRxState+0x4e>
    2eda:	2201      	movs	r2, #1
    2edc:	4b04      	ldr	r3, [pc, #16]	; (2ef0 <PHY_SetRxState+0x74>)
    2ede:	701a      	strb	r2, [r3, #0]
    2ee0:	e7e8      	b.n	2eb4 <PHY_SetRxState+0x38>
    2ee2:	46c0      	nop			; (mov r8, r8)
    2ee4:	2000029c 	.word	0x2000029c
    2ee8:	000041b9 	.word	0x000041b9
    2eec:	000040bd 	.word	0x000040bd
    2ef0:	2000029d 	.word	0x2000029d

00002ef4 <PHY_SetChannel>:
    2ef4:	b510      	push	{r4, lr}
    2ef6:	4b06      	ldr	r3, [pc, #24]	; (2f10 <PHY_SetChannel+0x1c>)
    2ef8:	0004      	movs	r4, r0
    2efa:	2008      	movs	r0, #8
    2efc:	4798      	blx	r3
    2efe:	231f      	movs	r3, #31
    2f00:	0001      	movs	r1, r0
    2f02:	4399      	bics	r1, r3
    2f04:	4321      	orrs	r1, r4
    2f06:	b2c9      	uxtb	r1, r1
    2f08:	2008      	movs	r0, #8
    2f0a:	4b02      	ldr	r3, [pc, #8]	; (2f14 <PHY_SetChannel+0x20>)
    2f0c:	4798      	blx	r3
    2f0e:	bd10      	pop	{r4, pc}
    2f10:	000040bd 	.word	0x000040bd
    2f14:	000041b9 	.word	0x000041b9

00002f18 <PHY_SetPanId>:
    2f18:	b530      	push	{r4, r5, lr}
    2f1a:	b083      	sub	sp, #12
    2f1c:	466b      	mov	r3, sp
    2f1e:	b2c1      	uxtb	r1, r0
    2f20:	1d9d      	adds	r5, r3, #6
    2f22:	80d8      	strh	r0, [r3, #6]
    2f24:	4c03      	ldr	r4, [pc, #12]	; (2f34 <PHY_SetPanId+0x1c>)
    2f26:	2022      	movs	r0, #34	; 0x22
    2f28:	47a0      	blx	r4
    2f2a:	7869      	ldrb	r1, [r5, #1]
    2f2c:	2023      	movs	r0, #35	; 0x23
    2f2e:	47a0      	blx	r4
    2f30:	b003      	add	sp, #12
    2f32:	bd30      	pop	{r4, r5, pc}
    2f34:	000041b9 	.word	0x000041b9

00002f38 <PHY_SetShortAddr>:
    2f38:	b570      	push	{r4, r5, r6, lr}
    2f3a:	b082      	sub	sp, #8
    2f3c:	466b      	mov	r3, sp
    2f3e:	b2c4      	uxtb	r4, r0
    2f40:	1d9e      	adds	r6, r3, #6
    2f42:	80d8      	strh	r0, [r3, #6]
    2f44:	4d06      	ldr	r5, [pc, #24]	; (2f60 <PHY_SetShortAddr+0x28>)
    2f46:	0021      	movs	r1, r4
    2f48:	2020      	movs	r0, #32
    2f4a:	47a8      	blx	r5
    2f4c:	7876      	ldrb	r6, [r6, #1]
    2f4e:	2021      	movs	r0, #33	; 0x21
    2f50:	0031      	movs	r1, r6
    2f52:	19a4      	adds	r4, r4, r6
    2f54:	47a8      	blx	r5
    2f56:	b2e1      	uxtb	r1, r4
    2f58:	202d      	movs	r0, #45	; 0x2d
    2f5a:	47a8      	blx	r5
    2f5c:	b002      	add	sp, #8
    2f5e:	bd70      	pop	{r4, r5, r6, pc}
    2f60:	000041b9 	.word	0x000041b9

00002f64 <PHY_Sleep>:
    2f64:	b570      	push	{r4, r5, r6, lr}
    2f66:	261f      	movs	r6, #31
    2f68:	4c0d      	ldr	r4, [pc, #52]	; (2fa0 <PHY_Sleep+0x3c>)
    2f6a:	4d0e      	ldr	r5, [pc, #56]	; (2fa4 <PHY_Sleep+0x40>)
    2f6c:	2103      	movs	r1, #3
    2f6e:	2002      	movs	r0, #2
    2f70:	47a0      	blx	r4
    2f72:	2001      	movs	r0, #1
    2f74:	47a8      	blx	r5
    2f76:	4030      	ands	r0, r6
    2f78:	2808      	cmp	r0, #8
    2f7a:	d1f7      	bne.n	2f6c <PHY_Sleep+0x8>
    2f7c:	261f      	movs	r6, #31
    2f7e:	2108      	movs	r1, #8
    2f80:	2002      	movs	r0, #2
    2f82:	47a0      	blx	r4
    2f84:	2001      	movs	r0, #1
    2f86:	47a8      	blx	r5
    2f88:	4030      	ands	r0, r6
    2f8a:	2808      	cmp	r0, #8
    2f8c:	d1f7      	bne.n	2f7e <PHY_Sleep+0x1a>
    2f8e:	2280      	movs	r2, #128	; 0x80
    2f90:	4b05      	ldr	r3, [pc, #20]	; (2fa8 <PHY_Sleep+0x44>)
    2f92:	0352      	lsls	r2, r2, #13
    2f94:	619a      	str	r2, [r3, #24]
    2f96:	2202      	movs	r2, #2
    2f98:	4b04      	ldr	r3, [pc, #16]	; (2fac <PHY_Sleep+0x48>)
    2f9a:	701a      	strb	r2, [r3, #0]
    2f9c:	bd70      	pop	{r4, r5, r6, pc}
    2f9e:	46c0      	nop			; (mov r8, r8)
    2fa0:	000041b9 	.word	0x000041b9
    2fa4:	000040bd 	.word	0x000040bd
    2fa8:	41004400 	.word	0x41004400
    2fac:	2000029d 	.word	0x2000029d

00002fb0 <PHY_EdReq>:
    2fb0:	b5f0      	push	{r4, r5, r6, r7, lr}
    2fb2:	46c6      	mov	lr, r8
    2fb4:	261f      	movs	r6, #31
    2fb6:	b500      	push	{lr}
    2fb8:	4d37      	ldr	r5, [pc, #220]	; (3098 <PHY_EdReq+0xe8>)
    2fba:	4c38      	ldr	r4, [pc, #224]	; (309c <PHY_EdReq+0xec>)
    2fbc:	2103      	movs	r1, #3
    2fbe:	2002      	movs	r0, #2
    2fc0:	47a8      	blx	r5
    2fc2:	2001      	movs	r0, #1
    2fc4:	47a0      	blx	r4
    2fc6:	4030      	ands	r0, r6
    2fc8:	2808      	cmp	r0, #8
    2fca:	d1f7      	bne.n	2fbc <PHY_EdReq+0xc>
    2fcc:	261f      	movs	r6, #31
    2fce:	2109      	movs	r1, #9
    2fd0:	2002      	movs	r0, #2
    2fd2:	47a8      	blx	r5
    2fd4:	2001      	movs	r0, #1
    2fd6:	47a0      	blx	r4
    2fd8:	4030      	ands	r0, r6
    2fda:	2809      	cmp	r0, #9
    2fdc:	d1f7      	bne.n	2fce <PHY_EdReq+0x1e>
    2fde:	3006      	adds	r0, #6
    2fe0:	47a0      	blx	r4
    2fe2:	2015      	movs	r0, #21
    2fe4:	47a0      	blx	r4
    2fe6:	2180      	movs	r1, #128	; 0x80
    2fe8:	4249      	negs	r1, r1
    2fea:	4301      	orrs	r1, r0
    2fec:	0006      	movs	r6, r0
    2fee:	b2c9      	uxtb	r1, r1
    2ff0:	2015      	movs	r0, #21
    2ff2:	47a8      	blx	r5
    2ff4:	271f      	movs	r7, #31
    2ff6:	2103      	movs	r1, #3
    2ff8:	2002      	movs	r0, #2
    2ffa:	47a8      	blx	r5
    2ffc:	2001      	movs	r0, #1
    2ffe:	47a0      	blx	r4
    3000:	4038      	ands	r0, r7
    3002:	2808      	cmp	r0, #8
    3004:	d1f7      	bne.n	2ff6 <PHY_EdReq+0x46>
    3006:	271f      	movs	r7, #31
    3008:	2106      	movs	r1, #6
    300a:	2002      	movs	r0, #2
    300c:	47a8      	blx	r5
    300e:	2001      	movs	r0, #1
    3010:	47a0      	blx	r4
    3012:	4038      	ands	r0, r7
    3014:	2806      	cmp	r0, #6
    3016:	d1f7      	bne.n	3008 <PHY_EdReq+0x58>
    3018:	21ff      	movs	r1, #255	; 0xff
    301a:	3001      	adds	r0, #1
    301c:	47a8      	blx	r5
    301e:	2710      	movs	r7, #16
    3020:	200f      	movs	r0, #15
    3022:	47a0      	blx	r4
    3024:	4207      	tst	r7, r0
    3026:	d0fb      	beq.n	3020 <PHY_EdReq+0x70>
    3028:	2007      	movs	r0, #7
    302a:	47a0      	blx	r4
    302c:	271f      	movs	r7, #31
    302e:	4680      	mov	r8, r0
    3030:	2103      	movs	r1, #3
    3032:	2002      	movs	r0, #2
    3034:	47a8      	blx	r5
    3036:	2001      	movs	r0, #1
    3038:	47a0      	blx	r4
    303a:	4038      	ands	r0, r7
    303c:	2808      	cmp	r0, #8
    303e:	d1f7      	bne.n	3030 <PHY_EdReq+0x80>
    3040:	271f      	movs	r7, #31
    3042:	2108      	movs	r1, #8
    3044:	2002      	movs	r0, #2
    3046:	47a8      	blx	r5
    3048:	2001      	movs	r0, #1
    304a:	47a0      	blx	r4
    304c:	4038      	ands	r0, r7
    304e:	2808      	cmp	r0, #8
    3050:	d1f7      	bne.n	3042 <PHY_EdReq+0x92>
    3052:	3007      	adds	r0, #7
    3054:	47a0      	blx	r4
    3056:	4b12      	ldr	r3, [pc, #72]	; (30a0 <PHY_EdReq+0xf0>)
    3058:	781b      	ldrb	r3, [r3, #0]
    305a:	2b00      	cmp	r3, #0
    305c:	d106      	bne.n	306c <PHY_EdReq+0xbc>
    305e:	0031      	movs	r1, r6
    3060:	2015      	movs	r0, #21
    3062:	47a8      	blx	r5
    3064:	4640      	mov	r0, r8
    3066:	bc04      	pop	{r2}
    3068:	4690      	mov	r8, r2
    306a:	bdf0      	pop	{r4, r5, r6, r7, pc}
    306c:	271f      	movs	r7, #31
    306e:	2103      	movs	r1, #3
    3070:	2002      	movs	r0, #2
    3072:	47a8      	blx	r5
    3074:	2001      	movs	r0, #1
    3076:	47a0      	blx	r4
    3078:	4038      	ands	r0, r7
    307a:	2808      	cmp	r0, #8
    307c:	d1f7      	bne.n	306e <PHY_EdReq+0xbe>
    307e:	271f      	movs	r7, #31
    3080:	2116      	movs	r1, #22
    3082:	2002      	movs	r0, #2
    3084:	47a8      	blx	r5
    3086:	2001      	movs	r0, #1
    3088:	47a0      	blx	r4
    308a:	4038      	ands	r0, r7
    308c:	2816      	cmp	r0, #22
    308e:	d1f7      	bne.n	3080 <PHY_EdReq+0xd0>
    3090:	2201      	movs	r2, #1
    3092:	4b04      	ldr	r3, [pc, #16]	; (30a4 <PHY_EdReq+0xf4>)
    3094:	701a      	strb	r2, [r3, #0]
    3096:	e7e2      	b.n	305e <PHY_EdReq+0xae>
    3098:	000041b9 	.word	0x000041b9
    309c:	000040bd 	.word	0x000040bd
    30a0:	2000029c 	.word	0x2000029c
    30a4:	2000029d 	.word	0x2000029d

000030a8 <PHY_SetIEEEAddr>:
    30a8:	b570      	push	{r4, r5, r6, lr}
    30aa:	0005      	movs	r5, r0
    30ac:	2424      	movs	r4, #36	; 0x24
    30ae:	4e05      	ldr	r6, [pc, #20]	; (30c4 <PHY_SetIEEEAddr+0x1c>)
    30b0:	0020      	movs	r0, r4
    30b2:	3401      	adds	r4, #1
    30b4:	7829      	ldrb	r1, [r5, #0]
    30b6:	b2e4      	uxtb	r4, r4
    30b8:	47b0      	blx	r6
    30ba:	3501      	adds	r5, #1
    30bc:	2c2c      	cmp	r4, #44	; 0x2c
    30be:	d1f7      	bne.n	30b0 <PHY_SetIEEEAddr+0x8>
    30c0:	bd70      	pop	{r4, r5, r6, pc}
    30c2:	46c0      	nop			; (mov r8, r8)
    30c4:	000041b9 	.word	0x000041b9

000030c8 <PHY_TaskHandler>:
    30c8:	b5f0      	push	{r4, r5, r6, r7, lr}
    30ca:	46ce      	mov	lr, r9
    30cc:	4647      	mov	r7, r8
    30ce:	b580      	push	{r7, lr}
    30d0:	4d4f      	ldr	r5, [pc, #316]	; (3210 <PHY_TaskHandler+0x148>)
    30d2:	b083      	sub	sp, #12
    30d4:	782b      	ldrb	r3, [r5, #0]
    30d6:	2b02      	cmp	r3, #2
    30d8:	d009      	beq.n	30ee <PHY_TaskHandler+0x26>
    30da:	200f      	movs	r0, #15
    30dc:	4c4d      	ldr	r4, [pc, #308]	; (3214 <PHY_TaskHandler+0x14c>)
    30de:	47a0      	blx	r4
    30e0:	0703      	lsls	r3, r0, #28
    30e2:	d504      	bpl.n	30ee <PHY_TaskHandler+0x26>
    30e4:	782b      	ldrb	r3, [r5, #0]
    30e6:	2b01      	cmp	r3, #1
    30e8:	d032      	beq.n	3150 <PHY_TaskHandler+0x88>
    30ea:	2b03      	cmp	r3, #3
    30ec:	d004      	beq.n	30f8 <PHY_TaskHandler+0x30>
    30ee:	b003      	add	sp, #12
    30f0:	bc0c      	pop	{r2, r3}
    30f2:	4690      	mov	r8, r2
    30f4:	4699      	mov	r9, r3
    30f6:	bdf0      	pop	{r4, r5, r6, r7, pc}
    30f8:	2002      	movs	r0, #2
    30fa:	47a0      	blx	r4
    30fc:	0940      	lsrs	r0, r0, #5
    30fe:	b2c3      	uxtb	r3, r0
    3100:	4699      	mov	r9, r3
    3102:	2b00      	cmp	r3, #0
    3104:	d005      	beq.n	3112 <PHY_TaskHandler+0x4a>
    3106:	2b03      	cmp	r3, #3
    3108:	d073      	beq.n	31f2 <PHY_TaskHandler+0x12a>
    310a:	2b05      	cmp	r3, #5
    310c:	d074      	beq.n	31f8 <PHY_TaskHandler+0x130>
    310e:	2301      	movs	r3, #1
    3110:	4699      	mov	r9, r3
    3112:	271f      	movs	r7, #31
    3114:	4e40      	ldr	r6, [pc, #256]	; (3218 <PHY_TaskHandler+0x150>)
    3116:	2103      	movs	r1, #3
    3118:	2002      	movs	r0, #2
    311a:	47b0      	blx	r6
    311c:	2001      	movs	r0, #1
    311e:	47a0      	blx	r4
    3120:	4038      	ands	r0, r7
    3122:	2808      	cmp	r0, #8
    3124:	d1f7      	bne.n	3116 <PHY_TaskHandler+0x4e>
    3126:	271f      	movs	r7, #31
    3128:	2108      	movs	r1, #8
    312a:	2002      	movs	r0, #2
    312c:	47b0      	blx	r6
    312e:	2001      	movs	r0, #1
    3130:	47a0      	blx	r4
    3132:	4038      	ands	r0, r7
    3134:	2808      	cmp	r0, #8
    3136:	d1f7      	bne.n	3128 <PHY_TaskHandler+0x60>
    3138:	3007      	adds	r0, #7
    313a:	47a0      	blx	r4
    313c:	4b37      	ldr	r3, [pc, #220]	; (321c <PHY_TaskHandler+0x154>)
    313e:	781b      	ldrb	r3, [r3, #0]
    3140:	2b00      	cmp	r3, #0
    3142:	d13f      	bne.n	31c4 <PHY_TaskHandler+0xfc>
    3144:	2301      	movs	r3, #1
    3146:	4648      	mov	r0, r9
    3148:	702b      	strb	r3, [r5, #0]
    314a:	4b35      	ldr	r3, [pc, #212]	; (3220 <PHY_TaskHandler+0x158>)
    314c:	4798      	blx	r3
    314e:	e7ce      	b.n	30ee <PHY_TaskHandler+0x26>
    3150:	4d34      	ldr	r5, [pc, #208]	; (3224 <PHY_TaskHandler+0x15c>)
    3152:	782b      	ldrb	r3, [r5, #0]
    3154:	2b00      	cmp	r3, #0
    3156:	d052      	beq.n	31fe <PHY_TaskHandler+0x136>
    3158:	237f      	movs	r3, #127	; 0x7f
    315a:	5ceb      	ldrb	r3, [r5, r3]
    315c:	2b00      	cmp	r3, #0
    315e:	d051      	beq.n	3204 <PHY_TaskHandler+0x13c>
    3160:	23fe      	movs	r3, #254	; 0xfe
    3162:	5ceb      	ldrb	r3, [r5, r3]
    3164:	2b00      	cmp	r3, #0
    3166:	d050      	beq.n	320a <PHY_TaskHandler+0x142>
    3168:	237e      	movs	r3, #126	; 0x7e
    316a:	33ff      	adds	r3, #255	; 0xff
    316c:	5ceb      	ldrb	r3, [r5, r3]
    316e:	2b00      	cmp	r3, #0
    3170:	d1bd      	bne.n	30ee <PHY_TaskHandler+0x26>
    3172:	2303      	movs	r3, #3
    3174:	4698      	mov	r8, r3
    3176:	466b      	mov	r3, sp
    3178:	1ddf      	adds	r7, r3, #7
    317a:	4b2b      	ldr	r3, [pc, #172]	; (3228 <PHY_TaskHandler+0x160>)
    317c:	2101      	movs	r1, #1
    317e:	0038      	movs	r0, r7
    3180:	4699      	mov	r9, r3
    3182:	4798      	blx	r3
    3184:	7839      	ldrb	r1, [r7, #0]
    3186:	4e29      	ldr	r6, [pc, #164]	; (322c <PHY_TaskHandler+0x164>)
    3188:	3102      	adds	r1, #2
    318a:	b2c9      	uxtb	r1, r1
    318c:	0030      	movs	r0, r6
    318e:	47c8      	blx	r9
    3190:	4642      	mov	r2, r8
    3192:	7838      	ldrb	r0, [r7, #0]
    3194:	01d1      	lsls	r1, r2, #7
    3196:	3002      	adds	r0, #2
    3198:	b2c3      	uxtb	r3, r0
    319a:	1a89      	subs	r1, r1, r2
    319c:	546b      	strb	r3, [r5, r1]
    319e:	2b7d      	cmp	r3, #125	; 0x7d
    31a0:	d809      	bhi.n	31b6 <PHY_TaskHandler+0xee>
    31a2:	2201      	movs	r2, #1
    31a4:	2301      	movs	r3, #1
    31a6:	186d      	adds	r5, r5, r1
    31a8:	5cb1      	ldrb	r1, [r6, r2]
    31aa:	3301      	adds	r3, #1
    31ac:	b2db      	uxtb	r3, r3
    31ae:	54a9      	strb	r1, [r5, r2]
    31b0:	001a      	movs	r2, r3
    31b2:	4283      	cmp	r3, r0
    31b4:	ddf8      	ble.n	31a8 <PHY_TaskHandler+0xe0>
    31b6:	251f      	movs	r5, #31
    31b8:	2001      	movs	r0, #1
    31ba:	47a0      	blx	r4
    31bc:	4028      	ands	r0, r5
    31be:	2816      	cmp	r0, #22
    31c0:	d1fa      	bne.n	31b8 <PHY_TaskHandler+0xf0>
    31c2:	e794      	b.n	30ee <PHY_TaskHandler+0x26>
    31c4:	231f      	movs	r3, #31
    31c6:	4698      	mov	r8, r3
    31c8:	2103      	movs	r1, #3
    31ca:	2002      	movs	r0, #2
    31cc:	47b0      	blx	r6
    31ce:	2001      	movs	r0, #1
    31d0:	47a0      	blx	r4
    31d2:	4643      	mov	r3, r8
    31d4:	4018      	ands	r0, r3
    31d6:	2808      	cmp	r0, #8
    31d8:	d1f6      	bne.n	31c8 <PHY_TaskHandler+0x100>
    31da:	231f      	movs	r3, #31
    31dc:	4698      	mov	r8, r3
    31de:	2116      	movs	r1, #22
    31e0:	2002      	movs	r0, #2
    31e2:	47b0      	blx	r6
    31e4:	2001      	movs	r0, #1
    31e6:	47a0      	blx	r4
    31e8:	4643      	mov	r3, r8
    31ea:	4018      	ands	r0, r3
    31ec:	2816      	cmp	r0, #22
    31ee:	d1f6      	bne.n	31de <PHY_TaskHandler+0x116>
    31f0:	e7a8      	b.n	3144 <PHY_TaskHandler+0x7c>
    31f2:	2302      	movs	r3, #2
    31f4:	4699      	mov	r9, r3
    31f6:	e78c      	b.n	3112 <PHY_TaskHandler+0x4a>
    31f8:	2303      	movs	r3, #3
    31fa:	4699      	mov	r9, r3
    31fc:	e789      	b.n	3112 <PHY_TaskHandler+0x4a>
    31fe:	2300      	movs	r3, #0
    3200:	4698      	mov	r8, r3
    3202:	e7b8      	b.n	3176 <PHY_TaskHandler+0xae>
    3204:	2301      	movs	r3, #1
    3206:	4698      	mov	r8, r3
    3208:	e7b5      	b.n	3176 <PHY_TaskHandler+0xae>
    320a:	2302      	movs	r3, #2
    320c:	4698      	mov	r8, r3
    320e:	e7b2      	b.n	3176 <PHY_TaskHandler+0xae>
    3210:	2000029d 	.word	0x2000029d
    3214:	000040bd 	.word	0x000040bd
    3218:	000041b9 	.word	0x000041b9
    321c:	2000029c 	.word	0x2000029c
    3220:	00002c9d 	.word	0x00002c9d
    3224:	2000045c 	.word	0x2000045c
    3228:	000042c5 	.word	0x000042c5
    322c:	2000021c 	.word	0x2000021c

00003230 <stb_init>:
    3230:	b510      	push	{r4, lr}
    3232:	4b01      	ldr	r3, [pc, #4]	; (3238 <stb_init+0x8>)
    3234:	4798      	blx	r3
    3236:	bd10      	pop	{r4, pc}
    3238:	00003cf9 	.word	0x00003cf9

0000323c <stb_ccm_secure>:
    323c:	b5f0      	push	{r4, r5, r6, r7, lr}
    323e:	4657      	mov	r7, sl
    3240:	464e      	mov	r6, r9
    3242:	4645      	mov	r5, r8
    3244:	46de      	mov	lr, fp
    3246:	b5e0      	push	{r5, r6, r7, lr}
    3248:	b089      	sub	sp, #36	; 0x24
    324a:	4699      	mov	r9, r3
    324c:	ab12      	add	r3, sp, #72	; 0x48
    324e:	781b      	ldrb	r3, [r3, #0]
    3250:	4f9b      	ldr	r7, [pc, #620]	; (34c0 <stb_ccm_secure+0x284>)
    3252:	469a      	mov	sl, r3
    3254:	ab13      	add	r3, sp, #76	; 0x4c
    3256:	781c      	ldrb	r4, [r3, #0]
    3258:	ab14      	add	r3, sp, #80	; 0x50
    325a:	781b      	ldrb	r3, [r3, #0]
    325c:	4680      	mov	r8, r0
    325e:	469b      	mov	fp, r3
    3260:	783b      	ldrb	r3, [r7, #0]
    3262:	000e      	movs	r6, r1
    3264:	0015      	movs	r5, r2
    3266:	2b00      	cmp	r3, #0
    3268:	d006      	beq.n	3278 <stb_ccm_secure+0x3c>
    326a:	2202      	movs	r2, #2
    326c:	4b95      	ldr	r3, [pc, #596]	; (34c4 <stb_ccm_secure+0x288>)
    326e:	701a      	strb	r2, [r3, #0]
    3270:	4b95      	ldr	r3, [pc, #596]	; (34c8 <stb_ccm_secure+0x28c>)
    3272:	4798      	blx	r3
    3274:	2300      	movs	r3, #0
    3276:	703b      	strb	r3, [r7, #0]
    3278:	1e63      	subs	r3, r4, #1
    327a:	b2db      	uxtb	r3, r3
    327c:	2b06      	cmp	r3, #6
    327e:	d900      	bls.n	3282 <stb_ccm_secure+0x46>
    3280:	e0b3      	b.n	33ea <stb_ccm_secure+0x1ae>
    3282:	4a92      	ldr	r2, [pc, #584]	; (34cc <stb_ccm_secure+0x290>)
    3284:	5cd7      	ldrb	r7, [r2, r3]
    3286:	4a92      	ldr	r2, [pc, #584]	; (34d0 <stb_ccm_secure+0x294>)
    3288:	5cd3      	ldrb	r3, [r2, r3]
    328a:	9302      	str	r3, [sp, #8]
    328c:	2307      	movs	r3, #7
    328e:	439c      	bics	r4, r3
    3290:	d000      	beq.n	3294 <stb_ccm_secure+0x58>
    3292:	e09c      	b.n	33ce <stb_ccm_secure+0x192>
    3294:	4643      	mov	r3, r8
    3296:	2b00      	cmp	r3, #0
    3298:	d100      	bne.n	329c <stb_ccm_secure+0x60>
    329a:	e098      	b.n	33ce <stb_ccm_secure+0x192>
    329c:	2e00      	cmp	r6, #0
    329e:	d100      	bne.n	32a2 <stb_ccm_secure+0x66>
    32a0:	e095      	b.n	33ce <stb_ccm_secure+0x192>
    32a2:	4653      	mov	r3, sl
    32a4:	444b      	add	r3, r9
    32a6:	9303      	str	r3, [sp, #12]
    32a8:	19db      	adds	r3, r3, r7
    32aa:	2b7f      	cmp	r3, #127	; 0x7f
    32ac:	dd00      	ble.n	32b0 <stb_ccm_secure+0x74>
    32ae:	e08e      	b.n	33ce <stb_ccm_secure+0x192>
    32b0:	4b88      	ldr	r3, [pc, #544]	; (34d4 <stb_ccm_secure+0x298>)
    32b2:	781b      	ldrb	r3, [r3, #0]
    32b4:	2b00      	cmp	r3, #0
    32b6:	d000      	beq.n	32ba <stb_ccm_secure+0x7e>
    32b8:	e09e      	b.n	33f8 <stb_ccm_secure+0x1bc>
    32ba:	2d00      	cmp	r5, #0
    32bc:	d064      	beq.n	3388 <stb_ccm_secure+0x14c>
    32be:	4c86      	ldr	r4, [pc, #536]	; (34d8 <stb_ccm_secure+0x29c>)
    32c0:	7baa      	ldrb	r2, [r5, #14]
    32c2:	7ba3      	ldrb	r3, [r4, #14]
    32c4:	7be1      	ldrb	r1, [r4, #15]
    32c6:	4053      	eors	r3, r2
    32c8:	7bea      	ldrb	r2, [r5, #15]
    32ca:	1a52      	subs	r2, r2, r1
    32cc:	1e51      	subs	r1, r2, #1
    32ce:	418a      	sbcs	r2, r1
    32d0:	4313      	orrs	r3, r2
    32d2:	1e5a      	subs	r2, r3, #1
    32d4:	4193      	sbcs	r3, r2
    32d6:	7b69      	ldrb	r1, [r5, #13]
    32d8:	7b62      	ldrb	r2, [r4, #13]
    32da:	404a      	eors	r2, r1
    32dc:	4313      	orrs	r3, r2
    32de:	1e5a      	subs	r2, r3, #1
    32e0:	4193      	sbcs	r3, r2
    32e2:	7b29      	ldrb	r1, [r5, #12]
    32e4:	7b22      	ldrb	r2, [r4, #12]
    32e6:	404a      	eors	r2, r1
    32e8:	4313      	orrs	r3, r2
    32ea:	1e5a      	subs	r2, r3, #1
    32ec:	4193      	sbcs	r3, r2
    32ee:	7ae9      	ldrb	r1, [r5, #11]
    32f0:	7ae2      	ldrb	r2, [r4, #11]
    32f2:	404a      	eors	r2, r1
    32f4:	4313      	orrs	r3, r2
    32f6:	1e5a      	subs	r2, r3, #1
    32f8:	4193      	sbcs	r3, r2
    32fa:	7aa9      	ldrb	r1, [r5, #10]
    32fc:	7aa2      	ldrb	r2, [r4, #10]
    32fe:	404a      	eors	r2, r1
    3300:	4313      	orrs	r3, r2
    3302:	1e5a      	subs	r2, r3, #1
    3304:	4193      	sbcs	r3, r2
    3306:	7a69      	ldrb	r1, [r5, #9]
    3308:	7a62      	ldrb	r2, [r4, #9]
    330a:	404a      	eors	r2, r1
    330c:	4313      	orrs	r3, r2
    330e:	1e5a      	subs	r2, r3, #1
    3310:	4193      	sbcs	r3, r2
    3312:	7a29      	ldrb	r1, [r5, #8]
    3314:	7a22      	ldrb	r2, [r4, #8]
    3316:	404a      	eors	r2, r1
    3318:	4313      	orrs	r3, r2
    331a:	1e5a      	subs	r2, r3, #1
    331c:	4193      	sbcs	r3, r2
    331e:	79e9      	ldrb	r1, [r5, #7]
    3320:	79e2      	ldrb	r2, [r4, #7]
    3322:	404a      	eors	r2, r1
    3324:	4313      	orrs	r3, r2
    3326:	1e5a      	subs	r2, r3, #1
    3328:	4193      	sbcs	r3, r2
    332a:	79a9      	ldrb	r1, [r5, #6]
    332c:	79a2      	ldrb	r2, [r4, #6]
    332e:	404a      	eors	r2, r1
    3330:	4313      	orrs	r3, r2
    3332:	1e5a      	subs	r2, r3, #1
    3334:	4193      	sbcs	r3, r2
    3336:	7969      	ldrb	r1, [r5, #5]
    3338:	7962      	ldrb	r2, [r4, #5]
    333a:	404a      	eors	r2, r1
    333c:	4313      	orrs	r3, r2
    333e:	1e5a      	subs	r2, r3, #1
    3340:	4193      	sbcs	r3, r2
    3342:	7929      	ldrb	r1, [r5, #4]
    3344:	7922      	ldrb	r2, [r4, #4]
    3346:	404a      	eors	r2, r1
    3348:	4313      	orrs	r3, r2
    334a:	1e5a      	subs	r2, r3, #1
    334c:	4193      	sbcs	r3, r2
    334e:	78e9      	ldrb	r1, [r5, #3]
    3350:	78e2      	ldrb	r2, [r4, #3]
    3352:	404a      	eors	r2, r1
    3354:	4313      	orrs	r3, r2
    3356:	1e5a      	subs	r2, r3, #1
    3358:	4193      	sbcs	r3, r2
    335a:	78a9      	ldrb	r1, [r5, #2]
    335c:	78a2      	ldrb	r2, [r4, #2]
    335e:	404a      	eors	r2, r1
    3360:	4313      	orrs	r3, r2
    3362:	1e5a      	subs	r2, r3, #1
    3364:	4193      	sbcs	r3, r2
    3366:	7869      	ldrb	r1, [r5, #1]
    3368:	7862      	ldrb	r2, [r4, #1]
    336a:	404a      	eors	r2, r1
    336c:	4313      	orrs	r3, r2
    336e:	1e5a      	subs	r2, r3, #1
    3370:	4193      	sbcs	r3, r2
    3372:	7822      	ldrb	r2, [r4, #0]
    3374:	7829      	ldrb	r1, [r5, #0]
    3376:	404a      	eors	r2, r1
    3378:	4313      	orrs	r3, r2
    337a:	001a      	movs	r2, r3
    337c:	1e51      	subs	r1, r2, #1
    337e:	418a      	sbcs	r2, r1
    3380:	4954      	ldr	r1, [pc, #336]	; (34d4 <stb_ccm_secure+0x298>)
    3382:	700a      	strb	r2, [r1, #0]
    3384:	2b00      	cmp	r3, #0
    3386:	d13a      	bne.n	33fe <stb_ccm_secure+0x1c2>
    3388:	2f00      	cmp	r7, #0
    338a:	d159      	bne.n	3440 <stb_ccm_secure+0x204>
    338c:	2301      	movs	r3, #1
    338e:	2401      	movs	r4, #1
    3390:	7033      	strb	r3, [r6, #0]
    3392:	464b      	mov	r3, r9
    3394:	2b00      	cmp	r3, #0
    3396:	d002      	beq.n	339e <stb_ccm_secure+0x162>
    3398:	2340      	movs	r3, #64	; 0x40
    339a:	431c      	orrs	r4, r3
    339c:	7034      	strb	r4, [r6, #0]
    339e:	2300      	movs	r3, #0
    33a0:	73b3      	strb	r3, [r6, #14]
    33a2:	465b      	mov	r3, fp
    33a4:	2b00      	cmp	r3, #0
    33a6:	d138      	bne.n	341a <stb_ccm_secure+0x1de>
    33a8:	2f00      	cmp	r7, #0
    33aa:	d151      	bne.n	3450 <stb_ccm_secure+0x214>
    33ac:	2301      	movs	r3, #1
    33ae:	4640      	mov	r0, r8
    33b0:	7033      	strb	r3, [r6, #0]
    33b2:	4448      	add	r0, r9
    33b4:	4653      	mov	r3, sl
    33b6:	003a      	movs	r2, r7
    33b8:	0031      	movs	r1, r6
    33ba:	4c48      	ldr	r4, [pc, #288]	; (34dc <stb_ccm_secure+0x2a0>)
    33bc:	47a0      	blx	r4
    33be:	4b41      	ldr	r3, [pc, #260]	; (34c4 <stb_ccm_secure+0x288>)
    33c0:	781b      	ldrb	r3, [r3, #0]
    33c2:	2b01      	cmp	r3, #1
    33c4:	d05c      	beq.n	3480 <stb_ccm_secure+0x244>
    33c6:	4b46      	ldr	r3, [pc, #280]	; (34e0 <stb_ccm_secure+0x2a4>)
    33c8:	4798      	blx	r3
    33ca:	2000      	movs	r0, #0
    33cc:	e006      	b.n	33dc <stb_ccm_secure+0x1a0>
    33ce:	4b3d      	ldr	r3, [pc, #244]	; (34c4 <stb_ccm_secure+0x288>)
    33d0:	781b      	ldrb	r3, [r3, #0]
    33d2:	2b01      	cmp	r3, #1
    33d4:	d00d      	beq.n	33f2 <stb_ccm_secure+0x1b6>
    33d6:	4b42      	ldr	r3, [pc, #264]	; (34e0 <stb_ccm_secure+0x2a4>)
    33d8:	4798      	blx	r3
    33da:	2001      	movs	r0, #1
    33dc:	b009      	add	sp, #36	; 0x24
    33de:	bc3c      	pop	{r2, r3, r4, r5}
    33e0:	4690      	mov	r8, r2
    33e2:	4699      	mov	r9, r3
    33e4:	46a2      	mov	sl, r4
    33e6:	46ab      	mov	fp, r5
    33e8:	bdf0      	pop	{r4, r5, r6, r7, pc}
    33ea:	2300      	movs	r3, #0
    33ec:	2700      	movs	r7, #0
    33ee:	9302      	str	r3, [sp, #8]
    33f0:	e74c      	b.n	328c <stb_ccm_secure+0x50>
    33f2:	4b3c      	ldr	r3, [pc, #240]	; (34e4 <stb_ccm_secure+0x2a8>)
    33f4:	4798      	blx	r3
    33f6:	e7ee      	b.n	33d6 <stb_ccm_secure+0x19a>
    33f8:	2d00      	cmp	r5, #0
    33fa:	d039      	beq.n	3470 <stb_ccm_secure+0x234>
    33fc:	4c36      	ldr	r4, [pc, #216]	; (34d8 <stb_ccm_secure+0x29c>)
    33fe:	2200      	movs	r2, #0
    3400:	2100      	movs	r1, #0
    3402:	4b39      	ldr	r3, [pc, #228]	; (34e8 <stb_ccm_secure+0x2ac>)
    3404:	0028      	movs	r0, r5
    3406:	4798      	blx	r3
    3408:	2210      	movs	r2, #16
    340a:	4b38      	ldr	r3, [pc, #224]	; (34ec <stb_ccm_secure+0x2b0>)
    340c:	0029      	movs	r1, r5
    340e:	0020      	movs	r0, r4
    3410:	4798      	blx	r3
    3412:	2300      	movs	r3, #0
    3414:	4a2f      	ldr	r2, [pc, #188]	; (34d4 <stb_ccm_secure+0x298>)
    3416:	7013      	strb	r3, [r2, #0]
    3418:	e7b6      	b.n	3388 <stb_ccm_secure+0x14c>
    341a:	9b02      	ldr	r3, [sp, #8]
    341c:	2b01      	cmp	r3, #1
    341e:	d032      	beq.n	3486 <stb_ccm_secure+0x24a>
    3420:	2f00      	cmp	r7, #0
    3422:	d0cc      	beq.n	33be <stb_ccm_secure+0x182>
    3424:	4653      	mov	r3, sl
    3426:	ac04      	add	r4, sp, #16
    3428:	73f3      	strb	r3, [r6, #15]
    342a:	9b03      	ldr	r3, [sp, #12]
    342c:	003a      	movs	r2, r7
    342e:	4443      	add	r3, r8
    3430:	0018      	movs	r0, r3
    3432:	0021      	movs	r1, r4
    3434:	4b2e      	ldr	r3, [pc, #184]	; (34f0 <stb_ccm_secure+0x2b4>)
    3436:	4798      	blx	r3
    3438:	2800      	cmp	r0, #0
    343a:	d0c0      	beq.n	33be <stb_ccm_secure+0x182>
    343c:	2003      	movs	r0, #3
    343e:	e7cd      	b.n	33dc <stb_ccm_secure+0x1a0>
    3440:	2301      	movs	r3, #1
    3442:	1ebc      	subs	r4, r7, #2
    3444:	1064      	asrs	r4, r4, #1
    3446:	00e4      	lsls	r4, r4, #3
    3448:	431c      	orrs	r4, r3
    344a:	b2e4      	uxtb	r4, r4
    344c:	7034      	strb	r4, [r6, #0]
    344e:	e7a0      	b.n	3392 <stb_ccm_secure+0x156>
    3450:	4653      	mov	r3, sl
    3452:	73f3      	strb	r3, [r6, #15]
    3454:	9b02      	ldr	r3, [sp, #8]
    3456:	2b01      	cmp	r3, #1
    3458:	d1a8      	bne.n	33ac <stb_ccm_secure+0x170>
    345a:	9b03      	ldr	r3, [sp, #12]
    345c:	0032      	movs	r2, r6
    345e:	4443      	add	r3, r8
    3460:	0019      	movs	r1, r3
    3462:	4653      	mov	r3, sl
    3464:	4640      	mov	r0, r8
    3466:	9300      	str	r3, [sp, #0]
    3468:	4c22      	ldr	r4, [pc, #136]	; (34f4 <stb_ccm_secure+0x2b8>)
    346a:	464b      	mov	r3, r9
    346c:	47a0      	blx	r4
    346e:	e79d      	b.n	33ac <stb_ccm_secure+0x170>
    3470:	4b14      	ldr	r3, [pc, #80]	; (34c4 <stb_ccm_secure+0x288>)
    3472:	781b      	ldrb	r3, [r3, #0]
    3474:	2b01      	cmp	r3, #1
    3476:	d020      	beq.n	34ba <stb_ccm_secure+0x27e>
    3478:	4b19      	ldr	r3, [pc, #100]	; (34e0 <stb_ccm_secure+0x2a4>)
    347a:	4798      	blx	r3
    347c:	2002      	movs	r0, #2
    347e:	e7ad      	b.n	33dc <stb_ccm_secure+0x1a0>
    3480:	4b18      	ldr	r3, [pc, #96]	; (34e4 <stb_ccm_secure+0x2a8>)
    3482:	4798      	blx	r3
    3484:	e79f      	b.n	33c6 <stb_ccm_secure+0x18a>
    3486:	466b      	mov	r3, sp
    3488:	4640      	mov	r0, r8
    348a:	7a1b      	ldrb	r3, [r3, #8]
    348c:	4448      	add	r0, r9
    348e:	7033      	strb	r3, [r6, #0]
    3490:	003a      	movs	r2, r7
    3492:	4653      	mov	r3, sl
    3494:	0031      	movs	r1, r6
    3496:	4d11      	ldr	r5, [pc, #68]	; (34dc <stb_ccm_secure+0x2a0>)
    3498:	47a8      	blx	r5
    349a:	2f00      	cmp	r7, #0
    349c:	d100      	bne.n	34a0 <stb_ccm_secure+0x264>
    349e:	e78e      	b.n	33be <stb_ccm_secure+0x182>
    34a0:	4653      	mov	r3, sl
    34a2:	73f3      	strb	r3, [r6, #15]
    34a4:	4653      	mov	r3, sl
    34a6:	7034      	strb	r4, [r6, #0]
    34a8:	ac04      	add	r4, sp, #16
    34aa:	9300      	str	r3, [sp, #0]
    34ac:	0032      	movs	r2, r6
    34ae:	464b      	mov	r3, r9
    34b0:	0021      	movs	r1, r4
    34b2:	4640      	mov	r0, r8
    34b4:	4d0f      	ldr	r5, [pc, #60]	; (34f4 <stb_ccm_secure+0x2b8>)
    34b6:	47a8      	blx	r5
    34b8:	e7b7      	b.n	342a <stb_ccm_secure+0x1ee>
    34ba:	4b0a      	ldr	r3, [pc, #40]	; (34e4 <stb_ccm_secure+0x2a8>)
    34bc:	4798      	blx	r3
    34be:	e7db      	b.n	3478 <stb_ccm_secure+0x23c>
    34c0:	200002b1 	.word	0x200002b1
    34c4:	200002b0 	.word	0x200002b0
    34c8:	00003e79 	.word	0x00003e79
    34cc:	0000a534 	.word	0x0000a534
    34d0:	0000a53c 	.word	0x0000a53c
    34d4:	2000006c 	.word	0x2000006c
    34d8:	200002a0 	.word	0x200002a0
    34dc:	00003655 	.word	0x00003655
    34e0:	00003ec9 	.word	0x00003ec9
    34e4:	00002f65 	.word	0x00002f65
    34e8:	00003cfd 	.word	0x00003cfd
    34ec:	000095df 	.word	0x000095df
    34f0:	000095c1 	.word	0x000095c1
    34f4:	000034f9 	.word	0x000034f9

000034f8 <compute_mic>:
    34f8:	b5f0      	push	{r4, r5, r6, r7, lr}
    34fa:	46de      	mov	lr, fp
    34fc:	4657      	mov	r7, sl
    34fe:	4645      	mov	r5, r8
    3500:	464e      	mov	r6, r9
    3502:	b5e0      	push	{r5, r6, r7, lr}
    3504:	0015      	movs	r5, r2
    3506:	b08b      	sub	sp, #44	; 0x2c
    3508:	2200      	movs	r2, #0
    350a:	001c      	movs	r4, r3
    350c:	4680      	mov	r8, r0
    350e:	ab14      	add	r3, sp, #80	; 0x50
    3510:	468a      	mov	sl, r1
    3512:	2000      	movs	r0, #0
    3514:	2100      	movs	r1, #0
    3516:	4f4a      	ldr	r7, [pc, #296]	; (3640 <compute_mic+0x148>)
    3518:	781e      	ldrb	r6, [r3, #0]
    351a:	47b8      	blx	r7
    351c:	0028      	movs	r0, r5
    351e:	2100      	movs	r1, #0
    3520:	4d48      	ldr	r5, [pc, #288]	; (3644 <compute_mic+0x14c>)
    3522:	47a8      	blx	r5
    3524:	2200      	movs	r2, #0
    3526:	2102      	movs	r1, #2
    3528:	2000      	movs	r0, #0
    352a:	47b8      	blx	r7
    352c:	2c00      	cmp	r4, #0
    352e:	d12c      	bne.n	358a <compute_mic+0x92>
    3530:	4444      	add	r4, r8
    3532:	2e0f      	cmp	r6, #15
    3534:	d90e      	bls.n	3554 <compute_mic+0x5c>
    3536:	0037      	movs	r7, r6
    3538:	3f10      	subs	r7, #16
    353a:	b2ff      	uxtb	r7, r7
    353c:	093f      	lsrs	r7, r7, #4
    353e:	3701      	adds	r7, #1
    3540:	013f      	lsls	r7, r7, #4
    3542:	19e7      	adds	r7, r4, r7
    3544:	0020      	movs	r0, r4
    3546:	2100      	movs	r1, #0
    3548:	3410      	adds	r4, #16
    354a:	47a8      	blx	r5
    354c:	42bc      	cmp	r4, r7
    354e:	d1f9      	bne.n	3544 <compute_mic+0x4c>
    3550:	230f      	movs	r3, #15
    3552:	401e      	ands	r6, r3
    3554:	2e00      	cmp	r6, #0
    3556:	d00e      	beq.n	3576 <compute_mic+0x7e>
    3558:	0032      	movs	r2, r6
    355a:	0021      	movs	r1, r4
    355c:	4b3a      	ldr	r3, [pc, #232]	; (3648 <compute_mic+0x150>)
    355e:	a806      	add	r0, sp, #24
    3560:	4798      	blx	r3
    3562:	2210      	movs	r2, #16
    3564:	ab06      	add	r3, sp, #24
    3566:	1998      	adds	r0, r3, r6
    3568:	2100      	movs	r1, #0
    356a:	1b92      	subs	r2, r2, r6
    356c:	4b37      	ldr	r3, [pc, #220]	; (364c <compute_mic+0x154>)
    356e:	4798      	blx	r3
    3570:	2100      	movs	r1, #0
    3572:	a806      	add	r0, sp, #24
    3574:	47a8      	blx	r5
    3576:	4650      	mov	r0, sl
    3578:	4b35      	ldr	r3, [pc, #212]	; (3650 <compute_mic+0x158>)
    357a:	4798      	blx	r3
    357c:	b00b      	add	sp, #44	; 0x2c
    357e:	bc3c      	pop	{r2, r3, r4, r5}
    3580:	4690      	mov	r8, r2
    3582:	4699      	mov	r9, r3
    3584:	46a2      	mov	sl, r4
    3586:	46ab      	mov	fp, r5
    3588:	bdf0      	pop	{r4, r5, r6, r7, pc}
    358a:	1c23      	adds	r3, r4, #0
    358c:	2c0e      	cmp	r4, #14
    358e:	d845      	bhi.n	361c <compute_mic+0x124>
    3590:	b2db      	uxtb	r3, r3
    3592:	4699      	mov	r9, r3
    3594:	2300      	movs	r3, #0
    3596:	aa02      	add	r2, sp, #8
    3598:	7013      	strb	r3, [r2, #0]
    359a:	0013      	movs	r3, r2
    359c:	1c98      	adds	r0, r3, #2
    359e:	4b2a      	ldr	r3, [pc, #168]	; (3648 <compute_mic+0x150>)
    35a0:	7054      	strb	r4, [r2, #1]
    35a2:	4641      	mov	r1, r8
    35a4:	464a      	mov	r2, r9
    35a6:	469b      	mov	fp, r3
    35a8:	4798      	blx	r3
    35aa:	464b      	mov	r3, r9
    35ac:	1c9f      	adds	r7, r3, #2
    35ae:	b2ff      	uxtb	r7, r7
    35b0:	2f10      	cmp	r7, #16
    35b2:	d135      	bne.n	3620 <compute_mic+0x128>
    35b4:	2100      	movs	r1, #0
    35b6:	a802      	add	r0, sp, #8
    35b8:	47a8      	blx	r5
    35ba:	454c      	cmp	r4, r9
    35bc:	d9b8      	bls.n	3530 <compute_mic+0x38>
    35be:	464b      	mov	r3, r9
    35c0:	4647      	mov	r7, r8
    35c2:	1ae0      	subs	r0, r4, r3
    35c4:	b2c3      	uxtb	r3, r0
    35c6:	444f      	add	r7, r9
    35c8:	9301      	str	r3, [sp, #4]
    35ca:	2b0f      	cmp	r3, #15
    35cc:	d911      	bls.n	35f2 <compute_mic+0xfa>
    35ce:	3b10      	subs	r3, #16
    35d0:	b2db      	uxtb	r3, r3
    35d2:	091b      	lsrs	r3, r3, #4
    35d4:	3301      	adds	r3, #1
    35d6:	011b      	lsls	r3, r3, #4
    35d8:	4699      	mov	r9, r3
    35da:	44b9      	add	r9, r7
    35dc:	0038      	movs	r0, r7
    35de:	2100      	movs	r1, #0
    35e0:	3710      	adds	r7, #16
    35e2:	47a8      	blx	r5
    35e4:	454f      	cmp	r7, r9
    35e6:	d1f9      	bne.n	35dc <compute_mic+0xe4>
    35e8:	230f      	movs	r3, #15
    35ea:	9a01      	ldr	r2, [sp, #4]
    35ec:	401a      	ands	r2, r3
    35ee:	0013      	movs	r3, r2
    35f0:	9201      	str	r2, [sp, #4]
    35f2:	2b00      	cmp	r3, #0
    35f4:	d09c      	beq.n	3530 <compute_mic+0x38>
    35f6:	4699      	mov	r9, r3
    35f8:	001a      	movs	r2, r3
    35fa:	0039      	movs	r1, r7
    35fc:	a806      	add	r0, sp, #24
    35fe:	47d8      	blx	fp
    3600:	a906      	add	r1, sp, #24
    3602:	468c      	mov	ip, r1
    3604:	464b      	mov	r3, r9
    3606:	2210      	movs	r2, #16
    3608:	1ad2      	subs	r2, r2, r3
    360a:	4463      	add	r3, ip
    360c:	0018      	movs	r0, r3
    360e:	2100      	movs	r1, #0
    3610:	4b0e      	ldr	r3, [pc, #56]	; (364c <compute_mic+0x154>)
    3612:	4798      	blx	r3
    3614:	2100      	movs	r1, #0
    3616:	a806      	add	r0, sp, #24
    3618:	47a8      	blx	r5
    361a:	e789      	b.n	3530 <compute_mic+0x38>
    361c:	230e      	movs	r3, #14
    361e:	e7b7      	b.n	3590 <compute_mic+0x98>
    3620:	003a      	movs	r2, r7
    3622:	a902      	add	r1, sp, #8
    3624:	a806      	add	r0, sp, #24
    3626:	47d8      	blx	fp
    3628:	2210      	movs	r2, #16
    362a:	ab06      	add	r3, sp, #24
    362c:	19d8      	adds	r0, r3, r7
    362e:	1bd2      	subs	r2, r2, r7
    3630:	2100      	movs	r1, #0
    3632:	4b06      	ldr	r3, [pc, #24]	; (364c <compute_mic+0x154>)
    3634:	4798      	blx	r3
    3636:	2100      	movs	r1, #0
    3638:	a806      	add	r0, sp, #24
    363a:	47a8      	blx	r5
    363c:	e7bd      	b.n	35ba <compute_mic+0xc2>
    363e:	46c0      	nop			; (mov r8, r8)
    3640:	00003cfd 	.word	0x00003cfd
    3644:	00003ecd 	.word	0x00003ecd
    3648:	000095df 	.word	0x000095df
    364c:	000095f1 	.word	0x000095f1
    3650:	00003f41 	.word	0x00003f41

00003654 <encrypt_pldmic>:
    3654:	b5f0      	push	{r4, r5, r6, r7, lr}
    3656:	46de      	mov	lr, fp
    3658:	464e      	mov	r6, r9
    365a:	4645      	mov	r5, r8
    365c:	4657      	mov	r7, sl
    365e:	b5e0      	push	{r5, r6, r7, lr}
    3660:	b089      	sub	sp, #36	; 0x24
    3662:	000e      	movs	r6, r1
    3664:	9101      	str	r1, [sp, #4]
    3666:	9202      	str	r2, [sp, #8]
    3668:	0004      	movs	r4, r0
    366a:	001d      	movs	r5, r3
    366c:	2200      	movs	r2, #0
    366e:	4b6d      	ldr	r3, [pc, #436]	; (3824 <encrypt_pldmic+0x1d0>)
    3670:	2100      	movs	r1, #0
    3672:	2000      	movs	r0, #0
    3674:	4798      	blx	r3
    3676:	2301      	movs	r3, #1
    3678:	73f3      	strb	r3, [r6, #15]
    367a:	2d00      	cmp	r5, #0
    367c:	d000      	beq.n	3680 <encrypt_pldmic+0x2c>
    367e:	e0ad      	b.n	37dc <encrypt_pldmic+0x188>
    3680:	2301      	movs	r3, #1
    3682:	9303      	str	r3, [sp, #12]
    3684:	4b68      	ldr	r3, [pc, #416]	; (3828 <encrypt_pldmic+0x1d4>)
    3686:	4698      	mov	r8, r3
    3688:	9b02      	ldr	r3, [sp, #8]
    368a:	469b      	mov	fp, r3
    368c:	e04d      	b.n	372a <encrypt_pldmic+0xd6>
    368e:	2300      	movs	r3, #0
    3690:	9a01      	ldr	r2, [sp, #4]
    3692:	a904      	add	r1, sp, #16
    3694:	73d3      	strb	r3, [r2, #15]
    3696:	0010      	movs	r0, r2
    3698:	4b64      	ldr	r3, [pc, #400]	; (382c <encrypt_pldmic+0x1d8>)
    369a:	4798      	blx	r3
    369c:	1e6b      	subs	r3, r5, #1
    369e:	b2db      	uxtb	r3, r3
    36a0:	2d00      	cmp	r5, #0
    36a2:	d04d      	beq.n	3740 <encrypt_pldmic+0xec>
    36a4:	1c58      	adds	r0, r3, #1
    36a6:	b2c2      	uxtb	r2, r0
    36a8:	4694      	mov	ip, r2
    36aa:	07a2      	lsls	r2, r4, #30
    36ac:	d152      	bne.n	3754 <encrypt_pldmic+0x100>
    36ae:	4662      	mov	r2, ip
    36b0:	2a05      	cmp	r2, #5
    36b2:	d94f      	bls.n	3754 <encrypt_pldmic+0x100>
    36b4:	1eda      	subs	r2, r3, #3
    36b6:	b2d2      	uxtb	r2, r2
    36b8:	0892      	lsrs	r2, r2, #2
    36ba:	3201      	adds	r2, #1
    36bc:	0097      	lsls	r7, r2, #2
    36be:	4691      	mov	r9, r2
    36c0:	2600      	movs	r6, #0
    36c2:	0022      	movs	r2, r4
    36c4:	b2ff      	uxtb	r7, r7
    36c6:	9300      	str	r3, [sp, #0]
    36c8:	00b1      	lsls	r1, r6, #2
    36ca:	ab04      	add	r3, sp, #16
    36cc:	5859      	ldr	r1, [r3, r1]
    36ce:	6813      	ldr	r3, [r2, #0]
    36d0:	3601      	adds	r6, #1
    36d2:	4059      	eors	r1, r3
    36d4:	c202      	stmia	r2!, {r1}
    36d6:	b2f1      	uxtb	r1, r6
    36d8:	4589      	cmp	r9, r1
    36da:	d8f5      	bhi.n	36c8 <encrypt_pldmic+0x74>
    36dc:	ae04      	add	r6, sp, #16
    36de:	0039      	movs	r1, r7
    36e0:	46b1      	mov	r9, r6
    36e2:	9b00      	ldr	r3, [sp, #0]
    36e4:	19e2      	adds	r2, r4, r7
    36e6:	1bdb      	subs	r3, r3, r7
    36e8:	4449      	add	r1, r9
    36ea:	b2db      	uxtb	r3, r3
    36ec:	45bc      	cmp	ip, r7
    36ee:	d017      	beq.n	3720 <encrypt_pldmic+0xcc>
    36f0:	7816      	ldrb	r6, [r2, #0]
    36f2:	46b4      	mov	ip, r6
    36f4:	780e      	ldrb	r6, [r1, #0]
    36f6:	46b1      	mov	r9, r6
    36f8:	4666      	mov	r6, ip
    36fa:	464f      	mov	r7, r9
    36fc:	407e      	eors	r6, r7
    36fe:	7016      	strb	r6, [r2, #0]
    3700:	2b00      	cmp	r3, #0
    3702:	d00d      	beq.n	3720 <encrypt_pldmic+0xcc>
    3704:	784e      	ldrb	r6, [r1, #1]
    3706:	46b4      	mov	ip, r6
    3708:	7856      	ldrb	r6, [r2, #1]
    370a:	46b1      	mov	r9, r6
    370c:	4666      	mov	r6, ip
    370e:	464f      	mov	r7, r9
    3710:	407e      	eors	r6, r7
    3712:	7056      	strb	r6, [r2, #1]
    3714:	2b01      	cmp	r3, #1
    3716:	d003      	beq.n	3720 <encrypt_pldmic+0xcc>
    3718:	788b      	ldrb	r3, [r1, #2]
    371a:	7891      	ldrb	r1, [r2, #2]
    371c:	404b      	eors	r3, r1
    371e:	7093      	strb	r3, [r2, #2]
    3720:	1824      	adds	r4, r4, r0
    3722:	2d10      	cmp	r5, #16
    3724:	d90c      	bls.n	3740 <encrypt_pldmic+0xec>
    3726:	3d10      	subs	r5, #16
    3728:	b2ed      	uxtb	r5, r5
    372a:	2d10      	cmp	r5, #16
    372c:	d86e      	bhi.n	380c <encrypt_pldmic+0x1b8>
    372e:	465b      	mov	r3, fp
    3730:	2b00      	cmp	r3, #0
    3732:	d1ac      	bne.n	368e <encrypt_pldmic+0x3a>
    3734:	a804      	add	r0, sp, #16
    3736:	47c0      	blx	r8
    3738:	1e6b      	subs	r3, r5, #1
    373a:	b2db      	uxtb	r3, r3
    373c:	2d00      	cmp	r5, #0
    373e:	d1b1      	bne.n	36a4 <encrypt_pldmic+0x50>
    3740:	9b02      	ldr	r3, [sp, #8]
    3742:	2b00      	cmp	r3, #0
    3744:	d110      	bne.n	3768 <encrypt_pldmic+0x114>
    3746:	b009      	add	sp, #36	; 0x24
    3748:	bc3c      	pop	{r2, r3, r4, r5}
    374a:	4690      	mov	r8, r2
    374c:	4699      	mov	r9, r3
    374e:	46a2      	mov	sl, r4
    3750:	46ab      	mov	fp, r5
    3752:	bdf0      	pop	{r4, r5, r6, r7, pc}
    3754:	2300      	movs	r3, #0
    3756:	aa04      	add	r2, sp, #16
    3758:	5ce1      	ldrb	r1, [r4, r3]
    375a:	5cd2      	ldrb	r2, [r2, r3]
    375c:	404a      	eors	r2, r1
    375e:	54e2      	strb	r2, [r4, r3]
    3760:	3301      	adds	r3, #1
    3762:	4283      	cmp	r3, r0
    3764:	d1f7      	bne.n	3756 <encrypt_pldmic+0x102>
    3766:	e7db      	b.n	3720 <encrypt_pldmic+0xcc>
    3768:	4b2f      	ldr	r3, [pc, #188]	; (3828 <encrypt_pldmic+0x1d4>)
    376a:	a804      	add	r0, sp, #16
    376c:	4798      	blx	r3
    376e:	9a02      	ldr	r2, [sp, #8]
    3770:	0013      	movs	r3, r2
    3772:	3b01      	subs	r3, #1
    3774:	b2db      	uxtb	r3, r3
    3776:	07a1      	lsls	r1, r4, #30
    3778:	d13d      	bne.n	37f6 <encrypt_pldmic+0x1a2>
    377a:	2a05      	cmp	r2, #5
    377c:	d93b      	bls.n	37f6 <encrypt_pldmic+0x1a2>
    377e:	3a04      	subs	r2, #4
    3780:	b2d2      	uxtb	r2, r2
    3782:	0892      	lsrs	r2, r2, #2
    3784:	3201      	adds	r2, #1
    3786:	0095      	lsls	r5, r2, #2
    3788:	b2ed      	uxtb	r5, r5
    378a:	2b02      	cmp	r3, #2
    378c:	d92b      	bls.n	37e6 <encrypt_pldmic+0x192>
    378e:	0027      	movs	r7, r4
    3790:	2000      	movs	r0, #0
    3792:	0081      	lsls	r1, r0, #2
    3794:	ae04      	add	r6, sp, #16
    3796:	5871      	ldr	r1, [r6, r1]
    3798:	683e      	ldr	r6, [r7, #0]
    379a:	3001      	adds	r0, #1
    379c:	4071      	eors	r1, r6
    379e:	c702      	stmia	r7!, {r1}
    37a0:	b2c1      	uxtb	r1, r0
    37a2:	428a      	cmp	r2, r1
    37a4:	d8f5      	bhi.n	3792 <encrypt_pldmic+0x13e>
    37a6:	aa04      	add	r2, sp, #16
    37a8:	4694      	mov	ip, r2
    37aa:	0029      	movs	r1, r5
    37ac:	9a02      	ldr	r2, [sp, #8]
    37ae:	1b5b      	subs	r3, r3, r5
    37b0:	1964      	adds	r4, r4, r5
    37b2:	4461      	add	r1, ip
    37b4:	b2db      	uxtb	r3, r3
    37b6:	42aa      	cmp	r2, r5
    37b8:	d0c5      	beq.n	3746 <encrypt_pldmic+0xf2>
    37ba:	7822      	ldrb	r2, [r4, #0]
    37bc:	7808      	ldrb	r0, [r1, #0]
    37be:	4042      	eors	r2, r0
    37c0:	7022      	strb	r2, [r4, #0]
    37c2:	2b00      	cmp	r3, #0
    37c4:	d0bf      	beq.n	3746 <encrypt_pldmic+0xf2>
    37c6:	784a      	ldrb	r2, [r1, #1]
    37c8:	7860      	ldrb	r0, [r4, #1]
    37ca:	4042      	eors	r2, r0
    37cc:	7062      	strb	r2, [r4, #1]
    37ce:	2b01      	cmp	r3, #1
    37d0:	d0b9      	beq.n	3746 <encrypt_pldmic+0xf2>
    37d2:	788b      	ldrb	r3, [r1, #2]
    37d4:	78a2      	ldrb	r2, [r4, #2]
    37d6:	4053      	eors	r3, r2
    37d8:	70a3      	strb	r3, [r4, #2]
    37da:	e7b4      	b.n	3746 <encrypt_pldmic+0xf2>
    37dc:	2100      	movs	r1, #0
    37de:	9801      	ldr	r0, [sp, #4]
    37e0:	4b12      	ldr	r3, [pc, #72]	; (382c <encrypt_pldmic+0x1d8>)
    37e2:	4798      	blx	r3
    37e4:	e74c      	b.n	3680 <encrypt_pldmic+0x2c>
    37e6:	a904      	add	r1, sp, #16
    37e8:	7822      	ldrb	r2, [r4, #0]
    37ea:	7808      	ldrb	r0, [r1, #0]
    37ec:	4042      	eors	r2, r0
    37ee:	7022      	strb	r2, [r4, #0]
    37f0:	2b00      	cmp	r3, #0
    37f2:	d1e8      	bne.n	37c6 <encrypt_pldmic+0x172>
    37f4:	e7a7      	b.n	3746 <encrypt_pldmic+0xf2>
    37f6:	1c58      	adds	r0, r3, #1
    37f8:	2300      	movs	r3, #0
    37fa:	a904      	add	r1, sp, #16
    37fc:	5ce2      	ldrb	r2, [r4, r3]
    37fe:	5cc9      	ldrb	r1, [r1, r3]
    3800:	404a      	eors	r2, r1
    3802:	54e2      	strb	r2, [r4, r3]
    3804:	3301      	adds	r3, #1
    3806:	4298      	cmp	r0, r3
    3808:	d1f7      	bne.n	37fa <encrypt_pldmic+0x1a6>
    380a:	e79c      	b.n	3746 <encrypt_pldmic+0xf2>
    380c:	9b03      	ldr	r3, [sp, #12]
    380e:	9a01      	ldr	r2, [sp, #4]
    3810:	3301      	adds	r3, #1
    3812:	b2db      	uxtb	r3, r3
    3814:	9303      	str	r3, [sp, #12]
    3816:	73d3      	strb	r3, [r2, #15]
    3818:	a904      	add	r1, sp, #16
    381a:	4b04      	ldr	r3, [pc, #16]	; (382c <encrypt_pldmic+0x1d8>)
    381c:	0010      	movs	r0, r2
    381e:	4798      	blx	r3
    3820:	230f      	movs	r3, #15
    3822:	e73f      	b.n	36a4 <encrypt_pldmic+0x50>
    3824:	00003cfd 	.word	0x00003cfd
    3828:	00003f41 	.word	0x00003f41
    382c:	00003ecd 	.word	0x00003ecd

00003830 <MiMem_Alloc>:
    3830:	28a0      	cmp	r0, #160	; 0xa0
    3832:	d812      	bhi.n	385a <MiMem_Alloc+0x2a>
    3834:	4b0a      	ldr	r3, [pc, #40]	; (3860 <MiMem_Alloc+0x30>)
    3836:	2000      	movs	r0, #0
    3838:	e003      	b.n	3842 <MiMem_Alloc+0x12>
    383a:	3001      	adds	r0, #1
    383c:	33a8      	adds	r3, #168	; 0xa8
    383e:	281e      	cmp	r0, #30
    3840:	d00b      	beq.n	385a <MiMem_Alloc+0x2a>
    3842:	781a      	ldrb	r2, [r3, #0]
    3844:	2a00      	cmp	r2, #0
    3846:	d1f8      	bne.n	383a <MiMem_Alloc+0xa>
    3848:	23a8      	movs	r3, #168	; 0xa8
    384a:	4343      	muls	r3, r0
    384c:	4805      	ldr	r0, [pc, #20]	; (3864 <MiMem_Alloc+0x34>)
    384e:	3201      	adds	r2, #1
    3850:	18c0      	adds	r0, r0, r3
    3852:	0003      	movs	r3, r0
    3854:	33a4      	adds	r3, #164	; 0xa4
    3856:	701a      	strb	r2, [r3, #0]
    3858:	4770      	bx	lr
    385a:	2000      	movs	r0, #0
    385c:	e7fc      	b.n	3858 <MiMem_Alloc+0x28>
    385e:	46c0      	nop			; (mov r8, r8)
    3860:	20000c7c 	.word	0x20000c7c
    3864:	20000bd8 	.word	0x20000bd8

00003868 <MiMem_Free>:
    3868:	b510      	push	{r4, lr}
    386a:	4c0c      	ldr	r4, [pc, #48]	; (389c <MiMem_Free+0x34>)
    386c:	2200      	movs	r2, #0
    386e:	0023      	movs	r3, r4
    3870:	0019      	movs	r1, r3
    3872:	31a4      	adds	r1, #164	; 0xa4
    3874:	7809      	ldrb	r1, [r1, #0]
    3876:	2900      	cmp	r1, #0
    3878:	d001      	beq.n	387e <MiMem_Free+0x16>
    387a:	4298      	cmp	r0, r3
    387c:	d005      	beq.n	388a <MiMem_Free+0x22>
    387e:	3201      	adds	r2, #1
    3880:	33a8      	adds	r3, #168	; 0xa8
    3882:	2a1e      	cmp	r2, #30
    3884:	d1f4      	bne.n	3870 <MiMem_Free+0x8>
    3886:	20ff      	movs	r0, #255	; 0xff
    3888:	bd10      	pop	{r4, pc}
    388a:	23a8      	movs	r3, #168	; 0xa8
    388c:	435a      	muls	r2, r3
    388e:	2300      	movs	r3, #0
    3890:	18a4      	adds	r4, r4, r2
    3892:	34a4      	adds	r4, #164	; 0xa4
    3894:	7023      	strb	r3, [r4, #0]
    3896:	2000      	movs	r0, #0
    3898:	e7f6      	b.n	3888 <MiMem_Free+0x20>
    389a:	46c0      	nop			; (mov r8, r8)
    389c:	20000bd8 	.word	0x20000bd8

000038a0 <MiMem_PercentageOfFreeBuffers>:
    38a0:	4b0a      	ldr	r3, [pc, #40]	; (38cc <MiMem_PercentageOfFreeBuffers+0x2c>)
    38a2:	4a0b      	ldr	r2, [pc, #44]	; (38d0 <MiMem_PercentageOfFreeBuffers+0x30>)
    38a4:	b510      	push	{r4, lr}
    38a6:	18d1      	adds	r1, r2, r3
    38a8:	2300      	movs	r3, #0
    38aa:	7810      	ldrb	r0, [r2, #0]
    38ac:	32a8      	adds	r2, #168	; 0xa8
    38ae:	1e44      	subs	r4, r0, #1
    38b0:	41a0      	sbcs	r0, r4
    38b2:	181b      	adds	r3, r3, r0
    38b4:	b2db      	uxtb	r3, r3
    38b6:	4291      	cmp	r1, r2
    38b8:	d1f7      	bne.n	38aa <MiMem_PercentageOfFreeBuffers+0xa>
    38ba:	201e      	movs	r0, #30
    38bc:	1ac3      	subs	r3, r0, r3
    38be:	3046      	adds	r0, #70	; 0x46
    38c0:	4358      	muls	r0, r3
    38c2:	211e      	movs	r1, #30
    38c4:	4b03      	ldr	r3, [pc, #12]	; (38d4 <MiMem_PercentageOfFreeBuffers+0x34>)
    38c6:	4798      	blx	r3
    38c8:	b2c0      	uxtb	r0, r0
    38ca:	bd10      	pop	{r4, pc}
    38cc:	000013b0 	.word	0x000013b0
    38d0:	20000c7c 	.word	0x20000c7c
    38d4:	0000934d 	.word	0x0000934d

000038d8 <miQueueInit>:
    38d8:	2300      	movs	r3, #0
    38da:	6003      	str	r3, [r0, #0]
    38dc:	6043      	str	r3, [r0, #4]
    38de:	7203      	strb	r3, [r0, #8]
    38e0:	4770      	bx	lr
    38e2:	46c0      	nop			; (mov r8, r8)

000038e4 <miQueueAppend>:
    38e4:	b672      	cpsid	i
    38e6:	f3bf 8f5f 	dmb	sy
    38ea:	2300      	movs	r3, #0
    38ec:	4a0a      	ldr	r2, [pc, #40]	; (3918 <miQueueAppend+0x34>)
    38ee:	7013      	strb	r3, [r2, #0]
    38f0:	7a03      	ldrb	r3, [r0, #8]
    38f2:	2b00      	cmp	r3, #0
    38f4:	d00d      	beq.n	3912 <miQueueAppend+0x2e>
    38f6:	6843      	ldr	r3, [r0, #4]
    38f8:	6019      	str	r1, [r3, #0]
    38fa:	2300      	movs	r3, #0
    38fc:	6041      	str	r1, [r0, #4]
    38fe:	600b      	str	r3, [r1, #0]
    3900:	7a03      	ldrb	r3, [r0, #8]
    3902:	3301      	adds	r3, #1
    3904:	7203      	strb	r3, [r0, #8]
    3906:	2301      	movs	r3, #1
    3908:	7013      	strb	r3, [r2, #0]
    390a:	f3bf 8f5f 	dmb	sy
    390e:	b662      	cpsie	i
    3910:	4770      	bx	lr
    3912:	6001      	str	r1, [r0, #0]
    3914:	e7f1      	b.n	38fa <miQueueAppend+0x16>
    3916:	46c0      	nop			; (mov r8, r8)
    3918:	20000008 	.word	0x20000008

0000391c <miQueueRemove>:
    391c:	b5f0      	push	{r4, r5, r6, r7, lr}
    391e:	46c6      	mov	lr, r8
    3920:	0007      	movs	r7, r0
    3922:	b500      	push	{lr}
    3924:	000d      	movs	r5, r1
    3926:	b672      	cpsid	i
    3928:	f3bf 8f5f 	dmb	sy
    392c:	4b20      	ldr	r3, [pc, #128]	; (39b0 <miQueueRemove+0x94>)
    392e:	4698      	mov	r8, r3
    3930:	2300      	movs	r3, #0
    3932:	4642      	mov	r2, r8
    3934:	7013      	strb	r3, [r2, #0]
    3936:	7a03      	ldrb	r3, [r0, #8]
    3938:	2b00      	cmp	r3, #0
    393a:	d029      	beq.n	3990 <miQueueRemove+0x74>
    393c:	6804      	ldr	r4, [r0, #0]
    393e:	2900      	cmp	r1, #0
    3940:	d02a      	beq.n	3998 <miQueueRemove+0x7c>
    3942:	2c00      	cmp	r4, #0
    3944:	d024      	beq.n	3990 <miQueueRemove+0x74>
    3946:	0026      	movs	r6, r4
    3948:	e004      	b.n	3954 <miQueueRemove+0x38>
    394a:	6823      	ldr	r3, [r4, #0]
    394c:	0026      	movs	r6, r4
    394e:	2b00      	cmp	r3, #0
    3950:	d01e      	beq.n	3990 <miQueueRemove+0x74>
    3952:	001c      	movs	r4, r3
    3954:	6869      	ldr	r1, [r5, #4]
    3956:	6860      	ldr	r0, [r4, #4]
    3958:	682b      	ldr	r3, [r5, #0]
    395a:	4798      	blx	r3
    395c:	2800      	cmp	r0, #0
    395e:	d0f4      	beq.n	394a <miQueueRemove+0x2e>
    3960:	683b      	ldr	r3, [r7, #0]
    3962:	42a3      	cmp	r3, r4
    3964:	d021      	beq.n	39aa <miQueueRemove+0x8e>
    3966:	6823      	ldr	r3, [r4, #0]
    3968:	6033      	str	r3, [r6, #0]
    396a:	6879      	ldr	r1, [r7, #4]
    396c:	683a      	ldr	r2, [r7, #0]
    396e:	7a3b      	ldrb	r3, [r7, #8]
    3970:	42a1      	cmp	r1, r4
    3972:	d018      	beq.n	39a6 <miQueueRemove+0x8a>
    3974:	3b01      	subs	r3, #1
    3976:	723b      	strb	r3, [r7, #8]
    3978:	2a00      	cmp	r2, #0
    397a:	d00b      	beq.n	3994 <miQueueRemove+0x78>
    397c:	2301      	movs	r3, #1
    397e:	4642      	mov	r2, r8
    3980:	7013      	strb	r3, [r2, #0]
    3982:	f3bf 8f5f 	dmb	sy
    3986:	b662      	cpsie	i
    3988:	0020      	movs	r0, r4
    398a:	bc04      	pop	{r2}
    398c:	4690      	mov	r8, r2
    398e:	bdf0      	pop	{r4, r5, r6, r7, pc}
    3990:	2400      	movs	r4, #0
    3992:	e7f3      	b.n	397c <miQueueRemove+0x60>
    3994:	607a      	str	r2, [r7, #4]
    3996:	e7f1      	b.n	397c <miQueueRemove+0x60>
    3998:	1e26      	subs	r6, r4, #0
    399a:	d0f9      	beq.n	3990 <miQueueRemove+0x74>
    399c:	6822      	ldr	r2, [r4, #0]
    399e:	6879      	ldr	r1, [r7, #4]
    39a0:	603a      	str	r2, [r7, #0]
    39a2:	42a1      	cmp	r1, r4
    39a4:	d1e6      	bne.n	3974 <miQueueRemove+0x58>
    39a6:	607e      	str	r6, [r7, #4]
    39a8:	e7e4      	b.n	3974 <miQueueRemove+0x58>
    39aa:	7a3b      	ldrb	r3, [r7, #8]
    39ac:	e7f6      	b.n	399c <miQueueRemove+0x80>
    39ae:	46c0      	nop			; (mov r8, r8)
    39b0:	20000008 	.word	0x20000008

000039b4 <SYS_HwExpiry_Cb>:
    39b4:	b510      	push	{r4, lr}
    39b6:	4a04      	ldr	r2, [pc, #16]	; (39c8 <SYS_HwExpiry_Cb+0x14>)
    39b8:	4804      	ldr	r0, [pc, #16]	; (39cc <SYS_HwExpiry_Cb+0x18>)
    39ba:	7813      	ldrb	r3, [r2, #0]
    39bc:	3301      	adds	r3, #1
    39be:	b2db      	uxtb	r3, r3
    39c0:	7013      	strb	r3, [r2, #0]
    39c2:	4b03      	ldr	r3, [pc, #12]	; (39d0 <SYS_HwExpiry_Cb+0x1c>)
    39c4:	4798      	blx	r3
    39c6:	bd10      	pop	{r4, pc}
    39c8:	20001f88 	.word	0x20001f88
    39cc:	00002710 	.word	0x00002710
    39d0:	00005025 	.word	0x00005025

000039d4 <SYS_TimerInit>:
    39d4:	b510      	push	{r4, lr}
    39d6:	2400      	movs	r4, #0
    39d8:	4b06      	ldr	r3, [pc, #24]	; (39f4 <SYS_TimerInit+0x20>)
    39da:	4807      	ldr	r0, [pc, #28]	; (39f8 <SYS_TimerInit+0x24>)
    39dc:	701c      	strb	r4, [r3, #0]
    39de:	4b07      	ldr	r3, [pc, #28]	; (39fc <SYS_TimerInit+0x28>)
    39e0:	4798      	blx	r3
    39e2:	4b07      	ldr	r3, [pc, #28]	; (3a00 <SYS_TimerInit+0x2c>)
    39e4:	4798      	blx	r3
    39e6:	4807      	ldr	r0, [pc, #28]	; (3a04 <SYS_TimerInit+0x30>)
    39e8:	4b07      	ldr	r3, [pc, #28]	; (3a08 <SYS_TimerInit+0x34>)
    39ea:	4798      	blx	r3
    39ec:	4b07      	ldr	r3, [pc, #28]	; (3a0c <SYS_TimerInit+0x38>)
    39ee:	601c      	str	r4, [r3, #0]
    39f0:	bd10      	pop	{r4, pc}
    39f2:	46c0      	nop			; (mov r8, r8)
    39f4:	20001f88 	.word	0x20001f88
    39f8:	000039b5 	.word	0x000039b5
    39fc:	00005115 	.word	0x00005115
    3a00:	00005091 	.word	0x00005091
    3a04:	00002710 	.word	0x00002710
    3a08:	00005025 	.word	0x00005025
    3a0c:	200002b4 	.word	0x200002b4

00003a10 <SYS_TimerStart>:
    3a10:	b570      	push	{r4, r5, r6, lr}
    3a12:	4e15      	ldr	r6, [pc, #84]	; (3a68 <SYS_TimerStart+0x58>)
    3a14:	6835      	ldr	r5, [r6, #0]
    3a16:	2d00      	cmp	r5, #0
    3a18:	d021      	beq.n	3a5e <SYS_TimerStart+0x4e>
    3a1a:	42a8      	cmp	r0, r5
    3a1c:	d016      	beq.n	3a4c <SYS_TimerStart+0x3c>
    3a1e:	002b      	movs	r3, r5
    3a20:	e001      	b.n	3a26 <SYS_TimerStart+0x16>
    3a22:	4298      	cmp	r0, r3
    3a24:	d012      	beq.n	3a4c <SYS_TimerStart+0x3c>
    3a26:	681b      	ldr	r3, [r3, #0]
    3a28:	2b00      	cmp	r3, #0
    3a2a:	d1fa      	bne.n	3a22 <SYS_TimerStart+0x12>
    3a2c:	6881      	ldr	r1, [r0, #8]
    3a2e:	002a      	movs	r2, r5
    3a30:	e000      	b.n	3a34 <SYS_TimerStart+0x24>
    3a32:	0022      	movs	r2, r4
    3a34:	6854      	ldr	r4, [r2, #4]
    3a36:	428c      	cmp	r4, r1
    3a38:	d809      	bhi.n	3a4e <SYS_TimerStart+0x3e>
    3a3a:	1b09      	subs	r1, r1, r4
    3a3c:	6814      	ldr	r4, [r2, #0]
    3a3e:	0013      	movs	r3, r2
    3a40:	2c00      	cmp	r4, #0
    3a42:	d1f6      	bne.n	3a32 <SYS_TimerStart+0x22>
    3a44:	6041      	str	r1, [r0, #4]
    3a46:	681a      	ldr	r2, [r3, #0]
    3a48:	6002      	str	r2, [r0, #0]
    3a4a:	6018      	str	r0, [r3, #0]
    3a4c:	bd70      	pop	{r4, r5, r6, pc}
    3a4e:	1a64      	subs	r4, r4, r1
    3a50:	6054      	str	r4, [r2, #4]
    3a52:	6041      	str	r1, [r0, #4]
    3a54:	2b00      	cmp	r3, #0
    3a56:	d1f6      	bne.n	3a46 <SYS_TimerStart+0x36>
    3a58:	6005      	str	r5, [r0, #0]
    3a5a:	6030      	str	r0, [r6, #0]
    3a5c:	e7f6      	b.n	3a4c <SYS_TimerStart+0x3c>
    3a5e:	6883      	ldr	r3, [r0, #8]
    3a60:	6005      	str	r5, [r0, #0]
    3a62:	6043      	str	r3, [r0, #4]
    3a64:	6030      	str	r0, [r6, #0]
    3a66:	e7f1      	b.n	3a4c <SYS_TimerStart+0x3c>
    3a68:	200002b4 	.word	0x200002b4

00003a6c <SYS_TimerStop>:
    3a6c:	4b0d      	ldr	r3, [pc, #52]	; (3aa4 <SYS_TimerStop+0x38>)
    3a6e:	681a      	ldr	r2, [r3, #0]
    3a70:	2a00      	cmp	r2, #0
    3a72:	d008      	beq.n	3a86 <SYS_TimerStop+0x1a>
    3a74:	4282      	cmp	r2, r0
    3a76:	d103      	bne.n	3a80 <SYS_TimerStop+0x14>
    3a78:	e011      	b.n	3a9e <SYS_TimerStop+0x32>
    3a7a:	4298      	cmp	r0, r3
    3a7c:	d004      	beq.n	3a88 <SYS_TimerStop+0x1c>
    3a7e:	001a      	movs	r2, r3
    3a80:	6813      	ldr	r3, [r2, #0]
    3a82:	2b00      	cmp	r3, #0
    3a84:	d1f9      	bne.n	3a7a <SYS_TimerStop+0xe>
    3a86:	4770      	bx	lr
    3a88:	6803      	ldr	r3, [r0, #0]
    3a8a:	6013      	str	r3, [r2, #0]
    3a8c:	6802      	ldr	r2, [r0, #0]
    3a8e:	2a00      	cmp	r2, #0
    3a90:	d0f9      	beq.n	3a86 <SYS_TimerStop+0x1a>
    3a92:	6851      	ldr	r1, [r2, #4]
    3a94:	6843      	ldr	r3, [r0, #4]
    3a96:	468c      	mov	ip, r1
    3a98:	4463      	add	r3, ip
    3a9a:	6053      	str	r3, [r2, #4]
    3a9c:	e7f3      	b.n	3a86 <SYS_TimerStop+0x1a>
    3a9e:	6802      	ldr	r2, [r0, #0]
    3aa0:	601a      	str	r2, [r3, #0]
    3aa2:	e7f4      	b.n	3a8e <SYS_TimerStop+0x22>
    3aa4:	200002b4 	.word	0x200002b4

00003aa8 <SYS_TimerTaskHandler>:
    3aa8:	b5f0      	push	{r4, r5, r6, r7, lr}
    3aaa:	4b2e      	ldr	r3, [pc, #184]	; (3b64 <SYS_TimerTaskHandler+0xbc>)
    3aac:	b083      	sub	sp, #12
    3aae:	781a      	ldrb	r2, [r3, #0]
    3ab0:	2a00      	cmp	r2, #0
    3ab2:	d027      	beq.n	3b04 <SYS_TimerTaskHandler+0x5c>
    3ab4:	f3ef 8110 	mrs	r1, PRIMASK
    3ab8:	424a      	negs	r2, r1
    3aba:	414a      	adcs	r2, r1
    3abc:	9201      	str	r2, [sp, #4]
    3abe:	b672      	cpsid	i
    3ac0:	f3bf 8f5f 	dmb	sy
    3ac4:	2200      	movs	r2, #0
    3ac6:	4928      	ldr	r1, [pc, #160]	; (3b68 <SYS_TimerTaskHandler+0xc0>)
    3ac8:	700a      	strb	r2, [r1, #0]
    3aca:	9801      	ldr	r0, [sp, #4]
    3acc:	781c      	ldrb	r4, [r3, #0]
    3ace:	701a      	strb	r2, [r3, #0]
    3ad0:	b2e4      	uxtb	r4, r4
    3ad2:	2800      	cmp	r0, #0
    3ad4:	d12e      	bne.n	3b34 <SYS_TimerTaskHandler+0x8c>
    3ad6:	4d25      	ldr	r5, [pc, #148]	; (3b6c <SYS_TimerTaskHandler+0xc4>)
    3ad8:	00a3      	lsls	r3, r4, #2
    3ada:	191c      	adds	r4, r3, r4
    3adc:	6828      	ldr	r0, [r5, #0]
    3ade:	0064      	lsls	r4, r4, #1
    3ae0:	2800      	cmp	r0, #0
    3ae2:	d00f      	beq.n	3b04 <SYS_TimerTaskHandler+0x5c>
    3ae4:	6843      	ldr	r3, [r0, #4]
    3ae6:	429c      	cmp	r4, r3
    3ae8:	d333      	bcc.n	3b52 <SYS_TimerTaskHandler+0xaa>
    3aea:	6806      	ldr	r6, [r0, #0]
    3aec:	1ae4      	subs	r4, r4, r3
    3aee:	602e      	str	r6, [r5, #0]
    3af0:	7b03      	ldrb	r3, [r0, #12]
    3af2:	2b01      	cmp	r3, #1
    3af4:	d00a      	beq.n	3b0c <SYS_TimerTaskHandler+0x64>
    3af6:	6903      	ldr	r3, [r0, #16]
    3af8:	2b00      	cmp	r3, #0
    3afa:	d005      	beq.n	3b08 <SYS_TimerTaskHandler+0x60>
    3afc:	4798      	blx	r3
    3afe:	6828      	ldr	r0, [r5, #0]
    3b00:	2800      	cmp	r0, #0
    3b02:	d1ef      	bne.n	3ae4 <SYS_TimerTaskHandler+0x3c>
    3b04:	b003      	add	sp, #12
    3b06:	bdf0      	pop	{r4, r5, r6, r7, pc}
    3b08:	0030      	movs	r0, r6
    3b0a:	e7e9      	b.n	3ae0 <SYS_TimerTaskHandler+0x38>
    3b0c:	2e00      	cmp	r6, #0
    3b0e:	d023      	beq.n	3b58 <SYS_TimerTaskHandler+0xb0>
    3b10:	6882      	ldr	r2, [r0, #8]
    3b12:	0033      	movs	r3, r6
    3b14:	2700      	movs	r7, #0
    3b16:	e000      	b.n	3b1a <SYS_TimerTaskHandler+0x72>
    3b18:	000b      	movs	r3, r1
    3b1a:	6859      	ldr	r1, [r3, #4]
    3b1c:	4291      	cmp	r1, r2
    3b1e:	d80f      	bhi.n	3b40 <SYS_TimerTaskHandler+0x98>
    3b20:	1a52      	subs	r2, r2, r1
    3b22:	6819      	ldr	r1, [r3, #0]
    3b24:	001f      	movs	r7, r3
    3b26:	2900      	cmp	r1, #0
    3b28:	d1f6      	bne.n	3b18 <SYS_TimerTaskHandler+0x70>
    3b2a:	6042      	str	r2, [r0, #4]
    3b2c:	683b      	ldr	r3, [r7, #0]
    3b2e:	6003      	str	r3, [r0, #0]
    3b30:	6038      	str	r0, [r7, #0]
    3b32:	e7e0      	b.n	3af6 <SYS_TimerTaskHandler+0x4e>
    3b34:	2301      	movs	r3, #1
    3b36:	700b      	strb	r3, [r1, #0]
    3b38:	f3bf 8f5f 	dmb	sy
    3b3c:	b662      	cpsie	i
    3b3e:	e7ca      	b.n	3ad6 <SYS_TimerTaskHandler+0x2e>
    3b40:	1a89      	subs	r1, r1, r2
    3b42:	6059      	str	r1, [r3, #4]
    3b44:	6042      	str	r2, [r0, #4]
    3b46:	2f00      	cmp	r7, #0
    3b48:	d1f0      	bne.n	3b2c <SYS_TimerTaskHandler+0x84>
    3b4a:	6006      	str	r6, [r0, #0]
    3b4c:	6028      	str	r0, [r5, #0]
    3b4e:	0006      	movs	r6, r0
    3b50:	e7d1      	b.n	3af6 <SYS_TimerTaskHandler+0x4e>
    3b52:	1b1c      	subs	r4, r3, r4
    3b54:	6044      	str	r4, [r0, #4]
    3b56:	e7d5      	b.n	3b04 <SYS_TimerTaskHandler+0x5c>
    3b58:	6883      	ldr	r3, [r0, #8]
    3b5a:	6006      	str	r6, [r0, #0]
    3b5c:	6043      	str	r3, [r0, #4]
    3b5e:	6028      	str	r0, [r5, #0]
    3b60:	0006      	movs	r6, r0
    3b62:	e7c8      	b.n	3af6 <SYS_TimerTaskHandler+0x4e>
    3b64:	20001f88 	.word	0x20001f88
    3b68:	20000008 	.word	0x20000008
    3b6c:	200002b4 	.word	0x200002b4

00003b70 <tc_cca_callback>:
    3b70:	b510      	push	{r4, lr}
    3b72:	4b01      	ldr	r3, [pc, #4]	; (3b78 <tc_cca_callback+0x8>)
    3b74:	4798      	blx	r3
    3b76:	bd10      	pop	{r4, pc}
    3b78:	000050f9 	.word	0x000050f9

00003b7c <tc_ovf_callback>:
    3b7c:	b510      	push	{r4, lr}
    3b7e:	4b01      	ldr	r3, [pc, #4]	; (3b84 <tc_ovf_callback+0x8>)
    3b80:	4798      	blx	r3
    3b82:	bd10      	pop	{r4, pc}
    3b84:	000050b1 	.word	0x000050b1

00003b88 <tmr_read_count>:
    3b88:	b510      	push	{r4, lr}
    3b8a:	4802      	ldr	r0, [pc, #8]	; (3b94 <tmr_read_count+0xc>)
    3b8c:	4b02      	ldr	r3, [pc, #8]	; (3b98 <tmr_read_count+0x10>)
    3b8e:	4798      	blx	r3
    3b90:	b280      	uxth	r0, r0
    3b92:	bd10      	pop	{r4, pc}
    3b94:	20001fc0 	.word	0x20001fc0
    3b98:	000021a9 	.word	0x000021a9

00003b9c <tmr_disable_cc_interrupt>:
    3b9c:	2110      	movs	r1, #16
    3b9e:	4b03      	ldr	r3, [pc, #12]	; (3bac <tmr_disable_cc_interrupt+0x10>)
    3ba0:	681a      	ldr	r2, [r3, #0]
    3ba2:	7311      	strb	r1, [r2, #12]
    3ba4:	7e5a      	ldrb	r2, [r3, #25]
    3ba6:	438a      	bics	r2, r1
    3ba8:	765a      	strb	r2, [r3, #25]
    3baa:	4770      	bx	lr
    3bac:	20001fc0 	.word	0x20001fc0

00003bb0 <tmr_enable_cc_interrupt>:
    3bb0:	b510      	push	{r4, lr}
    3bb2:	4c0a      	ldr	r4, [pc, #40]	; (3bdc <tmr_enable_cc_interrupt+0x2c>)
    3bb4:	4b0a      	ldr	r3, [pc, #40]	; (3be0 <tmr_enable_cc_interrupt+0x30>)
    3bb6:	6820      	ldr	r0, [r4, #0]
    3bb8:	4798      	blx	r3
    3bba:	221f      	movs	r2, #31
    3bbc:	4b09      	ldr	r3, [pc, #36]	; (3be4 <tmr_enable_cc_interrupt+0x34>)
    3bbe:	5c1b      	ldrb	r3, [r3, r0]
    3bc0:	401a      	ands	r2, r3
    3bc2:	2301      	movs	r3, #1
    3bc4:	4093      	lsls	r3, r2
    3bc6:	4a08      	ldr	r2, [pc, #32]	; (3be8 <tmr_enable_cc_interrupt+0x38>)
    3bc8:	6013      	str	r3, [r2, #0]
    3bca:	2210      	movs	r2, #16
    3bcc:	7e63      	ldrb	r3, [r4, #25]
    3bce:	4313      	orrs	r3, r2
    3bd0:	2210      	movs	r2, #16
    3bd2:	7663      	strb	r3, [r4, #25]
    3bd4:	6823      	ldr	r3, [r4, #0]
    3bd6:	735a      	strb	r2, [r3, #13]
    3bd8:	bd10      	pop	{r4, pc}
    3bda:	46c0      	nop			; (mov r8, r8)
    3bdc:	20001fc0 	.word	0x20001fc0
    3be0:	00001ea9 	.word	0x00001ea9
    3be4:	0000a544 	.word	0x0000a544
    3be8:	e000e100 	.word	0xe000e100

00003bec <tmr_write_cmpreg>:
    3bec:	b510      	push	{r4, lr}
    3bee:	0002      	movs	r2, r0
    3bf0:	2100      	movs	r1, #0
    3bf2:	4802      	ldr	r0, [pc, #8]	; (3bfc <tmr_write_cmpreg+0x10>)
    3bf4:	4b02      	ldr	r3, [pc, #8]	; (3c00 <tmr_write_cmpreg+0x14>)
    3bf6:	4798      	blx	r3
    3bf8:	bd10      	pop	{r4, pc}
    3bfa:	46c0      	nop			; (mov r8, r8)
    3bfc:	20001fc0 	.word	0x20001fc0
    3c00:	000021d5 	.word	0x000021d5

00003c04 <tmr_init>:
    3c04:	b5f8      	push	{r3, r4, r5, r6, r7, lr}
    3c06:	2300      	movs	r3, #0
    3c08:	46ce      	mov	lr, r9
    3c0a:	4647      	mov	r7, r8
    3c0c:	2100      	movs	r1, #0
    3c0e:	4a2d      	ldr	r2, [pc, #180]	; (3cc4 <tmr_init+0xc0>)
    3c10:	4c2d      	ldr	r4, [pc, #180]	; (3cc8 <tmr_init+0xc4>)
    3c12:	b580      	push	{r7, lr}
    3c14:	7013      	strb	r3, [r2, #0]
    3c16:	7093      	strb	r3, [r2, #2]
    3c18:	8093      	strh	r3, [r2, #4]
    3c1a:	8113      	strh	r3, [r2, #8]
    3c1c:	6153      	str	r3, [r2, #20]
    3c1e:	6193      	str	r3, [r2, #24]
    3c20:	6213      	str	r3, [r2, #32]
    3c22:	6253      	str	r3, [r2, #36]	; 0x24
    3c24:	8513      	strh	r3, [r2, #40]	; 0x28
    3c26:	8593      	strh	r3, [r2, #44]	; 0x2c
    3c28:	3b01      	subs	r3, #1
    3c2a:	7191      	strb	r1, [r2, #6]
    3c2c:	7051      	strb	r1, [r2, #1]
    3c2e:	7291      	strb	r1, [r2, #10]
    3c30:	72d1      	strb	r1, [r2, #11]
    3c32:	7311      	strb	r1, [r2, #12]
    3c34:	7391      	strb	r1, [r2, #14]
    3c36:	7351      	strb	r1, [r2, #13]
    3c38:	7411      	strb	r1, [r2, #16]
    3c3a:	7711      	strb	r1, [r2, #28]
    3c3c:	8553      	strh	r3, [r2, #42]	; 0x2a
    3c3e:	4923      	ldr	r1, [pc, #140]	; (3ccc <tmr_init+0xc8>)
    3c40:	4b23      	ldr	r3, [pc, #140]	; (3cd0 <tmr_init+0xcc>)
    3c42:	0020      	movs	r0, r4
    3c44:	4798      	blx	r3
    3c46:	4d23      	ldr	r5, [pc, #140]	; (3cd4 <tmr_init+0xd0>)
    3c48:	2200      	movs	r2, #0
    3c4a:	4923      	ldr	r1, [pc, #140]	; (3cd8 <tmr_init+0xd4>)
    3c4c:	0020      	movs	r0, r4
    3c4e:	47a8      	blx	r5
    3c50:	2202      	movs	r2, #2
    3c52:	4922      	ldr	r1, [pc, #136]	; (3cdc <tmr_init+0xd8>)
    3c54:	0020      	movs	r0, r4
    3c56:	47a8      	blx	r5
    3c58:	2501      	movs	r5, #1
    3c5a:	4b21      	ldr	r3, [pc, #132]	; (3ce0 <tmr_init+0xdc>)
    3c5c:	6820      	ldr	r0, [r4, #0]
    3c5e:	4699      	mov	r9, r3
    3c60:	4798      	blx	r3
    3c62:	261f      	movs	r6, #31
    3c64:	002a      	movs	r2, r5
    3c66:	4b1f      	ldr	r3, [pc, #124]	; (3ce4 <tmr_init+0xe0>)
    3c68:	4f1f      	ldr	r7, [pc, #124]	; (3ce8 <tmr_init+0xe4>)
    3c6a:	4698      	mov	r8, r3
    3c6c:	5c1b      	ldrb	r3, [r3, r0]
    3c6e:	4033      	ands	r3, r6
    3c70:	409a      	lsls	r2, r3
    3c72:	603a      	str	r2, [r7, #0]
    3c74:	2201      	movs	r2, #1
    3c76:	7e63      	ldrb	r3, [r4, #25]
    3c78:	4313      	orrs	r3, r2
    3c7a:	7663      	strb	r3, [r4, #25]
    3c7c:	6823      	ldr	r3, [r4, #0]
    3c7e:	735d      	strb	r5, [r3, #13]
    3c80:	0018      	movs	r0, r3
    3c82:	47c8      	blx	r9
    3c84:	4643      	mov	r3, r8
    3c86:	5c1b      	ldrb	r3, [r3, r0]
    3c88:	2210      	movs	r2, #16
    3c8a:	401e      	ands	r6, r3
    3c8c:	40b5      	lsls	r5, r6
    3c8e:	603d      	str	r5, [r7, #0]
    3c90:	7e63      	ldrb	r3, [r4, #25]
    3c92:	4313      	orrs	r3, r2
    3c94:	7663      	strb	r3, [r4, #25]
    3c96:	2310      	movs	r3, #16
    3c98:	6822      	ldr	r2, [r4, #0]
    3c9a:	7353      	strb	r3, [r2, #13]
    3c9c:	7bd3      	ldrb	r3, [r2, #15]
    3c9e:	b25b      	sxtb	r3, r3
    3ca0:	2b00      	cmp	r3, #0
    3ca2:	dbfb      	blt.n	3c9c <tmr_init+0x98>
    3ca4:	2102      	movs	r1, #2
    3ca6:	8813      	ldrh	r3, [r2, #0]
    3ca8:	2000      	movs	r0, #0
    3caa:	430b      	orrs	r3, r1
    3cac:	8013      	strh	r3, [r2, #0]
    3cae:	4b0f      	ldr	r3, [pc, #60]	; (3cec <tmr_init+0xe8>)
    3cb0:	4798      	blx	r3
    3cb2:	490f      	ldr	r1, [pc, #60]	; (3cf0 <tmr_init+0xec>)
    3cb4:	4b0f      	ldr	r3, [pc, #60]	; (3cf4 <tmr_init+0xf0>)
    3cb6:	4798      	blx	r3
    3cb8:	b2c0      	uxtb	r0, r0
    3cba:	bc0c      	pop	{r2, r3}
    3cbc:	4690      	mov	r8, r2
    3cbe:	4699      	mov	r9, r3
    3cc0:	bdf8      	pop	{r3, r4, r5, r6, r7, pc}
    3cc2:	46c0      	nop			; (mov r8, r8)
    3cc4:	20001f8c 	.word	0x20001f8c
    3cc8:	20001fc0 	.word	0x20001fc0
    3ccc:	42002c00 	.word	0x42002c00
    3cd0:	00001ee9 	.word	0x00001ee9
    3cd4:	00001d55 	.word	0x00001d55
    3cd8:	00003b7d 	.word	0x00003b7d
    3cdc:	00003b71 	.word	0x00003b71
    3ce0:	00001ea9 	.word	0x00001ea9
    3ce4:	0000a544 	.word	0x0000a544
    3ce8:	e000e100 	.word	0xe000e100
    3cec:	00001aa1 	.word	0x00001aa1
    3cf0:	000f4240 	.word	0x000f4240
    3cf4:	00009239 	.word	0x00009239

00003cf8 <sal_init>:
    3cf8:	4770      	bx	lr
    3cfa:	46c0      	nop			; (mov r8, r8)

00003cfc <sal_aes_setup>:
    3cfc:	b5f0      	push	{r4, r5, r6, r7, lr}
    3cfe:	4657      	mov	r7, sl
    3d00:	4645      	mov	r5, r8
    3d02:	46de      	mov	lr, fp
    3d04:	464e      	mov	r6, r9
    3d06:	b5e0      	push	{r5, r6, r7, lr}
    3d08:	0014      	movs	r4, r2
    3d0a:	b085      	sub	sp, #20
    3d0c:	0007      	movs	r7, r0
    3d0e:	000d      	movs	r5, r1
    3d10:	2800      	cmp	r0, #0
    3d12:	d018      	beq.n	3d46 <sal_aes_setup+0x4a>
    3d14:	2200      	movs	r2, #0
    3d16:	4b4d      	ldr	r3, [pc, #308]	; (3e4c <sal_aes_setup+0x150>)
    3d18:	0001      	movs	r1, r0
    3d1a:	701a      	strb	r2, [r3, #0]
    3d1c:	4b4c      	ldr	r3, [pc, #304]	; (3e50 <sal_aes_setup+0x154>)
    3d1e:	3202      	adds	r2, #2
    3d20:	701a      	strb	r2, [r3, #0]
    3d22:	4e4c      	ldr	r6, [pc, #304]	; (3e54 <sal_aes_setup+0x158>)
    3d24:	320e      	adds	r2, #14
    3d26:	484c      	ldr	r0, [pc, #304]	; (3e58 <sal_aes_setup+0x15c>)
    3d28:	47b0      	blx	r6
    3d2a:	4b4c      	ldr	r3, [pc, #304]	; (3e5c <sal_aes_setup+0x160>)
    3d2c:	0039      	movs	r1, r7
    3d2e:	4698      	mov	r8, r3
    3d30:	2310      	movs	r3, #16
    3d32:	4642      	mov	r2, r8
    3d34:	7013      	strb	r3, [r2, #0]
    3d36:	1c50      	adds	r0, r2, #1
    3d38:	2210      	movs	r2, #16
    3d3a:	47b0      	blx	r6
    3d3c:	2211      	movs	r2, #17
    3d3e:	4641      	mov	r1, r8
    3d40:	2083      	movs	r0, #131	; 0x83
    3d42:	4b47      	ldr	r3, [pc, #284]	; (3e60 <sal_aes_setup+0x164>)
    3d44:	4798      	blx	r3
    3d46:	2c00      	cmp	r4, #0
    3d48:	d042      	beq.n	3dd0 <sal_aes_setup+0xd4>
    3d4a:	2c01      	cmp	r4, #1
    3d4c:	d138      	bne.n	3dc0 <sal_aes_setup+0xc4>
    3d4e:	4f40      	ldr	r7, [pc, #256]	; (3e50 <sal_aes_setup+0x154>)
    3d50:	783b      	ldrb	r3, [r7, #0]
    3d52:	2b01      	cmp	r3, #1
    3d54:	d01d      	beq.n	3d92 <sal_aes_setup+0x96>
    3d56:	4b41      	ldr	r3, [pc, #260]	; (3e5c <sal_aes_setup+0x160>)
    3d58:	4698      	mov	r8, r3
    3d5a:	2310      	movs	r3, #16
    3d5c:	469b      	mov	fp, r3
    3d5e:	4643      	mov	r3, r8
    3d60:	465a      	mov	r2, fp
    3d62:	701a      	strb	r2, [r3, #0]
    3d64:	4b39      	ldr	r3, [pc, #228]	; (3e4c <sal_aes_setup+0x150>)
    3d66:	4699      	mov	r9, r3
    3d68:	781b      	ldrb	r3, [r3, #0]
    3d6a:	469a      	mov	sl, r3
    3d6c:	2b00      	cmp	r3, #0
    3d6e:	d041      	beq.n	3df4 <sal_aes_setup+0xf8>
    3d70:	4b3b      	ldr	r3, [pc, #236]	; (3e60 <sal_aes_setup+0x164>)
    3d72:	4e38      	ldr	r6, [pc, #224]	; (3e54 <sal_aes_setup+0x158>)
    3d74:	469a      	mov	sl, r3
    3d76:	4b3b      	ldr	r3, [pc, #236]	; (3e64 <sal_aes_setup+0x168>)
    3d78:	469b      	mov	fp, r3
    3d7a:	4643      	mov	r3, r8
    3d7c:	2210      	movs	r2, #16
    3d7e:	1c58      	adds	r0, r3, #1
    3d80:	4659      	mov	r1, fp
    3d82:	47b0      	blx	r6
    3d84:	2211      	movs	r2, #17
    3d86:	4641      	mov	r1, r8
    3d88:	2083      	movs	r0, #131	; 0x83
    3d8a:	47d0      	blx	sl
    3d8c:	2301      	movs	r3, #1
    3d8e:	464a      	mov	r2, r9
    3d90:	7013      	strb	r3, [r2, #0]
    3d92:	703c      	strb	r4, [r7, #0]
    3d94:	2d00      	cmp	r5, #0
    3d96:	d001      	beq.n	3d9c <sal_aes_setup+0xa0>
    3d98:	2d02      	cmp	r5, #2
    3d9a:	d111      	bne.n	3dc0 <sal_aes_setup+0xc4>
    3d9c:	2370      	movs	r3, #112	; 0x70
    3d9e:	012d      	lsls	r5, r5, #4
    3da0:	401d      	ands	r5, r3
    3da2:	00e4      	lsls	r4, r4, #3
    3da4:	3b68      	subs	r3, #104	; 0x68
    3da6:	401c      	ands	r4, r3
    3da8:	432c      	orrs	r4, r5
    3daa:	2580      	movs	r5, #128	; 0x80
    3dac:	2201      	movs	r2, #1
    3dae:	4b2b      	ldr	r3, [pc, #172]	; (3e5c <sal_aes_setup+0x160>)
    3db0:	426d      	negs	r5, r5
    3db2:	701c      	strb	r4, [r3, #0]
    3db4:	432c      	orrs	r4, r5
    3db6:	745c      	strb	r4, [r3, #17]
    3db8:	4b2b      	ldr	r3, [pc, #172]	; (3e68 <sal_aes_setup+0x16c>)
    3dba:	2001      	movs	r0, #1
    3dbc:	701a      	strb	r2, [r3, #0]
    3dbe:	e000      	b.n	3dc2 <sal_aes_setup+0xc6>
    3dc0:	2000      	movs	r0, #0
    3dc2:	b005      	add	sp, #20
    3dc4:	bc3c      	pop	{r2, r3, r4, r5}
    3dc6:	4690      	mov	r8, r2
    3dc8:	4699      	mov	r9, r3
    3dca:	46a2      	mov	sl, r4
    3dcc:	46ab      	mov	fp, r5
    3dce:	bdf0      	pop	{r4, r5, r6, r7, pc}
    3dd0:	4f1f      	ldr	r7, [pc, #124]	; (3e50 <sal_aes_setup+0x154>)
    3dd2:	783b      	ldrb	r3, [r7, #0]
    3dd4:	2b01      	cmp	r3, #1
    3dd6:	d1dc      	bne.n	3d92 <sal_aes_setup+0x96>
    3dd8:	4e20      	ldr	r6, [pc, #128]	; (3e5c <sal_aes_setup+0x160>)
    3dda:	330f      	adds	r3, #15
    3ddc:	7033      	strb	r3, [r6, #0]
    3dde:	1c70      	adds	r0, r6, #1
    3de0:	2210      	movs	r2, #16
    3de2:	491d      	ldr	r1, [pc, #116]	; (3e58 <sal_aes_setup+0x15c>)
    3de4:	4b1b      	ldr	r3, [pc, #108]	; (3e54 <sal_aes_setup+0x158>)
    3de6:	4798      	blx	r3
    3de8:	2211      	movs	r2, #17
    3dea:	0031      	movs	r1, r6
    3dec:	2083      	movs	r0, #131	; 0x83
    3dee:	4b1c      	ldr	r3, [pc, #112]	; (3e60 <sal_aes_setup+0x164>)
    3df0:	4798      	blx	r3
    3df2:	e7ce      	b.n	3d92 <sal_aes_setup+0x96>
    3df4:	4643      	mov	r3, r8
    3df6:	4652      	mov	r2, sl
    3df8:	701a      	strb	r2, [r3, #0]
    3dfa:	2280      	movs	r2, #128	; 0x80
    3dfc:	745a      	strb	r2, [r3, #17]
    3dfe:	4b1a      	ldr	r3, [pc, #104]	; (3e68 <sal_aes_setup+0x16c>)
    3e00:	4669      	mov	r1, sp
    3e02:	701c      	strb	r4, [r3, #0]
    3e04:	4643      	mov	r3, r8
    3e06:	2210      	movs	r2, #16
    3e08:	1c58      	adds	r0, r3, #1
    3e0a:	4e12      	ldr	r6, [pc, #72]	; (3e54 <sal_aes_setup+0x158>)
    3e0c:	47b0      	blx	r6
    3e0e:	4641      	mov	r1, r8
    3e10:	2212      	movs	r2, #18
    3e12:	2083      	movs	r0, #131	; 0x83
    3e14:	4b15      	ldr	r3, [pc, #84]	; (3e6c <sal_aes_setup+0x170>)
    3e16:	4798      	blx	r3
    3e18:	4652      	mov	r2, sl
    3e1a:	4b13      	ldr	r3, [pc, #76]	; (3e68 <sal_aes_setup+0x16c>)
    3e1c:	2018      	movs	r0, #24
    3e1e:	701a      	strb	r2, [r3, #0]
    3e20:	4643      	mov	r3, r8
    3e22:	2280      	movs	r2, #128	; 0x80
    3e24:	745a      	strb	r2, [r3, #17]
    3e26:	4b12      	ldr	r3, [pc, #72]	; (3e70 <sal_aes_setup+0x174>)
    3e28:	4798      	blx	r3
    3e2a:	4643      	mov	r3, r8
    3e2c:	465a      	mov	r2, fp
    3e2e:	701a      	strb	r2, [r3, #0]
    3e30:	4b0b      	ldr	r3, [pc, #44]	; (3e60 <sal_aes_setup+0x164>)
    3e32:	4641      	mov	r1, r8
    3e34:	2201      	movs	r2, #1
    3e36:	2083      	movs	r0, #131	; 0x83
    3e38:	469a      	mov	sl, r3
    3e3a:	4798      	blx	r3
    3e3c:	4b09      	ldr	r3, [pc, #36]	; (3e64 <sal_aes_setup+0x168>)
    3e3e:	2210      	movs	r2, #16
    3e40:	469b      	mov	fp, r3
    3e42:	0019      	movs	r1, r3
    3e44:	2084      	movs	r0, #132	; 0x84
    3e46:	4b0b      	ldr	r3, [pc, #44]	; (3e74 <sal_aes_setup+0x178>)
    3e48:	4798      	blx	r3
    3e4a:	e796      	b.n	3d7a <sal_aes_setup+0x7e>
    3e4c:	200002ca 	.word	0x200002ca
    3e50:	2000006d 	.word	0x2000006d
    3e54:	000095df 	.word	0x000095df
    3e58:	200002dc 	.word	0x200002dc
    3e5c:	200002b8 	.word	0x200002b8
    3e60:	0000453d 	.word	0x0000453d
    3e64:	200002cc 	.word	0x200002cc
    3e68:	200002ec 	.word	0x200002ec
    3e6c:	00004855 	.word	0x00004855
    3e70:	00000155 	.word	0x00000155
    3e74:	000046c5 	.word	0x000046c5

00003e78 <sal_aes_restart>:
    3e78:	b570      	push	{r4, r5, r6, lr}
    3e7a:	4b0c      	ldr	r3, [pc, #48]	; (3eac <sal_aes_restart+0x34>)
    3e7c:	781b      	ldrb	r3, [r3, #0]
    3e7e:	2b00      	cmp	r3, #0
    3e80:	d012      	beq.n	3ea8 <sal_aes_restart+0x30>
    3e82:	490b      	ldr	r1, [pc, #44]	; (3eb0 <sal_aes_restart+0x38>)
    3e84:	2310      	movs	r3, #16
    3e86:	4c0b      	ldr	r4, [pc, #44]	; (3eb4 <sal_aes_restart+0x3c>)
    3e88:	2210      	movs	r2, #16
    3e8a:	7825      	ldrb	r5, [r4, #0]
    3e8c:	1c60      	adds	r0, r4, #1
    3e8e:	7023      	strb	r3, [r4, #0]
    3e90:	4b09      	ldr	r3, [pc, #36]	; (3eb8 <sal_aes_restart+0x40>)
    3e92:	4798      	blx	r3
    3e94:	2211      	movs	r2, #17
    3e96:	0021      	movs	r1, r4
    3e98:	2083      	movs	r0, #131	; 0x83
    3e9a:	4b08      	ldr	r3, [pc, #32]	; (3ebc <sal_aes_restart+0x44>)
    3e9c:	4798      	blx	r3
    3e9e:	2201      	movs	r2, #1
    3ea0:	4b07      	ldr	r3, [pc, #28]	; (3ec0 <sal_aes_restart+0x48>)
    3ea2:	7025      	strb	r5, [r4, #0]
    3ea4:	701a      	strb	r2, [r3, #0]
    3ea6:	bd70      	pop	{r4, r5, r6, pc}
    3ea8:	4906      	ldr	r1, [pc, #24]	; (3ec4 <sal_aes_restart+0x4c>)
    3eaa:	e7eb      	b.n	3e84 <sal_aes_restart+0xc>
    3eac:	2000006d 	.word	0x2000006d
    3eb0:	200002cc 	.word	0x200002cc
    3eb4:	200002b8 	.word	0x200002b8
    3eb8:	000095df 	.word	0x000095df
    3ebc:	0000453d 	.word	0x0000453d
    3ec0:	200002ec 	.word	0x200002ec
    3ec4:	200002dc 	.word	0x200002dc

00003ec8 <_sal_aes_clean_up>:
    3ec8:	4770      	bx	lr
    3eca:	46c0      	nop			; (mov r8, r8)

00003ecc <sal_aes_wrrd>:
    3ecc:	b5f8      	push	{r3, r4, r5, r6, r7, lr}
    3ece:	46ce      	mov	lr, r9
    3ed0:	4647      	mov	r7, r8
    3ed2:	4c16      	ldr	r4, [pc, #88]	; (3f2c <sal_aes_wrrd+0x60>)
    3ed4:	b580      	push	{r7, lr}
    3ed6:	1c67      	adds	r7, r4, #1
    3ed8:	000e      	movs	r6, r1
    3eda:	2210      	movs	r2, #16
    3edc:	0001      	movs	r1, r0
    3ede:	4d14      	ldr	r5, [pc, #80]	; (3f30 <sal_aes_wrrd+0x64>)
    3ee0:	0038      	movs	r0, r7
    3ee2:	47a8      	blx	r5
    3ee4:	7c63      	ldrb	r3, [r4, #17]
    3ee6:	4699      	mov	r9, r3
    3ee8:	4b12      	ldr	r3, [pc, #72]	; (3f34 <sal_aes_wrrd+0x68>)
    3eea:	4698      	mov	r8, r3
    3eec:	781b      	ldrb	r3, [r3, #0]
    3eee:	2b00      	cmp	r3, #0
    3ef0:	d016      	beq.n	3f20 <sal_aes_wrrd+0x54>
    3ef2:	2212      	movs	r2, #18
    3ef4:	4b10      	ldr	r3, [pc, #64]	; (3f38 <sal_aes_wrrd+0x6c>)
    3ef6:	0021      	movs	r1, r4
    3ef8:	2083      	movs	r0, #131	; 0x83
    3efa:	4798      	blx	r3
    3efc:	2300      	movs	r3, #0
    3efe:	4642      	mov	r2, r8
    3f00:	7013      	strb	r3, [r2, #0]
    3f02:	2e00      	cmp	r6, #0
    3f04:	d003      	beq.n	3f0e <sal_aes_wrrd+0x42>
    3f06:	1c61      	adds	r1, r4, #1
    3f08:	2210      	movs	r2, #16
    3f0a:	0030      	movs	r0, r6
    3f0c:	47a8      	blx	r5
    3f0e:	464b      	mov	r3, r9
    3f10:	2018      	movs	r0, #24
    3f12:	7463      	strb	r3, [r4, #17]
    3f14:	4b09      	ldr	r3, [pc, #36]	; (3f3c <sal_aes_wrrd+0x70>)
    3f16:	4798      	blx	r3
    3f18:	bc0c      	pop	{r2, r3}
    3f1a:	4690      	mov	r8, r2
    3f1c:	4699      	mov	r9, r3
    3f1e:	bdf8      	pop	{r3, r4, r5, r6, r7, pc}
    3f20:	2211      	movs	r2, #17
    3f22:	0039      	movs	r1, r7
    3f24:	2084      	movs	r0, #132	; 0x84
    3f26:	4b04      	ldr	r3, [pc, #16]	; (3f38 <sal_aes_wrrd+0x6c>)
    3f28:	4798      	blx	r3
    3f2a:	e7ea      	b.n	3f02 <sal_aes_wrrd+0x36>
    3f2c:	200002b8 	.word	0x200002b8
    3f30:	000095df 	.word	0x000095df
    3f34:	200002ec 	.word	0x200002ec
    3f38:	00004855 	.word	0x00004855
    3f3c:	00000155 	.word	0x00000155

00003f40 <sal_aes_read>:
    3f40:	b510      	push	{r4, lr}
    3f42:	0001      	movs	r1, r0
    3f44:	2210      	movs	r2, #16
    3f46:	2084      	movs	r0, #132	; 0x84
    3f48:	4b01      	ldr	r3, [pc, #4]	; (3f50 <sal_aes_read+0x10>)
    3f4a:	4798      	blx	r3
    3f4c:	bd10      	pop	{r4, pc}
    3f4e:	46c0      	nop			; (mov r8, r8)
    3f50:	000046c5 	.word	0x000046c5

00003f54 <AT86RFX_ISR>:
    3f54:	2201      	movs	r2, #1
    3f56:	b510      	push	{r4, lr}
    3f58:	4b03      	ldr	r3, [pc, #12]	; (3f68 <AT86RFX_ISR+0x14>)
    3f5a:	611a      	str	r2, [r3, #16]
    3f5c:	4b03      	ldr	r3, [pc, #12]	; (3f6c <AT86RFX_ISR+0x18>)
    3f5e:	681b      	ldr	r3, [r3, #0]
    3f60:	2b00      	cmp	r3, #0
    3f62:	d000      	beq.n	3f66 <AT86RFX_ISR+0x12>
    3f64:	4798      	blx	r3
    3f66:	bd10      	pop	{r4, pc}
    3f68:	40001800 	.word	0x40001800
    3f6c:	200002f0 	.word	0x200002f0

00003f70 <trx_spi_init>:
    3f70:	b570      	push	{r4, r5, r6, lr}
    3f72:	223f      	movs	r2, #63	; 0x3f
    3f74:	2400      	movs	r4, #0
    3f76:	4b34      	ldr	r3, [pc, #208]	; (4048 <trx_spi_init+0xd8>)
    3f78:	b084      	sub	sp, #16
    3f7a:	701a      	strb	r2, [r3, #0]
    3f7c:	705c      	strb	r4, [r3, #1]
    3f7e:	709c      	strb	r4, [r3, #2]
    3f80:	2501      	movs	r5, #1
    3f82:	466b      	mov	r3, sp
    3f84:	4e31      	ldr	r6, [pc, #196]	; (404c <trx_spi_init+0xdc>)
    3f86:	705d      	strb	r5, [r3, #1]
    3f88:	709c      	strb	r4, [r3, #2]
    3f8a:	701d      	strb	r5, [r3, #0]
    3f8c:	203f      	movs	r0, #63	; 0x3f
    3f8e:	4b30      	ldr	r3, [pc, #192]	; (4050 <trx_spi_init+0xe0>)
    3f90:	4669      	mov	r1, sp
    3f92:	7032      	strb	r2, [r6, #0]
    3f94:	7074      	strb	r4, [r6, #1]
    3f96:	70b4      	strb	r4, [r6, #2]
    3f98:	4798      	blx	r3
    3f9a:	7830      	ldrb	r0, [r6, #0]
    3f9c:	0942      	lsrs	r2, r0, #5
    3f9e:	09c3      	lsrs	r3, r0, #7
    3fa0:	d150      	bne.n	4044 <trx_spi_init+0xd4>
    3fa2:	211f      	movs	r1, #31
    3fa4:	4001      	ands	r1, r0
    3fa6:	0028      	movs	r0, r5
    3fa8:	4088      	lsls	r0, r1
    3faa:	0001      	movs	r1, r0
    3fac:	4829      	ldr	r0, [pc, #164]	; (4054 <trx_spi_init+0xe4>)
    3fae:	4c2a      	ldr	r4, [pc, #168]	; (4058 <trx_spi_init+0xe8>)
    3fb0:	4684      	mov	ip, r0
    3fb2:	01d2      	lsls	r2, r2, #7
    3fb4:	4462      	add	r2, ip
    3fb6:	6191      	str	r1, [r2, #24]
    3fb8:	0020      	movs	r0, r4
    3fba:	2224      	movs	r2, #36	; 0x24
    3fbc:	6063      	str	r3, [r4, #4]
    3fbe:	54a3      	strb	r3, [r4, r2]
    3fc0:	60a3      	str	r3, [r4, #8]
    3fc2:	7423      	strb	r3, [r4, #16]
    3fc4:	7463      	strb	r3, [r4, #17]
    3fc6:	7523      	strb	r3, [r4, #20]
    3fc8:	3a18      	subs	r2, #24
    3fca:	2100      	movs	r1, #0
    3fcc:	4b23      	ldr	r3, [pc, #140]	; (405c <trx_spi_init+0xec>)
    3fce:	3018      	adds	r0, #24
    3fd0:	7025      	strb	r5, [r4, #0]
    3fd2:	74a5      	strb	r5, [r4, #18]
    3fd4:	74e5      	strb	r5, [r4, #19]
    3fd6:	4798      	blx	r3
    3fd8:	2380      	movs	r3, #128	; 0x80
    3fda:	025b      	lsls	r3, r3, #9
    3fdc:	60e3      	str	r3, [r4, #12]
    3fde:	4b20      	ldr	r3, [pc, #128]	; (4060 <trx_spi_init+0xf0>)
    3fe0:	4d20      	ldr	r5, [pc, #128]	; (4064 <trx_spi_init+0xf4>)
    3fe2:	61a3      	str	r3, [r4, #24]
    3fe4:	4b20      	ldr	r3, [pc, #128]	; (4068 <trx_spi_init+0xf8>)
    3fe6:	0022      	movs	r2, r4
    3fe8:	62a3      	str	r3, [r4, #40]	; 0x28
    3fea:	2301      	movs	r3, #1
    3fec:	425b      	negs	r3, r3
    3fee:	62e3      	str	r3, [r4, #44]	; 0x2c
    3ff0:	4b1e      	ldr	r3, [pc, #120]	; (406c <trx_spi_init+0xfc>)
    3ff2:	491f      	ldr	r1, [pc, #124]	; (4070 <trx_spi_init+0x100>)
    3ff4:	6323      	str	r3, [r4, #48]	; 0x30
    3ff6:	4b1f      	ldr	r3, [pc, #124]	; (4074 <trx_spi_init+0x104>)
    3ff8:	0028      	movs	r0, r5
    3ffa:	6363      	str	r3, [r4, #52]	; 0x34
    3ffc:	4b1e      	ldr	r3, [pc, #120]	; (4078 <trx_spi_init+0x108>)
    3ffe:	4798      	blx	r3
    4000:	682b      	ldr	r3, [r5, #0]
    4002:	69dc      	ldr	r4, [r3, #28]
    4004:	2c00      	cmp	r4, #0
    4006:	d1fc      	bne.n	4002 <trx_spi_init+0x92>
    4008:	2502      	movs	r5, #2
    400a:	681a      	ldr	r2, [r3, #0]
    400c:	4668      	mov	r0, sp
    400e:	432a      	orrs	r2, r5
    4010:	601a      	str	r2, [r3, #0]
    4012:	4b1a      	ldr	r3, [pc, #104]	; (407c <trx_spi_init+0x10c>)
    4014:	4798      	blx	r3
    4016:	2380      	movs	r3, #128	; 0x80
    4018:	2220      	movs	r2, #32
    401a:	039b      	lsls	r3, r3, #14
    401c:	9200      	str	r2, [sp, #0]
    401e:	9301      	str	r3, [sp, #4]
    4020:	466b      	mov	r3, sp
    4022:	466a      	mov	r2, sp
    4024:	721d      	strb	r5, [r3, #8]
    4026:	2301      	movs	r3, #1
    4028:	4669      	mov	r1, sp
    402a:	7253      	strb	r3, [r2, #9]
    402c:	72d3      	strb	r3, [r2, #11]
    402e:	2000      	movs	r0, #0
    4030:	4b13      	ldr	r3, [pc, #76]	; (4080 <trx_spi_init+0x110>)
    4032:	7294      	strb	r4, [r2, #10]
    4034:	4798      	blx	r3
    4036:	2200      	movs	r2, #0
    4038:	2100      	movs	r1, #0
    403a:	4b12      	ldr	r3, [pc, #72]	; (4084 <trx_spi_init+0x114>)
    403c:	4812      	ldr	r0, [pc, #72]	; (4088 <trx_spi_init+0x118>)
    403e:	4798      	blx	r3
    4040:	b004      	add	sp, #16
    4042:	bd70      	pop	{r4, r5, r6, pc}
    4044:	61a4      	str	r4, [r4, #24]
    4046:	deff      	udf	#255	; 0xff
    4048:	20001fe0 	.word	0x20001fe0
    404c:	20001fe4 	.word	0x20001fe4
    4050:	0000049d 	.word	0x0000049d
    4054:	41004400 	.word	0x41004400
    4058:	20001fe8 	.word	0x20001fe8
    405c:	000095f1 	.word	0x000095f1
    4060:	003d0900 	.word	0x003d0900
    4064:	20002020 	.word	0x20002020
    4068:	00530005 	.word	0x00530005
    406c:	003e0005 	.word	0x003e0005
    4070:	42001800 	.word	0x42001800
    4074:	00520005 	.word	0x00520005
    4078:	00000a39 	.word	0x00000a39
    407c:	00000411 	.word	0x00000411
    4080:	00000425 	.word	0x00000425
    4084:	000002ed 	.word	0x000002ed
    4088:	00003f55 	.word	0x00003f55

0000408c <PhyReset>:
    408c:	b570      	push	{r4, r5, r6, lr}
    408e:	2280      	movs	r2, #128	; 0x80
    4090:	2580      	movs	r5, #128	; 0x80
    4092:	20a5      	movs	r0, #165	; 0xa5
    4094:	4c06      	ldr	r4, [pc, #24]	; (40b0 <PhyReset+0x24>)
    4096:	4b07      	ldr	r3, [pc, #28]	; (40b4 <PhyReset+0x28>)
    4098:	022d      	lsls	r5, r5, #8
    409a:	0352      	lsls	r2, r2, #13
    409c:	61a5      	str	r5, [r4, #24]
    409e:	4e06      	ldr	r6, [pc, #24]	; (40b8 <PhyReset+0x2c>)
    40a0:	615a      	str	r2, [r3, #20]
    40a2:	0040      	lsls	r0, r0, #1
    40a4:	47b0      	blx	r6
    40a6:	6165      	str	r5, [r4, #20]
    40a8:	200a      	movs	r0, #10
    40aa:	47b0      	blx	r6
    40ac:	61a5      	str	r5, [r4, #24]
    40ae:	bd70      	pop	{r4, r5, r6, pc}
    40b0:	41004480 	.word	0x41004480
    40b4:	41004400 	.word	0x41004400
    40b8:	00000155 	.word	0x00000155

000040bc <trx_reg_read>:
    40bc:	b5f0      	push	{r4, r5, r6, r7, lr}
    40be:	46ce      	mov	lr, r9
    40c0:	4647      	mov	r7, r8
    40c2:	b580      	push	{r7, lr}
    40c4:	b083      	sub	sp, #12
    40c6:	f3ef 8310 	mrs	r3, PRIMASK
    40ca:	425a      	negs	r2, r3
    40cc:	4153      	adcs	r3, r2
    40ce:	9301      	str	r3, [sp, #4]
    40d0:	b672      	cpsid	i
    40d2:	f3bf 8f5f 	dmb	sy
    40d6:	2300      	movs	r3, #0
    40d8:	4f32      	ldr	r7, [pc, #200]	; (41a4 <trx_reg_read+0xe8>)
    40da:	4c33      	ldr	r4, [pc, #204]	; (41a8 <trx_reg_read+0xec>)
    40dc:	703b      	strb	r3, [r7, #0]
    40de:	9b01      	ldr	r3, [sp, #4]
    40e0:	4e32      	ldr	r6, [pc, #200]	; (41ac <trx_reg_read+0xf0>)
    40e2:	4698      	mov	r8, r3
    40e4:	2380      	movs	r3, #128	; 0x80
    40e6:	4318      	orrs	r0, r3
    40e8:	0031      	movs	r1, r6
    40ea:	4681      	mov	r9, r0
    40ec:	2201      	movs	r2, #1
    40ee:	0020      	movs	r0, r4
    40f0:	4d2f      	ldr	r5, [pc, #188]	; (41b0 <trx_reg_read+0xf4>)
    40f2:	47a8      	blx	r5
    40f4:	2101      	movs	r1, #1
    40f6:	6823      	ldr	r3, [r4, #0]
    40f8:	7e1a      	ldrb	r2, [r3, #24]
    40fa:	4211      	tst	r1, r2
    40fc:	d0fc      	beq.n	40f8 <trx_reg_read+0x3c>
    40fe:	7e1a      	ldrb	r2, [r3, #24]
    4100:	4211      	tst	r1, r2
    4102:	d001      	beq.n	4108 <trx_reg_read+0x4c>
    4104:	464a      	mov	r2, r9
    4106:	629a      	str	r2, [r3, #40]	; 0x28
    4108:	2102      	movs	r1, #2
    410a:	7e1a      	ldrb	r2, [r3, #24]
    410c:	4211      	tst	r1, r2
    410e:	d0fc      	beq.n	410a <trx_reg_read+0x4e>
    4110:	2104      	movs	r1, #4
    4112:	7e1a      	ldrb	r2, [r3, #24]
    4114:	4211      	tst	r1, r2
    4116:	d0fc      	beq.n	4112 <trx_reg_read+0x56>
    4118:	7e1a      	ldrb	r2, [r3, #24]
    411a:	4211      	tst	r1, r2
    411c:	d00a      	beq.n	4134 <trx_reg_read+0x78>
    411e:	8b5a      	ldrh	r2, [r3, #26]
    4120:	0752      	lsls	r2, r2, #29
    4122:	d500      	bpl.n	4126 <trx_reg_read+0x6a>
    4124:	8359      	strh	r1, [r3, #26]
    4126:	79a2      	ldrb	r2, [r4, #6]
    4128:	2a01      	cmp	r2, #1
    412a:	d034      	beq.n	4196 <trx_reg_read+0xda>
    412c:	6a9a      	ldr	r2, [r3, #40]	; 0x28
    412e:	4921      	ldr	r1, [pc, #132]	; (41b4 <trx_reg_read+0xf8>)
    4130:	b2d2      	uxtb	r2, r2
    4132:	800a      	strh	r2, [r1, #0]
    4134:	2101      	movs	r1, #1
    4136:	7e1a      	ldrb	r2, [r3, #24]
    4138:	4211      	tst	r1, r2
    413a:	d0fc      	beq.n	4136 <trx_reg_read+0x7a>
    413c:	7e1a      	ldrb	r2, [r3, #24]
    413e:	4211      	tst	r1, r2
    4140:	d001      	beq.n	4146 <trx_reg_read+0x8a>
    4142:	2200      	movs	r2, #0
    4144:	629a      	str	r2, [r3, #40]	; 0x28
    4146:	2102      	movs	r1, #2
    4148:	7e1a      	ldrb	r2, [r3, #24]
    414a:	4211      	tst	r1, r2
    414c:	d0fc      	beq.n	4148 <trx_reg_read+0x8c>
    414e:	2104      	movs	r1, #4
    4150:	7e1a      	ldrb	r2, [r3, #24]
    4152:	4211      	tst	r1, r2
    4154:	d0fc      	beq.n	4150 <trx_reg_read+0x94>
    4156:	2000      	movs	r0, #0
    4158:	7e1a      	ldrb	r2, [r3, #24]
    415a:	4681      	mov	r9, r0
    415c:	4211      	tst	r1, r2
    415e:	d005      	beq.n	416c <trx_reg_read+0xb0>
    4160:	8b5a      	ldrh	r2, [r3, #26]
    4162:	0752      	lsls	r2, r2, #29
    4164:	d415      	bmi.n	4192 <trx_reg_read+0xd6>
    4166:	6a9b      	ldr	r3, [r3, #40]	; 0x28
    4168:	b2db      	uxtb	r3, r3
    416a:	4699      	mov	r9, r3
    416c:	2200      	movs	r2, #0
    416e:	0031      	movs	r1, r6
    4170:	0020      	movs	r0, r4
    4172:	47a8      	blx	r5
    4174:	23ff      	movs	r3, #255	; 0xff
    4176:	4642      	mov	r2, r8
    4178:	4213      	tst	r3, r2
    417a:	d004      	beq.n	4186 <trx_reg_read+0xca>
    417c:	3bfe      	subs	r3, #254	; 0xfe
    417e:	703b      	strb	r3, [r7, #0]
    4180:	f3bf 8f5f 	dmb	sy
    4184:	b662      	cpsie	i
    4186:	4648      	mov	r0, r9
    4188:	b003      	add	sp, #12
    418a:	bc0c      	pop	{r2, r3}
    418c:	4690      	mov	r8, r2
    418e:	4699      	mov	r9, r3
    4190:	bdf0      	pop	{r4, r5, r6, r7, pc}
    4192:	8359      	strh	r1, [r3, #26]
    4194:	e7e7      	b.n	4166 <trx_reg_read+0xaa>
    4196:	6a9a      	ldr	r2, [r3, #40]	; 0x28
    4198:	4906      	ldr	r1, [pc, #24]	; (41b4 <trx_reg_read+0xf8>)
    419a:	05d2      	lsls	r2, r2, #23
    419c:	0dd2      	lsrs	r2, r2, #23
    419e:	800a      	strh	r2, [r1, #0]
    41a0:	e7c8      	b.n	4134 <trx_reg_read+0x78>
    41a2:	46c0      	nop			; (mov r8, r8)
    41a4:	20000008 	.word	0x20000008
    41a8:	20002020 	.word	0x20002020
    41ac:	20001fe4 	.word	0x20001fe4
    41b0:	00000e55 	.word	0x00000e55
    41b4:	20001fdc 	.word	0x20001fdc

000041b8 <trx_reg_write>:
    41b8:	b5f0      	push	{r4, r5, r6, r7, lr}
    41ba:	464f      	mov	r7, r9
    41bc:	46d6      	mov	lr, sl
    41be:	4646      	mov	r6, r8
    41c0:	b5c0      	push	{r6, r7, lr}
    41c2:	4689      	mov	r9, r1
    41c4:	b082      	sub	sp, #8
    41c6:	f3ef 8310 	mrs	r3, PRIMASK
    41ca:	425a      	negs	r2, r3
    41cc:	4153      	adcs	r3, r2
    41ce:	9301      	str	r3, [sp, #4]
    41d0:	b672      	cpsid	i
    41d2:	f3bf 8f5f 	dmb	sy
    41d6:	2300      	movs	r3, #0
    41d8:	4f35      	ldr	r7, [pc, #212]	; (42b0 <trx_reg_write+0xf8>)
    41da:	4c36      	ldr	r4, [pc, #216]	; (42b4 <trx_reg_write+0xfc>)
    41dc:	703b      	strb	r3, [r7, #0]
    41de:	9b01      	ldr	r3, [sp, #4]
    41e0:	4e35      	ldr	r6, [pc, #212]	; (42b8 <trx_reg_write+0x100>)
    41e2:	4698      	mov	r8, r3
    41e4:	23c0      	movs	r3, #192	; 0xc0
    41e6:	4318      	orrs	r0, r3
    41e8:	0031      	movs	r1, r6
    41ea:	4682      	mov	sl, r0
    41ec:	2201      	movs	r2, #1
    41ee:	0020      	movs	r0, r4
    41f0:	4d32      	ldr	r5, [pc, #200]	; (42bc <trx_reg_write+0x104>)
    41f2:	47a8      	blx	r5
    41f4:	2101      	movs	r1, #1
    41f6:	6823      	ldr	r3, [r4, #0]
    41f8:	7e1a      	ldrb	r2, [r3, #24]
    41fa:	4211      	tst	r1, r2
    41fc:	d0fc      	beq.n	41f8 <trx_reg_write+0x40>
    41fe:	7e1a      	ldrb	r2, [r3, #24]
    4200:	4211      	tst	r1, r2
    4202:	d001      	beq.n	4208 <trx_reg_write+0x50>
    4204:	4652      	mov	r2, sl
    4206:	629a      	str	r2, [r3, #40]	; 0x28
    4208:	2102      	movs	r1, #2
    420a:	7e1a      	ldrb	r2, [r3, #24]
    420c:	4211      	tst	r1, r2
    420e:	d0fc      	beq.n	420a <trx_reg_write+0x52>
    4210:	2104      	movs	r1, #4
    4212:	7e1a      	ldrb	r2, [r3, #24]
    4214:	4211      	tst	r1, r2
    4216:	d0fc      	beq.n	4212 <trx_reg_write+0x5a>
    4218:	7e1a      	ldrb	r2, [r3, #24]
    421a:	4211      	tst	r1, r2
    421c:	d00a      	beq.n	4234 <trx_reg_write+0x7c>
    421e:	8b5a      	ldrh	r2, [r3, #26]
    4220:	0752      	lsls	r2, r2, #29
    4222:	d500      	bpl.n	4226 <trx_reg_write+0x6e>
    4224:	8359      	strh	r1, [r3, #26]
    4226:	79a2      	ldrb	r2, [r4, #6]
    4228:	2a01      	cmp	r2, #1
    422a:	d03a      	beq.n	42a2 <trx_reg_write+0xea>
    422c:	6a9a      	ldr	r2, [r3, #40]	; 0x28
    422e:	4924      	ldr	r1, [pc, #144]	; (42c0 <trx_reg_write+0x108>)
    4230:	b2d2      	uxtb	r2, r2
    4232:	800a      	strh	r2, [r1, #0]
    4234:	2101      	movs	r1, #1
    4236:	7e1a      	ldrb	r2, [r3, #24]
    4238:	4211      	tst	r1, r2
    423a:	d0fc      	beq.n	4236 <trx_reg_write+0x7e>
    423c:	7e1a      	ldrb	r2, [r3, #24]
    423e:	4211      	tst	r1, r2
    4240:	d001      	beq.n	4246 <trx_reg_write+0x8e>
    4242:	464a      	mov	r2, r9
    4244:	629a      	str	r2, [r3, #40]	; 0x28
    4246:	2102      	movs	r1, #2
    4248:	7e1a      	ldrb	r2, [r3, #24]
    424a:	4211      	tst	r1, r2
    424c:	d0fc      	beq.n	4248 <trx_reg_write+0x90>
    424e:	2104      	movs	r1, #4
    4250:	7e1a      	ldrb	r2, [r3, #24]
    4252:	4211      	tst	r1, r2
    4254:	d0fc      	beq.n	4250 <trx_reg_write+0x98>
    4256:	7e1a      	ldrb	r2, [r3, #24]
    4258:	4211      	tst	r1, r2
    425a:	d00a      	beq.n	4272 <trx_reg_write+0xba>
    425c:	8b5a      	ldrh	r2, [r3, #26]
    425e:	0752      	lsls	r2, r2, #29
    4260:	d500      	bpl.n	4264 <trx_reg_write+0xac>
    4262:	8359      	strh	r1, [r3, #26]
    4264:	79a2      	ldrb	r2, [r4, #6]
    4266:	6a9b      	ldr	r3, [r3, #40]	; 0x28
    4268:	2a01      	cmp	r2, #1
    426a:	d015      	beq.n	4298 <trx_reg_write+0xe0>
    426c:	4a14      	ldr	r2, [pc, #80]	; (42c0 <trx_reg_write+0x108>)
    426e:	b2db      	uxtb	r3, r3
    4270:	8013      	strh	r3, [r2, #0]
    4272:	2200      	movs	r2, #0
    4274:	0031      	movs	r1, r6
    4276:	0020      	movs	r0, r4
    4278:	47a8      	blx	r5
    427a:	23ff      	movs	r3, #255	; 0xff
    427c:	4642      	mov	r2, r8
    427e:	4213      	tst	r3, r2
    4280:	d004      	beq.n	428c <trx_reg_write+0xd4>
    4282:	3bfe      	subs	r3, #254	; 0xfe
    4284:	703b      	strb	r3, [r7, #0]
    4286:	f3bf 8f5f 	dmb	sy
    428a:	b662      	cpsie	i
    428c:	b002      	add	sp, #8
    428e:	bc1c      	pop	{r2, r3, r4}
    4290:	4690      	mov	r8, r2
    4292:	4699      	mov	r9, r3
    4294:	46a2      	mov	sl, r4
    4296:	bdf0      	pop	{r4, r5, r6, r7, pc}
    4298:	05db      	lsls	r3, r3, #23
    429a:	4a09      	ldr	r2, [pc, #36]	; (42c0 <trx_reg_write+0x108>)
    429c:	0ddb      	lsrs	r3, r3, #23
    429e:	8013      	strh	r3, [r2, #0]
    42a0:	e7e7      	b.n	4272 <trx_reg_write+0xba>
    42a2:	6a9a      	ldr	r2, [r3, #40]	; 0x28
    42a4:	4906      	ldr	r1, [pc, #24]	; (42c0 <trx_reg_write+0x108>)
    42a6:	05d2      	lsls	r2, r2, #23
    42a8:	0dd2      	lsrs	r2, r2, #23
    42aa:	800a      	strh	r2, [r1, #0]
    42ac:	e7c2      	b.n	4234 <trx_reg_write+0x7c>
    42ae:	46c0      	nop			; (mov r8, r8)
    42b0:	20000008 	.word	0x20000008
    42b4:	20002020 	.word	0x20002020
    42b8:	20001fe4 	.word	0x20001fe4
    42bc:	00000e55 	.word	0x00000e55
    42c0:	20001fdc 	.word	0x20001fdc

000042c4 <trx_frame_read>:
    42c4:	b5f0      	push	{r4, r5, r6, r7, lr}
    42c6:	4645      	mov	r5, r8
    42c8:	46de      	mov	lr, fp
    42ca:	4657      	mov	r7, sl
    42cc:	464e      	mov	r6, r9
    42ce:	b5e0      	push	{r5, r6, r7, lr}
    42d0:	0004      	movs	r4, r0
    42d2:	b085      	sub	sp, #20
    42d4:	4688      	mov	r8, r1
    42d6:	f3ef 8310 	mrs	r3, PRIMASK
    42da:	425a      	negs	r2, r3
    42dc:	4153      	adcs	r3, r2
    42de:	9303      	str	r3, [sp, #12]
    42e0:	b672      	cpsid	i
    42e2:	f3bf 8f5f 	dmb	sy
    42e6:	2300      	movs	r3, #0
    42e8:	4a40      	ldr	r2, [pc, #256]	; (43ec <trx_frame_read+0x128>)
    42ea:	4d41      	ldr	r5, [pc, #260]	; (43f0 <trx_frame_read+0x12c>)
    42ec:	7013      	strb	r3, [r2, #0]
    42ee:	9b03      	ldr	r3, [sp, #12]
    42f0:	4940      	ldr	r1, [pc, #256]	; (43f4 <trx_frame_read+0x130>)
    42f2:	9301      	str	r3, [sp, #4]
    42f4:	4b40      	ldr	r3, [pc, #256]	; (43f8 <trx_frame_read+0x134>)
    42f6:	2201      	movs	r2, #1
    42f8:	0028      	movs	r0, r5
    42fa:	469a      	mov	sl, r3
    42fc:	4798      	blx	r3
    42fe:	2101      	movs	r1, #1
    4300:	682b      	ldr	r3, [r5, #0]
    4302:	7e1a      	ldrb	r2, [r3, #24]
    4304:	4211      	tst	r1, r2
    4306:	d0fc      	beq.n	4302 <trx_frame_read+0x3e>
    4308:	7e1a      	ldrb	r2, [r3, #24]
    430a:	4211      	tst	r1, r2
    430c:	d001      	beq.n	4312 <trx_frame_read+0x4e>
    430e:	2220      	movs	r2, #32
    4310:	629a      	str	r2, [r3, #40]	; 0x28
    4312:	2102      	movs	r1, #2
    4314:	7e1a      	ldrb	r2, [r3, #24]
    4316:	4211      	tst	r1, r2
    4318:	d0fc      	beq.n	4314 <trx_frame_read+0x50>
    431a:	2104      	movs	r1, #4
    431c:	7e1a      	ldrb	r2, [r3, #24]
    431e:	4211      	tst	r1, r2
    4320:	d0fc      	beq.n	431c <trx_frame_read+0x58>
    4322:	7e1a      	ldrb	r2, [r3, #24]
    4324:	4211      	tst	r1, r2
    4326:	d00a      	beq.n	433e <trx_frame_read+0x7a>
    4328:	8b5a      	ldrh	r2, [r3, #26]
    432a:	0752      	lsls	r2, r2, #29
    432c:	d500      	bpl.n	4330 <trx_frame_read+0x6c>
    432e:	8359      	strh	r1, [r3, #26]
    4330:	79aa      	ldrb	r2, [r5, #6]
    4332:	2a01      	cmp	r2, #1
    4334:	d053      	beq.n	43de <trx_frame_read+0x11a>
    4336:	6a9a      	ldr	r2, [r3, #40]	; 0x28
    4338:	4930      	ldr	r1, [pc, #192]	; (43fc <trx_frame_read+0x138>)
    433a:	b2d2      	uxtb	r2, r2
    433c:	800a      	strh	r2, [r1, #0]
    433e:	4642      	mov	r2, r8
    4340:	4641      	mov	r1, r8
    4342:	3a01      	subs	r2, #1
    4344:	b2d2      	uxtb	r2, r2
    4346:	2900      	cmp	r1, #0
    4348:	d034      	beq.n	43b4 <trx_frame_read+0xf0>
    434a:	3201      	adds	r2, #1
    434c:	4691      	mov	r9, r2
    434e:	2220      	movs	r2, #32
    4350:	4690      	mov	r8, r2
    4352:	2200      	movs	r2, #0
    4354:	2101      	movs	r1, #1
    4356:	4693      	mov	fp, r2
    4358:	2702      	movs	r7, #2
    435a:	2004      	movs	r0, #4
    435c:	2604      	movs	r6, #4
    435e:	44a1      	add	r9, r4
    4360:	7e1a      	ldrb	r2, [r3, #24]
    4362:	4211      	tst	r1, r2
    4364:	d0fc      	beq.n	4360 <trx_frame_read+0x9c>
    4366:	7e1a      	ldrb	r2, [r3, #24]
    4368:	4211      	tst	r1, r2
    436a:	d001      	beq.n	4370 <trx_frame_read+0xac>
    436c:	465a      	mov	r2, fp
    436e:	629a      	str	r2, [r3, #40]	; 0x28
    4370:	7e1a      	ldrb	r2, [r3, #24]
    4372:	4217      	tst	r7, r2
    4374:	d0fc      	beq.n	4370 <trx_frame_read+0xac>
    4376:	7e1a      	ldrb	r2, [r3, #24]
    4378:	4210      	tst	r0, r2
    437a:	d0fc      	beq.n	4376 <trx_frame_read+0xb2>
    437c:	7e1a      	ldrb	r2, [r3, #24]
    437e:	4216      	tst	r6, r2
    4380:	d009      	beq.n	4396 <trx_frame_read+0xd2>
    4382:	8b5a      	ldrh	r2, [r3, #26]
    4384:	4210      	tst	r0, r2
    4386:	d000      	beq.n	438a <trx_frame_read+0xc6>
    4388:	8358      	strh	r0, [r3, #26]
    438a:	79aa      	ldrb	r2, [r5, #6]
    438c:	6a9b      	ldr	r3, [r3, #40]	; 0x28
    438e:	2a01      	cmp	r2, #1
    4390:	d008      	beq.n	43a4 <trx_frame_read+0xe0>
    4392:	b2db      	uxtb	r3, r3
    4394:	4698      	mov	r8, r3
    4396:	4643      	mov	r3, r8
    4398:	7023      	strb	r3, [r4, #0]
    439a:	3401      	adds	r4, #1
    439c:	454c      	cmp	r4, r9
    439e:	d009      	beq.n	43b4 <trx_frame_read+0xf0>
    43a0:	682b      	ldr	r3, [r5, #0]
    43a2:	e7dd      	b.n	4360 <trx_frame_read+0x9c>
    43a4:	05db      	lsls	r3, r3, #23
    43a6:	0ddb      	lsrs	r3, r3, #23
    43a8:	4698      	mov	r8, r3
    43aa:	4643      	mov	r3, r8
    43ac:	7023      	strb	r3, [r4, #0]
    43ae:	3401      	adds	r4, #1
    43b0:	454c      	cmp	r4, r9
    43b2:	d1f5      	bne.n	43a0 <trx_frame_read+0xdc>
    43b4:	2200      	movs	r2, #0
    43b6:	490f      	ldr	r1, [pc, #60]	; (43f4 <trx_frame_read+0x130>)
    43b8:	0028      	movs	r0, r5
    43ba:	47d0      	blx	sl
    43bc:	23ff      	movs	r3, #255	; 0xff
    43be:	9a01      	ldr	r2, [sp, #4]
    43c0:	4213      	tst	r3, r2
    43c2:	d005      	beq.n	43d0 <trx_frame_read+0x10c>
    43c4:	2301      	movs	r3, #1
    43c6:	4a09      	ldr	r2, [pc, #36]	; (43ec <trx_frame_read+0x128>)
    43c8:	7013      	strb	r3, [r2, #0]
    43ca:	f3bf 8f5f 	dmb	sy
    43ce:	b662      	cpsie	i
    43d0:	b005      	add	sp, #20
    43d2:	bc3c      	pop	{r2, r3, r4, r5}
    43d4:	4690      	mov	r8, r2
    43d6:	4699      	mov	r9, r3
    43d8:	46a2      	mov	sl, r4
    43da:	46ab      	mov	fp, r5
    43dc:	bdf0      	pop	{r4, r5, r6, r7, pc}
    43de:	6a9a      	ldr	r2, [r3, #40]	; 0x28
    43e0:	4906      	ldr	r1, [pc, #24]	; (43fc <trx_frame_read+0x138>)
    43e2:	05d2      	lsls	r2, r2, #23
    43e4:	0dd2      	lsrs	r2, r2, #23
    43e6:	800a      	strh	r2, [r1, #0]
    43e8:	e7a9      	b.n	433e <trx_frame_read+0x7a>
    43ea:	46c0      	nop			; (mov r8, r8)
    43ec:	20000008 	.word	0x20000008
    43f0:	20002020 	.word	0x20002020
    43f4:	20001fe4 	.word	0x20001fe4
    43f8:	00000e55 	.word	0x00000e55
    43fc:	20001fdc 	.word	0x20001fdc

00004400 <trx_frame_write>:
    4400:	b5f0      	push	{r4, r5, r6, r7, lr}
    4402:	464e      	mov	r6, r9
    4404:	46de      	mov	lr, fp
    4406:	4657      	mov	r7, sl
    4408:	4645      	mov	r5, r8
    440a:	b5e0      	push	{r5, r6, r7, lr}
    440c:	0004      	movs	r4, r0
    440e:	b085      	sub	sp, #20
    4410:	000e      	movs	r6, r1
    4412:	f3ef 8310 	mrs	r3, PRIMASK
    4416:	425a      	negs	r2, r3
    4418:	4153      	adcs	r3, r2
    441a:	9303      	str	r3, [sp, #12]
    441c:	b672      	cpsid	i
    441e:	f3bf 8f5f 	dmb	sy
    4422:	2300      	movs	r3, #0
    4424:	4a40      	ldr	r2, [pc, #256]	; (4528 <trx_frame_write+0x128>)
    4426:	4841      	ldr	r0, [pc, #260]	; (452c <trx_frame_write+0x12c>)
    4428:	7013      	strb	r3, [r2, #0]
    442a:	9b03      	ldr	r3, [sp, #12]
    442c:	2201      	movs	r2, #1
    442e:	9301      	str	r3, [sp, #4]
    4430:	4b3f      	ldr	r3, [pc, #252]	; (4530 <trx_frame_write+0x130>)
    4432:	0019      	movs	r1, r3
    4434:	4698      	mov	r8, r3
    4436:	4b3f      	ldr	r3, [pc, #252]	; (4534 <trx_frame_write+0x134>)
    4438:	4798      	blx	r3
    443a:	2101      	movs	r1, #1
    443c:	4b3b      	ldr	r3, [pc, #236]	; (452c <trx_frame_write+0x12c>)
    443e:	681b      	ldr	r3, [r3, #0]
    4440:	7e1a      	ldrb	r2, [r3, #24]
    4442:	4211      	tst	r1, r2
    4444:	d0fc      	beq.n	4440 <trx_frame_write+0x40>
    4446:	7e1a      	ldrb	r2, [r3, #24]
    4448:	4211      	tst	r1, r2
    444a:	d001      	beq.n	4450 <trx_frame_write+0x50>
    444c:	2260      	movs	r2, #96	; 0x60
    444e:	629a      	str	r2, [r3, #40]	; 0x28
    4450:	2102      	movs	r1, #2
    4452:	7e1a      	ldrb	r2, [r3, #24]
    4454:	4211      	tst	r1, r2
    4456:	d0fc      	beq.n	4452 <trx_frame_write+0x52>
    4458:	2104      	movs	r1, #4
    445a:	7e1a      	ldrb	r2, [r3, #24]
    445c:	4211      	tst	r1, r2
    445e:	d0fc      	beq.n	445a <trx_frame_write+0x5a>
    4460:	7e1a      	ldrb	r2, [r3, #24]
    4462:	4211      	tst	r1, r2
    4464:	d00b      	beq.n	447e <trx_frame_write+0x7e>
    4466:	8b5a      	ldrh	r2, [r3, #26]
    4468:	0752      	lsls	r2, r2, #29
    446a:	d500      	bpl.n	446e <trx_frame_write+0x6e>
    446c:	8359      	strh	r1, [r3, #26]
    446e:	4a2f      	ldr	r2, [pc, #188]	; (452c <trx_frame_write+0x12c>)
    4470:	7992      	ldrb	r2, [r2, #6]
    4472:	2a01      	cmp	r2, #1
    4474:	d051      	beq.n	451a <trx_frame_write+0x11a>
    4476:	6a9a      	ldr	r2, [r3, #40]	; 0x28
    4478:	492f      	ldr	r1, [pc, #188]	; (4538 <trx_frame_write+0x138>)
    447a:	b2d2      	uxtb	r2, r2
    447c:	800a      	strh	r2, [r1, #0]
    447e:	4a2b      	ldr	r2, [pc, #172]	; (452c <trx_frame_write+0x12c>)
    4480:	2104      	movs	r1, #4
    4482:	7992      	ldrb	r2, [r2, #6]
    4484:	4689      	mov	r9, r1
    4486:	4692      	mov	sl, r2
    4488:	492b      	ldr	r1, [pc, #172]	; (4538 <trx_frame_write+0x138>)
    448a:	3e01      	subs	r6, #1
    448c:	b2f6      	uxtb	r6, r6
    448e:	0020      	movs	r0, r4
    4490:	2201      	movs	r2, #1
    4492:	2502      	movs	r5, #2
    4494:	2404      	movs	r4, #4
    4496:	468b      	mov	fp, r1
    4498:	46d4      	mov	ip, sl
    449a:	2eff      	cmp	r6, #255	; 0xff
    449c:	d021      	beq.n	44e2 <trx_frame_write+0xe2>
    449e:	7e19      	ldrb	r1, [r3, #24]
    44a0:	420a      	tst	r2, r1
    44a2:	d0fc      	beq.n	449e <trx_frame_write+0x9e>
    44a4:	7e19      	ldrb	r1, [r3, #24]
    44a6:	7807      	ldrb	r7, [r0, #0]
    44a8:	420a      	tst	r2, r1
    44aa:	d000      	beq.n	44ae <trx_frame_write+0xae>
    44ac:	629f      	str	r7, [r3, #40]	; 0x28
    44ae:	7e19      	ldrb	r1, [r3, #24]
    44b0:	420d      	tst	r5, r1
    44b2:	d0fc      	beq.n	44ae <trx_frame_write+0xae>
    44b4:	7e19      	ldrb	r1, [r3, #24]
    44b6:	420c      	tst	r4, r1
    44b8:	d0fc      	beq.n	44b4 <trx_frame_write+0xb4>
    44ba:	464f      	mov	r7, r9
    44bc:	7e19      	ldrb	r1, [r3, #24]
    44be:	420f      	tst	r7, r1
    44c0:	d00a      	beq.n	44d8 <trx_frame_write+0xd8>
    44c2:	8b59      	ldrh	r1, [r3, #26]
    44c4:	420c      	tst	r4, r1
    44c6:	d000      	beq.n	44ca <trx_frame_write+0xca>
    44c8:	835c      	strh	r4, [r3, #26]
    44ca:	4661      	mov	r1, ip
    44cc:	2901      	cmp	r1, #1
    44ce:	d01d      	beq.n	450c <trx_frame_write+0x10c>
    44d0:	465f      	mov	r7, fp
    44d2:	6a99      	ldr	r1, [r3, #40]	; 0x28
    44d4:	b2c9      	uxtb	r1, r1
    44d6:	8039      	strh	r1, [r7, #0]
    44d8:	3001      	adds	r0, #1
    44da:	3e01      	subs	r6, #1
    44dc:	b2f6      	uxtb	r6, r6
    44de:	2eff      	cmp	r6, #255	; 0xff
    44e0:	d1dd      	bne.n	449e <trx_frame_write+0x9e>
    44e2:	4b14      	ldr	r3, [pc, #80]	; (4534 <trx_frame_write+0x134>)
    44e4:	2200      	movs	r2, #0
    44e6:	4641      	mov	r1, r8
    44e8:	4810      	ldr	r0, [pc, #64]	; (452c <trx_frame_write+0x12c>)
    44ea:	4798      	blx	r3
    44ec:	9b01      	ldr	r3, [sp, #4]
    44ee:	421e      	tst	r6, r3
    44f0:	d005      	beq.n	44fe <trx_frame_write+0xfe>
    44f2:	2301      	movs	r3, #1
    44f4:	4a0c      	ldr	r2, [pc, #48]	; (4528 <trx_frame_write+0x128>)
    44f6:	7013      	strb	r3, [r2, #0]
    44f8:	f3bf 8f5f 	dmb	sy
    44fc:	b662      	cpsie	i
    44fe:	b005      	add	sp, #20
    4500:	bc3c      	pop	{r2, r3, r4, r5}
    4502:	4690      	mov	r8, r2
    4504:	4699      	mov	r9, r3
    4506:	46a2      	mov	sl, r4
    4508:	46ab      	mov	fp, r5
    450a:	bdf0      	pop	{r4, r5, r6, r7, pc}
    450c:	6a99      	ldr	r1, [r3, #40]	; 0x28
    450e:	4f0a      	ldr	r7, [pc, #40]	; (4538 <trx_frame_write+0x138>)
    4510:	05c9      	lsls	r1, r1, #23
    4512:	0dc9      	lsrs	r1, r1, #23
    4514:	8039      	strh	r1, [r7, #0]
    4516:	3001      	adds	r0, #1
    4518:	e7df      	b.n	44da <trx_frame_write+0xda>
    451a:	6a9a      	ldr	r2, [r3, #40]	; 0x28
    451c:	4906      	ldr	r1, [pc, #24]	; (4538 <trx_frame_write+0x138>)
    451e:	05d2      	lsls	r2, r2, #23
    4520:	0dd2      	lsrs	r2, r2, #23
    4522:	800a      	strh	r2, [r1, #0]
    4524:	e7ab      	b.n	447e <trx_frame_write+0x7e>
    4526:	46c0      	nop			; (mov r8, r8)
    4528:	20000008 	.word	0x20000008
    452c:	20002020 	.word	0x20002020
    4530:	20001fe4 	.word	0x20001fe4
    4534:	00000e55 	.word	0x00000e55
    4538:	20001fdc 	.word	0x20001fdc

0000453c <trx_sram_write>:
    453c:	b5f0      	push	{r4, r5, r6, r7, lr}
    453e:	464e      	mov	r6, r9
    4540:	4645      	mov	r5, r8
    4542:	46de      	mov	lr, fp
    4544:	4657      	mov	r7, sl
    4546:	b5e0      	push	{r5, r6, r7, lr}
    4548:	000c      	movs	r4, r1
    454a:	b085      	sub	sp, #20
    454c:	0005      	movs	r5, r0
    454e:	0016      	movs	r6, r2
    4550:	f3ef 8310 	mrs	r3, PRIMASK
    4554:	425a      	negs	r2, r3
    4556:	4153      	adcs	r3, r2
    4558:	9303      	str	r3, [sp, #12]
    455a:	b672      	cpsid	i
    455c:	f3bf 8f5f 	dmb	sy
    4560:	2300      	movs	r3, #0
    4562:	4a53      	ldr	r2, [pc, #332]	; (46b0 <trx_sram_write+0x174>)
    4564:	4853      	ldr	r0, [pc, #332]	; (46b4 <trx_sram_write+0x178>)
    4566:	7013      	strb	r3, [r2, #0]
    4568:	9b03      	ldr	r3, [sp, #12]
    456a:	2201      	movs	r2, #1
    456c:	9301      	str	r3, [sp, #4]
    456e:	4b52      	ldr	r3, [pc, #328]	; (46b8 <trx_sram_write+0x17c>)
    4570:	0019      	movs	r1, r3
    4572:	4698      	mov	r8, r3
    4574:	4b51      	ldr	r3, [pc, #324]	; (46bc <trx_sram_write+0x180>)
    4576:	4798      	blx	r3
    4578:	2101      	movs	r1, #1
    457a:	4b4e      	ldr	r3, [pc, #312]	; (46b4 <trx_sram_write+0x178>)
    457c:	681b      	ldr	r3, [r3, #0]
    457e:	7e1a      	ldrb	r2, [r3, #24]
    4580:	4211      	tst	r1, r2
    4582:	d0fc      	beq.n	457e <trx_sram_write+0x42>
    4584:	7e1a      	ldrb	r2, [r3, #24]
    4586:	4211      	tst	r1, r2
    4588:	d001      	beq.n	458e <trx_sram_write+0x52>
    458a:	2240      	movs	r2, #64	; 0x40
    458c:	629a      	str	r2, [r3, #40]	; 0x28
    458e:	2102      	movs	r1, #2
    4590:	7e1a      	ldrb	r2, [r3, #24]
    4592:	4211      	tst	r1, r2
    4594:	d0fc      	beq.n	4590 <trx_sram_write+0x54>
    4596:	2104      	movs	r1, #4
    4598:	7e1a      	ldrb	r2, [r3, #24]
    459a:	4211      	tst	r1, r2
    459c:	d0fc      	beq.n	4598 <trx_sram_write+0x5c>
    459e:	7e1a      	ldrb	r2, [r3, #24]
    45a0:	4211      	tst	r1, r2
    45a2:	d00c      	beq.n	45be <trx_sram_write+0x82>
    45a4:	8b5a      	ldrh	r2, [r3, #26]
    45a6:	0752      	lsls	r2, r2, #29
    45a8:	d500      	bpl.n	45ac <trx_sram_write+0x70>
    45aa:	8359      	strh	r1, [r3, #26]
    45ac:	4a41      	ldr	r2, [pc, #260]	; (46b4 <trx_sram_write+0x178>)
    45ae:	7992      	ldrb	r2, [r2, #6]
    45b0:	2a01      	cmp	r2, #1
    45b2:	d100      	bne.n	45b6 <trx_sram_write+0x7a>
    45b4:	e076      	b.n	46a4 <trx_sram_write+0x168>
    45b6:	6a9a      	ldr	r2, [r3, #40]	; 0x28
    45b8:	4941      	ldr	r1, [pc, #260]	; (46c0 <trx_sram_write+0x184>)
    45ba:	b2d2      	uxtb	r2, r2
    45bc:	800a      	strh	r2, [r1, #0]
    45be:	2101      	movs	r1, #1
    45c0:	7e1a      	ldrb	r2, [r3, #24]
    45c2:	4211      	tst	r1, r2
    45c4:	d0fc      	beq.n	45c0 <trx_sram_write+0x84>
    45c6:	7e1a      	ldrb	r2, [r3, #24]
    45c8:	4211      	tst	r1, r2
    45ca:	d000      	beq.n	45ce <trx_sram_write+0x92>
    45cc:	629d      	str	r5, [r3, #40]	; 0x28
    45ce:	2102      	movs	r1, #2
    45d0:	7e1a      	ldrb	r2, [r3, #24]
    45d2:	4211      	tst	r1, r2
    45d4:	d0fc      	beq.n	45d0 <trx_sram_write+0x94>
    45d6:	2104      	movs	r1, #4
    45d8:	7e1a      	ldrb	r2, [r3, #24]
    45da:	4211      	tst	r1, r2
    45dc:	d0fc      	beq.n	45d8 <trx_sram_write+0x9c>
    45de:	7e1a      	ldrb	r2, [r3, #24]
    45e0:	4211      	tst	r1, r2
    45e2:	d00b      	beq.n	45fc <trx_sram_write+0xc0>
    45e4:	8b5a      	ldrh	r2, [r3, #26]
    45e6:	0752      	lsls	r2, r2, #29
    45e8:	d500      	bpl.n	45ec <trx_sram_write+0xb0>
    45ea:	8359      	strh	r1, [r3, #26]
    45ec:	4a31      	ldr	r2, [pc, #196]	; (46b4 <trx_sram_write+0x178>)
    45ee:	7992      	ldrb	r2, [r2, #6]
    45f0:	2a01      	cmp	r2, #1
    45f2:	d051      	beq.n	4698 <trx_sram_write+0x15c>
    45f4:	6a9a      	ldr	r2, [r3, #40]	; 0x28
    45f6:	4932      	ldr	r1, [pc, #200]	; (46c0 <trx_sram_write+0x184>)
    45f8:	b2d2      	uxtb	r2, r2
    45fa:	800a      	strh	r2, [r1, #0]
    45fc:	4a2d      	ldr	r2, [pc, #180]	; (46b4 <trx_sram_write+0x178>)
    45fe:	3e01      	subs	r6, #1
    4600:	7992      	ldrb	r2, [r2, #6]
    4602:	b2f6      	uxtb	r6, r6
    4604:	4692      	mov	sl, r2
    4606:	2204      	movs	r2, #4
    4608:	4691      	mov	r9, r2
    460a:	4a2d      	ldr	r2, [pc, #180]	; (46c0 <trx_sram_write+0x184>)
    460c:	0021      	movs	r1, r4
    460e:	2001      	movs	r0, #1
    4610:	2502      	movs	r5, #2
    4612:	2404      	movs	r4, #4
    4614:	4693      	mov	fp, r2
    4616:	46d4      	mov	ip, sl
    4618:	2eff      	cmp	r6, #255	; 0xff
    461a:	d021      	beq.n	4660 <trx_sram_write+0x124>
    461c:	7e1a      	ldrb	r2, [r3, #24]
    461e:	4210      	tst	r0, r2
    4620:	d0fc      	beq.n	461c <trx_sram_write+0xe0>
    4622:	7e1a      	ldrb	r2, [r3, #24]
    4624:	780f      	ldrb	r7, [r1, #0]
    4626:	4210      	tst	r0, r2
    4628:	d000      	beq.n	462c <trx_sram_write+0xf0>
    462a:	629f      	str	r7, [r3, #40]	; 0x28
    462c:	7e1a      	ldrb	r2, [r3, #24]
    462e:	4215      	tst	r5, r2
    4630:	d0fc      	beq.n	462c <trx_sram_write+0xf0>
    4632:	7e1a      	ldrb	r2, [r3, #24]
    4634:	4214      	tst	r4, r2
    4636:	d0fc      	beq.n	4632 <trx_sram_write+0xf6>
    4638:	464f      	mov	r7, r9
    463a:	7e1a      	ldrb	r2, [r3, #24]
    463c:	4217      	tst	r7, r2
    463e:	d00a      	beq.n	4656 <trx_sram_write+0x11a>
    4640:	8b5a      	ldrh	r2, [r3, #26]
    4642:	4214      	tst	r4, r2
    4644:	d000      	beq.n	4648 <trx_sram_write+0x10c>
    4646:	835c      	strh	r4, [r3, #26]
    4648:	4662      	mov	r2, ip
    464a:	2a01      	cmp	r2, #1
    464c:	d01d      	beq.n	468a <trx_sram_write+0x14e>
    464e:	465f      	mov	r7, fp
    4650:	6a9a      	ldr	r2, [r3, #40]	; 0x28
    4652:	b2d2      	uxtb	r2, r2
    4654:	803a      	strh	r2, [r7, #0]
    4656:	3101      	adds	r1, #1
    4658:	3e01      	subs	r6, #1
    465a:	b2f6      	uxtb	r6, r6
    465c:	2eff      	cmp	r6, #255	; 0xff
    465e:	d1dd      	bne.n	461c <trx_sram_write+0xe0>
    4660:	4b16      	ldr	r3, [pc, #88]	; (46bc <trx_sram_write+0x180>)
    4662:	2200      	movs	r2, #0
    4664:	4641      	mov	r1, r8
    4666:	4813      	ldr	r0, [pc, #76]	; (46b4 <trx_sram_write+0x178>)
    4668:	4798      	blx	r3
    466a:	9b01      	ldr	r3, [sp, #4]
    466c:	421e      	tst	r6, r3
    466e:	d005      	beq.n	467c <trx_sram_write+0x140>
    4670:	2301      	movs	r3, #1
    4672:	4a0f      	ldr	r2, [pc, #60]	; (46b0 <trx_sram_write+0x174>)
    4674:	7013      	strb	r3, [r2, #0]
    4676:	f3bf 8f5f 	dmb	sy
    467a:	b662      	cpsie	i
    467c:	b005      	add	sp, #20
    467e:	bc3c      	pop	{r2, r3, r4, r5}
    4680:	4690      	mov	r8, r2
    4682:	4699      	mov	r9, r3
    4684:	46a2      	mov	sl, r4
    4686:	46ab      	mov	fp, r5
    4688:	bdf0      	pop	{r4, r5, r6, r7, pc}
    468a:	6a9a      	ldr	r2, [r3, #40]	; 0x28
    468c:	4f0c      	ldr	r7, [pc, #48]	; (46c0 <trx_sram_write+0x184>)
    468e:	05d2      	lsls	r2, r2, #23
    4690:	0dd2      	lsrs	r2, r2, #23
    4692:	803a      	strh	r2, [r7, #0]
    4694:	3101      	adds	r1, #1
    4696:	e7df      	b.n	4658 <trx_sram_write+0x11c>
    4698:	6a9a      	ldr	r2, [r3, #40]	; 0x28
    469a:	4909      	ldr	r1, [pc, #36]	; (46c0 <trx_sram_write+0x184>)
    469c:	05d2      	lsls	r2, r2, #23
    469e:	0dd2      	lsrs	r2, r2, #23
    46a0:	800a      	strh	r2, [r1, #0]
    46a2:	e7ab      	b.n	45fc <trx_sram_write+0xc0>
    46a4:	6a9a      	ldr	r2, [r3, #40]	; 0x28
    46a6:	4906      	ldr	r1, [pc, #24]	; (46c0 <trx_sram_write+0x184>)
    46a8:	05d2      	lsls	r2, r2, #23
    46aa:	0dd2      	lsrs	r2, r2, #23
    46ac:	800a      	strh	r2, [r1, #0]
    46ae:	e786      	b.n	45be <trx_sram_write+0x82>
    46b0:	20000008 	.word	0x20000008
    46b4:	20002020 	.word	0x20002020
    46b8:	20001fe4 	.word	0x20001fe4
    46bc:	00000e55 	.word	0x00000e55
    46c0:	20001fdc 	.word	0x20001fdc

000046c4 <trx_sram_read>:
    46c4:	b5f0      	push	{r4, r5, r6, r7, lr}
    46c6:	46de      	mov	lr, fp
    46c8:	464e      	mov	r6, r9
    46ca:	4645      	mov	r5, r8
    46cc:	4657      	mov	r7, sl
    46ce:	b5e0      	push	{r5, r6, r7, lr}
    46d0:	4b5a      	ldr	r3, [pc, #360]	; (483c <trx_sram_read+0x178>)
    46d2:	b085      	sub	sp, #20
    46d4:	0006      	movs	r6, r0
    46d6:	2001      	movs	r0, #1
    46d8:	000c      	movs	r4, r1
    46da:	4690      	mov	r8, r2
    46dc:	4798      	blx	r3
    46de:	f3ef 8310 	mrs	r3, PRIMASK
    46e2:	425a      	negs	r2, r3
    46e4:	4153      	adcs	r3, r2
    46e6:	9303      	str	r3, [sp, #12]
    46e8:	b672      	cpsid	i
    46ea:	f3bf 8f5f 	dmb	sy
    46ee:	2300      	movs	r3, #0
    46f0:	4a53      	ldr	r2, [pc, #332]	; (4840 <trx_sram_read+0x17c>)
    46f2:	4d54      	ldr	r5, [pc, #336]	; (4844 <trx_sram_read+0x180>)
    46f4:	7013      	strb	r3, [r2, #0]
    46f6:	9b03      	ldr	r3, [sp, #12]
    46f8:	4953      	ldr	r1, [pc, #332]	; (4848 <trx_sram_read+0x184>)
    46fa:	9301      	str	r3, [sp, #4]
    46fc:	4b53      	ldr	r3, [pc, #332]	; (484c <trx_sram_read+0x188>)
    46fe:	2201      	movs	r2, #1
    4700:	0028      	movs	r0, r5
    4702:	469a      	mov	sl, r3
    4704:	4798      	blx	r3
    4706:	2101      	movs	r1, #1
    4708:	682b      	ldr	r3, [r5, #0]
    470a:	7e1a      	ldrb	r2, [r3, #24]
    470c:	4211      	tst	r1, r2
    470e:	d0fc      	beq.n	470a <trx_sram_read+0x46>
    4710:	7e1a      	ldrb	r2, [r3, #24]
    4712:	4211      	tst	r1, r2
    4714:	d001      	beq.n	471a <trx_sram_read+0x56>
    4716:	2200      	movs	r2, #0
    4718:	629a      	str	r2, [r3, #40]	; 0x28
    471a:	2102      	movs	r1, #2
    471c:	7e1a      	ldrb	r2, [r3, #24]
    471e:	4211      	tst	r1, r2
    4720:	d0fc      	beq.n	471c <trx_sram_read+0x58>
    4722:	2104      	movs	r1, #4
    4724:	7e1a      	ldrb	r2, [r3, #24]
    4726:	4211      	tst	r1, r2
    4728:	d0fc      	beq.n	4724 <trx_sram_read+0x60>
    472a:	7e1a      	ldrb	r2, [r3, #24]
    472c:	4211      	tst	r1, r2
    472e:	d00b      	beq.n	4748 <trx_sram_read+0x84>
    4730:	8b5a      	ldrh	r2, [r3, #26]
    4732:	0752      	lsls	r2, r2, #29
    4734:	d500      	bpl.n	4738 <trx_sram_read+0x74>
    4736:	8359      	strh	r1, [r3, #26]
    4738:	79aa      	ldrb	r2, [r5, #6]
    473a:	2a01      	cmp	r2, #1
    473c:	d100      	bne.n	4740 <trx_sram_read+0x7c>
    473e:	e076      	b.n	482e <trx_sram_read+0x16a>
    4740:	6a9a      	ldr	r2, [r3, #40]	; 0x28
    4742:	4943      	ldr	r1, [pc, #268]	; (4850 <trx_sram_read+0x18c>)
    4744:	b2d2      	uxtb	r2, r2
    4746:	800a      	strh	r2, [r1, #0]
    4748:	2101      	movs	r1, #1
    474a:	7e1a      	ldrb	r2, [r3, #24]
    474c:	4211      	tst	r1, r2
    474e:	d0fc      	beq.n	474a <trx_sram_read+0x86>
    4750:	7e1a      	ldrb	r2, [r3, #24]
    4752:	4211      	tst	r1, r2
    4754:	d000      	beq.n	4758 <trx_sram_read+0x94>
    4756:	629e      	str	r6, [r3, #40]	; 0x28
    4758:	2102      	movs	r1, #2
    475a:	7e1a      	ldrb	r2, [r3, #24]
    475c:	4211      	tst	r1, r2
    475e:	d0fc      	beq.n	475a <trx_sram_read+0x96>
    4760:	2104      	movs	r1, #4
    4762:	7e1a      	ldrb	r2, [r3, #24]
    4764:	4211      	tst	r1, r2
    4766:	d0fc      	beq.n	4762 <trx_sram_read+0x9e>
    4768:	7e1a      	ldrb	r2, [r3, #24]
    476a:	4211      	tst	r1, r2
    476c:	d00a      	beq.n	4784 <trx_sram_read+0xc0>
    476e:	8b5a      	ldrh	r2, [r3, #26]
    4770:	0752      	lsls	r2, r2, #29
    4772:	d500      	bpl.n	4776 <trx_sram_read+0xb2>
    4774:	8359      	strh	r1, [r3, #26]
    4776:	79aa      	ldrb	r2, [r5, #6]
    4778:	2a01      	cmp	r2, #1
    477a:	d052      	beq.n	4822 <trx_sram_read+0x15e>
    477c:	6a9a      	ldr	r2, [r3, #40]	; 0x28
    477e:	4934      	ldr	r1, [pc, #208]	; (4850 <trx_sram_read+0x18c>)
    4780:	b2d2      	uxtb	r2, r2
    4782:	800a      	strh	r2, [r1, #0]
    4784:	4642      	mov	r2, r8
    4786:	4641      	mov	r1, r8
    4788:	3a01      	subs	r2, #1
    478a:	b2d2      	uxtb	r2, r2
    478c:	2900      	cmp	r1, #0
    478e:	d033      	beq.n	47f8 <trx_sram_read+0x134>
    4790:	3201      	adds	r2, #1
    4792:	4691      	mov	r9, r2
    4794:	2200      	movs	r2, #0
    4796:	2101      	movs	r1, #1
    4798:	4690      	mov	r8, r2
    479a:	4693      	mov	fp, r2
    479c:	2702      	movs	r7, #2
    479e:	2004      	movs	r0, #4
    47a0:	2604      	movs	r6, #4
    47a2:	44a1      	add	r9, r4
    47a4:	7e1a      	ldrb	r2, [r3, #24]
    47a6:	4211      	tst	r1, r2
    47a8:	d0fc      	beq.n	47a4 <trx_sram_read+0xe0>
    47aa:	7e1a      	ldrb	r2, [r3, #24]
    47ac:	4211      	tst	r1, r2
    47ae:	d001      	beq.n	47b4 <trx_sram_read+0xf0>
    47b0:	465a      	mov	r2, fp
    47b2:	629a      	str	r2, [r3, #40]	; 0x28
    47b4:	7e1a      	ldrb	r2, [r3, #24]
    47b6:	4217      	tst	r7, r2
    47b8:	d0fc      	beq.n	47b4 <trx_sram_read+0xf0>
    47ba:	7e1a      	ldrb	r2, [r3, #24]
    47bc:	4210      	tst	r0, r2
    47be:	d0fc      	beq.n	47ba <trx_sram_read+0xf6>
    47c0:	7e1a      	ldrb	r2, [r3, #24]
    47c2:	4216      	tst	r6, r2
    47c4:	d009      	beq.n	47da <trx_sram_read+0x116>
    47c6:	8b5a      	ldrh	r2, [r3, #26]
    47c8:	4210      	tst	r0, r2
    47ca:	d000      	beq.n	47ce <trx_sram_read+0x10a>
    47cc:	8358      	strh	r0, [r3, #26]
    47ce:	79aa      	ldrb	r2, [r5, #6]
    47d0:	6a9b      	ldr	r3, [r3, #40]	; 0x28
    47d2:	2a01      	cmp	r2, #1
    47d4:	d008      	beq.n	47e8 <trx_sram_read+0x124>
    47d6:	b2db      	uxtb	r3, r3
    47d8:	4698      	mov	r8, r3
    47da:	4643      	mov	r3, r8
    47dc:	7023      	strb	r3, [r4, #0]
    47de:	3401      	adds	r4, #1
    47e0:	454c      	cmp	r4, r9
    47e2:	d009      	beq.n	47f8 <trx_sram_read+0x134>
    47e4:	682b      	ldr	r3, [r5, #0]
    47e6:	e7dd      	b.n	47a4 <trx_sram_read+0xe0>
    47e8:	05db      	lsls	r3, r3, #23
    47ea:	0ddb      	lsrs	r3, r3, #23
    47ec:	4698      	mov	r8, r3
    47ee:	4643      	mov	r3, r8
    47f0:	7023      	strb	r3, [r4, #0]
    47f2:	3401      	adds	r4, #1
    47f4:	454c      	cmp	r4, r9
    47f6:	d1f5      	bne.n	47e4 <trx_sram_read+0x120>
    47f8:	2200      	movs	r2, #0
    47fa:	4913      	ldr	r1, [pc, #76]	; (4848 <trx_sram_read+0x184>)
    47fc:	0028      	movs	r0, r5
    47fe:	47d0      	blx	sl
    4800:	23ff      	movs	r3, #255	; 0xff
    4802:	9a01      	ldr	r2, [sp, #4]
    4804:	4213      	tst	r3, r2
    4806:	d005      	beq.n	4814 <trx_sram_read+0x150>
    4808:	2301      	movs	r3, #1
    480a:	4a0d      	ldr	r2, [pc, #52]	; (4840 <trx_sram_read+0x17c>)
    480c:	7013      	strb	r3, [r2, #0]
    480e:	f3bf 8f5f 	dmb	sy
    4812:	b662      	cpsie	i
    4814:	b005      	add	sp, #20
    4816:	bc3c      	pop	{r2, r3, r4, r5}
    4818:	4690      	mov	r8, r2
    481a:	4699      	mov	r9, r3
    481c:	46a2      	mov	sl, r4
    481e:	46ab      	mov	fp, r5
    4820:	bdf0      	pop	{r4, r5, r6, r7, pc}
    4822:	6a9a      	ldr	r2, [r3, #40]	; 0x28
    4824:	490a      	ldr	r1, [pc, #40]	; (4850 <trx_sram_read+0x18c>)
    4826:	05d2      	lsls	r2, r2, #23
    4828:	0dd2      	lsrs	r2, r2, #23
    482a:	800a      	strh	r2, [r1, #0]
    482c:	e7aa      	b.n	4784 <trx_sram_read+0xc0>
    482e:	6a9a      	ldr	r2, [r3, #40]	; 0x28
    4830:	4907      	ldr	r1, [pc, #28]	; (4850 <trx_sram_read+0x18c>)
    4832:	05d2      	lsls	r2, r2, #23
    4834:	0dd2      	lsrs	r2, r2, #23
    4836:	800a      	strh	r2, [r1, #0]
    4838:	e786      	b.n	4748 <trx_sram_read+0x84>
    483a:	46c0      	nop			; (mov r8, r8)
    483c:	00000155 	.word	0x00000155
    4840:	20000008 	.word	0x20000008
    4844:	20002020 	.word	0x20002020
    4848:	20001fe4 	.word	0x20001fe4
    484c:	00000e55 	.word	0x00000e55
    4850:	20001fdc 	.word	0x20001fdc

00004854 <trx_aes_wrrd>:
    4854:	b5f0      	push	{r4, r5, r6, r7, lr}
    4856:	46de      	mov	lr, fp
    4858:	464e      	mov	r6, r9
    485a:	4657      	mov	r7, sl
    485c:	4645      	mov	r5, r8
    485e:	b5e0      	push	{r5, r6, r7, lr}
    4860:	4b7c      	ldr	r3, [pc, #496]	; (4a54 <trx_aes_wrrd+0x200>)
    4862:	b083      	sub	sp, #12
    4864:	0006      	movs	r6, r0
    4866:	2001      	movs	r0, #1
    4868:	4691      	mov	r9, r2
    486a:	9101      	str	r1, [sp, #4]
    486c:	4798      	blx	r3
    486e:	2100      	movs	r1, #0
    4870:	4b79      	ldr	r3, [pc, #484]	; (4a58 <trx_aes_wrrd+0x204>)
    4872:	2000      	movs	r0, #0
    4874:	4798      	blx	r3
    4876:	4b79      	ldr	r3, [pc, #484]	; (4a5c <trx_aes_wrrd+0x208>)
    4878:	4c79      	ldr	r4, [pc, #484]	; (4a60 <trx_aes_wrrd+0x20c>)
    487a:	0019      	movs	r1, r3
    487c:	469a      	mov	sl, r3
    487e:	4b79      	ldr	r3, [pc, #484]	; (4a64 <trx_aes_wrrd+0x210>)
    4880:	2201      	movs	r2, #1
    4882:	0020      	movs	r0, r4
    4884:	4698      	mov	r8, r3
    4886:	4798      	blx	r3
    4888:	2101      	movs	r1, #1
    488a:	6823      	ldr	r3, [r4, #0]
    488c:	7e1a      	ldrb	r2, [r3, #24]
    488e:	4211      	tst	r1, r2
    4890:	d0fc      	beq.n	488c <trx_aes_wrrd+0x38>
    4892:	7e1a      	ldrb	r2, [r3, #24]
    4894:	4211      	tst	r1, r2
    4896:	d001      	beq.n	489c <trx_aes_wrrd+0x48>
    4898:	2240      	movs	r2, #64	; 0x40
    489a:	629a      	str	r2, [r3, #40]	; 0x28
    489c:	2102      	movs	r1, #2
    489e:	7e1a      	ldrb	r2, [r3, #24]
    48a0:	4211      	tst	r1, r2
    48a2:	d0fc      	beq.n	489e <trx_aes_wrrd+0x4a>
    48a4:	2104      	movs	r1, #4
    48a6:	7e1a      	ldrb	r2, [r3, #24]
    48a8:	4211      	tst	r1, r2
    48aa:	d0fc      	beq.n	48a6 <trx_aes_wrrd+0x52>
    48ac:	7e1a      	ldrb	r2, [r3, #24]
    48ae:	4211      	tst	r1, r2
    48b0:	d00b      	beq.n	48ca <trx_aes_wrrd+0x76>
    48b2:	8b5a      	ldrh	r2, [r3, #26]
    48b4:	0752      	lsls	r2, r2, #29
    48b6:	d500      	bpl.n	48ba <trx_aes_wrrd+0x66>
    48b8:	8359      	strh	r1, [r3, #26]
    48ba:	79a2      	ldrb	r2, [r4, #6]
    48bc:	2a01      	cmp	r2, #1
    48be:	d100      	bne.n	48c2 <trx_aes_wrrd+0x6e>
    48c0:	e0b7      	b.n	4a32 <trx_aes_wrrd+0x1de>
    48c2:	6a9a      	ldr	r2, [r3, #40]	; 0x28
    48c4:	4968      	ldr	r1, [pc, #416]	; (4a68 <trx_aes_wrrd+0x214>)
    48c6:	b2d2      	uxtb	r2, r2
    48c8:	800a      	strh	r2, [r1, #0]
    48ca:	2101      	movs	r1, #1
    48cc:	7e1a      	ldrb	r2, [r3, #24]
    48ce:	4211      	tst	r1, r2
    48d0:	d0fc      	beq.n	48cc <trx_aes_wrrd+0x78>
    48d2:	7e1a      	ldrb	r2, [r3, #24]
    48d4:	4211      	tst	r1, r2
    48d6:	d000      	beq.n	48da <trx_aes_wrrd+0x86>
    48d8:	629e      	str	r6, [r3, #40]	; 0x28
    48da:	2102      	movs	r1, #2
    48dc:	7e1a      	ldrb	r2, [r3, #24]
    48de:	4211      	tst	r1, r2
    48e0:	d0fc      	beq.n	48dc <trx_aes_wrrd+0x88>
    48e2:	2104      	movs	r1, #4
    48e4:	7e1a      	ldrb	r2, [r3, #24]
    48e6:	4211      	tst	r1, r2
    48e8:	d0fc      	beq.n	48e4 <trx_aes_wrrd+0x90>
    48ea:	7e1a      	ldrb	r2, [r3, #24]
    48ec:	4211      	tst	r1, r2
    48ee:	d00b      	beq.n	4908 <trx_aes_wrrd+0xb4>
    48f0:	8b5a      	ldrh	r2, [r3, #26]
    48f2:	0752      	lsls	r2, r2, #29
    48f4:	d500      	bpl.n	48f8 <trx_aes_wrrd+0xa4>
    48f6:	8359      	strh	r1, [r3, #26]
    48f8:	79a2      	ldrb	r2, [r4, #6]
    48fa:	2a01      	cmp	r2, #1
    48fc:	d100      	bne.n	4900 <trx_aes_wrrd+0xac>
    48fe:	e092      	b.n	4a26 <trx_aes_wrrd+0x1d2>
    4900:	6a9a      	ldr	r2, [r3, #40]	; 0x28
    4902:	4959      	ldr	r1, [pc, #356]	; (4a68 <trx_aes_wrrd+0x214>)
    4904:	b2d2      	uxtb	r2, r2
    4906:	800a      	strh	r2, [r1, #0]
    4908:	2101      	movs	r1, #1
    490a:	7e1a      	ldrb	r2, [r3, #24]
    490c:	4211      	tst	r1, r2
    490e:	d0fc      	beq.n	490a <trx_aes_wrrd+0xb6>
    4910:	9a01      	ldr	r2, [sp, #4]
    4912:	7810      	ldrb	r0, [r2, #0]
    4914:	7e1a      	ldrb	r2, [r3, #24]
    4916:	4211      	tst	r1, r2
    4918:	d000      	beq.n	491c <trx_aes_wrrd+0xc8>
    491a:	6298      	str	r0, [r3, #40]	; 0x28
    491c:	2102      	movs	r1, #2
    491e:	7e1a      	ldrb	r2, [r3, #24]
    4920:	4211      	tst	r1, r2
    4922:	d0fc      	beq.n	491e <trx_aes_wrrd+0xca>
    4924:	2104      	movs	r1, #4
    4926:	7e1a      	ldrb	r2, [r3, #24]
    4928:	4211      	tst	r1, r2
    492a:	d0fc      	beq.n	4926 <trx_aes_wrrd+0xd2>
    492c:	7e1a      	ldrb	r2, [r3, #24]
    492e:	4211      	tst	r1, r2
    4930:	d00b      	beq.n	494a <trx_aes_wrrd+0xf6>
    4932:	8b5a      	ldrh	r2, [r3, #26]
    4934:	0752      	lsls	r2, r2, #29
    4936:	d500      	bpl.n	493a <trx_aes_wrrd+0xe6>
    4938:	8359      	strh	r1, [r3, #26]
    493a:	79a2      	ldrb	r2, [r4, #6]
    493c:	2a01      	cmp	r2, #1
    493e:	d100      	bne.n	4942 <trx_aes_wrrd+0xee>
    4940:	e07d      	b.n	4a3e <trx_aes_wrrd+0x1ea>
    4942:	6a9a      	ldr	r2, [r3, #40]	; 0x28
    4944:	4948      	ldr	r1, [pc, #288]	; (4a68 <trx_aes_wrrd+0x214>)
    4946:	b2d2      	uxtb	r2, r2
    4948:	800a      	strh	r2, [r1, #0]
    494a:	464a      	mov	r2, r9
    494c:	2a00      	cmp	r2, #0
    494e:	d100      	bne.n	4952 <trx_aes_wrrd+0xfe>
    4950:	e07e      	b.n	4a50 <trx_aes_wrrd+0x1fc>
    4952:	9901      	ldr	r1, [sp, #4]
    4954:	3a01      	subs	r2, #1
    4956:	468c      	mov	ip, r1
    4958:	b2d2      	uxtb	r2, r2
    495a:	3201      	adds	r2, #1
    495c:	4494      	add	ip, r2
    495e:	4662      	mov	r2, ip
    4960:	9201      	str	r2, [sp, #4]
    4962:	2200      	movs	r2, #0
    4964:	4691      	mov	r9, r2
    4966:	3204      	adds	r2, #4
    4968:	000e      	movs	r6, r1
    496a:	2702      	movs	r7, #2
    496c:	2101      	movs	r1, #1
    496e:	2004      	movs	r0, #4
    4970:	4694      	mov	ip, r2
    4972:	7e1a      	ldrb	r2, [r3, #24]
    4974:	4211      	tst	r1, r2
    4976:	d0fc      	beq.n	4972 <trx_aes_wrrd+0x11e>
    4978:	7872      	ldrb	r2, [r6, #1]
    497a:	4693      	mov	fp, r2
    497c:	7e1a      	ldrb	r2, [r3, #24]
    497e:	4211      	tst	r1, r2
    4980:	d001      	beq.n	4986 <trx_aes_wrrd+0x132>
    4982:	465a      	mov	r2, fp
    4984:	629a      	str	r2, [r3, #40]	; 0x28
    4986:	7e1a      	ldrb	r2, [r3, #24]
    4988:	4217      	tst	r7, r2
    498a:	d0fc      	beq.n	4986 <trx_aes_wrrd+0x132>
    498c:	7e1a      	ldrb	r2, [r3, #24]
    498e:	4210      	tst	r0, r2
    4990:	d0fc      	beq.n	498c <trx_aes_wrrd+0x138>
    4992:	4665      	mov	r5, ip
    4994:	7e1a      	ldrb	r2, [r3, #24]
    4996:	4215      	tst	r5, r2
    4998:	d009      	beq.n	49ae <trx_aes_wrrd+0x15a>
    499a:	8b5a      	ldrh	r2, [r3, #26]
    499c:	4210      	tst	r0, r2
    499e:	d000      	beq.n	49a2 <trx_aes_wrrd+0x14e>
    49a0:	8358      	strh	r0, [r3, #26]
    49a2:	79a2      	ldrb	r2, [r4, #6]
    49a4:	6a9b      	ldr	r3, [r3, #40]	; 0x28
    49a6:	2a01      	cmp	r2, #1
    49a8:	d00c      	beq.n	49c4 <trx_aes_wrrd+0x170>
    49aa:	b2db      	uxtb	r3, r3
    49ac:	4699      	mov	r9, r3
    49ae:	464b      	mov	r3, r9
    49b0:	466a      	mov	r2, sp
    49b2:	70d3      	strb	r3, [r2, #3]
    49b4:	78d2      	ldrb	r2, [r2, #3]
    49b6:	9b01      	ldr	r3, [sp, #4]
    49b8:	7032      	strb	r2, [r6, #0]
    49ba:	3601      	adds	r6, #1
    49bc:	42b3      	cmp	r3, r6
    49be:	d005      	beq.n	49cc <trx_aes_wrrd+0x178>
    49c0:	6823      	ldr	r3, [r4, #0]
    49c2:	e7d6      	b.n	4972 <trx_aes_wrrd+0x11e>
    49c4:	05db      	lsls	r3, r3, #23
    49c6:	0ddb      	lsrs	r3, r3, #23
    49c8:	4699      	mov	r9, r3
    49ca:	e7f0      	b.n	49ae <trx_aes_wrrd+0x15a>
    49cc:	6823      	ldr	r3, [r4, #0]
    49ce:	2001      	movs	r0, #1
    49d0:	7e19      	ldrb	r1, [r3, #24]
    49d2:	4208      	tst	r0, r1
    49d4:	d0fc      	beq.n	49d0 <trx_aes_wrrd+0x17c>
    49d6:	7e19      	ldrb	r1, [r3, #24]
    49d8:	4208      	tst	r0, r1
    49da:	d001      	beq.n	49e0 <trx_aes_wrrd+0x18c>
    49dc:	2100      	movs	r1, #0
    49de:	6299      	str	r1, [r3, #40]	; 0x28
    49e0:	2002      	movs	r0, #2
    49e2:	7e19      	ldrb	r1, [r3, #24]
    49e4:	4208      	tst	r0, r1
    49e6:	d0fc      	beq.n	49e2 <trx_aes_wrrd+0x18e>
    49e8:	2004      	movs	r0, #4
    49ea:	7e19      	ldrb	r1, [r3, #24]
    49ec:	4208      	tst	r0, r1
    49ee:	d0fc      	beq.n	49ea <trx_aes_wrrd+0x196>
    49f0:	7e19      	ldrb	r1, [r3, #24]
    49f2:	4208      	tst	r0, r1
    49f4:	d004      	beq.n	4a00 <trx_aes_wrrd+0x1ac>
    49f6:	8b5a      	ldrh	r2, [r3, #26]
    49f8:	0752      	lsls	r2, r2, #29
    49fa:	d412      	bmi.n	4a22 <trx_aes_wrrd+0x1ce>
    49fc:	6a9a      	ldr	r2, [r3, #40]	; 0x28
    49fe:	b2d2      	uxtb	r2, r2
    4a00:	9b01      	ldr	r3, [sp, #4]
    4a02:	4651      	mov	r1, sl
    4a04:	701a      	strb	r2, [r3, #0]
    4a06:	0020      	movs	r0, r4
    4a08:	2200      	movs	r2, #0
    4a0a:	47c0      	blx	r8
    4a0c:	2100      	movs	r1, #0
    4a0e:	4b17      	ldr	r3, [pc, #92]	; (4a6c <trx_aes_wrrd+0x218>)
    4a10:	2000      	movs	r0, #0
    4a12:	4798      	blx	r3
    4a14:	b003      	add	sp, #12
    4a16:	bc3c      	pop	{r2, r3, r4, r5}
    4a18:	4690      	mov	r8, r2
    4a1a:	4699      	mov	r9, r3
    4a1c:	46a2      	mov	sl, r4
    4a1e:	46ab      	mov	fp, r5
    4a20:	bdf0      	pop	{r4, r5, r6, r7, pc}
    4a22:	8358      	strh	r0, [r3, #26]
    4a24:	e7ea      	b.n	49fc <trx_aes_wrrd+0x1a8>
    4a26:	6a9a      	ldr	r2, [r3, #40]	; 0x28
    4a28:	490f      	ldr	r1, [pc, #60]	; (4a68 <trx_aes_wrrd+0x214>)
    4a2a:	05d2      	lsls	r2, r2, #23
    4a2c:	0dd2      	lsrs	r2, r2, #23
    4a2e:	800a      	strh	r2, [r1, #0]
    4a30:	e76a      	b.n	4908 <trx_aes_wrrd+0xb4>
    4a32:	6a9a      	ldr	r2, [r3, #40]	; 0x28
    4a34:	490c      	ldr	r1, [pc, #48]	; (4a68 <trx_aes_wrrd+0x214>)
    4a36:	05d2      	lsls	r2, r2, #23
    4a38:	0dd2      	lsrs	r2, r2, #23
    4a3a:	800a      	strh	r2, [r1, #0]
    4a3c:	e745      	b.n	48ca <trx_aes_wrrd+0x76>
    4a3e:	6a9a      	ldr	r2, [r3, #40]	; 0x28
    4a40:	4909      	ldr	r1, [pc, #36]	; (4a68 <trx_aes_wrrd+0x214>)
    4a42:	05d2      	lsls	r2, r2, #23
    4a44:	0dd2      	lsrs	r2, r2, #23
    4a46:	800a      	strh	r2, [r1, #0]
    4a48:	464a      	mov	r2, r9
    4a4a:	2a00      	cmp	r2, #0
    4a4c:	d000      	beq.n	4a50 <trx_aes_wrrd+0x1fc>
    4a4e:	e780      	b.n	4952 <trx_aes_wrrd+0xfe>
    4a50:	2200      	movs	r2, #0
    4a52:	e7bc      	b.n	49ce <trx_aes_wrrd+0x17a>
    4a54:	00000155 	.word	0x00000155
    4a58:	00000339 	.word	0x00000339
    4a5c:	20001fe4 	.word	0x20001fe4
    4a60:	20002020 	.word	0x20002020
    4a64:	00000e55 	.word	0x00000e55
    4a68:	20001fdc 	.word	0x20001fdc
    4a6c:	00000315 	.word	0x00000315

00004a70 <appCmdDataConf>:
    4a70:	4770      	bx	lr
    4a72:	46c0      	nop			; (mov r8, r8)

00004a74 <appCmdIdentifyPeriodTimerHandler>:
    4a74:	2280      	movs	r2, #128	; 0x80
    4a76:	4b02      	ldr	r3, [pc, #8]	; (4a80 <appCmdIdentifyPeriodTimerHandler+0xc>)
    4a78:	0312      	lsls	r2, r2, #12
    4a7a:	61da      	str	r2, [r3, #28]
    4a7c:	4770      	bx	lr
    4a7e:	46c0      	nop			; (mov r8, r8)
    4a80:	41004400 	.word	0x41004400

00004a84 <appCmdIdentifyDurationTimerHandler>:
    4a84:	2280      	movs	r2, #128	; 0x80
    4a86:	b510      	push	{r4, lr}
    4a88:	4b03      	ldr	r3, [pc, #12]	; (4a98 <appCmdIdentifyDurationTimerHandler+0x14>)
    4a8a:	0312      	lsls	r2, r2, #12
    4a8c:	619a      	str	r2, [r3, #24]
    4a8e:	4803      	ldr	r0, [pc, #12]	; (4a9c <appCmdIdentifyDurationTimerHandler+0x18>)
    4a90:	4b03      	ldr	r3, [pc, #12]	; (4aa0 <appCmdIdentifyDurationTimerHandler+0x1c>)
    4a92:	4798      	blx	r3
    4a94:	bd10      	pop	{r4, pc}
    4a96:	46c0      	nop			; (mov r8, r8)
    4a98:	41004400 	.word	0x41004400
    4a9c:	20000308 	.word	0x20000308
    4aa0:	00003a6d 	.word	0x00003a6d

00004aa4 <APP_CommandsInit>:
    4aa4:	2200      	movs	r2, #0
    4aa6:	4b05      	ldr	r3, [pc, #20]	; (4abc <APP_CommandsInit+0x18>)
    4aa8:	731a      	strb	r2, [r3, #12]
    4aaa:	4a05      	ldr	r2, [pc, #20]	; (4ac0 <APP_CommandsInit+0x1c>)
    4aac:	611a      	str	r2, [r3, #16]
    4aae:	2201      	movs	r2, #1
    4ab0:	4b04      	ldr	r3, [pc, #16]	; (4ac4 <APP_CommandsInit+0x20>)
    4ab2:	731a      	strb	r2, [r3, #12]
    4ab4:	4a04      	ldr	r2, [pc, #16]	; (4ac8 <APP_CommandsInit+0x24>)
    4ab6:	611a      	str	r2, [r3, #16]
    4ab8:	4770      	bx	lr
    4aba:	46c0      	nop			; (mov r8, r8)
    4abc:	200002f4 	.word	0x200002f4
    4ac0:	00004a85 	.word	0x00004a85
    4ac4:	20000308 	.word	0x20000308
    4ac8:	00004a75 	.word	0x00004a75

00004acc <APP_CommandsByteReceived>:
    4acc:	b5f0      	push	{r4, r5, r6, r7, lr}
    4ace:	46ce      	mov	lr, r9
    4ad0:	4647      	mov	r7, r8
    4ad2:	b580      	push	{r7, lr}
    4ad4:	4c51      	ldr	r4, [pc, #324]	; (4c1c <APP_CommandsByteReceived+0x150>)
    4ad6:	b089      	sub	sp, #36	; 0x24
    4ad8:	7823      	ldrb	r3, [r4, #0]
    4ada:	2b04      	cmp	r3, #4
    4adc:	d80f      	bhi.n	4afe <APP_CommandsByteReceived+0x32>
    4ade:	4a50      	ldr	r2, [pc, #320]	; (4c20 <APP_CommandsByteReceived+0x154>)
    4ae0:	009b      	lsls	r3, r3, #2
    4ae2:	58d3      	ldr	r3, [r2, r3]
    4ae4:	469f      	mov	pc, r3
    4ae6:	4a4f      	ldr	r2, [pc, #316]	; (4c24 <APP_CommandsByteReceived+0x158>)
    4ae8:	7813      	ldrb	r3, [r2, #0]
    4aea:	18c3      	adds	r3, r0, r3
    4aec:	7013      	strb	r3, [r2, #0]
    4aee:	2810      	cmp	r0, #16
    4af0:	d100      	bne.n	4af4 <APP_CommandsByteReceived+0x28>
    4af2:	e071      	b.n	4bd8 <APP_CommandsByteReceived+0x10c>
    4af4:	2803      	cmp	r0, #3
    4af6:	d100      	bne.n	4afa <APP_CommandsByteReceived+0x2e>
    4af8:	e07d      	b.n	4bf6 <APP_CommandsByteReceived+0x12a>
    4afa:	2300      	movs	r3, #0
    4afc:	7023      	strb	r3, [r4, #0]
    4afe:	b009      	add	sp, #36	; 0x24
    4b00:	bc0c      	pop	{r2, r3}
    4b02:	4690      	mov	r8, r2
    4b04:	4699      	mov	r9, r3
    4b06:	bdf0      	pop	{r4, r5, r6, r7, pc}
    4b08:	4b46      	ldr	r3, [pc, #280]	; (4c24 <APP_CommandsByteReceived+0x158>)
    4b0a:	781b      	ldrb	r3, [r3, #0]
    4b0c:	4283      	cmp	r3, r0
    4b0e:	d1f4      	bne.n	4afa <APP_CommandsByteReceived+0x2e>
    4b10:	4b45      	ldr	r3, [pc, #276]	; (4c28 <APP_CommandsByteReceived+0x15c>)
    4b12:	781b      	ldrb	r3, [r3, #0]
    4b14:	2b08      	cmp	r3, #8
    4b16:	d9f0      	bls.n	4afa <APP_CommandsByteReceived+0x2e>
    4b18:	4b44      	ldr	r3, [pc, #272]	; (4c2c <APP_CommandsByteReceived+0x160>)
    4b1a:	781a      	ldrb	r2, [r3, #0]
    4b1c:	2a10      	cmp	r2, #16
    4b1e:	d1ec      	bne.n	4afa <APP_CommandsByteReceived+0x2e>
    4b20:	2119      	movs	r1, #25
    4b22:	ad06      	add	r5, sp, #24
    4b24:	702a      	strb	r2, [r5, #0]
    4b26:	689a      	ldr	r2, [r3, #8]
    4b28:	4469      	add	r1, sp
    4b2a:	0212      	lsls	r2, r2, #8
    4b2c:	0c12      	lsrs	r2, r2, #16
    4b2e:	700a      	strb	r2, [r1, #0]
    4b30:	0a12      	lsrs	r2, r2, #8
    4b32:	704a      	strb	r2, [r1, #1]
    4b34:	221b      	movs	r2, #27
    4b36:	681e      	ldr	r6, [r3, #0]
    4b38:	7ad8      	ldrb	r0, [r3, #11]
    4b3a:	7b19      	ldrb	r1, [r3, #12]
    4b3c:	0a36      	lsrs	r6, r6, #8
    4b3e:	446a      	add	r2, sp
    4b40:	b2b6      	uxth	r6, r6
    4b42:	7010      	strb	r0, [r2, #0]
    4b44:	7051      	strb	r1, [r2, #1]
    4b46:	2e00      	cmp	r6, #0
    4b48:	d158      	bne.n	4bfc <APP_CommandsByteReceived+0x130>
    4b4a:	4b39      	ldr	r3, [pc, #228]	; (4c30 <APP_CommandsByteReceived+0x164>)
    4b4c:	4698      	mov	r8, r3
    4b4e:	0018      	movs	r0, r3
    4b50:	4b38      	ldr	r3, [pc, #224]	; (4c34 <APP_CommandsByteReceived+0x168>)
    4b52:	4699      	mov	r9, r3
    4b54:	4798      	blx	r3
    4b56:	4f38      	ldr	r7, [pc, #224]	; (4c38 <APP_CommandsByteReceived+0x16c>)
    4b58:	0038      	movs	r0, r7
    4b5a:	47c8      	blx	r9
    4b5c:	4642      	mov	r2, r8
    4b5e:	9b06      	ldr	r3, [sp, #24]
    4b60:	4640      	mov	r0, r8
    4b62:	021b      	lsls	r3, r3, #8
    4b64:	0c1b      	lsrs	r3, r3, #16
    4b66:	6093      	str	r3, [r2, #8]
    4b68:	4b34      	ldr	r3, [pc, #208]	; (4c3c <APP_CommandsByteReceived+0x170>)
    4b6a:	7316      	strb	r6, [r2, #12]
    4b6c:	4e34      	ldr	r6, [pc, #208]	; (4c40 <APP_CommandsByteReceived+0x174>)
    4b6e:	6113      	str	r3, [r2, #16]
    4b70:	47b0      	blx	r6
    4b72:	792b      	ldrb	r3, [r5, #4]
    4b74:	78ea      	ldrb	r2, [r5, #3]
    4b76:	021b      	lsls	r3, r3, #8
    4b78:	4313      	orrs	r3, r2
    4b7a:	60bb      	str	r3, [r7, #8]
    4b7c:	2301      	movs	r3, #1
    4b7e:	733b      	strb	r3, [r7, #12]
    4b80:	4b30      	ldr	r3, [pc, #192]	; (4c44 <APP_CommandsByteReceived+0x178>)
    4b82:	0038      	movs	r0, r7
    4b84:	613b      	str	r3, [r7, #16]
    4b86:	47b0      	blx	r6
    4b88:	2280      	movs	r2, #128	; 0x80
    4b8a:	4b2f      	ldr	r3, [pc, #188]	; (4c48 <APP_CommandsByteReceived+0x17c>)
    4b8c:	0312      	lsls	r2, r2, #12
    4b8e:	615a      	str	r2, [r3, #20]
    4b90:	e7b3      	b.n	4afa <APP_CommandsByteReceived+0x2e>
    4b92:	2810      	cmp	r0, #16
    4b94:	d1b3      	bne.n	4afe <APP_CommandsByteReceived+0x32>
    4b96:	2200      	movs	r2, #0
    4b98:	4b23      	ldr	r3, [pc, #140]	; (4c28 <APP_CommandsByteReceived+0x15c>)
    4b9a:	701a      	strb	r2, [r3, #0]
    4b9c:	4b21      	ldr	r3, [pc, #132]	; (4c24 <APP_CommandsByteReceived+0x158>)
    4b9e:	7018      	strb	r0, [r3, #0]
    4ba0:	2301      	movs	r3, #1
    4ba2:	7023      	strb	r3, [r4, #0]
    4ba4:	e7ab      	b.n	4afe <APP_CommandsByteReceived+0x32>
    4ba6:	4a1f      	ldr	r2, [pc, #124]	; (4c24 <APP_CommandsByteReceived+0x158>)
    4ba8:	7813      	ldrb	r3, [r2, #0]
    4baa:	18c3      	adds	r3, r0, r3
    4bac:	7013      	strb	r3, [r2, #0]
    4bae:	2802      	cmp	r0, #2
    4bb0:	d1a3      	bne.n	4afa <APP_CommandsByteReceived+0x2e>
    4bb2:	2302      	movs	r3, #2
    4bb4:	7023      	strb	r3, [r4, #0]
    4bb6:	e7a2      	b.n	4afe <APP_CommandsByteReceived+0x32>
    4bb8:	4a1a      	ldr	r2, [pc, #104]	; (4c24 <APP_CommandsByteReceived+0x158>)
    4bba:	7813      	ldrb	r3, [r2, #0]
    4bbc:	18c3      	adds	r3, r0, r3
    4bbe:	7013      	strb	r3, [r2, #0]
    4bc0:	2810      	cmp	r0, #16
    4bc2:	d013      	beq.n	4bec <APP_CommandsByteReceived+0x120>
    4bc4:	4918      	ldr	r1, [pc, #96]	; (4c28 <APP_CommandsByteReceived+0x15c>)
    4bc6:	780a      	ldrb	r2, [r1, #0]
    4bc8:	1c53      	adds	r3, r2, #1
    4bca:	b2db      	uxtb	r3, r3
    4bcc:	700b      	strb	r3, [r1, #0]
    4bce:	4917      	ldr	r1, [pc, #92]	; (4c2c <APP_CommandsByteReceived+0x160>)
    4bd0:	5488      	strb	r0, [r1, r2]
    4bd2:	2b10      	cmp	r3, #16
    4bd4:	d193      	bne.n	4afe <APP_CommandsByteReceived+0x32>
    4bd6:	e790      	b.n	4afa <APP_CommandsByteReceived+0x2e>
    4bd8:	4913      	ldr	r1, [pc, #76]	; (4c28 <APP_CommandsByteReceived+0x15c>)
    4bda:	780a      	ldrb	r2, [r1, #0]
    4bdc:	1c53      	adds	r3, r2, #1
    4bde:	b2db      	uxtb	r3, r3
    4be0:	700b      	strb	r3, [r1, #0]
    4be2:	4912      	ldr	r1, [pc, #72]	; (4c2c <APP_CommandsByteReceived+0x160>)
    4be4:	5488      	strb	r0, [r1, r2]
    4be6:	2b10      	cmp	r3, #16
    4be8:	d1e3      	bne.n	4bb2 <APP_CommandsByteReceived+0xe6>
    4bea:	e786      	b.n	4afa <APP_CommandsByteReceived+0x2e>
    4bec:	2303      	movs	r3, #3
    4bee:	7023      	strb	r3, [r4, #0]
    4bf0:	4b0d      	ldr	r3, [pc, #52]	; (4c28 <APP_CommandsByteReceived+0x15c>)
    4bf2:	781b      	ldrb	r3, [r3, #0]
    4bf4:	e7ed      	b.n	4bd2 <APP_CommandsByteReceived+0x106>
    4bf6:	2304      	movs	r3, #4
    4bf8:	7023      	strb	r3, [r4, #0]
    4bfa:	e780      	b.n	4afe <APP_CommandsByteReceived+0x32>
    4bfc:	2116      	movs	r1, #22
    4bfe:	4b13      	ldr	r3, [pc, #76]	; (4c4c <APP_CommandsByteReceived+0x180>)
    4c00:	4469      	add	r1, sp
    4c02:	800e      	strh	r6, [r1, #0]
    4c04:	9302      	str	r3, [sp, #8]
    4c06:	2301      	movs	r3, #1
    4c08:	9301      	str	r3, [sp, #4]
    4c0a:	4b11      	ldr	r3, [pc, #68]	; (4c50 <APP_CommandsByteReceived+0x184>)
    4c0c:	2205      	movs	r2, #5
    4c0e:	781b      	ldrb	r3, [r3, #0]
    4c10:	2002      	movs	r0, #2
    4c12:	9300      	str	r3, [sp, #0]
    4c14:	002b      	movs	r3, r5
    4c16:	4d0f      	ldr	r5, [pc, #60]	; (4c54 <APP_CommandsByteReceived+0x188>)
    4c18:	47a8      	blx	r5
    4c1a:	e76e      	b.n	4afa <APP_CommandsByteReceived+0x2e>
    4c1c:	2000032e 	.word	0x2000032e
    4c20:	0000a548 	.word	0x0000a548
    4c24:	2000032c 	.word	0x2000032c
    4c28:	2000032d 	.word	0x2000032d
    4c2c:	2000031c 	.word	0x2000031c
    4c30:	200002f4 	.word	0x200002f4
    4c34:	00003a6d 	.word	0x00003a6d
    4c38:	20000308 	.word	0x20000308
    4c3c:	00004a85 	.word	0x00004a85
    4c40:	00003a11 	.word	0x00003a11
    4c44:	00004a75 	.word	0x00004a75
    4c48:	41004400 	.word	0x41004400
    4c4c:	00004a71 	.word	0x00004a71
    4c50:	2000202c 	.word	0x2000202c
    4c54:	00005649 	.word	0x00005649

00004c58 <main>:
    4c58:	b510      	push	{r4, lr}
    4c5a:	4b09      	ldr	r3, [pc, #36]	; (4c80 <main+0x28>)
    4c5c:	4798      	blx	r3
    4c5e:	4b09      	ldr	r3, [pc, #36]	; (4c84 <main+0x2c>)
    4c60:	4798      	blx	r3
    4c62:	2201      	movs	r2, #1
    4c64:	4b08      	ldr	r3, [pc, #32]	; (4c88 <main+0x30>)
    4c66:	701a      	strb	r2, [r3, #0]
    4c68:	f3bf 8f5f 	dmb	sy
    4c6c:	b662      	cpsie	i
    4c6e:	4b07      	ldr	r3, [pc, #28]	; (4c8c <main+0x34>)
    4c70:	4798      	blx	r3
    4c72:	4b07      	ldr	r3, [pc, #28]	; (4c90 <main+0x38>)
    4c74:	4798      	blx	r3
    4c76:	4c07      	ldr	r4, [pc, #28]	; (4c94 <main+0x3c>)
    4c78:	47a0      	blx	r4
    4c7a:	47a0      	blx	r4
    4c7c:	e7fc      	b.n	4c78 <main+0x20>
    4c7e:	46c0      	nop			; (mov r8, r8)
    4c80:	00001d29 	.word	0x00001d29
    4c84:	00000115 	.word	0x00000115
    4c88:	20000008 	.word	0x20000008
    4c8c:	00002455 	.word	0x00002455
    4c90:	00004d51 	.word	0x00004d51
    4c94:	00004d71 	.word	0x00004d71

00004c98 <Connection_Confirm>:
    4c98:	2305      	movs	r3, #5
    4c9a:	2800      	cmp	r0, #0
    4c9c:	d000      	beq.n	4ca0 <Connection_Confirm+0x8>
    4c9e:	3b04      	subs	r3, #4
    4ca0:	4a01      	ldr	r2, [pc, #4]	; (4ca8 <Connection_Confirm+0x10>)
    4ca2:	7013      	strb	r3, [r2, #0]
    4ca4:	4770      	bx	lr
    4ca6:	46c0      	nop			; (mov r8, r8)
    4ca8:	20000371 	.word	0x20000371

00004cac <appBroadcastDataConf>:
    4cac:	4770      	bx	lr
    4cae:	46c0      	nop			; (mov r8, r8)

00004cb0 <appDataSendingTimerHandler>:
    4cb0:	b510      	push	{r4, lr}
    4cb2:	4b05      	ldr	r3, [pc, #20]	; (4cc8 <appDataSendingTimerHandler+0x18>)
    4cb4:	781a      	ldrb	r2, [r3, #0]
    4cb6:	2a08      	cmp	r2, #8
    4cb8:	d003      	beq.n	4cc2 <appDataSendingTimerHandler+0x12>
    4cba:	4804      	ldr	r0, [pc, #16]	; (4ccc <appDataSendingTimerHandler+0x1c>)
    4cbc:	4b04      	ldr	r3, [pc, #16]	; (4cd0 <appDataSendingTimerHandler+0x20>)
    4cbe:	4798      	blx	r3
    4cc0:	bd10      	pop	{r4, pc}
    4cc2:	3a03      	subs	r2, #3
    4cc4:	701a      	strb	r2, [r3, #0]
    4cc6:	e7fb      	b.n	4cc0 <appDataSendingTimerHandler+0x10>
    4cc8:	20000371 	.word	0x20000371
    4ccc:	20002030 	.word	0x20002030
    4cd0:	00003a11 	.word	0x00003a11

00004cd4 <appDataInd>:
    4cd4:	2180      	movs	r1, #128	; 0x80
    4cd6:	b5f8      	push	{r3, r4, r5, r6, r7, lr}
    4cd8:	4a1b      	ldr	r2, [pc, #108]	; (4d48 <appDataInd+0x74>)
    4cda:	0309      	lsls	r1, r1, #12
    4cdc:	6843      	ldr	r3, [r0, #4]
    4cde:	61d1      	str	r1, [r2, #28]
    4ce0:	7a82      	ldrb	r2, [r0, #10]
    4ce2:	4e1a      	ldr	r6, [pc, #104]	; (4d4c <appDataInd+0x78>)
    4ce4:	765a      	strb	r2, [r3, #25]
    4ce6:	7a42      	ldrb	r2, [r0, #9]
    4ce8:	769a      	strb	r2, [r3, #26]
    4cea:	7a07      	ldrb	r7, [r0, #8]
    4cec:	6844      	ldr	r4, [r0, #4]
    4cee:	2010      	movs	r0, #16
    4cf0:	47b0      	blx	r6
    4cf2:	2002      	movs	r0, #2
    4cf4:	47b0      	blx	r6
    4cf6:	2f00      	cmp	r7, #0
    4cf8:	d023      	beq.n	4d42 <appDataInd+0x6e>
    4cfa:	3f01      	subs	r7, #1
    4cfc:	b2ff      	uxtb	r7, r7
    4cfe:	3701      	adds	r7, #1
    4d00:	19e7      	adds	r7, r4, r7
    4d02:	2500      	movs	r5, #0
    4d04:	e006      	b.n	4d14 <appDataInd+0x40>
    4d06:	47b0      	blx	r6
    4d08:	7823      	ldrb	r3, [r4, #0]
    4d0a:	3401      	adds	r4, #1
    4d0c:	18ed      	adds	r5, r5, r3
    4d0e:	b2ed      	uxtb	r5, r5
    4d10:	42bc      	cmp	r4, r7
    4d12:	d00d      	beq.n	4d30 <appDataInd+0x5c>
    4d14:	7820      	ldrb	r0, [r4, #0]
    4d16:	2810      	cmp	r0, #16
    4d18:	d1f5      	bne.n	4d06 <appDataInd+0x32>
    4d1a:	47b0      	blx	r6
    4d1c:	7820      	ldrb	r0, [r4, #0]
    4d1e:	3510      	adds	r5, #16
    4d20:	47b0      	blx	r6
    4d22:	7823      	ldrb	r3, [r4, #0]
    4d24:	b2ed      	uxtb	r5, r5
    4d26:	18ed      	adds	r5, r5, r3
    4d28:	3401      	adds	r4, #1
    4d2a:	b2ed      	uxtb	r5, r5
    4d2c:	42bc      	cmp	r4, r7
    4d2e:	d1f1      	bne.n	4d14 <appDataInd+0x40>
    4d30:	3525      	adds	r5, #37	; 0x25
    4d32:	b2ed      	uxtb	r5, r5
    4d34:	2010      	movs	r0, #16
    4d36:	47b0      	blx	r6
    4d38:	2003      	movs	r0, #3
    4d3a:	47b0      	blx	r6
    4d3c:	0028      	movs	r0, r5
    4d3e:	47b0      	blx	r6
    4d40:	bdf8      	pop	{r3, r4, r5, r6, r7, pc}
    4d42:	2525      	movs	r5, #37	; 0x25
    4d44:	e7f6      	b.n	4d34 <appDataInd+0x60>
    4d46:	46c0      	nop			; (mov r8, r8)
    4d48:	41004400 	.word	0x41004400
    4d4c:	0000262d 	.word	0x0000262d

00004d50 <wsndemo_init>:
    4d50:	b510      	push	{r4, lr}
    4d52:	4903      	ldr	r1, [pc, #12]	; (4d60 <wsndemo_init+0x10>)
    4d54:	4b03      	ldr	r3, [pc, #12]	; (4d64 <wsndemo_init+0x14>)
    4d56:	4804      	ldr	r0, [pc, #16]	; (4d68 <wsndemo_init+0x18>)
    4d58:	4798      	blx	r3
    4d5a:	4b04      	ldr	r3, [pc, #16]	; (4d6c <wsndemo_init+0x1c>)
    4d5c:	4798      	blx	r3
    4d5e:	bd10      	pop	{r4, pc}
    4d60:	2000000c 	.word	0x2000000c
    4d64:	00005431 	.word	0x00005431
    4d68:	20000030 	.word	0x20000030
    4d6c:	00002455 	.word	0x00002455

00004d70 <wsndemo_task>:
    4d70:	b5f0      	push	{r4, r5, r6, r7, lr}
    4d72:	46ce      	mov	lr, r9
    4d74:	4647      	mov	r7, r8
    4d76:	b580      	push	{r7, lr}
    4d78:	4b90      	ldr	r3, [pc, #576]	; (4fbc <wsndemo_task+0x24c>)
    4d7a:	b087      	sub	sp, #28
    4d7c:	4798      	blx	r3
    4d7e:	4f90      	ldr	r7, [pc, #576]	; (4fc0 <wsndemo_task+0x250>)
    4d80:	783b      	ldrb	r3, [r7, #0]
    4d82:	2b01      	cmp	r3, #1
    4d84:	d100      	bne.n	4d88 <wsndemo_task+0x18>
    4d86:	e0ff      	b.n	4f88 <wsndemo_task+0x218>
    4d88:	2b00      	cmp	r3, #0
    4d8a:	d100      	bne.n	4d8e <wsndemo_task+0x1e>
    4d8c:	e0b8      	b.n	4f00 <wsndemo_task+0x190>
    4d8e:	2b05      	cmp	r3, #5
    4d90:	d022      	beq.n	4dd8 <wsndemo_task+0x68>
    4d92:	2b07      	cmp	r3, #7
    4d94:	d104      	bne.n	4da0 <wsndemo_task+0x30>
    4d96:	4b8b      	ldr	r3, [pc, #556]	; (4fc4 <wsndemo_task+0x254>)
    4d98:	488b      	ldr	r0, [pc, #556]	; (4fc8 <wsndemo_task+0x258>)
    4d9a:	4798      	blx	r3
    4d9c:	2308      	movs	r3, #8
    4d9e:	703b      	strb	r3, [r7, #0]
    4da0:	4e8a      	ldr	r6, [pc, #552]	; (4fcc <wsndemo_task+0x25c>)
    4da2:	2114      	movs	r1, #20
    4da4:	0030      	movs	r0, r6
    4da6:	4b8a      	ldr	r3, [pc, #552]	; (4fd0 <wsndemo_task+0x260>)
    4da8:	4798      	blx	r3
    4daa:	b285      	uxth	r5, r0
    4dac:	2d00      	cmp	r5, #0
    4dae:	d007      	beq.n	4dc0 <wsndemo_task+0x50>
    4db0:	2400      	movs	r4, #0
    4db2:	4f88      	ldr	r7, [pc, #544]	; (4fd4 <wsndemo_task+0x264>)
    4db4:	5d30      	ldrb	r0, [r6, r4]
    4db6:	3401      	adds	r4, #1
    4db8:	47b8      	blx	r7
    4dba:	b2a3      	uxth	r3, r4
    4dbc:	429d      	cmp	r5, r3
    4dbe:	d8f9      	bhi.n	4db4 <wsndemo_task+0x44>
    4dc0:	2580      	movs	r5, #128	; 0x80
    4dc2:	4e85      	ldr	r6, [pc, #532]	; (4fd8 <wsndemo_task+0x268>)
    4dc4:	056d      	lsls	r5, r5, #21
    4dc6:	6a33      	ldr	r3, [r6, #32]
    4dc8:	422b      	tst	r3, r5
    4dca:	d100      	bne.n	4dce <wsndemo_task+0x5e>
    4dcc:	e072      	b.n	4eb4 <wsndemo_task+0x144>
    4dce:	b007      	add	sp, #28
    4dd0:	bc0c      	pop	{r2, r3}
    4dd2:	4690      	mov	r8, r2
    4dd4:	4699      	mov	r9, r3
    4dd6:	bdf0      	pop	{r4, r5, r6, r7, pc}
    4dd8:	2301      	movs	r3, #1
    4dda:	2616      	movs	r6, #22
    4ddc:	ad05      	add	r5, sp, #20
    4dde:	446e      	add	r6, sp
    4de0:	425b      	negs	r3, r3
    4de2:	802b      	strh	r3, [r5, #0]
    4de4:	8033      	strh	r3, [r6, #0]
    4de6:	4b7d      	ldr	r3, [pc, #500]	; (4fdc <wsndemo_task+0x26c>)
    4de8:	4699      	mov	r9, r3
    4dea:	4798      	blx	r3
    4dec:	4c7c      	ldr	r4, [pc, #496]	; (4fe0 <wsndemo_task+0x270>)
    4dee:	2200      	movs	r2, #0
    4df0:	0023      	movs	r3, r4
    4df2:	7760      	strb	r0, [r4, #29]
    4df4:	331d      	adds	r3, #29
    4df6:	0a00      	lsrs	r0, r0, #8
    4df8:	4690      	mov	r8, r2
    4dfa:	70da      	strb	r2, [r3, #3]
    4dfc:	77e2      	strb	r2, [r4, #31]
    4dfe:	77a0      	strb	r0, [r4, #30]
    4e00:	47c8      	blx	r9
    4e02:	237f      	movs	r3, #127	; 0x7f
    4e04:	4018      	ands	r0, r3
    4e06:	0023      	movs	r3, r4
    4e08:	2200      	movs	r2, #0
    4e0a:	3321      	adds	r3, #33	; 0x21
    4e0c:	7018      	strb	r0, [r3, #0]
    4e0e:	0e00      	lsrs	r0, r0, #24
    4e10:	705a      	strb	r2, [r3, #1]
    4e12:	709a      	strb	r2, [r3, #2]
    4e14:	70d8      	strb	r0, [r3, #3]
    4e16:	47c8      	blx	r9
    4e18:	23ff      	movs	r3, #255	; 0xff
    4e1a:	4018      	ands	r0, r3
    4e1c:	0023      	movs	r3, r4
    4e1e:	0a02      	lsrs	r2, r0, #8
    4e20:	3325      	adds	r3, #37	; 0x25
    4e22:	7018      	strb	r0, [r3, #0]
    4e24:	705a      	strb	r2, [r3, #1]
    4e26:	0c02      	lsrs	r2, r0, #16
    4e28:	0e00      	lsrs	r0, r0, #24
    4e2a:	709a      	strb	r2, [r3, #2]
    4e2c:	70d8      	strb	r0, [r3, #3]
    4e2e:	4b6d      	ldr	r3, [pc, #436]	; (4fe4 <wsndemo_task+0x274>)
    4e30:	0029      	movs	r1, r5
    4e32:	2002      	movs	r0, #2
    4e34:	4699      	mov	r9, r3
    4e36:	4798      	blx	r3
    4e38:	882b      	ldrh	r3, [r5, #0]
    4e3a:	0021      	movs	r1, r4
    4e3c:	8163      	strh	r3, [r4, #10]
    4e3e:	8063      	strh	r3, [r4, #2]
    4e40:	0c1b      	lsrs	r3, r3, #16
    4e42:	80a3      	strh	r3, [r4, #4]
    4e44:	4643      	mov	r3, r8
    4e46:	3116      	adds	r1, #22
    4e48:	2000      	movs	r0, #0
    4e4a:	80e3      	strh	r3, [r4, #6]
    4e4c:	8123      	strh	r3, [r4, #8]
    4e4e:	47c8      	blx	r9
    4e50:	0031      	movs	r1, r6
    4e52:	2001      	movs	r0, #1
    4e54:	47c8      	blx	r9
    4e56:	0020      	movs	r0, r4
    4e58:	8833      	ldrh	r3, [r6, #0]
    4e5a:	882a      	ldrh	r2, [r5, #0]
    4e5c:	4962      	ldr	r1, [pc, #392]	; (4fe8 <wsndemo_task+0x278>)
    4e5e:	82a3      	strh	r3, [r4, #20]
    4e60:	303a      	adds	r0, #58	; 0x3a
    4e62:	4b62      	ldr	r3, [pc, #392]	; (4fec <wsndemo_task+0x27c>)
    4e64:	4798      	blx	r3
    4e66:	2010      	movs	r0, #16
    4e68:	4e61      	ldr	r6, [pc, #388]	; (4ff0 <wsndemo_task+0x280>)
    4e6a:	47b0      	blx	r6
    4e6c:	2002      	movs	r0, #2
    4e6e:	47b0      	blx	r6
    4e70:	2341      	movs	r3, #65	; 0x41
    4e72:	4698      	mov	r8, r3
    4e74:	2500      	movs	r5, #0
    4e76:	44a0      	add	r8, r4
    4e78:	e006      	b.n	4e88 <wsndemo_task+0x118>
    4e7a:	47b0      	blx	r6
    4e7c:	7820      	ldrb	r0, [r4, #0]
    4e7e:	3401      	adds	r4, #1
    4e80:	182d      	adds	r5, r5, r0
    4e82:	b2ed      	uxtb	r5, r5
    4e84:	4544      	cmp	r4, r8
    4e86:	d00d      	beq.n	4ea4 <wsndemo_task+0x134>
    4e88:	7820      	ldrb	r0, [r4, #0]
    4e8a:	2810      	cmp	r0, #16
    4e8c:	d1f5      	bne.n	4e7a <wsndemo_task+0x10a>
    4e8e:	47b0      	blx	r6
    4e90:	7820      	ldrb	r0, [r4, #0]
    4e92:	3510      	adds	r5, #16
    4e94:	47b0      	blx	r6
    4e96:	7820      	ldrb	r0, [r4, #0]
    4e98:	b2ed      	uxtb	r5, r5
    4e9a:	182d      	adds	r5, r5, r0
    4e9c:	3401      	adds	r4, #1
    4e9e:	b2ed      	uxtb	r5, r5
    4ea0:	4544      	cmp	r4, r8
    4ea2:	d1f1      	bne.n	4e88 <wsndemo_task+0x118>
    4ea4:	2010      	movs	r0, #16
    4ea6:	47b0      	blx	r6
    4ea8:	3525      	adds	r5, #37	; 0x25
    4eaa:	2003      	movs	r0, #3
    4eac:	47b0      	blx	r6
    4eae:	b2e8      	uxtb	r0, r5
    4eb0:	47b0      	blx	r6
    4eb2:	e770      	b.n	4d96 <wsndemo_task+0x26>
    4eb4:	2316      	movs	r3, #22
    4eb6:	446b      	add	r3, sp
    4eb8:	4698      	mov	r8, r3
    4eba:	2303      	movs	r3, #3
    4ebc:	4642      	mov	r2, r8
    4ebe:	425b      	negs	r3, r3
    4ec0:	2032      	movs	r0, #50	; 0x32
    4ec2:	4f4c      	ldr	r7, [pc, #304]	; (4ff4 <wsndemo_task+0x284>)
    4ec4:	8013      	strh	r3, [r2, #0]
    4ec6:	47b8      	blx	r7
    4ec8:	6a33      	ldr	r3, [r6, #32]
    4eca:	422b      	tst	r3, r5
    4ecc:	d166      	bne.n	4f9c <wsndemo_task+0x22c>
    4ece:	2400      	movs	r4, #0
    4ed0:	20fa      	movs	r0, #250	; 0xfa
    4ed2:	0040      	lsls	r0, r0, #1
    4ed4:	47b8      	blx	r7
    4ed6:	6a33      	ldr	r3, [r6, #32]
    4ed8:	3401      	adds	r4, #1
    4eda:	b2e4      	uxtb	r4, r4
    4edc:	422b      	tst	r3, r5
    4ede:	d0f7      	beq.n	4ed0 <wsndemo_task+0x160>
    4ee0:	2c05      	cmp	r4, #5
    4ee2:	d95b      	bls.n	4f9c <wsndemo_task+0x22c>
    4ee4:	2220      	movs	r2, #32
    4ee6:	ab05      	add	r3, sp, #20
    4ee8:	701a      	strb	r2, [r3, #0]
    4eea:	4a43      	ldr	r2, [pc, #268]	; (4ff8 <wsndemo_task+0x288>)
    4eec:	4641      	mov	r1, r8
    4eee:	9202      	str	r2, [sp, #8]
    4ef0:	2200      	movs	r2, #0
    4ef2:	9201      	str	r2, [sp, #4]
    4ef4:	3201      	adds	r2, #1
    4ef6:	9200      	str	r2, [sp, #0]
    4ef8:	4c40      	ldr	r4, [pc, #256]	; (4ffc <wsndemo_task+0x28c>)
    4efa:	2002      	movs	r0, #2
    4efc:	47a0      	blx	r4
    4efe:	e766      	b.n	4dce <wsndemo_task+0x5e>
    4f00:	4837      	ldr	r0, [pc, #220]	; (4fe0 <wsndemo_task+0x270>)
    4f02:	2400      	movs	r4, #0
    4f04:	7043      	strb	r3, [r0, #1]
    4f06:	8043      	strh	r3, [r0, #2]
    4f08:	8083      	strh	r3, [r0, #4]
    4f0a:	80c3      	strh	r3, [r0, #6]
    4f0c:	8103      	strh	r3, [r0, #8]
    4f0e:	8143      	strh	r3, [r0, #10]
    4f10:	2388      	movs	r3, #136	; 0x88
    4f12:	045b      	lsls	r3, r3, #17
    4f14:	60c3      	str	r3, [r0, #12]
    4f16:	2380      	movs	r3, #128	; 0x80
    4f18:	049b      	lsls	r3, r3, #18
    4f1a:	6103      	str	r3, [r0, #16]
    4f1c:	230c      	movs	r3, #12
    4f1e:	7703      	strb	r3, [r0, #28]
    4f20:	0003      	movs	r3, r0
    4f22:	331d      	adds	r3, #29
    4f24:	70dc      	strb	r4, [r3, #3]
    4f26:	0003      	movs	r3, r0
    4f28:	3321      	adds	r3, #33	; 0x21
    4f2a:	701c      	strb	r4, [r3, #0]
    4f2c:	705c      	strb	r4, [r3, #1]
    4f2e:	709c      	strb	r4, [r3, #2]
    4f30:	70dc      	strb	r4, [r3, #3]
    4f32:	0003      	movs	r3, r0
    4f34:	3325      	adds	r3, #37	; 0x25
    4f36:	701c      	strb	r4, [r3, #0]
    4f38:	705c      	strb	r4, [r3, #1]
    4f3a:	709c      	strb	r4, [r3, #2]
    4f3c:	70dc      	strb	r4, [r3, #3]
    4f3e:	2220      	movs	r2, #32
    4f40:	2329      	movs	r3, #41	; 0x29
    4f42:	2501      	movs	r5, #1
    4f44:	54c2      	strb	r2, [r0, r3]
    4f46:	3a0a      	subs	r2, #10
    4f48:	3301      	adds	r3, #1
    4f4a:	54c2      	strb	r2, [r0, r3]
    4f4c:	492c      	ldr	r1, [pc, #176]	; (5000 <wsndemo_task+0x290>)
    4f4e:	7005      	strb	r5, [r0, #0]
    4f50:	75c4      	strb	r4, [r0, #23]
    4f52:	7604      	strb	r4, [r0, #24]
    4f54:	7644      	strb	r4, [r0, #25]
    4f56:	7684      	strb	r4, [r0, #26]
    4f58:	76c5      	strb	r5, [r0, #27]
    4f5a:	7744      	strb	r4, [r0, #29]
    4f5c:	7784      	strb	r4, [r0, #30]
    4f5e:	77c4      	strb	r4, [r0, #31]
    4f60:	4b28      	ldr	r3, [pc, #160]	; (5004 <wsndemo_task+0x294>)
    4f62:	302b      	adds	r0, #43	; 0x2b
    4f64:	4798      	blx	r3
    4f66:	4b18      	ldr	r3, [pc, #96]	; (4fc8 <wsndemo_task+0x258>)
    4f68:	4a27      	ldr	r2, [pc, #156]	; (5008 <wsndemo_task+0x298>)
    4f6a:	731c      	strb	r4, [r3, #12]
    4f6c:	609a      	str	r2, [r3, #8]
    4f6e:	4a27      	ldr	r2, [pc, #156]	; (500c <wsndemo_task+0x29c>)
    4f70:	611a      	str	r2, [r3, #16]
    4f72:	2280      	movs	r2, #128	; 0x80
    4f74:	4b18      	ldr	r3, [pc, #96]	; (4fd8 <wsndemo_task+0x268>)
    4f76:	0312      	lsls	r2, r2, #12
    4f78:	615a      	str	r2, [r3, #20]
    4f7a:	4b25      	ldr	r3, [pc, #148]	; (5010 <wsndemo_task+0x2a0>)
    4f7c:	4798      	blx	r3
    4f7e:	4825      	ldr	r0, [pc, #148]	; (5014 <wsndemo_task+0x2a4>)
    4f80:	4b25      	ldr	r3, [pc, #148]	; (5018 <wsndemo_task+0x2a8>)
    4f82:	4798      	blx	r3
    4f84:	703d      	strb	r5, [r7, #0]
    4f86:	e70b      	b.n	4da0 <wsndemo_task+0x30>
    4f88:	2280      	movs	r2, #128	; 0x80
    4f8a:	4b24      	ldr	r3, [pc, #144]	; (501c <wsndemo_task+0x2ac>)
    4f8c:	0492      	lsls	r2, r2, #18
    4f8e:	210a      	movs	r1, #10
    4f90:	2000      	movs	r0, #0
    4f92:	4c23      	ldr	r4, [pc, #140]	; (5020 <wsndemo_task+0x2b0>)
    4f94:	47a0      	blx	r4
    4f96:	2305      	movs	r3, #5
    4f98:	703b      	strb	r3, [r7, #0]
    4f9a:	e701      	b.n	4da0 <wsndemo_task+0x30>
    4f9c:	2221      	movs	r2, #33	; 0x21
    4f9e:	ab05      	add	r3, sp, #20
    4fa0:	701a      	strb	r2, [r3, #0]
    4fa2:	4a15      	ldr	r2, [pc, #84]	; (4ff8 <wsndemo_task+0x288>)
    4fa4:	4641      	mov	r1, r8
    4fa6:	9202      	str	r2, [sp, #8]
    4fa8:	2200      	movs	r2, #0
    4faa:	9201      	str	r2, [sp, #4]
    4fac:	3202      	adds	r2, #2
    4fae:	9200      	str	r2, [sp, #0]
    4fb0:	4c12      	ldr	r4, [pc, #72]	; (4ffc <wsndemo_task+0x28c>)
    4fb2:	3a01      	subs	r2, #1
    4fb4:	2002      	movs	r0, #2
    4fb6:	47a0      	blx	r4
    4fb8:	e709      	b.n	4dce <wsndemo_task+0x5e>
    4fba:	46c0      	nop			; (mov r8, r8)
    4fbc:	000055b5 	.word	0x000055b5
    4fc0:	20000371 	.word	0x20000371
    4fc4:	00003a11 	.word	0x00003a11
    4fc8:	20002030 	.word	0x20002030
    4fcc:	20000374 	.word	0x20000374
    4fd0:	00002591 	.word	0x00002591
    4fd4:	00004acd 	.word	0x00004acd
    4fd8:	41004400 	.word	0x41004400
    4fdc:	00009601 	.word	0x00009601
    4fe0:	20000330 	.word	0x20000330
    4fe4:	0000585d 	.word	0x0000585d
    4fe8:	0000a56c 	.word	0x0000a56c
    4fec:	000097e5 	.word	0x000097e5
    4ff0:	0000262d 	.word	0x0000262d
    4ff4:	00000185 	.word	0x00000185
    4ff8:	00004cad 	.word	0x00004cad
    4ffc:	00005649 	.word	0x00005649
    5000:	0000a55c 	.word	0x0000a55c
    5004:	000095df 	.word	0x000095df
    5008:	00002710 	.word	0x00002710
    500c:	00004cb1 	.word	0x00004cb1
    5010:	00004aa5 	.word	0x00004aa5
    5014:	00004cd5 	.word	0x00004cd5
    5018:	00006931 	.word	0x00006931
    501c:	00004c99 	.word	0x00004c99
    5020:	00007e3d 	.word	0x00007e3d

00005024 <common_tc_delay>:
    5024:	b510      	push	{r4, lr}
    5026:	1c04      	adds	r4, r0, #0
    5028:	4b13      	ldr	r3, [pc, #76]	; (5078 <common_tc_delay+0x54>)
    502a:	4798      	blx	r3
    502c:	4b13      	ldr	r3, [pc, #76]	; (507c <common_tc_delay+0x58>)
    502e:	781a      	ldrb	r2, [r3, #0]
    5030:	4362      	muls	r2, r4
    5032:	1881      	adds	r1, r0, r2
    5034:	4b12      	ldr	r3, [pc, #72]	; (5080 <common_tc_delay+0x5c>)
    5036:	6059      	str	r1, [r3, #4]
    5038:	6859      	ldr	r1, [r3, #4]
    503a:	0c09      	lsrs	r1, r1, #16
    503c:	6059      	str	r1, [r3, #4]
    503e:	685b      	ldr	r3, [r3, #4]
    5040:	2b00      	cmp	r3, #0
    5042:	d007      	beq.n	5054 <common_tc_delay+0x30>
    5044:	4b0e      	ldr	r3, [pc, #56]	; (5080 <common_tc_delay+0x5c>)
    5046:	6859      	ldr	r1, [r3, #4]
    5048:	3201      	adds	r2, #1
    504a:	1880      	adds	r0, r0, r2
    504c:	8118      	strh	r0, [r3, #8]
    504e:	4b0d      	ldr	r3, [pc, #52]	; (5084 <common_tc_delay+0x60>)
    5050:	4798      	blx	r3
    5052:	e004      	b.n	505e <common_tc_delay+0x3a>
    5054:	1882      	adds	r2, r0, r2
    5056:	4b0a      	ldr	r3, [pc, #40]	; (5080 <common_tc_delay+0x5c>)
    5058:	811a      	strh	r2, [r3, #8]
    505a:	4b0b      	ldr	r3, [pc, #44]	; (5088 <common_tc_delay+0x64>)
    505c:	4798      	blx	r3
    505e:	4b08      	ldr	r3, [pc, #32]	; (5080 <common_tc_delay+0x5c>)
    5060:	891b      	ldrh	r3, [r3, #8]
    5062:	2b63      	cmp	r3, #99	; 0x63
    5064:	d802      	bhi.n	506c <common_tc_delay+0x48>
    5066:	3364      	adds	r3, #100	; 0x64
    5068:	4a05      	ldr	r2, [pc, #20]	; (5080 <common_tc_delay+0x5c>)
    506a:	8113      	strh	r3, [r2, #8]
    506c:	4b04      	ldr	r3, [pc, #16]	; (5080 <common_tc_delay+0x5c>)
    506e:	8918      	ldrh	r0, [r3, #8]
    5070:	4b06      	ldr	r3, [pc, #24]	; (508c <common_tc_delay+0x68>)
    5072:	4798      	blx	r3
    5074:	bd10      	pop	{r4, pc}
    5076:	46c0      	nop			; (mov r8, r8)
    5078:	00003b89 	.word	0x00003b89
    507c:	20002044 	.word	0x20002044
    5080:	20000388 	.word	0x20000388
    5084:	00003b9d 	.word	0x00003b9d
    5088:	00003bb1 	.word	0x00003bb1
    508c:	00003bed 	.word	0x00003bed

00005090 <common_tc_init>:
    5090:	b508      	push	{r3, lr}
    5092:	2200      	movs	r2, #0
    5094:	4b03      	ldr	r3, [pc, #12]	; (50a4 <common_tc_init+0x14>)
    5096:	701a      	strb	r2, [r3, #0]
    5098:	4b03      	ldr	r3, [pc, #12]	; (50a8 <common_tc_init+0x18>)
    509a:	4798      	blx	r3
    509c:	4b03      	ldr	r3, [pc, #12]	; (50ac <common_tc_init+0x1c>)
    509e:	7018      	strb	r0, [r3, #0]
    50a0:	bd08      	pop	{r3, pc}
    50a2:	46c0      	nop			; (mov r8, r8)
    50a4:	20000388 	.word	0x20000388
    50a8:	00003c05 	.word	0x00003c05
    50ac:	20002044 	.word	0x20002044

000050b0 <tmr_ovf_callback>:
    50b0:	b508      	push	{r3, lr}
    50b2:	4b0e      	ldr	r3, [pc, #56]	; (50ec <tmr_ovf_callback+0x3c>)
    50b4:	685b      	ldr	r3, [r3, #4]
    50b6:	2b00      	cmp	r3, #0
    50b8:	d007      	beq.n	50ca <tmr_ovf_callback+0x1a>
    50ba:	4a0c      	ldr	r2, [pc, #48]	; (50ec <tmr_ovf_callback+0x3c>)
    50bc:	6853      	ldr	r3, [r2, #4]
    50be:	3b01      	subs	r3, #1
    50c0:	6053      	str	r3, [r2, #4]
    50c2:	2b00      	cmp	r3, #0
    50c4:	d101      	bne.n	50ca <tmr_ovf_callback+0x1a>
    50c6:	4b0a      	ldr	r3, [pc, #40]	; (50f0 <tmr_ovf_callback+0x40>)
    50c8:	4798      	blx	r3
    50ca:	4a08      	ldr	r2, [pc, #32]	; (50ec <tmr_ovf_callback+0x3c>)
    50cc:	7813      	ldrb	r3, [r2, #0]
    50ce:	3301      	adds	r3, #1
    50d0:	b2db      	uxtb	r3, r3
    50d2:	7013      	strb	r3, [r2, #0]
    50d4:	4a07      	ldr	r2, [pc, #28]	; (50f4 <tmr_ovf_callback+0x44>)
    50d6:	7812      	ldrb	r2, [r2, #0]
    50d8:	429a      	cmp	r2, r3
    50da:	d806      	bhi.n	50ea <tmr_ovf_callback+0x3a>
    50dc:	4b03      	ldr	r3, [pc, #12]	; (50ec <tmr_ovf_callback+0x3c>)
    50de:	2200      	movs	r2, #0
    50e0:	701a      	strb	r2, [r3, #0]
    50e2:	68db      	ldr	r3, [r3, #12]
    50e4:	2b00      	cmp	r3, #0
    50e6:	d000      	beq.n	50ea <tmr_ovf_callback+0x3a>
    50e8:	4798      	blx	r3
    50ea:	bd08      	pop	{r3, pc}
    50ec:	20000388 	.word	0x20000388
    50f0:	00003bb1 	.word	0x00003bb1
    50f4:	20002044 	.word	0x20002044

000050f8 <tmr_cca_callback>:
    50f8:	b508      	push	{r3, lr}
    50fa:	4b04      	ldr	r3, [pc, #16]	; (510c <tmr_cca_callback+0x14>)
    50fc:	4798      	blx	r3
    50fe:	4b04      	ldr	r3, [pc, #16]	; (5110 <tmr_cca_callback+0x18>)
    5100:	691b      	ldr	r3, [r3, #16]
    5102:	2b00      	cmp	r3, #0
    5104:	d000      	beq.n	5108 <tmr_cca_callback+0x10>
    5106:	4798      	blx	r3
    5108:	bd08      	pop	{r3, pc}
    510a:	46c0      	nop			; (mov r8, r8)
    510c:	00003b9d 	.word	0x00003b9d
    5110:	20000388 	.word	0x20000388

00005114 <set_common_tc_expiry_callback>:
    5114:	4b01      	ldr	r3, [pc, #4]	; (511c <set_common_tc_expiry_callback+0x8>)
    5116:	6118      	str	r0, [r3, #16]
    5118:	4770      	bx	lr
    511a:	46c0      	nop			; (mov r8, r8)
    511c:	20000388 	.word	0x20000388

00005120 <frameTxCallback>:
    5120:	b570      	push	{r4, r5, r6, lr}
    5122:	2401      	movs	r4, #1
    5124:	4b07      	ldr	r3, [pc, #28]	; (5144 <frameTxCallback+0x24>)
    5126:	701c      	strb	r4, [r3, #0]
    5128:	4c07      	ldr	r4, [pc, #28]	; (5148 <frameTxCallback+0x28>)
    512a:	6823      	ldr	r3, [r4, #0]
    512c:	691b      	ldr	r3, [r3, #16]
    512e:	2b00      	cmp	r3, #0
    5130:	d004      	beq.n	513c <frameTxCallback+0x1c>
    5132:	4798      	blx	r3
    5134:	4d05      	ldr	r5, [pc, #20]	; (514c <frameTxCallback+0x2c>)
    5136:	6820      	ldr	r0, [r4, #0]
    5138:	47a8      	blx	r5
    513a:	bd70      	pop	{r4, r5, r6, pc}
    513c:	0010      	movs	r0, r2
    513e:	4d03      	ldr	r5, [pc, #12]	; (514c <frameTxCallback+0x2c>)
    5140:	47a8      	blx	r5
    5142:	e7f8      	b.n	5136 <frameTxCallback+0x16>
    5144:	2000006e 	.word	0x2000006e
    5148:	20002078 	.word	0x20002078
    514c:	00003869 	.word	0x00003869

00005150 <nonAckDataCallback>:
    5150:	b5f0      	push	{r4, r5, r6, r7, lr}
    5152:	46c6      	mov	lr, r8
    5154:	0007      	movs	r7, r0
    5156:	b500      	push	{lr}
    5158:	0010      	movs	r0, r2
    515a:	4e0f      	ldr	r6, [pc, #60]	; (5198 <nonAckDataCallback+0x48>)
    515c:	4688      	mov	r8, r1
    515e:	0015      	movs	r5, r2
    5160:	47b0      	blx	r6
    5162:	2100      	movs	r1, #0
    5164:	480d      	ldr	r0, [pc, #52]	; (519c <nonAckDataCallback+0x4c>)
    5166:	4b0e      	ldr	r3, [pc, #56]	; (51a0 <nonAckDataCallback+0x50>)
    5168:	4798      	blx	r3
    516a:	1e04      	subs	r4, r0, #0
    516c:	d00e      	beq.n	518c <nonAckDataCallback+0x3c>
    516e:	68a3      	ldr	r3, [r4, #8]
    5170:	2b00      	cmp	r3, #0
    5172:	d003      	beq.n	517c <nonAckDataCallback+0x2c>
    5174:	002a      	movs	r2, r5
    5176:	4641      	mov	r1, r8
    5178:	0038      	movs	r0, r7
    517a:	4798      	blx	r3
    517c:	7d23      	ldrb	r3, [r4, #20]
    517e:	2b00      	cmp	r3, #0
    5180:	d101      	bne.n	5186 <nonAckDataCallback+0x36>
    5182:	0020      	movs	r0, r4
    5184:	47b0      	blx	r6
    5186:	bc04      	pop	{r2}
    5188:	4690      	mov	r8, r2
    518a:	bdf0      	pop	{r4, r5, r6, r7, pc}
    518c:	4b05      	ldr	r3, [pc, #20]	; (51a4 <nonAckDataCallback+0x54>)
    518e:	781b      	ldrb	r3, [r3, #0]
    5190:	2b08      	cmp	r3, #8
    5192:	d1f8      	bne.n	5186 <nonAckDataCallback+0x36>
    5194:	e7eb      	b.n	516e <nonAckDataCallback+0x1e>
    5196:	46c0      	nop			; (mov r8, r8)
    5198:	00003869 	.word	0x00003869
    519c:	20002048 	.word	0x20002048
    51a0:	0000391d 	.word	0x0000391d
    51a4:	2000039c 	.word	0x2000039c

000051a8 <dataTimerHandler>:
    51a8:	b5f8      	push	{r3, r4, r5, r6, r7, lr}
    51aa:	464e      	mov	r6, r9
    51ac:	46de      	mov	lr, fp
    51ae:	4657      	mov	r7, sl
    51b0:	4645      	mov	r5, r8
    51b2:	b5e0      	push	{r5, r6, r7, lr}
    51b4:	4e40      	ldr	r6, [pc, #256]	; (52b8 <dataTimerHandler+0x110>)
    51b6:	7a33      	ldrb	r3, [r6, #8]
    51b8:	2b00      	cmp	r3, #0
    51ba:	d049      	beq.n	5250 <dataTimerHandler+0xa8>
    51bc:	4b3f      	ldr	r3, [pc, #252]	; (52bc <dataTimerHandler+0x114>)
    51be:	2500      	movs	r5, #0
    51c0:	4698      	mov	r8, r3
    51c2:	4b3f      	ldr	r3, [pc, #252]	; (52c0 <dataTimerHandler+0x118>)
    51c4:	46c1      	mov	r9, r8
    51c6:	469a      	mov	sl, r3
    51c8:	4f3e      	ldr	r7, [pc, #248]	; (52c4 <dataTimerHandler+0x11c>)
    51ca:	2100      	movs	r1, #0
    51cc:	0030      	movs	r0, r6
    51ce:	47b8      	blx	r7
    51d0:	1e04      	subs	r4, r0, #0
    51d2:	d03d      	beq.n	5250 <dataTimerHandler+0xa8>
    51d4:	7c03      	ldrb	r3, [r0, #16]
    51d6:	2b00      	cmp	r3, #0
    51d8:	d046      	beq.n	5268 <dataTimerHandler+0xc0>
    51da:	3b01      	subs	r3, #1
    51dc:	b2db      	uxtb	r3, r3
    51de:	7403      	strb	r3, [r0, #16]
    51e0:	2b00      	cmp	r3, #0
    51e2:	d141      	bne.n	5268 <dataTimerHandler+0xc0>
    51e4:	7c43      	ldrb	r3, [r0, #17]
    51e6:	2b00      	cmp	r3, #0
    51e8:	d047      	beq.n	527a <dataTimerHandler+0xd2>
    51ea:	3b01      	subs	r3, #1
    51ec:	b2db      	uxtb	r3, r3
    51ee:	7443      	strb	r3, [r0, #17]
    51f0:	2b00      	cmp	r3, #0
    51f2:	d142      	bne.n	527a <dataTimerHandler+0xd2>
    51f4:	6883      	ldr	r3, [r0, #8]
    51f6:	2b00      	cmp	r3, #0
    51f8:	d003      	beq.n	5202 <dataTimerHandler+0x5a>
    51fa:	7c80      	ldrb	r0, [r0, #18]
    51fc:	0022      	movs	r2, r4
    51fe:	2103      	movs	r1, #3
    5200:	4798      	blx	r3
    5202:	4b31      	ldr	r3, [pc, #196]	; (52c8 <dataTimerHandler+0x120>)
    5204:	0020      	movs	r0, r4
    5206:	4798      	blx	r3
    5208:	23ff      	movs	r3, #255	; 0xff
    520a:	8ba0      	ldrh	r0, [r4, #28]
    520c:	4398      	bics	r0, r3
    520e:	4b2f      	ldr	r3, [pc, #188]	; (52cc <dataTimerHandler+0x124>)
    5210:	881b      	ldrh	r3, [r3, #0]
    5212:	4298      	cmp	r0, r3
    5214:	d017      	beq.n	5246 <dataTimerHandler+0x9e>
    5216:	4b2a      	ldr	r3, [pc, #168]	; (52c0 <dataTimerHandler+0x118>)
    5218:	0a02      	lsrs	r2, r0, #8
    521a:	681b      	ldr	r3, [r3, #0]
    521c:	0052      	lsls	r2, r2, #1
    521e:	691b      	ldr	r3, [r3, #16]
    5220:	189a      	adds	r2, r3, r2
    5222:	7854      	ldrb	r4, [r2, #1]
    5224:	230f      	movs	r3, #15
    5226:	0021      	movs	r1, r4
    5228:	469b      	mov	fp, r3
    522a:	4399      	bics	r1, r3
    522c:	d00b      	beq.n	5246 <dataTimerHandler+0x9e>
    522e:	0921      	lsrs	r1, r4, #4
    5230:	310f      	adds	r1, #15
    5232:	4019      	ands	r1, r3
    5234:	010b      	lsls	r3, r1, #4
    5236:	469c      	mov	ip, r3
    5238:	465b      	mov	r3, fp
    523a:	4023      	ands	r3, r4
    523c:	4664      	mov	r4, ip
    523e:	4323      	orrs	r3, r4
    5240:	7053      	strb	r3, [r2, #1]
    5242:	2900      	cmp	r1, #0
    5244:	d028      	beq.n	5298 <dataTimerHandler+0xf0>
    5246:	3501      	adds	r5, #1
    5248:	7a33      	ldrb	r3, [r6, #8]
    524a:	b2ed      	uxtb	r5, r5
    524c:	42ab      	cmp	r3, r5
    524e:	d8bc      	bhi.n	51ca <dataTimerHandler+0x22>
    5250:	4b1f      	ldr	r3, [pc, #124]	; (52d0 <dataTimerHandler+0x128>)
    5252:	781b      	ldrb	r3, [r3, #0]
    5254:	2b06      	cmp	r3, #6
    5256:	d028      	beq.n	52aa <dataTimerHandler+0x102>
    5258:	4b1e      	ldr	r3, [pc, #120]	; (52d4 <dataTimerHandler+0x12c>)
    525a:	4798      	blx	r3
    525c:	bc3c      	pop	{r2, r3, r4, r5}
    525e:	4690      	mov	r8, r2
    5260:	4699      	mov	r9, r3
    5262:	46a2      	mov	sl, r4
    5264:	46ab      	mov	fp, r5
    5266:	bdf8      	pop	{r3, r4, r5, r6, r7, pc}
    5268:	0021      	movs	r1, r4
    526a:	0030      	movs	r0, r6
    526c:	47c0      	blx	r8
    526e:	3501      	adds	r5, #1
    5270:	7a33      	ldrb	r3, [r6, #8]
    5272:	b2ed      	uxtb	r5, r5
    5274:	42ab      	cmp	r3, r5
    5276:	d8a8      	bhi.n	51ca <dataTimerHandler+0x22>
    5278:	e7ea      	b.n	5250 <dataTimerHandler+0xa8>
    527a:	4652      	mov	r2, sl
    527c:	2337      	movs	r3, #55	; 0x37
    527e:	6812      	ldr	r2, [r2, #0]
    5280:	0021      	movs	r1, r4
    5282:	5cd3      	ldrb	r3, [r2, r3]
    5284:	0030      	movs	r0, r6
    5286:	3301      	adds	r3, #1
    5288:	7423      	strb	r3, [r4, #16]
    528a:	47c8      	blx	r9
    528c:	3501      	adds	r5, #1
    528e:	7a33      	ldrb	r3, [r6, #8]
    5290:	b2ed      	uxtb	r5, r5
    5292:	42ab      	cmp	r3, r5
    5294:	d899      	bhi.n	51ca <dataTimerHandler+0x22>
    5296:	e7db      	b.n	5250 <dataTimerHandler+0xa8>
    5298:	4b0f      	ldr	r3, [pc, #60]	; (52d8 <dataTimerHandler+0x130>)
    529a:	4798      	blx	r3
    529c:	3501      	adds	r5, #1
    529e:	7a33      	ldrb	r3, [r6, #8]
    52a0:	b2ed      	uxtb	r5, r5
    52a2:	42ab      	cmp	r3, r5
    52a4:	d900      	bls.n	52a8 <dataTimerHandler+0x100>
    52a6:	e790      	b.n	51ca <dataTimerHandler+0x22>
    52a8:	e7d2      	b.n	5250 <dataTimerHandler+0xa8>
    52aa:	4b0c      	ldr	r3, [pc, #48]	; (52dc <dataTimerHandler+0x134>)
    52ac:	4798      	blx	r3
    52ae:	4b0c      	ldr	r3, [pc, #48]	; (52e0 <dataTimerHandler+0x138>)
    52b0:	4798      	blx	r3
    52b2:	4b0c      	ldr	r3, [pc, #48]	; (52e4 <dataTimerHandler+0x13c>)
    52b4:	4798      	blx	r3
    52b6:	e7cf      	b.n	5258 <dataTimerHandler+0xb0>
    52b8:	20002068 	.word	0x20002068
    52bc:	000038e5 	.word	0x000038e5
    52c0:	20002060 	.word	0x20002060
    52c4:	0000391d 	.word	0x0000391d
    52c8:	00003869 	.word	0x00003869
    52cc:	200020a8 	.word	0x200020a8
    52d0:	2000039c 	.word	0x2000039c
    52d4:	000086a5 	.word	0x000086a5
    52d8:	00008d45 	.word	0x00008d45
    52dc:	00008dc9 	.word	0x00008dc9
    52e0:	00006f61 	.word	0x00006f61
    52e4:	00007a0d 	.word	0x00007a0d

000052e8 <ackReqDataConfcb>:
    52e8:	b5f0      	push	{r4, r5, r6, r7, lr}
    52ea:	46de      	mov	lr, fp
    52ec:	464e      	mov	r6, r9
    52ee:	4645      	mov	r5, r8
    52f0:	4657      	mov	r7, sl
    52f2:	0013      	movs	r3, r2
    52f4:	b5e0      	push	{r5, r6, r7, lr}
    52f6:	b085      	sub	sp, #20
    52f8:	9202      	str	r2, [sp, #8]
    52fa:	7892      	ldrb	r2, [r2, #2]
    52fc:	4683      	mov	fp, r0
    52fe:	0018      	movs	r0, r3
    5300:	4b41      	ldr	r3, [pc, #260]	; (5408 <ackReqDataConfcb+0x120>)
    5302:	9101      	str	r1, [sp, #4]
    5304:	4690      	mov	r8, r2
    5306:	4798      	blx	r3
    5308:	4e40      	ldr	r6, [pc, #256]	; (540c <ackReqDataConfcb+0x124>)
    530a:	7a33      	ldrb	r3, [r6, #8]
    530c:	2b00      	cmp	r3, #0
    530e:	d035      	beq.n	537c <ackReqDataConfcb+0x94>
    5310:	4b3f      	ldr	r3, [pc, #252]	; (5410 <ackReqDataConfcb+0x128>)
    5312:	2400      	movs	r4, #0
    5314:	4f3f      	ldr	r7, [pc, #252]	; (5414 <ackReqDataConfcb+0x12c>)
    5316:	4699      	mov	r9, r3
    5318:	e007      	b.n	532a <ackReqDataConfcb+0x42>
    531a:	0029      	movs	r1, r5
    531c:	0030      	movs	r0, r6
    531e:	47c8      	blx	r9
    5320:	3401      	adds	r4, #1
    5322:	7a33      	ldrb	r3, [r6, #8]
    5324:	b2e4      	uxtb	r4, r4
    5326:	42a3      	cmp	r3, r4
    5328:	d928      	bls.n	537c <ackReqDataConfcb+0x94>
    532a:	2100      	movs	r1, #0
    532c:	0030      	movs	r0, r6
    532e:	47b8      	blx	r7
    5330:	1e05      	subs	r5, r0, #0
    5332:	d023      	beq.n	537c <ackReqDataConfcb+0x94>
    5334:	2320      	movs	r3, #32
    5336:	5cc3      	ldrb	r3, [r0, r3]
    5338:	4543      	cmp	r3, r8
    533a:	d1ee      	bne.n	531a <ackReqDataConfcb+0x32>
    533c:	7c83      	ldrb	r3, [r0, #18]
    533e:	469a      	mov	sl, r3
    5340:	455b      	cmp	r3, fp
    5342:	d1ea      	bne.n	531a <ackReqDataConfcb+0x32>
    5344:	9b01      	ldr	r3, [sp, #4]
    5346:	2b00      	cmp	r3, #0
    5348:	d02d      	beq.n	53a6 <ackReqDataConfcb+0xbe>
    534a:	2b03      	cmp	r3, #3
    534c:	d039      	beq.n	53c2 <ackReqDataConfcb+0xda>
    534e:	7c6b      	ldrb	r3, [r5, #17]
    5350:	2b00      	cmp	r3, #0
    5352:	d01a      	beq.n	538a <ackReqDataConfcb+0xa2>
    5354:	3b01      	subs	r3, #1
    5356:	b2db      	uxtb	r3, r3
    5358:	746b      	strb	r3, [r5, #17]
    535a:	2b00      	cmp	r3, #0
    535c:	d115      	bne.n	538a <ackReqDataConfcb+0xa2>
    535e:	68ab      	ldr	r3, [r5, #8]
    5360:	2b00      	cmp	r3, #0
    5362:	d003      	beq.n	536c <ackReqDataConfcb+0x84>
    5364:	9a02      	ldr	r2, [sp, #8]
    5366:	9901      	ldr	r1, [sp, #4]
    5368:	4650      	mov	r0, sl
    536a:	4798      	blx	r3
    536c:	4b26      	ldr	r3, [pc, #152]	; (5408 <ackReqDataConfcb+0x120>)
    536e:	0028      	movs	r0, r5
    5370:	4798      	blx	r3
    5372:	3401      	adds	r4, #1
    5374:	7a33      	ldrb	r3, [r6, #8]
    5376:	b2e4      	uxtb	r4, r4
    5378:	42a3      	cmp	r3, r4
    537a:	d8d6      	bhi.n	532a <ackReqDataConfcb+0x42>
    537c:	b005      	add	sp, #20
    537e:	bc3c      	pop	{r2, r3, r4, r5}
    5380:	4690      	mov	r8, r2
    5382:	4699      	mov	r9, r3
    5384:	46a2      	mov	sl, r4
    5386:	46ab      	mov	fp, r5
    5388:	bdf0      	pop	{r4, r5, r6, r7, pc}
    538a:	4b23      	ldr	r3, [pc, #140]	; (5418 <ackReqDataConfcb+0x130>)
    538c:	781b      	ldrb	r3, [r3, #0]
    538e:	2b08      	cmp	r3, #8
    5390:	d0e5      	beq.n	535e <ackReqDataConfcb+0x76>
    5392:	0029      	movs	r1, r5
    5394:	0030      	movs	r0, r6
    5396:	4b1e      	ldr	r3, [pc, #120]	; (5410 <ackReqDataConfcb+0x128>)
    5398:	4798      	blx	r3
    539a:	89a9      	ldrh	r1, [r5, #12]
    539c:	4a1f      	ldr	r2, [pc, #124]	; (541c <ackReqDataConfcb+0x134>)
    539e:	0028      	movs	r0, r5
    53a0:	4b1f      	ldr	r3, [pc, #124]	; (5420 <ackReqDataConfcb+0x138>)
    53a2:	4798      	blx	r3
    53a4:	e7bc      	b.n	5320 <ackReqDataConfcb+0x38>
    53a6:	4b1f      	ldr	r3, [pc, #124]	; (5424 <ackReqDataConfcb+0x13c>)
    53a8:	0001      	movs	r1, r0
    53aa:	681a      	ldr	r2, [r3, #0]
    53ac:	2337      	movs	r3, #55	; 0x37
    53ae:	5cd3      	ldrb	r3, [r2, r3]
    53b0:	3301      	adds	r3, #1
    53b2:	7403      	strb	r3, [r0, #16]
    53b4:	2338      	movs	r3, #56	; 0x38
    53b6:	5cd3      	ldrb	r3, [r2, r3]
    53b8:	7443      	strb	r3, [r0, #17]
    53ba:	0030      	movs	r0, r6
    53bc:	4b14      	ldr	r3, [pc, #80]	; (5410 <ackReqDataConfcb+0x128>)
    53be:	4798      	blx	r3
    53c0:	e7ae      	b.n	5320 <ackReqDataConfcb+0x38>
    53c2:	8b80      	ldrh	r0, [r0, #28]
    53c4:	33fc      	adds	r3, #252	; 0xfc
    53c6:	4398      	bics	r0, r3
    53c8:	4b17      	ldr	r3, [pc, #92]	; (5428 <ackReqDataConfcb+0x140>)
    53ca:	4684      	mov	ip, r0
    53cc:	881b      	ldrh	r3, [r3, #0]
    53ce:	4298      	cmp	r0, r3
    53d0:	d0bd      	beq.n	534e <ackReqDataConfcb+0x66>
    53d2:	4b14      	ldr	r3, [pc, #80]	; (5424 <ackReqDataConfcb+0x13c>)
    53d4:	0a02      	lsrs	r2, r0, #8
    53d6:	681b      	ldr	r3, [r3, #0]
    53d8:	0052      	lsls	r2, r2, #1
    53da:	691b      	ldr	r3, [r3, #16]
    53dc:	189a      	adds	r2, r3, r2
    53de:	7850      	ldrb	r0, [r2, #1]
    53e0:	230f      	movs	r3, #15
    53e2:	0001      	movs	r1, r0
    53e4:	9203      	str	r2, [sp, #12]
    53e6:	4399      	bics	r1, r3
    53e8:	d0b1      	beq.n	534e <ackReqDataConfcb+0x66>
    53ea:	0901      	lsrs	r1, r0, #4
    53ec:	310f      	adds	r1, #15
    53ee:	4019      	ands	r1, r3
    53f0:	010a      	lsls	r2, r1, #4
    53f2:	4003      	ands	r3, r0
    53f4:	4313      	orrs	r3, r2
    53f6:	9a03      	ldr	r2, [sp, #12]
    53f8:	7053      	strb	r3, [r2, #1]
    53fa:	2900      	cmp	r1, #0
    53fc:	d1a7      	bne.n	534e <ackReqDataConfcb+0x66>
    53fe:	4660      	mov	r0, ip
    5400:	4b0a      	ldr	r3, [pc, #40]	; (542c <ackReqDataConfcb+0x144>)
    5402:	4798      	blx	r3
    5404:	e7a3      	b.n	534e <ackReqDataConfcb+0x66>
    5406:	46c0      	nop			; (mov r8, r8)
    5408:	00003869 	.word	0x00003869
    540c:	20002068 	.word	0x20002068
    5410:	000038e5 	.word	0x000038e5
    5414:	0000391d 	.word	0x0000391d
    5418:	2000039c 	.word	0x2000039c
    541c:	000052e9 	.word	0x000052e9
    5420:	00006b61 	.word	0x00006b61
    5424:	20002060 	.word	0x20002060
    5428:	200020a8 	.word	0x200020a8
    542c:	00008d45 	.word	0x00008d45

00005430 <MiApp_ProtocolInit>:
    5430:	b570      	push	{r4, r5, r6, lr}
    5432:	4b25      	ldr	r3, [pc, #148]	; (54c8 <MiApp_ProtocolInit+0x98>)
    5434:	b084      	sub	sp, #16
    5436:	6018      	str	r0, [r3, #0]
    5438:	4b24      	ldr	r3, [pc, #144]	; (54cc <MiApp_ProtocolInit+0x9c>)
    543a:	2501      	movs	r5, #1
    543c:	6019      	str	r1, [r3, #0]
    543e:	4b24      	ldr	r3, [pc, #144]	; (54d0 <MiApp_ProtocolInit+0xa0>)
    5440:	4798      	blx	r3
    5442:	2102      	movs	r1, #2
    5444:	4c23      	ldr	r4, [pc, #140]	; (54d4 <MiApp_ProtocolInit+0xa4>)
    5446:	4b24      	ldr	r3, [pc, #144]	; (54d8 <MiApp_ProtocolInit+0xa8>)
    5448:	aa02      	add	r2, sp, #8
    544a:	8023      	strh	r3, [r4, #0]
    544c:	7813      	ldrb	r3, [r2, #0]
    544e:	2601      	movs	r6, #1
    5450:	430b      	orrs	r3, r1
    5452:	2187      	movs	r1, #135	; 0x87
    5454:	400b      	ands	r3, r1
    5456:	2140      	movs	r1, #64	; 0x40
    5458:	430b      	orrs	r3, r1
    545a:	21c3      	movs	r1, #195	; 0xc3
    545c:	400b      	ands	r3, r1
    545e:	43ab      	bics	r3, r5
    5460:	7013      	strb	r3, [r2, #0]
    5462:	491e      	ldr	r1, [pc, #120]	; (54dc <MiApp_ProtocolInit+0xac>)
    5464:	9802      	ldr	r0, [sp, #8]
    5466:	4b1e      	ldr	r3, [pc, #120]	; (54e0 <MiApp_ProtocolInit+0xb0>)
    5468:	4798      	blx	r3
    546a:	4b1e      	ldr	r3, [pc, #120]	; (54e4 <MiApp_ProtocolInit+0xb4>)
    546c:	4798      	blx	r3
    546e:	466b      	mov	r3, sp
    5470:	4276      	negs	r6, r6
    5472:	1d98      	adds	r0, r3, #6
    5474:	0021      	movs	r1, r4
    5476:	4b1c      	ldr	r3, [pc, #112]	; (54e8 <MiApp_ProtocolInit+0xb8>)
    5478:	8006      	strh	r6, [r0, #0]
    547a:	4798      	blx	r3
    547c:	491b      	ldr	r1, [pc, #108]	; (54ec <MiApp_ProtocolInit+0xbc>)
    547e:	4b1c      	ldr	r3, [pc, #112]	; (54f0 <MiApp_ProtocolInit+0xc0>)
    5480:	2000      	movs	r0, #0
    5482:	4798      	blx	r3
    5484:	4b1b      	ldr	r3, [pc, #108]	; (54f4 <MiApp_ProtocolInit+0xc4>)
    5486:	4798      	blx	r3
    5488:	4b1b      	ldr	r3, [pc, #108]	; (54f8 <MiApp_ProtocolInit+0xc8>)
    548a:	4798      	blx	r3
    548c:	4b1b      	ldr	r3, [pc, #108]	; (54fc <MiApp_ProtocolInit+0xcc>)
    548e:	4798      	blx	r3
    5490:	4b1b      	ldr	r3, [pc, #108]	; (5500 <MiApp_ProtocolInit+0xd0>)
    5492:	4798      	blx	r3
    5494:	4b1b      	ldr	r3, [pc, #108]	; (5504 <MiApp_ProtocolInit+0xd4>)
    5496:	4c1c      	ldr	r4, [pc, #112]	; (5508 <MiApp_ProtocolInit+0xd8>)
    5498:	701d      	strb	r5, [r3, #0]
    549a:	4b1c      	ldr	r3, [pc, #112]	; (550c <MiApp_ProtocolInit+0xdc>)
    549c:	481c      	ldr	r0, [pc, #112]	; (5510 <MiApp_ProtocolInit+0xe0>)
    549e:	801e      	strh	r6, [r3, #0]
    54a0:	47a0      	blx	r4
    54a2:	481c      	ldr	r0, [pc, #112]	; (5514 <MiApp_ProtocolInit+0xe4>)
    54a4:	47a0      	blx	r4
    54a6:	481c      	ldr	r0, [pc, #112]	; (5518 <MiApp_ProtocolInit+0xe8>)
    54a8:	47a0      	blx	r4
    54aa:	481c      	ldr	r0, [pc, #112]	; (551c <MiApp_ProtocolInit+0xec>)
    54ac:	47a0      	blx	r4
    54ae:	23fa      	movs	r3, #250	; 0xfa
    54b0:	481b      	ldr	r0, [pc, #108]	; (5520 <MiApp_ProtocolInit+0xf0>)
    54b2:	009b      	lsls	r3, r3, #2
    54b4:	6083      	str	r3, [r0, #8]
    54b6:	4b1b      	ldr	r3, [pc, #108]	; (5524 <MiApp_ProtocolInit+0xf4>)
    54b8:	7305      	strb	r5, [r0, #12]
    54ba:	6103      	str	r3, [r0, #16]
    54bc:	4b1a      	ldr	r3, [pc, #104]	; (5528 <MiApp_ProtocolInit+0xf8>)
    54be:	4798      	blx	r3
    54c0:	2001      	movs	r0, #1
    54c2:	b004      	add	sp, #16
    54c4:	bd70      	pop	{r4, r5, r6, pc}
    54c6:	46c0      	nop			; (mov r8, r8)
    54c8:	20002060 	.word	0x20002060
    54cc:	20002064 	.word	0x20002064
    54d0:	000039d5 	.word	0x000039d5
    54d4:	20002094 	.word	0x20002094
    54d8:	00001234 	.word	0x00001234
    54dc:	20000070 	.word	0x20000070
    54e0:	000026b5 	.word	0x000026b5
    54e4:	00003231 	.word	0x00003231
    54e8:	00002655 	.word	0x00002655
    54ec:	20002074 	.word	0x20002074
    54f0:	0000268d 	.word	0x0000268d
    54f4:	000084f1 	.word	0x000084f1
    54f8:	000088c5 	.word	0x000088c5
    54fc:	00008551 	.word	0x00008551
    5500:	00006f31 	.word	0x00006f31
    5504:	2000039c 	.word	0x2000039c
    5508:	000038d9 	.word	0x000038d9
    550c:	200020a8 	.word	0x200020a8
    5510:	20002068 	.word	0x20002068
    5514:	20002048 	.word	0x20002048
    5518:	20002054 	.word	0x20002054
    551c:	2000209c 	.word	0x2000209c
    5520:	200003a0 	.word	0x200003a0
    5524:	000051a9 	.word	0x000051a9
    5528:	00003a11 	.word	0x00003a11

0000552c <MiApp_Set>:
    552c:	b530      	push	{r4, r5, lr}
    552e:	000c      	movs	r4, r1
    5530:	b083      	sub	sp, #12
    5532:	2802      	cmp	r0, #2
    5534:	d020      	beq.n	5578 <MiApp_Set+0x4c>
    5536:	d912      	bls.n	555e <MiApp_Set+0x32>
    5538:	2880      	cmp	r0, #128	; 0x80
    553a:	d009      	beq.n	5550 <MiApp_Set+0x24>
    553c:	2881      	cmp	r0, #129	; 0x81
    553e:	d119      	bne.n	5574 <MiApp_Set+0x48>
    5540:	780b      	ldrb	r3, [r1, #0]
    5542:	2001      	movs	r0, #1
    5544:	1e5a      	subs	r2, r3, #1
    5546:	4193      	sbcs	r3, r2
    5548:	4a13      	ldr	r2, [pc, #76]	; (5598 <MiApp_Set+0x6c>)
    554a:	7013      	strb	r3, [r2, #0]
    554c:	b003      	add	sp, #12
    554e:	bd30      	pop	{r4, r5, pc}
    5550:	780b      	ldrb	r3, [r1, #0]
    5552:	2001      	movs	r0, #1
    5554:	1e5a      	subs	r2, r3, #1
    5556:	4193      	sbcs	r3, r2
    5558:	4a10      	ldr	r2, [pc, #64]	; (559c <MiApp_Set+0x70>)
    555a:	7013      	strb	r3, [r2, #0]
    555c:	e7f6      	b.n	554c <MiApp_Set+0x20>
    555e:	2800      	cmp	r0, #0
    5560:	d108      	bne.n	5574 <MiApp_Set+0x48>
    5562:	2000      	movs	r0, #0
    5564:	4b0e      	ldr	r3, [pc, #56]	; (55a0 <MiApp_Set+0x74>)
    5566:	4798      	blx	r3
    5568:	2800      	cmp	r0, #0
    556a:	d0ef      	beq.n	554c <MiApp_Set+0x20>
    556c:	7822      	ldrb	r2, [r4, #0]
    556e:	4b0d      	ldr	r3, [pc, #52]	; (55a4 <MiApp_Set+0x78>)
    5570:	701a      	strb	r2, [r3, #0]
    5572:	e7eb      	b.n	554c <MiApp_Set+0x20>
    5574:	2000      	movs	r0, #0
    5576:	e7e9      	b.n	554c <MiApp_Set+0x20>
    5578:	780b      	ldrb	r3, [r1, #0]
    557a:	ad01      	add	r5, sp, #4
    557c:	702b      	strb	r3, [r5, #0]
    557e:	784b      	ldrb	r3, [r1, #1]
    5580:	0028      	movs	r0, r5
    5582:	706b      	strb	r3, [r5, #1]
    5584:	4908      	ldr	r1, [pc, #32]	; (55a8 <MiApp_Set+0x7c>)
    5586:	4b09      	ldr	r3, [pc, #36]	; (55ac <MiApp_Set+0x80>)
    5588:	4798      	blx	r3
    558a:	2800      	cmp	r0, #0
    558c:	d0de      	beq.n	554c <MiApp_Set+0x20>
    558e:	882a      	ldrh	r2, [r5, #0]
    5590:	4b07      	ldr	r3, [pc, #28]	; (55b0 <MiApp_Set+0x84>)
    5592:	801a      	strh	r2, [r3, #0]
    5594:	e7da      	b.n	554c <MiApp_Set+0x20>
    5596:	46c0      	nop			; (mov r8, r8)
    5598:	200003bc 	.word	0x200003bc
    559c:	2000006f 	.word	0x2000006f
    55a0:	0000268d 	.word	0x0000268d
    55a4:	20002074 	.word	0x20002074
    55a8:	20002094 	.word	0x20002094
    55ac:	00002655 	.word	0x00002655
    55b0:	200020a8 	.word	0x200020a8

000055b4 <MeshTasks>:
    55b4:	b530      	push	{r4, r5, lr}
    55b6:	4b18      	ldr	r3, [pc, #96]	; (5618 <MeshTasks+0x64>)
    55b8:	b085      	sub	sp, #20
    55ba:	4798      	blx	r3
    55bc:	4817      	ldr	r0, [pc, #92]	; (561c <MeshTasks+0x68>)
    55be:	7a03      	ldrb	r3, [r0, #8]
    55c0:	2b00      	cmp	r3, #0
    55c2:	d003      	beq.n	55cc <MeshTasks+0x18>
    55c4:	4c16      	ldr	r4, [pc, #88]	; (5620 <MeshTasks+0x6c>)
    55c6:	7823      	ldrb	r3, [r4, #0]
    55c8:	2b00      	cmp	r3, #0
    55ca:	d10c      	bne.n	55e6 <MeshTasks+0x32>
    55cc:	4b15      	ldr	r3, [pc, #84]	; (5624 <MeshTasks+0x70>)
    55ce:	4798      	blx	r3
    55d0:	2800      	cmp	r0, #0
    55d2:	d004      	beq.n	55de <MeshTasks+0x2a>
    55d4:	4b14      	ldr	r3, [pc, #80]	; (5628 <MeshTasks+0x74>)
    55d6:	4815      	ldr	r0, [pc, #84]	; (562c <MeshTasks+0x78>)
    55d8:	4798      	blx	r3
    55da:	4b15      	ldr	r3, [pc, #84]	; (5630 <MeshTasks+0x7c>)
    55dc:	4798      	blx	r3
    55de:	4b15      	ldr	r3, [pc, #84]	; (5634 <MeshTasks+0x80>)
    55e0:	4798      	blx	r3
    55e2:	b005      	add	sp, #20
    55e4:	bd30      	pop	{r4, r5, pc}
    55e6:	2100      	movs	r1, #0
    55e8:	4b13      	ldr	r3, [pc, #76]	; (5638 <MeshTasks+0x84>)
    55ea:	4798      	blx	r3
    55ec:	1e02      	subs	r2, r0, #0
    55ee:	d0ed      	beq.n	55cc <MeshTasks+0x18>
    55f0:	4b12      	ldr	r3, [pc, #72]	; (563c <MeshTasks+0x88>)
    55f2:	4913      	ldr	r1, [pc, #76]	; (5640 <MeshTasks+0x8c>)
    55f4:	6018      	str	r0, [r3, #0]
    55f6:	6943      	ldr	r3, [r0, #20]
    55f8:	9102      	str	r1, [sp, #8]
    55fa:	2125      	movs	r1, #37	; 0x25
    55fc:	5c41      	ldrb	r1, [r0, r1]
    55fe:	4d11      	ldr	r5, [pc, #68]	; (5644 <MeshTasks+0x90>)
    5600:	9101      	str	r1, [sp, #4]
    5602:	2124      	movs	r1, #36	; 0x24
    5604:	5c41      	ldrb	r1, [r0, r1]
    5606:	9100      	str	r1, [sp, #0]
    5608:	69d1      	ldr	r1, [r2, #28]
    560a:	6980      	ldr	r0, [r0, #24]
    560c:	6a12      	ldr	r2, [r2, #32]
    560e:	47a8      	blx	r5
    5610:	2300      	movs	r3, #0
    5612:	7023      	strb	r3, [r4, #0]
    5614:	e7da      	b.n	55cc <MeshTasks+0x18>
    5616:	46c0      	nop			; (mov r8, r8)
    5618:	00002cb1 	.word	0x00002cb1
    561c:	2000209c 	.word	0x2000209c
    5620:	2000006e 	.word	0x2000006e
    5624:	000029a1 	.word	0x000029a1
    5628:	00007199 	.word	0x00007199
    562c:	20002080 	.word	0x20002080
    5630:	00002985 	.word	0x00002985
    5634:	00003aa9 	.word	0x00003aa9
    5638:	0000391d 	.word	0x0000391d
    563c:	20002078 	.word	0x20002078
    5640:	00005121 	.word	0x00005121
    5644:	00002721 	.word	0x00002721

00005648 <MiApp_SendData>:
    5648:	b5f0      	push	{r4, r5, r6, r7, lr}
    564a:	4657      	mov	r7, sl
    564c:	464e      	mov	r6, r9
    564e:	4645      	mov	r5, r8
    5650:	46de      	mov	lr, fp
    5652:	b5e0      	push	{r5, r6, r7, lr}
    5654:	b083      	sub	sp, #12
    5656:	001e      	movs	r6, r3
    5658:	ab0c      	add	r3, sp, #48	; 0x30
    565a:	781f      	ldrb	r7, [r3, #0]
    565c:	ab0d      	add	r3, sp, #52	; 0x34
    565e:	781c      	ldrb	r4, [r3, #0]
    5660:	4b6b      	ldr	r3, [pc, #428]	; (5810 <MiApp_SendData+0x1c8>)
    5662:	0015      	movs	r5, r2
    5664:	781b      	ldrb	r3, [r3, #0]
    5666:	3b06      	subs	r3, #6
    5668:	2b01      	cmp	r3, #1
    566a:	d907      	bls.n	567c <MiApp_SendData+0x34>
    566c:	2000      	movs	r0, #0
    566e:	b003      	add	sp, #12
    5670:	bc3c      	pop	{r2, r3, r4, r5}
    5672:	4690      	mov	r8, r2
    5674:	4699      	mov	r9, r3
    5676:	46a2      	mov	sl, r4
    5678:	46ab      	mov	fp, r5
    567a:	bdf0      	pop	{r4, r5, r6, r7, pc}
    567c:	2802      	cmp	r0, #2
    567e:	d1f5      	bne.n	566c <MiApp_SendData+0x24>
    5680:	23ff      	movs	r3, #255	; 0xff
    5682:	469a      	mov	sl, r3
    5684:	784b      	ldrb	r3, [r1, #1]
    5686:	780a      	ldrb	r2, [r1, #0]
    5688:	021b      	lsls	r3, r3, #8
    568a:	431a      	orrs	r2, r3
    568c:	4b61      	ldr	r3, [pc, #388]	; (5814 <MiApp_SendData+0x1cc>)
    568e:	308e      	adds	r0, #142	; 0x8e
    5690:	4691      	mov	r9, r2
    5692:	469b      	mov	fp, r3
    5694:	4798      	blx	r3
    5696:	4680      	mov	r8, r0
    5698:	2800      	cmp	r0, #0
    569a:	d0e7      	beq.n	566c <MiApp_SendData+0x24>
    569c:	2203      	movs	r2, #3
    569e:	7e43      	ldrb	r3, [r0, #25]
    56a0:	2110      	movs	r1, #16
    56a2:	4393      	bics	r3, r2
    56a4:	7643      	strb	r3, [r0, #25]
    56a6:	466a      	mov	r2, sp
    56a8:	464b      	mov	r3, r9
    56aa:	80d3      	strh	r3, [r2, #6]
    56ac:	88d3      	ldrh	r3, [r2, #6]
    56ae:	4699      	mov	r9, r3
    56b0:	464a      	mov	r2, r9
    56b2:	8382      	strh	r2, [r0, #28]
    56b4:	2201      	movs	r2, #1
    56b6:	4b58      	ldr	r3, [pc, #352]	; (5818 <MiApp_SendData+0x1d0>)
    56b8:	4022      	ands	r2, r4
    56ba:	881b      	ldrh	r3, [r3, #0]
    56bc:	0112      	lsls	r2, r2, #4
    56be:	83c3      	strh	r3, [r0, #30]
    56c0:	7e43      	ldrb	r3, [r0, #25]
    56c2:	438b      	bics	r3, r1
    56c4:	4313      	orrs	r3, r2
    56c6:	2238      	movs	r2, #56	; 0x38
    56c8:	7643      	strb	r3, [r0, #25]
    56ca:	5485      	strb	r5, [r0, r2]
    56cc:	7487      	strb	r7, [r0, #18]
    56ce:	2700      	movs	r7, #0
    56d0:	9a0e      	ldr	r2, [sp, #56]	; 0x38
    56d2:	74c7      	strb	r7, [r0, #19]
    56d4:	6082      	str	r2, [r0, #8]
    56d6:	7507      	strb	r7, [r0, #20]
    56d8:	002a      	movs	r2, r5
    56da:	0031      	movs	r1, r6
    56dc:	3039      	adds	r0, #57	; 0x39
    56de:	4d4f      	ldr	r5, [pc, #316]	; (581c <MiApp_SendData+0x1d4>)
    56e0:	47a8      	blx	r5
    56e2:	4b4f      	ldr	r3, [pc, #316]	; (5820 <MiApp_SendData+0x1d8>)
    56e4:	4599      	cmp	r9, r3
    56e6:	d821      	bhi.n	572c <MiApp_SendData+0xe4>
    56e8:	4653      	mov	r3, sl
    56ea:	464a      	mov	r2, r9
    56ec:	4213      	tst	r3, r2
    56ee:	d031      	beq.n	5754 <MiApp_SendData+0x10c>
    56f0:	4648      	mov	r0, r9
    56f2:	4652      	mov	r2, sl
    56f4:	4b48      	ldr	r3, [pc, #288]	; (5818 <MiApp_SendData+0x1d0>)
    56f6:	4390      	bics	r0, r2
    56f8:	881b      	ldrh	r3, [r3, #0]
    56fa:	4298      	cmp	r0, r3
    56fc:	d043      	beq.n	5786 <MiApp_SendData+0x13e>
    56fe:	4b49      	ldr	r3, [pc, #292]	; (5824 <MiApp_SendData+0x1dc>)
    5700:	4798      	blx	r3
    5702:	4643      	mov	r3, r8
    5704:	8198      	strh	r0, [r3, #12]
    5706:	4b48      	ldr	r3, [pc, #288]	; (5828 <MiApp_SendData+0x1e0>)
    5708:	4298      	cmp	r0, r3
    570a:	d070      	beq.n	57ee <MiApp_SendData+0x1a6>
    570c:	2c00      	cmp	r4, #0
    570e:	d125      	bne.n	575c <MiApp_SendData+0x114>
    5710:	4643      	mov	r3, r8
    5712:	4641      	mov	r1, r8
    5714:	745c      	strb	r4, [r3, #17]
    5716:	4845      	ldr	r0, [pc, #276]	; (582c <MiApp_SendData+0x1e4>)
    5718:	4b45      	ldr	r3, [pc, #276]	; (5830 <MiApp_SendData+0x1e8>)
    571a:	4798      	blx	r3
    571c:	4643      	mov	r3, r8
    571e:	4a45      	ldr	r2, [pc, #276]	; (5834 <MiApp_SendData+0x1ec>)
    5720:	8999      	ldrh	r1, [r3, #12]
    5722:	4640      	mov	r0, r8
    5724:	4b44      	ldr	r3, [pc, #272]	; (5838 <MiApp_SendData+0x1f0>)
    5726:	4798      	blx	r3
    5728:	2001      	movs	r0, #1
    572a:	e7a0      	b.n	566e <MiApp_SendData+0x26>
    572c:	4643      	mov	r3, r8
    572e:	2210      	movs	r2, #16
    5730:	7e5b      	ldrb	r3, [r3, #25]
    5732:	4641      	mov	r1, r8
    5734:	4393      	bics	r3, r2
    5736:	4642      	mov	r2, r8
    5738:	483c      	ldr	r0, [pc, #240]	; (582c <MiApp_SendData+0x1e4>)
    573a:	7653      	strb	r3, [r2, #25]
    573c:	4c3c      	ldr	r4, [pc, #240]	; (5830 <MiApp_SendData+0x1e8>)
    573e:	47a0      	blx	r4
    5740:	4b39      	ldr	r3, [pc, #228]	; (5828 <MiApp_SendData+0x1e0>)
    5742:	4599      	cmp	r9, r3
    5744:	d034      	beq.n	57b0 <MiApp_SendData+0x168>
    5746:	4a3b      	ldr	r2, [pc, #236]	; (5834 <MiApp_SendData+0x1ec>)
    5748:	4937      	ldr	r1, [pc, #220]	; (5828 <MiApp_SendData+0x1e0>)
    574a:	4640      	mov	r0, r8
    574c:	4b3a      	ldr	r3, [pc, #232]	; (5838 <MiApp_SendData+0x1f0>)
    574e:	4798      	blx	r3
    5750:	2001      	movs	r0, #1
    5752:	e78c      	b.n	566e <MiApp_SendData+0x26>
    5754:	4648      	mov	r0, r9
    5756:	4653      	mov	r3, sl
    5758:	4398      	bics	r0, r3
    575a:	e7d0      	b.n	56fe <MiApp_SendData+0xb6>
    575c:	4b37      	ldr	r3, [pc, #220]	; (583c <MiApp_SendData+0x1f4>)
    575e:	4641      	mov	r1, r8
    5760:	681a      	ldr	r2, [r3, #0]
    5762:	2337      	movs	r3, #55	; 0x37
    5764:	5cd3      	ldrb	r3, [r2, r3]
    5766:	4836      	ldr	r0, [pc, #216]	; (5840 <MiApp_SendData+0x1f8>)
    5768:	3301      	adds	r3, #1
    576a:	740b      	strb	r3, [r1, #16]
    576c:	2338      	movs	r3, #56	; 0x38
    576e:	5cd3      	ldrb	r3, [r2, r3]
    5770:	744b      	strb	r3, [r1, #17]
    5772:	4b2f      	ldr	r3, [pc, #188]	; (5830 <MiApp_SendData+0x1e8>)
    5774:	4798      	blx	r3
    5776:	4643      	mov	r3, r8
    5778:	4a32      	ldr	r2, [pc, #200]	; (5844 <MiApp_SendData+0x1fc>)
    577a:	8999      	ldrh	r1, [r3, #12]
    577c:	4640      	mov	r0, r8
    577e:	4b2e      	ldr	r3, [pc, #184]	; (5838 <MiApp_SendData+0x1f0>)
    5780:	4798      	blx	r3
    5782:	0020      	movs	r0, r4
    5784:	e773      	b.n	566e <MiApp_SendData+0x26>
    5786:	4643      	mov	r3, r8
    5788:	464a      	mov	r2, r9
    578a:	819a      	strh	r2, [r3, #12]
    578c:	464b      	mov	r3, r9
    578e:	061b      	lsls	r3, r3, #24
    5790:	d4bc      	bmi.n	570c <MiApp_SendData+0xc4>
    5792:	4b2a      	ldr	r3, [pc, #168]	; (583c <MiApp_SendData+0x1f4>)
    5794:	4641      	mov	r1, r8
    5796:	681a      	ldr	r2, [r3, #0]
    5798:	2327      	movs	r3, #39	; 0x27
    579a:	5cd3      	ldrb	r3, [r2, r3]
    579c:	482a      	ldr	r0, [pc, #168]	; (5848 <MiApp_SendData+0x200>)
    579e:	3301      	adds	r3, #1
    57a0:	740b      	strb	r3, [r1, #16]
    57a2:	2338      	movs	r3, #56	; 0x38
    57a4:	5cd3      	ldrb	r3, [r2, r3]
    57a6:	744b      	strb	r3, [r1, #17]
    57a8:	4b21      	ldr	r3, [pc, #132]	; (5830 <MiApp_SendData+0x1e8>)
    57aa:	4798      	blx	r3
    57ac:	2001      	movs	r0, #1
    57ae:	e75e      	b.n	566e <MiApp_SendData+0x26>
    57b0:	4b26      	ldr	r3, [pc, #152]	; (584c <MiApp_SendData+0x204>)
    57b2:	4798      	blx	r3
    57b4:	2800      	cmp	r0, #0
    57b6:	d0c6      	beq.n	5746 <MiApp_SendData+0xfe>
    57b8:	4b25      	ldr	r3, [pc, #148]	; (5850 <MiApp_SendData+0x208>)
    57ba:	4798      	blx	r3
    57bc:	2832      	cmp	r0, #50	; 0x32
    57be:	d9c2      	bls.n	5746 <MiApp_SendData+0xfe>
    57c0:	2090      	movs	r0, #144	; 0x90
    57c2:	47d8      	blx	fp
    57c4:	0006      	movs	r6, r0
    57c6:	42b8      	cmp	r0, r7
    57c8:	d0bd      	beq.n	5746 <MiApp_SendData+0xfe>
    57ca:	4641      	mov	r1, r8
    57cc:	2290      	movs	r2, #144	; 0x90
    57ce:	47a8      	blx	r5
    57d0:	4b1a      	ldr	r3, [pc, #104]	; (583c <MiApp_SendData+0x1f4>)
    57d2:	0031      	movs	r1, r6
    57d4:	681a      	ldr	r2, [r3, #0]
    57d6:	2327      	movs	r3, #39	; 0x27
    57d8:	5cd3      	ldrb	r3, [r2, r3]
    57da:	2201      	movs	r2, #1
    57dc:	3301      	adds	r3, #1
    57de:	7433      	strb	r3, [r6, #16]
    57e0:	4643      	mov	r3, r8
    57e2:	7477      	strb	r7, [r6, #17]
    57e4:	4818      	ldr	r0, [pc, #96]	; (5848 <MiApp_SendData+0x200>)
    57e6:	751a      	strb	r2, [r3, #20]
    57e8:	60b7      	str	r7, [r6, #8]
    57ea:	47a0      	blx	r4
    57ec:	e7ab      	b.n	5746 <MiApp_SendData+0xfe>
    57ee:	4b19      	ldr	r3, [pc, #100]	; (5854 <MiApp_SendData+0x20c>)
    57f0:	4648      	mov	r0, r9
    57f2:	4798      	blx	r3
    57f4:	4b11      	ldr	r3, [pc, #68]	; (583c <MiApp_SendData+0x1f4>)
    57f6:	4818      	ldr	r0, [pc, #96]	; (5858 <MiApp_SendData+0x210>)
    57f8:	681a      	ldr	r2, [r3, #0]
    57fa:	2326      	movs	r3, #38	; 0x26
    57fc:	5cd3      	ldrb	r3, [r2, r3]
    57fe:	4642      	mov	r2, r8
    5800:	3301      	adds	r3, #1
    5802:	7413      	strb	r3, [r2, #16]
    5804:	4641      	mov	r1, r8
    5806:	4b0a      	ldr	r3, [pc, #40]	; (5830 <MiApp_SendData+0x1e8>)
    5808:	4798      	blx	r3
    580a:	2001      	movs	r0, #1
    580c:	e72f      	b.n	566e <MiApp_SendData+0x26>
    580e:	46c0      	nop			; (mov r8, r8)
    5810:	2000039c 	.word	0x2000039c
    5814:	00003831 	.word	0x00003831
    5818:	200020a8 	.word	0x200020a8
    581c:	000095df 	.word	0x000095df
    5820:	0000fffc 	.word	0x0000fffc
    5824:	00008da1 	.word	0x00008da1
    5828:	0000ffff 	.word	0x0000ffff
    582c:	20002048 	.word	0x20002048
    5830:	000038e5 	.word	0x000038e5
    5834:	00005151 	.word	0x00005151
    5838:	00006b61 	.word	0x00006b61
    583c:	20002060 	.word	0x20002060
    5840:	20002068 	.word	0x20002068
    5844:	000052e9 	.word	0x000052e9
    5848:	20002054 	.word	0x20002054
    584c:	00008815 	.word	0x00008815
    5850:	000038a1 	.word	0x000038a1
    5854:	00008fa9 	.word	0x00008fa9
    5858:	200020e4 	.word	0x200020e4

0000585c <MiApp_Get>:
    585c:	2801      	cmp	r0, #1
    585e:	d012      	beq.n	5886 <MiApp_Get+0x2a>
    5860:	2800      	cmp	r0, #0
    5862:	d00b      	beq.n	587c <MiApp_Get+0x20>
    5864:	2802      	cmp	r0, #2
    5866:	d107      	bne.n	5878 <MiApp_Get+0x1c>
    5868:	4b08      	ldr	r3, [pc, #32]	; (588c <MiApp_Get+0x30>)
    586a:	881a      	ldrh	r2, [r3, #0]
    586c:	2001      	movs	r0, #1
    586e:	700a      	strb	r2, [r1, #0]
    5870:	881b      	ldrh	r3, [r3, #0]
    5872:	0a1b      	lsrs	r3, r3, #8
    5874:	704b      	strb	r3, [r1, #1]
    5876:	e000      	b.n	587a <MiApp_Get+0x1e>
    5878:	2000      	movs	r0, #0
    587a:	4770      	bx	lr
    587c:	4b04      	ldr	r3, [pc, #16]	; (5890 <MiApp_Get+0x34>)
    587e:	2001      	movs	r0, #1
    5880:	781b      	ldrb	r3, [r3, #0]
    5882:	700b      	strb	r3, [r1, #0]
    5884:	e7f9      	b.n	587a <MiApp_Get+0x1e>
    5886:	4b03      	ldr	r3, [pc, #12]	; (5894 <MiApp_Get+0x38>)
    5888:	e7ef      	b.n	586a <MiApp_Get+0xe>
    588a:	46c0      	nop			; (mov r8, r8)
    588c:	200020a8 	.word	0x200020a8
    5890:	20002074 	.word	0x20002074
    5894:	20002094 	.word	0x20002094

00005898 <bloomFilterAddressCheck>:
    5898:	b5f0      	push	{r4, r5, r6, r7, lr}
    589a:	464e      	mov	r6, r9
    589c:	46de      	mov	lr, fp
    589e:	4657      	mov	r7, sl
    58a0:	4645      	mov	r5, r8
    58a2:	b5e0      	push	{r5, r6, r7, lr}
    58a4:	4bf5      	ldr	r3, [pc, #980]	; (5c7c <bloomFilterAddressCheck+0x3e4>)
    58a6:	b087      	sub	sp, #28
    58a8:	781b      	ldrb	r3, [r3, #0]
    58aa:	9003      	str	r0, [sp, #12]
    58ac:	000e      	movs	r6, r1
    58ae:	9300      	str	r3, [sp, #0]
    58b0:	2b00      	cmp	r3, #0
    58b2:	d001      	beq.n	58b8 <bloomFilterAddressCheck+0x20>
    58b4:	f000 fe65 	bl	6582 <bloomFilterAddressCheck+0xcea>
    58b8:	7811      	ldrb	r1, [r2, #0]
    58ba:	020b      	lsls	r3, r1, #8
    58bc:	0249      	lsls	r1, r1, #9
    58be:	b209      	sxth	r1, r1
    58c0:	b218      	sxth	r0, r3
    58c2:	468c      	mov	ip, r1
    58c4:	4680      	mov	r8, r0
    58c6:	4660      	mov	r0, ip
    58c8:	4644      	mov	r4, r8
    58ca:	49ed      	ldr	r1, [pc, #948]	; (5c80 <bloomFilterAddressCheck+0x3e8>)
    58cc:	005b      	lsls	r3, r3, #1
    58ce:	4041      	eors	r1, r0
    58d0:	b29b      	uxth	r3, r3
    58d2:	b289      	uxth	r1, r1
    58d4:	9304      	str	r3, [sp, #16]
    58d6:	1c18      	adds	r0, r3, #0
    58d8:	2c00      	cmp	r4, #0
    58da:	da01      	bge.n	58e0 <bloomFilterAddressCheck+0x48>
    58dc:	f000 fe5b 	bl	6596 <bloomFilterAddressCheck+0xcfe>
    58e0:	b284      	uxth	r4, r0
    58e2:	49e7      	ldr	r1, [pc, #924]	; (5c80 <bloomFilterAddressCheck+0x3e8>)
    58e4:	0064      	lsls	r4, r4, #1
    58e6:	4061      	eors	r1, r4
    58e8:	b209      	sxth	r1, r1
    58ea:	b289      	uxth	r1, r1
    58ec:	0044      	lsls	r4, r0, #1
    58ee:	0403      	lsls	r3, r0, #16
    58f0:	d501      	bpl.n	58f6 <bloomFilterAddressCheck+0x5e>
    58f2:	f000 fe53 	bl	659c <bloomFilterAddressCheck+0xd04>
    58f6:	b2a0      	uxth	r0, r4
    58f8:	49e1      	ldr	r1, [pc, #900]	; (5c80 <bloomFilterAddressCheck+0x3e8>)
    58fa:	0040      	lsls	r0, r0, #1
    58fc:	4041      	eors	r1, r0
    58fe:	b289      	uxth	r1, r1
    5900:	0060      	lsls	r0, r4, #1
    5902:	0423      	lsls	r3, r4, #16
    5904:	d501      	bpl.n	590a <bloomFilterAddressCheck+0x72>
    5906:	f000 fe54 	bl	65b2 <bloomFilterAddressCheck+0xd1a>
    590a:	b284      	uxth	r4, r0
    590c:	49dc      	ldr	r1, [pc, #880]	; (5c80 <bloomFilterAddressCheck+0x3e8>)
    590e:	0064      	lsls	r4, r4, #1
    5910:	4061      	eors	r1, r4
    5912:	b289      	uxth	r1, r1
    5914:	0044      	lsls	r4, r0, #1
    5916:	0403      	lsls	r3, r0, #16
    5918:	d501      	bpl.n	591e <bloomFilterAddressCheck+0x86>
    591a:	f000 fe55 	bl	65c8 <bloomFilterAddressCheck+0xd30>
    591e:	b2a0      	uxth	r0, r4
    5920:	49d7      	ldr	r1, [pc, #860]	; (5c80 <bloomFilterAddressCheck+0x3e8>)
    5922:	0040      	lsls	r0, r0, #1
    5924:	4041      	eors	r1, r0
    5926:	b289      	uxth	r1, r1
    5928:	0060      	lsls	r0, r4, #1
    592a:	0423      	lsls	r3, r4, #16
    592c:	d501      	bpl.n	5932 <bloomFilterAddressCheck+0x9a>
    592e:	f000 fe56 	bl	65de <bloomFilterAddressCheck+0xd46>
    5932:	b284      	uxth	r4, r0
    5934:	49d2      	ldr	r1, [pc, #840]	; (5c80 <bloomFilterAddressCheck+0x3e8>)
    5936:	0064      	lsls	r4, r4, #1
    5938:	4061      	eors	r1, r4
    593a:	b289      	uxth	r1, r1
    593c:	0044      	lsls	r4, r0, #1
    593e:	0403      	lsls	r3, r0, #16
    5940:	d501      	bpl.n	5946 <bloomFilterAddressCheck+0xae>
    5942:	f000 fe57 	bl	65f4 <bloomFilterAddressCheck+0xd5c>
    5946:	b2a0      	uxth	r0, r4
    5948:	49cd      	ldr	r1, [pc, #820]	; (5c80 <bloomFilterAddressCheck+0x3e8>)
    594a:	0040      	lsls	r0, r0, #1
    594c:	4041      	eors	r1, r0
    594e:	b289      	uxth	r1, r1
    5950:	0060      	lsls	r0, r4, #1
    5952:	0423      	lsls	r3, r4, #16
    5954:	d501      	bpl.n	595a <bloomFilterAddressCheck+0xc2>
    5956:	f000 fe58 	bl	660a <bloomFilterAddressCheck+0xd72>
    595a:	b284      	uxth	r4, r0
    595c:	49c8      	ldr	r1, [pc, #800]	; (5c80 <bloomFilterAddressCheck+0x3e8>)
    595e:	0064      	lsls	r4, r4, #1
    5960:	4061      	eors	r1, r4
    5962:	2401      	movs	r4, #1
    5964:	5714      	ldrsb	r4, [r2, r4]
    5966:	b289      	uxth	r1, r1
    5968:	0224      	lsls	r4, r4, #8
    596a:	0045      	lsls	r5, r0, #1
    596c:	0403      	lsls	r3, r0, #16
    596e:	d501      	bpl.n	5974 <bloomFilterAddressCheck+0xdc>
    5970:	f000 fe4e 	bl	6610 <bloomFilterAddressCheck+0xd78>
    5974:	4065      	eors	r5, r4
    5976:	b22d      	sxth	r5, r5
    5978:	b2a9      	uxth	r1, r5
    597a:	48c1      	ldr	r0, [pc, #772]	; (5c80 <bloomFilterAddressCheck+0x3e8>)
    597c:	0049      	lsls	r1, r1, #1
    597e:	4048      	eors	r0, r1
    5980:	b280      	uxth	r0, r0
    5982:	2d00      	cmp	r5, #0
    5984:	da01      	bge.n	598a <bloomFilterAddressCheck+0xf2>
    5986:	f000 fe46 	bl	6616 <bloomFilterAddressCheck+0xd7e>
    598a:	48bd      	ldr	r0, [pc, #756]	; (5c80 <bloomFilterAddressCheck+0x3e8>)
    598c:	b28d      	uxth	r5, r1
    598e:	006d      	lsls	r5, r5, #1
    5990:	4045      	eors	r5, r0
    5992:	b2ad      	uxth	r5, r5
    5994:	0048      	lsls	r0, r1, #1
    5996:	040b      	lsls	r3, r1, #16
    5998:	d501      	bpl.n	599e <bloomFilterAddressCheck+0x106>
    599a:	f000 fe47 	bl	662c <bloomFilterAddressCheck+0xd94>
    599e:	b285      	uxth	r5, r0
    59a0:	49b7      	ldr	r1, [pc, #732]	; (5c80 <bloomFilterAddressCheck+0x3e8>)
    59a2:	006d      	lsls	r5, r5, #1
    59a4:	4069      	eors	r1, r5
    59a6:	b289      	uxth	r1, r1
    59a8:	0045      	lsls	r5, r0, #1
    59aa:	0403      	lsls	r3, r0, #16
    59ac:	d501      	bpl.n	59b2 <bloomFilterAddressCheck+0x11a>
    59ae:	f000 fe48 	bl	6642 <bloomFilterAddressCheck+0xdaa>
    59b2:	b2a8      	uxth	r0, r5
    59b4:	49b2      	ldr	r1, [pc, #712]	; (5c80 <bloomFilterAddressCheck+0x3e8>)
    59b6:	0040      	lsls	r0, r0, #1
    59b8:	4041      	eors	r1, r0
    59ba:	b289      	uxth	r1, r1
    59bc:	0068      	lsls	r0, r5, #1
    59be:	042b      	lsls	r3, r5, #16
    59c0:	d501      	bpl.n	59c6 <bloomFilterAddressCheck+0x12e>
    59c2:	f000 fe49 	bl	6658 <bloomFilterAddressCheck+0xdc0>
    59c6:	b285      	uxth	r5, r0
    59c8:	49ad      	ldr	r1, [pc, #692]	; (5c80 <bloomFilterAddressCheck+0x3e8>)
    59ca:	006d      	lsls	r5, r5, #1
    59cc:	4069      	eors	r1, r5
    59ce:	b289      	uxth	r1, r1
    59d0:	0045      	lsls	r5, r0, #1
    59d2:	0403      	lsls	r3, r0, #16
    59d4:	d501      	bpl.n	59da <bloomFilterAddressCheck+0x142>
    59d6:	f000 fe4a 	bl	666e <bloomFilterAddressCheck+0xdd6>
    59da:	b2a8      	uxth	r0, r5
    59dc:	49a8      	ldr	r1, [pc, #672]	; (5c80 <bloomFilterAddressCheck+0x3e8>)
    59de:	0040      	lsls	r0, r0, #1
    59e0:	4041      	eors	r1, r0
    59e2:	b289      	uxth	r1, r1
    59e4:	0068      	lsls	r0, r5, #1
    59e6:	042b      	lsls	r3, r5, #16
    59e8:	d501      	bpl.n	59ee <bloomFilterAddressCheck+0x156>
    59ea:	f000 fe4b 	bl	6684 <bloomFilterAddressCheck+0xdec>
    59ee:	b285      	uxth	r5, r0
    59f0:	49a3      	ldr	r1, [pc, #652]	; (5c80 <bloomFilterAddressCheck+0x3e8>)
    59f2:	006d      	lsls	r5, r5, #1
    59f4:	4069      	eors	r1, r5
    59f6:	b289      	uxth	r1, r1
    59f8:	0045      	lsls	r5, r0, #1
    59fa:	0403      	lsls	r3, r0, #16
    59fc:	d501      	bpl.n	5a02 <bloomFilterAddressCheck+0x16a>
    59fe:	f000 fe4c 	bl	669a <bloomFilterAddressCheck+0xe02>
    5a02:	b2a8      	uxth	r0, r5
    5a04:	499e      	ldr	r1, [pc, #632]	; (5c80 <bloomFilterAddressCheck+0x3e8>)
    5a06:	0040      	lsls	r0, r0, #1
    5a08:	4041      	eors	r1, r0
    5a0a:	2002      	movs	r0, #2
    5a0c:	5610      	ldrsb	r0, [r2, r0]
    5a0e:	006f      	lsls	r7, r5, #1
    5a10:	b289      	uxth	r1, r1
    5a12:	0200      	lsls	r0, r0, #8
    5a14:	46b9      	mov	r9, r7
    5a16:	042b      	lsls	r3, r5, #16
    5a18:	d501      	bpl.n	5a1e <bloomFilterAddressCheck+0x186>
    5a1a:	f000 fe41 	bl	66a0 <bloomFilterAddressCheck+0xe08>
    5a1e:	464d      	mov	r5, r9
    5a20:	4045      	eors	r5, r0
    5a22:	b22d      	sxth	r5, r5
    5a24:	b2a9      	uxth	r1, r5
    5a26:	0049      	lsls	r1, r1, #1
    5a28:	4689      	mov	r9, r1
    5a2a:	464f      	mov	r7, r9
    5a2c:	4994      	ldr	r1, [pc, #592]	; (5c80 <bloomFilterAddressCheck+0x3e8>)
    5a2e:	4079      	eors	r1, r7
    5a30:	b289      	uxth	r1, r1
    5a32:	468a      	mov	sl, r1
    5a34:	4649      	mov	r1, r9
    5a36:	2d00      	cmp	r5, #0
    5a38:	da01      	bge.n	5a3e <bloomFilterAddressCheck+0x1a6>
    5a3a:	f000 fe34 	bl	66a6 <bloomFilterAddressCheck+0xe0e>
    5a3e:	b28d      	uxth	r5, r1
    5a40:	006d      	lsls	r5, r5, #1
    5a42:	46a9      	mov	r9, r5
    5a44:	464f      	mov	r7, r9
    5a46:	4d8e      	ldr	r5, [pc, #568]	; (5c80 <bloomFilterAddressCheck+0x3e8>)
    5a48:	407d      	eors	r5, r7
    5a4a:	b2ad      	uxth	r5, r5
    5a4c:	46a9      	mov	r9, r5
    5a4e:	004d      	lsls	r5, r1, #1
    5a50:	040b      	lsls	r3, r1, #16
    5a52:	d501      	bpl.n	5a58 <bloomFilterAddressCheck+0x1c0>
    5a54:	f000 fe2a 	bl	66ac <bloomFilterAddressCheck+0xe14>
    5a58:	b2a9      	uxth	r1, r5
    5a5a:	0049      	lsls	r1, r1, #1
    5a5c:	4689      	mov	r9, r1
    5a5e:	464f      	mov	r7, r9
    5a60:	4987      	ldr	r1, [pc, #540]	; (5c80 <bloomFilterAddressCheck+0x3e8>)
    5a62:	4079      	eors	r1, r7
    5a64:	006f      	lsls	r7, r5, #1
    5a66:	b289      	uxth	r1, r1
    5a68:	46b9      	mov	r9, r7
    5a6a:	042b      	lsls	r3, r5, #16
    5a6c:	d501      	bpl.n	5a72 <bloomFilterAddressCheck+0x1da>
    5a6e:	f000 fe20 	bl	66b2 <bloomFilterAddressCheck+0xe1a>
    5a72:	4649      	mov	r1, r9
    5a74:	466b      	mov	r3, sp
    5a76:	b28d      	uxth	r5, r1
    5a78:	8099      	strh	r1, [r3, #4]
    5a7a:	4981      	ldr	r1, [pc, #516]	; (5c80 <bloomFilterAddressCheck+0x3e8>)
    5a7c:	006d      	lsls	r5, r5, #1
    5a7e:	4069      	eors	r1, r5
    5a80:	464f      	mov	r7, r9
    5a82:	464d      	mov	r5, r9
    5a84:	b289      	uxth	r1, r1
    5a86:	006d      	lsls	r5, r5, #1
    5a88:	043b      	lsls	r3, r7, #16
    5a8a:	d501      	bpl.n	5a90 <bloomFilterAddressCheck+0x1f8>
    5a8c:	f000 fe14 	bl	66b8 <bloomFilterAddressCheck+0xe20>
    5a90:	b2a9      	uxth	r1, r5
    5a92:	0049      	lsls	r1, r1, #1
    5a94:	4689      	mov	r9, r1
    5a96:	464f      	mov	r7, r9
    5a98:	4979      	ldr	r1, [pc, #484]	; (5c80 <bloomFilterAddressCheck+0x3e8>)
    5a9a:	4079      	eors	r1, r7
    5a9c:	006f      	lsls	r7, r5, #1
    5a9e:	b289      	uxth	r1, r1
    5aa0:	46b9      	mov	r9, r7
    5aa2:	042b      	lsls	r3, r5, #16
    5aa4:	d501      	bpl.n	5aaa <bloomFilterAddressCheck+0x212>
    5aa6:	f000 fe0a 	bl	66be <bloomFilterAddressCheck+0xe26>
    5aaa:	4649      	mov	r1, r9
    5aac:	466b      	mov	r3, sp
    5aae:	b28d      	uxth	r5, r1
    5ab0:	8099      	strh	r1, [r3, #4]
    5ab2:	4973      	ldr	r1, [pc, #460]	; (5c80 <bloomFilterAddressCheck+0x3e8>)
    5ab4:	006d      	lsls	r5, r5, #1
    5ab6:	4069      	eors	r1, r5
    5ab8:	464f      	mov	r7, r9
    5aba:	464d      	mov	r5, r9
    5abc:	b289      	uxth	r1, r1
    5abe:	006d      	lsls	r5, r5, #1
    5ac0:	043b      	lsls	r3, r7, #16
    5ac2:	d501      	bpl.n	5ac8 <bloomFilterAddressCheck+0x230>
    5ac4:	f000 fdfe 	bl	66c4 <bloomFilterAddressCheck+0xe2c>
    5ac8:	b2a9      	uxth	r1, r5
    5aca:	0049      	lsls	r1, r1, #1
    5acc:	4689      	mov	r9, r1
    5ace:	464f      	mov	r7, r9
    5ad0:	496b      	ldr	r1, [pc, #428]	; (5c80 <bloomFilterAddressCheck+0x3e8>)
    5ad2:	4079      	eors	r1, r7
    5ad4:	006f      	lsls	r7, r5, #1
    5ad6:	b289      	uxth	r1, r1
    5ad8:	46ba      	mov	sl, r7
    5ada:	042b      	lsls	r3, r5, #16
    5adc:	d501      	bpl.n	5ae2 <bloomFilterAddressCheck+0x24a>
    5ade:	f000 fdf4 	bl	66ca <bloomFilterAddressCheck+0xe32>
    5ae2:	4651      	mov	r1, sl
    5ae4:	466b      	mov	r3, sp
    5ae6:	b28d      	uxth	r5, r1
    5ae8:	8099      	strh	r1, [r3, #4]
    5aea:	4965      	ldr	r1, [pc, #404]	; (5c80 <bloomFilterAddressCheck+0x3e8>)
    5aec:	006d      	lsls	r5, r5, #1
    5aee:	4069      	eors	r1, r5
    5af0:	b289      	uxth	r1, r1
    5af2:	4689      	mov	r9, r1
    5af4:	2103      	movs	r1, #3
    5af6:	4655      	mov	r5, sl
    5af8:	4657      	mov	r7, sl
    5afa:	5651      	ldrsb	r1, [r2, r1]
    5afc:	006d      	lsls	r5, r5, #1
    5afe:	0209      	lsls	r1, r1, #8
    5b00:	043b      	lsls	r3, r7, #16
    5b02:	d501      	bpl.n	5b08 <bloomFilterAddressCheck+0x270>
    5b04:	f000 fde4 	bl	66d0 <bloomFilterAddressCheck+0xe38>
    5b08:	404d      	eors	r5, r1
    5b0a:	b22d      	sxth	r5, r5
    5b0c:	466b      	mov	r3, sp
    5b0e:	46a9      	mov	r9, r5
    5b10:	4f5b      	ldr	r7, [pc, #364]	; (5c80 <bloomFilterAddressCheck+0x3e8>)
    5b12:	b2ad      	uxth	r5, r5
    5b14:	006d      	lsls	r5, r5, #1
    5b16:	406f      	eors	r7, r5
    5b18:	809f      	strh	r7, [r3, #4]
    5b1a:	b2bf      	uxth	r7, r7
    5b1c:	46ba      	mov	sl, r7
    5b1e:	464f      	mov	r7, r9
    5b20:	2f00      	cmp	r7, #0
    5b22:	da01      	bge.n	5b28 <bloomFilterAddressCheck+0x290>
    5b24:	f000 fdd7 	bl	66d6 <bloomFilterAddressCheck+0xe3e>
    5b28:	b2af      	uxth	r7, r5
    5b2a:	007f      	lsls	r7, r7, #1
    5b2c:	46ba      	mov	sl, r7
    5b2e:	4f54      	ldr	r7, [pc, #336]	; (5c80 <bloomFilterAddressCheck+0x3e8>)
    5b30:	46b9      	mov	r9, r7
    5b32:	4657      	mov	r7, sl
    5b34:	464b      	mov	r3, r9
    5b36:	405f      	eors	r7, r3
    5b38:	1c3b      	adds	r3, r7, #0
    5b3a:	466f      	mov	r7, sp
    5b3c:	80bb      	strh	r3, [r7, #4]
    5b3e:	88bb      	ldrh	r3, [r7, #4]
    5b40:	469a      	mov	sl, r3
    5b42:	006b      	lsls	r3, r5, #1
    5b44:	4699      	mov	r9, r3
    5b46:	042b      	lsls	r3, r5, #16
    5b48:	d501      	bpl.n	5b4e <bloomFilterAddressCheck+0x2b6>
    5b4a:	f000 fdc7 	bl	66dc <bloomFilterAddressCheck+0xe44>
    5b4e:	464b      	mov	r3, r9
    5b50:	466d      	mov	r5, sp
    5b52:	80ab      	strh	r3, [r5, #4]
    5b54:	88ad      	ldrh	r5, [r5, #4]
    5b56:	006b      	lsls	r3, r5, #1
    5b58:	4d49      	ldr	r5, [pc, #292]	; (5c80 <bloomFilterAddressCheck+0x3e8>)
    5b5a:	405d      	eors	r5, r3
    5b5c:	464b      	mov	r3, r9
    5b5e:	005b      	lsls	r3, r3, #1
    5b60:	469a      	mov	sl, r3
    5b62:	464b      	mov	r3, r9
    5b64:	b2ad      	uxth	r5, r5
    5b66:	041b      	lsls	r3, r3, #16
    5b68:	d501      	bpl.n	5b6e <bloomFilterAddressCheck+0x2d6>
    5b6a:	f000 fdba 	bl	66e2 <bloomFilterAddressCheck+0xe4a>
    5b6e:	4653      	mov	r3, sl
    5b70:	466d      	mov	r5, sp
    5b72:	80ab      	strh	r3, [r5, #4]
    5b74:	88ad      	ldrh	r5, [r5, #4]
    5b76:	006b      	lsls	r3, r5, #1
    5b78:	4d41      	ldr	r5, [pc, #260]	; (5c80 <bloomFilterAddressCheck+0x3e8>)
    5b7a:	405d      	eors	r5, r3
    5b7c:	4653      	mov	r3, sl
    5b7e:	005b      	lsls	r3, r3, #1
    5b80:	4699      	mov	r9, r3
    5b82:	4653      	mov	r3, sl
    5b84:	b2ad      	uxth	r5, r5
    5b86:	041b      	lsls	r3, r3, #16
    5b88:	d501      	bpl.n	5b8e <bloomFilterAddressCheck+0x2f6>
    5b8a:	f000 fdad 	bl	66e8 <bloomFilterAddressCheck+0xe50>
    5b8e:	464b      	mov	r3, r9
    5b90:	466d      	mov	r5, sp
    5b92:	80ab      	strh	r3, [r5, #4]
    5b94:	88ad      	ldrh	r5, [r5, #4]
    5b96:	006b      	lsls	r3, r5, #1
    5b98:	4d39      	ldr	r5, [pc, #228]	; (5c80 <bloomFilterAddressCheck+0x3e8>)
    5b9a:	405d      	eors	r5, r3
    5b9c:	464b      	mov	r3, r9
    5b9e:	005b      	lsls	r3, r3, #1
    5ba0:	469a      	mov	sl, r3
    5ba2:	464b      	mov	r3, r9
    5ba4:	b2ad      	uxth	r5, r5
    5ba6:	041b      	lsls	r3, r3, #16
    5ba8:	d501      	bpl.n	5bae <bloomFilterAddressCheck+0x316>
    5baa:	f000 fda0 	bl	66ee <bloomFilterAddressCheck+0xe56>
    5bae:	4653      	mov	r3, sl
    5bb0:	466d      	mov	r5, sp
    5bb2:	80ab      	strh	r3, [r5, #4]
    5bb4:	88ad      	ldrh	r5, [r5, #4]
    5bb6:	006b      	lsls	r3, r5, #1
    5bb8:	4d31      	ldr	r5, [pc, #196]	; (5c80 <bloomFilterAddressCheck+0x3e8>)
    5bba:	405d      	eors	r5, r3
    5bbc:	4653      	mov	r3, sl
    5bbe:	005b      	lsls	r3, r3, #1
    5bc0:	4699      	mov	r9, r3
    5bc2:	4653      	mov	r3, sl
    5bc4:	b2ad      	uxth	r5, r5
    5bc6:	041b      	lsls	r3, r3, #16
    5bc8:	d501      	bpl.n	5bce <bloomFilterAddressCheck+0x336>
    5bca:	f000 fd93 	bl	66f4 <bloomFilterAddressCheck+0xe5c>
    5bce:	464b      	mov	r3, r9
    5bd0:	466d      	mov	r5, sp
    5bd2:	80ab      	strh	r3, [r5, #4]
    5bd4:	88ad      	ldrh	r5, [r5, #4]
    5bd6:	006b      	lsls	r3, r5, #1
    5bd8:	4d29      	ldr	r5, [pc, #164]	; (5c80 <bloomFilterAddressCheck+0x3e8>)
    5bda:	405d      	eors	r5, r3
    5bdc:	464b      	mov	r3, r9
    5bde:	005b      	lsls	r3, r3, #1
    5be0:	469a      	mov	sl, r3
    5be2:	464b      	mov	r3, r9
    5be4:	b2ad      	uxth	r5, r5
    5be6:	041b      	lsls	r3, r3, #16
    5be8:	d501      	bpl.n	5bee <bloomFilterAddressCheck+0x356>
    5bea:	f000 fd86 	bl	66fa <bloomFilterAddressCheck+0xe62>
    5bee:	4653      	mov	r3, sl
    5bf0:	466d      	mov	r5, sp
    5bf2:	80ab      	strh	r3, [r5, #4]
    5bf4:	88ad      	ldrh	r5, [r5, #4]
    5bf6:	006b      	lsls	r3, r5, #1
    5bf8:	4d21      	ldr	r5, [pc, #132]	; (5c80 <bloomFilterAddressCheck+0x3e8>)
    5bfa:	405d      	eors	r5, r3
    5bfc:	b2ab      	uxth	r3, r5
    5bfe:	2504      	movs	r5, #4
    5c00:	5755      	ldrsb	r5, [r2, r5]
    5c02:	4699      	mov	r9, r3
    5c04:	022b      	lsls	r3, r5, #8
    5c06:	469b      	mov	fp, r3
    5c08:	4653      	mov	r3, sl
    5c0a:	005d      	lsls	r5, r3, #1
    5c0c:	041b      	lsls	r3, r3, #16
    5c0e:	d501      	bpl.n	5c14 <bloomFilterAddressCheck+0x37c>
    5c10:	f000 fd76 	bl	6700 <bloomFilterAddressCheck+0xe68>
    5c14:	465b      	mov	r3, fp
    5c16:	405d      	eors	r5, r3
    5c18:	b22b      	sxth	r3, r5
    5c1a:	466d      	mov	r5, sp
    5c1c:	4699      	mov	r9, r3
    5c1e:	80ab      	strh	r3, [r5, #4]
    5c20:	4b17      	ldr	r3, [pc, #92]	; (5c80 <bloomFilterAddressCheck+0x3e8>)
    5c22:	88ad      	ldrh	r5, [r5, #4]
    5c24:	001f      	movs	r7, r3
    5c26:	006d      	lsls	r5, r5, #1
    5c28:	406f      	eors	r7, r5
    5c2a:	1c3b      	adds	r3, r7, #0
    5c2c:	466f      	mov	r7, sp
    5c2e:	80bb      	strh	r3, [r7, #4]
    5c30:	88bb      	ldrh	r3, [r7, #4]
    5c32:	469a      	mov	sl, r3
    5c34:	464b      	mov	r3, r9
    5c36:	2b00      	cmp	r3, #0
    5c38:	da01      	bge.n	5c3e <bloomFilterAddressCheck+0x3a6>
    5c3a:	f000 fd64 	bl	6706 <bloomFilterAddressCheck+0xe6e>
    5c3e:	b2ab      	uxth	r3, r5
    5c40:	005b      	lsls	r3, r3, #1
    5c42:	469a      	mov	sl, r3
    5c44:	4657      	mov	r7, sl
    5c46:	4b0e      	ldr	r3, [pc, #56]	; (5c80 <bloomFilterAddressCheck+0x3e8>)
    5c48:	405f      	eors	r7, r3
    5c4a:	1c3b      	adds	r3, r7, #0
    5c4c:	466f      	mov	r7, sp
    5c4e:	80bb      	strh	r3, [r7, #4]
    5c50:	88bb      	ldrh	r3, [r7, #4]
    5c52:	469a      	mov	sl, r3
    5c54:	006b      	lsls	r3, r5, #1
    5c56:	4699      	mov	r9, r3
    5c58:	042b      	lsls	r3, r5, #16
    5c5a:	d501      	bpl.n	5c60 <bloomFilterAddressCheck+0x3c8>
    5c5c:	f000 fd56 	bl	670c <bloomFilterAddressCheck+0xe74>
    5c60:	464b      	mov	r3, r9
    5c62:	466d      	mov	r5, sp
    5c64:	80ab      	strh	r3, [r5, #4]
    5c66:	88ad      	ldrh	r5, [r5, #4]
    5c68:	006b      	lsls	r3, r5, #1
    5c6a:	4d05      	ldr	r5, [pc, #20]	; (5c80 <bloomFilterAddressCheck+0x3e8>)
    5c6c:	405d      	eors	r5, r3
    5c6e:	464b      	mov	r3, r9
    5c70:	005b      	lsls	r3, r3, #1
    5c72:	469a      	mov	sl, r3
    5c74:	464b      	mov	r3, r9
    5c76:	b2ad      	uxth	r5, r5
    5c78:	e004      	b.n	5c84 <bloomFilterAddressCheck+0x3ec>
    5c7a:	46c0      	nop			; (mov r8, r8)
    5c7c:	2000006f 	.word	0x2000006f
    5c80:	00001021 	.word	0x00001021
    5c84:	041b      	lsls	r3, r3, #16
    5c86:	d501      	bpl.n	5c8c <bloomFilterAddressCheck+0x3f4>
    5c88:	f000 fd43 	bl	6712 <bloomFilterAddressCheck+0xe7a>
    5c8c:	4653      	mov	r3, sl
    5c8e:	466d      	mov	r5, sp
    5c90:	80ab      	strh	r3, [r5, #4]
    5c92:	88ad      	ldrh	r5, [r5, #4]
    5c94:	006b      	lsls	r3, r5, #1
    5c96:	4de9      	ldr	r5, [pc, #932]	; (603c <bloomFilterAddressCheck+0x7a4>)
    5c98:	405d      	eors	r5, r3
    5c9a:	4653      	mov	r3, sl
    5c9c:	005b      	lsls	r3, r3, #1
    5c9e:	4699      	mov	r9, r3
    5ca0:	4653      	mov	r3, sl
    5ca2:	b2ad      	uxth	r5, r5
    5ca4:	041b      	lsls	r3, r3, #16
    5ca6:	d501      	bpl.n	5cac <bloomFilterAddressCheck+0x414>
    5ca8:	f000 fd36 	bl	6718 <bloomFilterAddressCheck+0xe80>
    5cac:	464b      	mov	r3, r9
    5cae:	466d      	mov	r5, sp
    5cb0:	80ab      	strh	r3, [r5, #4]
    5cb2:	88ad      	ldrh	r5, [r5, #4]
    5cb4:	006b      	lsls	r3, r5, #1
    5cb6:	4de1      	ldr	r5, [pc, #900]	; (603c <bloomFilterAddressCheck+0x7a4>)
    5cb8:	405d      	eors	r5, r3
    5cba:	464b      	mov	r3, r9
    5cbc:	005b      	lsls	r3, r3, #1
    5cbe:	469a      	mov	sl, r3
    5cc0:	464b      	mov	r3, r9
    5cc2:	b2ad      	uxth	r5, r5
    5cc4:	041b      	lsls	r3, r3, #16
    5cc6:	d501      	bpl.n	5ccc <bloomFilterAddressCheck+0x434>
    5cc8:	f000 fd29 	bl	671e <bloomFilterAddressCheck+0xe86>
    5ccc:	4653      	mov	r3, sl
    5cce:	466d      	mov	r5, sp
    5cd0:	80ab      	strh	r3, [r5, #4]
    5cd2:	88ad      	ldrh	r5, [r5, #4]
    5cd4:	006b      	lsls	r3, r5, #1
    5cd6:	4dd9      	ldr	r5, [pc, #868]	; (603c <bloomFilterAddressCheck+0x7a4>)
    5cd8:	405d      	eors	r5, r3
    5cda:	4653      	mov	r3, sl
    5cdc:	005b      	lsls	r3, r3, #1
    5cde:	4699      	mov	r9, r3
    5ce0:	4653      	mov	r3, sl
    5ce2:	b2ad      	uxth	r5, r5
    5ce4:	041b      	lsls	r3, r3, #16
    5ce6:	d501      	bpl.n	5cec <bloomFilterAddressCheck+0x454>
    5ce8:	f000 fd1c 	bl	6724 <bloomFilterAddressCheck+0xe8c>
    5cec:	464b      	mov	r3, r9
    5cee:	466d      	mov	r5, sp
    5cf0:	80ab      	strh	r3, [r5, #4]
    5cf2:	88ad      	ldrh	r5, [r5, #4]
    5cf4:	006b      	lsls	r3, r5, #1
    5cf6:	4dd1      	ldr	r5, [pc, #836]	; (603c <bloomFilterAddressCheck+0x7a4>)
    5cf8:	405d      	eors	r5, r3
    5cfa:	464b      	mov	r3, r9
    5cfc:	005b      	lsls	r3, r3, #1
    5cfe:	469a      	mov	sl, r3
    5d00:	464b      	mov	r3, r9
    5d02:	b2ad      	uxth	r5, r5
    5d04:	041b      	lsls	r3, r3, #16
    5d06:	d501      	bpl.n	5d0c <bloomFilterAddressCheck+0x474>
    5d08:	f000 fd0f 	bl	672a <bloomFilterAddressCheck+0xe92>
    5d0c:	4653      	mov	r3, sl
    5d0e:	466d      	mov	r5, sp
    5d10:	80ab      	strh	r3, [r5, #4]
    5d12:	88ad      	ldrh	r5, [r5, #4]
    5d14:	006b      	lsls	r3, r5, #1
    5d16:	4dc9      	ldr	r5, [pc, #804]	; (603c <bloomFilterAddressCheck+0x7a4>)
    5d18:	405d      	eors	r5, r3
    5d1a:	b2ab      	uxth	r3, r5
    5d1c:	2505      	movs	r5, #5
    5d1e:	5755      	ldrsb	r5, [r2, r5]
    5d20:	4699      	mov	r9, r3
    5d22:	022b      	lsls	r3, r5, #8
    5d24:	9301      	str	r3, [sp, #4]
    5d26:	4653      	mov	r3, sl
    5d28:	005d      	lsls	r5, r3, #1
    5d2a:	041b      	lsls	r3, r3, #16
    5d2c:	d501      	bpl.n	5d32 <bloomFilterAddressCheck+0x49a>
    5d2e:	f000 fcff 	bl	6730 <bloomFilterAddressCheck+0xe98>
    5d32:	9b01      	ldr	r3, [sp, #4]
    5d34:	405d      	eors	r5, r3
    5d36:	b22b      	sxth	r3, r5
    5d38:	466d      	mov	r5, sp
    5d3a:	4699      	mov	r9, r3
    5d3c:	812b      	strh	r3, [r5, #8]
    5d3e:	4bbf      	ldr	r3, [pc, #764]	; (603c <bloomFilterAddressCheck+0x7a4>)
    5d40:	892d      	ldrh	r5, [r5, #8]
    5d42:	001f      	movs	r7, r3
    5d44:	006d      	lsls	r5, r5, #1
    5d46:	406f      	eors	r7, r5
    5d48:	1c3b      	adds	r3, r7, #0
    5d4a:	466f      	mov	r7, sp
    5d4c:	813b      	strh	r3, [r7, #8]
    5d4e:	893b      	ldrh	r3, [r7, #8]
    5d50:	469a      	mov	sl, r3
    5d52:	464b      	mov	r3, r9
    5d54:	2b00      	cmp	r3, #0
    5d56:	da01      	bge.n	5d5c <bloomFilterAddressCheck+0x4c4>
    5d58:	f000 fced 	bl	6736 <bloomFilterAddressCheck+0xe9e>
    5d5c:	b2ab      	uxth	r3, r5
    5d5e:	005b      	lsls	r3, r3, #1
    5d60:	469a      	mov	sl, r3
    5d62:	4657      	mov	r7, sl
    5d64:	4bb5      	ldr	r3, [pc, #724]	; (603c <bloomFilterAddressCheck+0x7a4>)
    5d66:	405f      	eors	r7, r3
    5d68:	1c3b      	adds	r3, r7, #0
    5d6a:	466f      	mov	r7, sp
    5d6c:	813b      	strh	r3, [r7, #8]
    5d6e:	893b      	ldrh	r3, [r7, #8]
    5d70:	469a      	mov	sl, r3
    5d72:	006b      	lsls	r3, r5, #1
    5d74:	4699      	mov	r9, r3
    5d76:	042b      	lsls	r3, r5, #16
    5d78:	d501      	bpl.n	5d7e <bloomFilterAddressCheck+0x4e6>
    5d7a:	f000 fcdf 	bl	673c <bloomFilterAddressCheck+0xea4>
    5d7e:	464b      	mov	r3, r9
    5d80:	466d      	mov	r5, sp
    5d82:	812b      	strh	r3, [r5, #8]
    5d84:	892d      	ldrh	r5, [r5, #8]
    5d86:	006b      	lsls	r3, r5, #1
    5d88:	4dac      	ldr	r5, [pc, #688]	; (603c <bloomFilterAddressCheck+0x7a4>)
    5d8a:	405d      	eors	r5, r3
    5d8c:	464b      	mov	r3, r9
    5d8e:	005b      	lsls	r3, r3, #1
    5d90:	469a      	mov	sl, r3
    5d92:	464b      	mov	r3, r9
    5d94:	b2ad      	uxth	r5, r5
    5d96:	041b      	lsls	r3, r3, #16
    5d98:	d501      	bpl.n	5d9e <bloomFilterAddressCheck+0x506>
    5d9a:	f000 fcd2 	bl	6742 <bloomFilterAddressCheck+0xeaa>
    5d9e:	4653      	mov	r3, sl
    5da0:	466d      	mov	r5, sp
    5da2:	812b      	strh	r3, [r5, #8]
    5da4:	892d      	ldrh	r5, [r5, #8]
    5da6:	006b      	lsls	r3, r5, #1
    5da8:	4da4      	ldr	r5, [pc, #656]	; (603c <bloomFilterAddressCheck+0x7a4>)
    5daa:	405d      	eors	r5, r3
    5dac:	4653      	mov	r3, sl
    5dae:	005b      	lsls	r3, r3, #1
    5db0:	4699      	mov	r9, r3
    5db2:	4653      	mov	r3, sl
    5db4:	b2ad      	uxth	r5, r5
    5db6:	041b      	lsls	r3, r3, #16
    5db8:	d501      	bpl.n	5dbe <bloomFilterAddressCheck+0x526>
    5dba:	f000 fcc5 	bl	6748 <bloomFilterAddressCheck+0xeb0>
    5dbe:	464b      	mov	r3, r9
    5dc0:	466d      	mov	r5, sp
    5dc2:	812b      	strh	r3, [r5, #8]
    5dc4:	892d      	ldrh	r5, [r5, #8]
    5dc6:	006b      	lsls	r3, r5, #1
    5dc8:	4d9c      	ldr	r5, [pc, #624]	; (603c <bloomFilterAddressCheck+0x7a4>)
    5dca:	405d      	eors	r5, r3
    5dcc:	464b      	mov	r3, r9
    5dce:	005b      	lsls	r3, r3, #1
    5dd0:	469a      	mov	sl, r3
    5dd2:	464b      	mov	r3, r9
    5dd4:	b2ad      	uxth	r5, r5
    5dd6:	041b      	lsls	r3, r3, #16
    5dd8:	d501      	bpl.n	5dde <bloomFilterAddressCheck+0x546>
    5dda:	f000 fcb8 	bl	674e <bloomFilterAddressCheck+0xeb6>
    5dde:	4653      	mov	r3, sl
    5de0:	466d      	mov	r5, sp
    5de2:	812b      	strh	r3, [r5, #8]
    5de4:	892d      	ldrh	r5, [r5, #8]
    5de6:	006b      	lsls	r3, r5, #1
    5de8:	4d94      	ldr	r5, [pc, #592]	; (603c <bloomFilterAddressCheck+0x7a4>)
    5dea:	405d      	eors	r5, r3
    5dec:	4653      	mov	r3, sl
    5dee:	005b      	lsls	r3, r3, #1
    5df0:	4699      	mov	r9, r3
    5df2:	4653      	mov	r3, sl
    5df4:	b2ad      	uxth	r5, r5
    5df6:	041b      	lsls	r3, r3, #16
    5df8:	d501      	bpl.n	5dfe <bloomFilterAddressCheck+0x566>
    5dfa:	f000 fcab 	bl	6754 <bloomFilterAddressCheck+0xebc>
    5dfe:	464b      	mov	r3, r9
    5e00:	466d      	mov	r5, sp
    5e02:	812b      	strh	r3, [r5, #8]
    5e04:	892d      	ldrh	r5, [r5, #8]
    5e06:	006b      	lsls	r3, r5, #1
    5e08:	4d8c      	ldr	r5, [pc, #560]	; (603c <bloomFilterAddressCheck+0x7a4>)
    5e0a:	405d      	eors	r5, r3
    5e0c:	464b      	mov	r3, r9
    5e0e:	005b      	lsls	r3, r3, #1
    5e10:	469a      	mov	sl, r3
    5e12:	464b      	mov	r3, r9
    5e14:	b2ad      	uxth	r5, r5
    5e16:	041b      	lsls	r3, r3, #16
    5e18:	d501      	bpl.n	5e1e <bloomFilterAddressCheck+0x586>
    5e1a:	f000 fc9e 	bl	675a <bloomFilterAddressCheck+0xec2>
    5e1e:	4653      	mov	r3, sl
    5e20:	466d      	mov	r5, sp
    5e22:	812b      	strh	r3, [r5, #8]
    5e24:	892d      	ldrh	r5, [r5, #8]
    5e26:	006b      	lsls	r3, r5, #1
    5e28:	4d84      	ldr	r5, [pc, #528]	; (603c <bloomFilterAddressCheck+0x7a4>)
    5e2a:	405d      	eors	r5, r3
    5e2c:	b2ab      	uxth	r3, r5
    5e2e:	2506      	movs	r5, #6
    5e30:	5755      	ldrsb	r5, [r2, r5]
    5e32:	4699      	mov	r9, r3
    5e34:	022b      	lsls	r3, r5, #8
    5e36:	9302      	str	r3, [sp, #8]
    5e38:	4653      	mov	r3, sl
    5e3a:	005d      	lsls	r5, r3, #1
    5e3c:	041b      	lsls	r3, r3, #16
    5e3e:	d501      	bpl.n	5e44 <bloomFilterAddressCheck+0x5ac>
    5e40:	f000 fc8e 	bl	6760 <bloomFilterAddressCheck+0xec8>
    5e44:	9b02      	ldr	r3, [sp, #8]
    5e46:	405d      	eors	r5, r3
    5e48:	b22b      	sxth	r3, r5
    5e4a:	466d      	mov	r5, sp
    5e4c:	4699      	mov	r9, r3
    5e4e:	82ab      	strh	r3, [r5, #20]
    5e50:	4b7a      	ldr	r3, [pc, #488]	; (603c <bloomFilterAddressCheck+0x7a4>)
    5e52:	8aad      	ldrh	r5, [r5, #20]
    5e54:	001f      	movs	r7, r3
    5e56:	006d      	lsls	r5, r5, #1
    5e58:	406f      	eors	r7, r5
    5e5a:	1c3b      	adds	r3, r7, #0
    5e5c:	466f      	mov	r7, sp
    5e5e:	82bb      	strh	r3, [r7, #20]
    5e60:	8abb      	ldrh	r3, [r7, #20]
    5e62:	469a      	mov	sl, r3
    5e64:	464b      	mov	r3, r9
    5e66:	2b00      	cmp	r3, #0
    5e68:	da01      	bge.n	5e6e <bloomFilterAddressCheck+0x5d6>
    5e6a:	f000 fc7c 	bl	6766 <bloomFilterAddressCheck+0xece>
    5e6e:	b2ab      	uxth	r3, r5
    5e70:	005b      	lsls	r3, r3, #1
    5e72:	469a      	mov	sl, r3
    5e74:	4657      	mov	r7, sl
    5e76:	4b71      	ldr	r3, [pc, #452]	; (603c <bloomFilterAddressCheck+0x7a4>)
    5e78:	405f      	eors	r7, r3
    5e7a:	1c3b      	adds	r3, r7, #0
    5e7c:	466f      	mov	r7, sp
    5e7e:	82bb      	strh	r3, [r7, #20]
    5e80:	8abb      	ldrh	r3, [r7, #20]
    5e82:	4699      	mov	r9, r3
    5e84:	006b      	lsls	r3, r5, #1
    5e86:	469a      	mov	sl, r3
    5e88:	042b      	lsls	r3, r5, #16
    5e8a:	d501      	bpl.n	5e90 <bloomFilterAddressCheck+0x5f8>
    5e8c:	f000 fc6e 	bl	676c <bloomFilterAddressCheck+0xed4>
    5e90:	4653      	mov	r3, sl
    5e92:	466d      	mov	r5, sp
    5e94:	82ab      	strh	r3, [r5, #20]
    5e96:	8aad      	ldrh	r5, [r5, #20]
    5e98:	006b      	lsls	r3, r5, #1
    5e9a:	4d68      	ldr	r5, [pc, #416]	; (603c <bloomFilterAddressCheck+0x7a4>)
    5e9c:	405d      	eors	r5, r3
    5e9e:	4653      	mov	r3, sl
    5ea0:	005b      	lsls	r3, r3, #1
    5ea2:	4699      	mov	r9, r3
    5ea4:	4653      	mov	r3, sl
    5ea6:	b2ad      	uxth	r5, r5
    5ea8:	041b      	lsls	r3, r3, #16
    5eaa:	d501      	bpl.n	5eb0 <bloomFilterAddressCheck+0x618>
    5eac:	f000 fc61 	bl	6772 <bloomFilterAddressCheck+0xeda>
    5eb0:	464b      	mov	r3, r9
    5eb2:	466d      	mov	r5, sp
    5eb4:	82ab      	strh	r3, [r5, #20]
    5eb6:	8aad      	ldrh	r5, [r5, #20]
    5eb8:	006b      	lsls	r3, r5, #1
    5eba:	4d60      	ldr	r5, [pc, #384]	; (603c <bloomFilterAddressCheck+0x7a4>)
    5ebc:	405d      	eors	r5, r3
    5ebe:	464b      	mov	r3, r9
    5ec0:	005b      	lsls	r3, r3, #1
    5ec2:	469a      	mov	sl, r3
    5ec4:	464b      	mov	r3, r9
    5ec6:	b2ad      	uxth	r5, r5
    5ec8:	041b      	lsls	r3, r3, #16
    5eca:	d501      	bpl.n	5ed0 <bloomFilterAddressCheck+0x638>
    5ecc:	f000 fc54 	bl	6778 <bloomFilterAddressCheck+0xee0>
    5ed0:	4653      	mov	r3, sl
    5ed2:	466d      	mov	r5, sp
    5ed4:	82ab      	strh	r3, [r5, #20]
    5ed6:	8aad      	ldrh	r5, [r5, #20]
    5ed8:	006b      	lsls	r3, r5, #1
    5eda:	4d58      	ldr	r5, [pc, #352]	; (603c <bloomFilterAddressCheck+0x7a4>)
    5edc:	405d      	eors	r5, r3
    5ede:	4653      	mov	r3, sl
    5ee0:	005b      	lsls	r3, r3, #1
    5ee2:	4699      	mov	r9, r3
    5ee4:	4653      	mov	r3, sl
    5ee6:	b2ad      	uxth	r5, r5
    5ee8:	041b      	lsls	r3, r3, #16
    5eea:	d501      	bpl.n	5ef0 <bloomFilterAddressCheck+0x658>
    5eec:	f000 fc47 	bl	677e <bloomFilterAddressCheck+0xee6>
    5ef0:	464b      	mov	r3, r9
    5ef2:	466d      	mov	r5, sp
    5ef4:	82ab      	strh	r3, [r5, #20]
    5ef6:	8aad      	ldrh	r5, [r5, #20]
    5ef8:	006b      	lsls	r3, r5, #1
    5efa:	4d50      	ldr	r5, [pc, #320]	; (603c <bloomFilterAddressCheck+0x7a4>)
    5efc:	405d      	eors	r5, r3
    5efe:	464b      	mov	r3, r9
    5f00:	005b      	lsls	r3, r3, #1
    5f02:	469a      	mov	sl, r3
    5f04:	464b      	mov	r3, r9
    5f06:	b2ad      	uxth	r5, r5
    5f08:	041b      	lsls	r3, r3, #16
    5f0a:	d501      	bpl.n	5f10 <bloomFilterAddressCheck+0x678>
    5f0c:	f000 fc3a 	bl	6784 <bloomFilterAddressCheck+0xeec>
    5f10:	4653      	mov	r3, sl
    5f12:	466d      	mov	r5, sp
    5f14:	82ab      	strh	r3, [r5, #20]
    5f16:	8aad      	ldrh	r5, [r5, #20]
    5f18:	006b      	lsls	r3, r5, #1
    5f1a:	4d48      	ldr	r5, [pc, #288]	; (603c <bloomFilterAddressCheck+0x7a4>)
    5f1c:	405d      	eors	r5, r3
    5f1e:	4653      	mov	r3, sl
    5f20:	005b      	lsls	r3, r3, #1
    5f22:	4699      	mov	r9, r3
    5f24:	4653      	mov	r3, sl
    5f26:	b2ad      	uxth	r5, r5
    5f28:	041b      	lsls	r3, r3, #16
    5f2a:	d501      	bpl.n	5f30 <bloomFilterAddressCheck+0x698>
    5f2c:	f000 fc2d 	bl	678a <bloomFilterAddressCheck+0xef2>
    5f30:	464b      	mov	r3, r9
    5f32:	466d      	mov	r5, sp
    5f34:	82ab      	strh	r3, [r5, #20]
    5f36:	8aad      	ldrh	r5, [r5, #20]
    5f38:	79d2      	ldrb	r2, [r2, #7]
    5f3a:	006b      	lsls	r3, r5, #1
    5f3c:	4d3f      	ldr	r5, [pc, #252]	; (603c <bloomFilterAddressCheck+0x7a4>)
    5f3e:	b252      	sxtb	r2, r2
    5f40:	405d      	eors	r5, r3
    5f42:	0213      	lsls	r3, r2, #8
    5f44:	469a      	mov	sl, r3
    5f46:	464b      	mov	r3, r9
    5f48:	b2ad      	uxth	r5, r5
    5f4a:	005a      	lsls	r2, r3, #1
    5f4c:	041b      	lsls	r3, r3, #16
    5f4e:	d501      	bpl.n	5f54 <bloomFilterAddressCheck+0x6bc>
    5f50:	f000 fc1e 	bl	6790 <bloomFilterAddressCheck+0xef8>
    5f54:	4653      	mov	r3, sl
    5f56:	405a      	eors	r2, r3
    5f58:	4b38      	ldr	r3, [pc, #224]	; (603c <bloomFilterAddressCheck+0x7a4>)
    5f5a:	b212      	sxth	r2, r2
    5f5c:	001f      	movs	r7, r3
    5f5e:	b295      	uxth	r5, r2
    5f60:	006d      	lsls	r5, r5, #1
    5f62:	406f      	eors	r7, r5
    5f64:	1c3b      	adds	r3, r7, #0
    5f66:	466f      	mov	r7, sp
    5f68:	82bb      	strh	r3, [r7, #20]
    5f6a:	8abb      	ldrh	r3, [r7, #20]
    5f6c:	b2ad      	uxth	r5, r5
    5f6e:	2a00      	cmp	r2, #0
    5f70:	da00      	bge.n	5f74 <bloomFilterAddressCheck+0x6dc>
    5f72:	e30e      	b.n	6592 <bloomFilterAddressCheck+0xcfa>
    5f74:	1c2a      	adds	r2, r5, #0
    5f76:	466f      	mov	r7, sp
    5f78:	b295      	uxth	r5, r2
    5f7a:	006b      	lsls	r3, r5, #1
    5f7c:	4d2f      	ldr	r5, [pc, #188]	; (603c <bloomFilterAddressCheck+0x7a4>)
    5f7e:	405d      	eors	r5, r3
    5f80:	0053      	lsls	r3, r2, #1
    5f82:	82bb      	strh	r3, [r7, #20]
    5f84:	8abb      	ldrh	r3, [r7, #20]
    5f86:	b2ad      	uxth	r5, r5
    5f88:	4699      	mov	r9, r3
    5f8a:	0413      	lsls	r3, r2, #16
    5f8c:	d501      	bpl.n	5f92 <bloomFilterAddressCheck+0x6fa>
    5f8e:	f000 fcb4 	bl	68fa <bloomFilterAddressCheck+0x1062>
    5f92:	464a      	mov	r2, r9
    5f94:	466f      	mov	r7, sp
    5f96:	b295      	uxth	r5, r2
    5f98:	006b      	lsls	r3, r5, #1
    5f9a:	4d28      	ldr	r5, [pc, #160]	; (603c <bloomFilterAddressCheck+0x7a4>)
    5f9c:	405d      	eors	r5, r3
    5f9e:	0053      	lsls	r3, r2, #1
    5fa0:	82bb      	strh	r3, [r7, #20]
    5fa2:	8abb      	ldrh	r3, [r7, #20]
    5fa4:	b2ad      	uxth	r5, r5
    5fa6:	4699      	mov	r9, r3
    5fa8:	0413      	lsls	r3, r2, #16
    5faa:	d400      	bmi.n	5fae <bloomFilterAddressCheck+0x716>
    5fac:	464d      	mov	r5, r9
    5fae:	466f      	mov	r7, sp
    5fb0:	b2aa      	uxth	r2, r5
    5fb2:	0053      	lsls	r3, r2, #1
    5fb4:	4a21      	ldr	r2, [pc, #132]	; (603c <bloomFilterAddressCheck+0x7a4>)
    5fb6:	405a      	eors	r2, r3
    5fb8:	006b      	lsls	r3, r5, #1
    5fba:	82bb      	strh	r3, [r7, #20]
    5fbc:	8abb      	ldrh	r3, [r7, #20]
    5fbe:	b292      	uxth	r2, r2
    5fc0:	4699      	mov	r9, r3
    5fc2:	042b      	lsls	r3, r5, #16
    5fc4:	d400      	bmi.n	5fc8 <bloomFilterAddressCheck+0x730>
    5fc6:	464a      	mov	r2, r9
    5fc8:	466f      	mov	r7, sp
    5fca:	b295      	uxth	r5, r2
    5fcc:	006b      	lsls	r3, r5, #1
    5fce:	4d1b      	ldr	r5, [pc, #108]	; (603c <bloomFilterAddressCheck+0x7a4>)
    5fd0:	405d      	eors	r5, r3
    5fd2:	0053      	lsls	r3, r2, #1
    5fd4:	82bb      	strh	r3, [r7, #20]
    5fd6:	8abb      	ldrh	r3, [r7, #20]
    5fd8:	b2ad      	uxth	r5, r5
    5fda:	4699      	mov	r9, r3
    5fdc:	0413      	lsls	r3, r2, #16
    5fde:	d400      	bmi.n	5fe2 <bloomFilterAddressCheck+0x74a>
    5fe0:	464d      	mov	r5, r9
    5fe2:	466f      	mov	r7, sp
    5fe4:	b2aa      	uxth	r2, r5
    5fe6:	0053      	lsls	r3, r2, #1
    5fe8:	4a14      	ldr	r2, [pc, #80]	; (603c <bloomFilterAddressCheck+0x7a4>)
    5fea:	405a      	eors	r2, r3
    5fec:	006b      	lsls	r3, r5, #1
    5fee:	82bb      	strh	r3, [r7, #20]
    5ff0:	8abb      	ldrh	r3, [r7, #20]
    5ff2:	b292      	uxth	r2, r2
    5ff4:	4699      	mov	r9, r3
    5ff6:	042b      	lsls	r3, r5, #16
    5ff8:	d400      	bmi.n	5ffc <bloomFilterAddressCheck+0x764>
    5ffa:	464a      	mov	r2, r9
    5ffc:	b295      	uxth	r5, r2
    5ffe:	006b      	lsls	r3, r5, #1
    6000:	4d0e      	ldr	r5, [pc, #56]	; (603c <bloomFilterAddressCheck+0x7a4>)
    6002:	405d      	eors	r5, r3
    6004:	b2ab      	uxth	r3, r5
    6006:	0055      	lsls	r5, r2, #1
    6008:	4699      	mov	r9, r3
    600a:	b2ad      	uxth	r5, r5
    600c:	0413      	lsls	r3, r2, #16
    600e:	d501      	bpl.n	6014 <bloomFilterAddressCheck+0x77c>
    6010:	f000 fc70 	bl	68f4 <bloomFilterAddressCheck+0x105c>
    6014:	1c2a      	adds	r2, r5, #0
    6016:	b295      	uxth	r5, r2
    6018:	b213      	sxth	r3, r2
    601a:	001f      	movs	r7, r3
    601c:	006b      	lsls	r3, r5, #1
    601e:	4d07      	ldr	r5, [pc, #28]	; (603c <bloomFilterAddressCheck+0x7a4>)
    6020:	0052      	lsls	r2, r2, #1
    6022:	405d      	eors	r5, r3
    6024:	b2ab      	uxth	r3, r5
    6026:	9305      	str	r3, [sp, #20]
    6028:	b293      	uxth	r3, r2
    602a:	4699      	mov	r9, r3
    602c:	4663      	mov	r3, ip
    602e:	4a04      	ldr	r2, [pc, #16]	; (6040 <bloomFilterAddressCheck+0x7a8>)
    6030:	4645      	mov	r5, r8
    6032:	405a      	eors	r2, r3
    6034:	466b      	mov	r3, sp
    6036:	b292      	uxth	r2, r2
    6038:	8a1b      	ldrh	r3, [r3, #16]
    603a:	e003      	b.n	6044 <bloomFilterAddressCheck+0x7ac>
    603c:	00001021 	.word	0x00001021
    6040:	ffff8005 	.word	0xffff8005
    6044:	2d00      	cmp	r5, #0
    6046:	da01      	bge.n	604c <bloomFilterAddressCheck+0x7b4>
    6048:	f000 fc51 	bl	68ee <bloomFilterAddressCheck+0x1056>
    604c:	b29d      	uxth	r5, r3
    604e:	4ae9      	ldr	r2, [pc, #932]	; (63f4 <bloomFilterAddressCheck+0xb5c>)
    6050:	006d      	lsls	r5, r5, #1
    6052:	406a      	eors	r2, r5
    6054:	b212      	sxth	r2, r2
    6056:	b295      	uxth	r5, r2
    6058:	005a      	lsls	r2, r3, #1
    605a:	b292      	uxth	r2, r2
    605c:	041b      	lsls	r3, r3, #16
    605e:	d501      	bpl.n	6064 <bloomFilterAddressCheck+0x7cc>
    6060:	f000 fc42 	bl	68e8 <bloomFilterAddressCheck+0x1050>
    6064:	4be3      	ldr	r3, [pc, #908]	; (63f4 <bloomFilterAddressCheck+0xb5c>)
    6066:	b295      	uxth	r5, r2
    6068:	006d      	lsls	r5, r5, #1
    606a:	405d      	eors	r5, r3
    606c:	0053      	lsls	r3, r2, #1
    606e:	b2ad      	uxth	r5, r5
    6070:	b29b      	uxth	r3, r3
    6072:	0412      	lsls	r2, r2, #16
    6074:	d501      	bpl.n	607a <bloomFilterAddressCheck+0x7e2>
    6076:	f000 fc34 	bl	68e2 <bloomFilterAddressCheck+0x104a>
    607a:	4ade      	ldr	r2, [pc, #888]	; (63f4 <bloomFilterAddressCheck+0xb5c>)
    607c:	b29d      	uxth	r5, r3
    607e:	006d      	lsls	r5, r5, #1
    6080:	4055      	eors	r5, r2
    6082:	005a      	lsls	r2, r3, #1
    6084:	b2ad      	uxth	r5, r5
    6086:	b292      	uxth	r2, r2
    6088:	041b      	lsls	r3, r3, #16
    608a:	d501      	bpl.n	6090 <bloomFilterAddressCheck+0x7f8>
    608c:	f000 fc26 	bl	68dc <bloomFilterAddressCheck+0x1044>
    6090:	4bd8      	ldr	r3, [pc, #864]	; (63f4 <bloomFilterAddressCheck+0xb5c>)
    6092:	b295      	uxth	r5, r2
    6094:	006d      	lsls	r5, r5, #1
    6096:	405d      	eors	r5, r3
    6098:	0053      	lsls	r3, r2, #1
    609a:	b2ad      	uxth	r5, r5
    609c:	b29b      	uxth	r3, r3
    609e:	0412      	lsls	r2, r2, #16
    60a0:	d501      	bpl.n	60a6 <bloomFilterAddressCheck+0x80e>
    60a2:	f000 fc18 	bl	68d6 <bloomFilterAddressCheck+0x103e>
    60a6:	4ad3      	ldr	r2, [pc, #844]	; (63f4 <bloomFilterAddressCheck+0xb5c>)
    60a8:	b29d      	uxth	r5, r3
    60aa:	006d      	lsls	r5, r5, #1
    60ac:	4055      	eors	r5, r2
    60ae:	005a      	lsls	r2, r3, #1
    60b0:	b2ad      	uxth	r5, r5
    60b2:	b292      	uxth	r2, r2
    60b4:	041b      	lsls	r3, r3, #16
    60b6:	d501      	bpl.n	60bc <bloomFilterAddressCheck+0x824>
    60b8:	f000 fc0a 	bl	68d0 <bloomFilterAddressCheck+0x1038>
    60bc:	4bcd      	ldr	r3, [pc, #820]	; (63f4 <bloomFilterAddressCheck+0xb5c>)
    60be:	b295      	uxth	r5, r2
    60c0:	006d      	lsls	r5, r5, #1
    60c2:	405d      	eors	r5, r3
    60c4:	0053      	lsls	r3, r2, #1
    60c6:	b2ad      	uxth	r5, r5
    60c8:	b29b      	uxth	r3, r3
    60ca:	0412      	lsls	r2, r2, #16
    60cc:	d500      	bpl.n	60d0 <bloomFilterAddressCheck+0x838>
    60ce:	e3c1      	b.n	6854 <bloomFilterAddressCheck+0xfbc>
    60d0:	b29a      	uxth	r2, r3
    60d2:	4dc8      	ldr	r5, [pc, #800]	; (63f4 <bloomFilterAddressCheck+0xb5c>)
    60d4:	0052      	lsls	r2, r2, #1
    60d6:	4055      	eors	r5, r2
    60d8:	005a      	lsls	r2, r3, #1
    60da:	b2ad      	uxth	r5, r5
    60dc:	b292      	uxth	r2, r2
    60de:	041b      	lsls	r3, r3, #16
    60e0:	d500      	bpl.n	60e4 <bloomFilterAddressCheck+0x84c>
    60e2:	e3b5      	b.n	6850 <bloomFilterAddressCheck+0xfb8>
    60e4:	4054      	eors	r4, r2
    60e6:	b224      	sxth	r4, r4
    60e8:	b2a2      	uxth	r2, r4
    60ea:	4bc2      	ldr	r3, [pc, #776]	; (63f4 <bloomFilterAddressCheck+0xb5c>)
    60ec:	0052      	lsls	r2, r2, #1
    60ee:	4053      	eors	r3, r2
    60f0:	b29d      	uxth	r5, r3
    60f2:	b293      	uxth	r3, r2
    60f4:	2c00      	cmp	r4, #0
    60f6:	da00      	bge.n	60fa <bloomFilterAddressCheck+0x862>
    60f8:	e3a8      	b.n	684c <bloomFilterAddressCheck+0xfb4>
    60fa:	4abe      	ldr	r2, [pc, #760]	; (63f4 <bloomFilterAddressCheck+0xb5c>)
    60fc:	b29c      	uxth	r4, r3
    60fe:	0064      	lsls	r4, r4, #1
    6100:	4054      	eors	r4, r2
    6102:	005a      	lsls	r2, r3, #1
    6104:	b2a4      	uxth	r4, r4
    6106:	b292      	uxth	r2, r2
    6108:	041b      	lsls	r3, r3, #16
    610a:	d500      	bpl.n	610e <bloomFilterAddressCheck+0x876>
    610c:	e39c      	b.n	6848 <bloomFilterAddressCheck+0xfb0>
    610e:	4bb9      	ldr	r3, [pc, #740]	; (63f4 <bloomFilterAddressCheck+0xb5c>)
    6110:	b294      	uxth	r4, r2
    6112:	0064      	lsls	r4, r4, #1
    6114:	405c      	eors	r4, r3
    6116:	0053      	lsls	r3, r2, #1
    6118:	b2a4      	uxth	r4, r4
    611a:	b29b      	uxth	r3, r3
    611c:	0412      	lsls	r2, r2, #16
    611e:	d500      	bpl.n	6122 <bloomFilterAddressCheck+0x88a>
    6120:	e390      	b.n	6844 <bloomFilterAddressCheck+0xfac>
    6122:	4ab4      	ldr	r2, [pc, #720]	; (63f4 <bloomFilterAddressCheck+0xb5c>)
    6124:	b29c      	uxth	r4, r3
    6126:	0064      	lsls	r4, r4, #1
    6128:	4054      	eors	r4, r2
    612a:	005a      	lsls	r2, r3, #1
    612c:	b2a4      	uxth	r4, r4
    612e:	b292      	uxth	r2, r2
    6130:	041b      	lsls	r3, r3, #16
    6132:	d500      	bpl.n	6136 <bloomFilterAddressCheck+0x89e>
    6134:	e384      	b.n	6840 <bloomFilterAddressCheck+0xfa8>
    6136:	4baf      	ldr	r3, [pc, #700]	; (63f4 <bloomFilterAddressCheck+0xb5c>)
    6138:	b294      	uxth	r4, r2
    613a:	0064      	lsls	r4, r4, #1
    613c:	405c      	eors	r4, r3
    613e:	0053      	lsls	r3, r2, #1
    6140:	b2a4      	uxth	r4, r4
    6142:	b29b      	uxth	r3, r3
    6144:	0412      	lsls	r2, r2, #16
    6146:	d500      	bpl.n	614a <bloomFilterAddressCheck+0x8b2>
    6148:	e378      	b.n	683c <bloomFilterAddressCheck+0xfa4>
    614a:	4aaa      	ldr	r2, [pc, #680]	; (63f4 <bloomFilterAddressCheck+0xb5c>)
    614c:	b29c      	uxth	r4, r3
    614e:	0064      	lsls	r4, r4, #1
    6150:	4054      	eors	r4, r2
    6152:	005a      	lsls	r2, r3, #1
    6154:	b2a4      	uxth	r4, r4
    6156:	b292      	uxth	r2, r2
    6158:	041b      	lsls	r3, r3, #16
    615a:	d500      	bpl.n	615e <bloomFilterAddressCheck+0x8c6>
    615c:	e36c      	b.n	6838 <bloomFilterAddressCheck+0xfa0>
    615e:	4ba5      	ldr	r3, [pc, #660]	; (63f4 <bloomFilterAddressCheck+0xb5c>)
    6160:	b294      	uxth	r4, r2
    6162:	0064      	lsls	r4, r4, #1
    6164:	405c      	eors	r4, r3
    6166:	0053      	lsls	r3, r2, #1
    6168:	b2a4      	uxth	r4, r4
    616a:	b29b      	uxth	r3, r3
    616c:	0412      	lsls	r2, r2, #16
    616e:	d500      	bpl.n	6172 <bloomFilterAddressCheck+0x8da>
    6170:	e360      	b.n	6834 <bloomFilterAddressCheck+0xf9c>
    6172:	b29a      	uxth	r2, r3
    6174:	4c9f      	ldr	r4, [pc, #636]	; (63f4 <bloomFilterAddressCheck+0xb5c>)
    6176:	0052      	lsls	r2, r2, #1
    6178:	4054      	eors	r4, r2
    617a:	005a      	lsls	r2, r3, #1
    617c:	b2a4      	uxth	r4, r4
    617e:	b292      	uxth	r2, r2
    6180:	041b      	lsls	r3, r3, #16
    6182:	d500      	bpl.n	6186 <bloomFilterAddressCheck+0x8ee>
    6184:	e354      	b.n	6830 <bloomFilterAddressCheck+0xf98>
    6186:	4050      	eors	r0, r2
    6188:	b200      	sxth	r0, r0
    618a:	b282      	uxth	r2, r0
    618c:	4b99      	ldr	r3, [pc, #612]	; (63f4 <bloomFilterAddressCheck+0xb5c>)
    618e:	0052      	lsls	r2, r2, #1
    6190:	4053      	eors	r3, r2
    6192:	b29c      	uxth	r4, r3
    6194:	b293      	uxth	r3, r2
    6196:	2800      	cmp	r0, #0
    6198:	da00      	bge.n	619c <bloomFilterAddressCheck+0x904>
    619a:	e347      	b.n	682c <bloomFilterAddressCheck+0xf94>
    619c:	4a95      	ldr	r2, [pc, #596]	; (63f4 <bloomFilterAddressCheck+0xb5c>)
    619e:	b298      	uxth	r0, r3
    61a0:	0040      	lsls	r0, r0, #1
    61a2:	4050      	eors	r0, r2
    61a4:	005a      	lsls	r2, r3, #1
    61a6:	b280      	uxth	r0, r0
    61a8:	b292      	uxth	r2, r2
    61aa:	041b      	lsls	r3, r3, #16
    61ac:	d500      	bpl.n	61b0 <bloomFilterAddressCheck+0x918>
    61ae:	e33b      	b.n	6828 <bloomFilterAddressCheck+0xf90>
    61b0:	4b90      	ldr	r3, [pc, #576]	; (63f4 <bloomFilterAddressCheck+0xb5c>)
    61b2:	b290      	uxth	r0, r2
    61b4:	0040      	lsls	r0, r0, #1
    61b6:	4058      	eors	r0, r3
    61b8:	0053      	lsls	r3, r2, #1
    61ba:	b280      	uxth	r0, r0
    61bc:	b29b      	uxth	r3, r3
    61be:	0412      	lsls	r2, r2, #16
    61c0:	d500      	bpl.n	61c4 <bloomFilterAddressCheck+0x92c>
    61c2:	e32f      	b.n	6824 <bloomFilterAddressCheck+0xf8c>
    61c4:	4a8b      	ldr	r2, [pc, #556]	; (63f4 <bloomFilterAddressCheck+0xb5c>)
    61c6:	b298      	uxth	r0, r3
    61c8:	0040      	lsls	r0, r0, #1
    61ca:	4050      	eors	r0, r2
    61cc:	005a      	lsls	r2, r3, #1
    61ce:	b280      	uxth	r0, r0
    61d0:	b292      	uxth	r2, r2
    61d2:	041b      	lsls	r3, r3, #16
    61d4:	d500      	bpl.n	61d8 <bloomFilterAddressCheck+0x940>
    61d6:	e323      	b.n	6820 <bloomFilterAddressCheck+0xf88>
    61d8:	4b86      	ldr	r3, [pc, #536]	; (63f4 <bloomFilterAddressCheck+0xb5c>)
    61da:	b290      	uxth	r0, r2
    61dc:	0040      	lsls	r0, r0, #1
    61de:	4058      	eors	r0, r3
    61e0:	0053      	lsls	r3, r2, #1
    61e2:	b280      	uxth	r0, r0
    61e4:	b29b      	uxth	r3, r3
    61e6:	0412      	lsls	r2, r2, #16
    61e8:	d500      	bpl.n	61ec <bloomFilterAddressCheck+0x954>
    61ea:	e317      	b.n	681c <bloomFilterAddressCheck+0xf84>
    61ec:	4a81      	ldr	r2, [pc, #516]	; (63f4 <bloomFilterAddressCheck+0xb5c>)
    61ee:	b298      	uxth	r0, r3
    61f0:	0040      	lsls	r0, r0, #1
    61f2:	4050      	eors	r0, r2
    61f4:	005a      	lsls	r2, r3, #1
    61f6:	b280      	uxth	r0, r0
    61f8:	b292      	uxth	r2, r2
    61fa:	041b      	lsls	r3, r3, #16
    61fc:	d500      	bpl.n	6200 <bloomFilterAddressCheck+0x968>
    61fe:	e30b      	b.n	6818 <bloomFilterAddressCheck+0xf80>
    6200:	4b7c      	ldr	r3, [pc, #496]	; (63f4 <bloomFilterAddressCheck+0xb5c>)
    6202:	b290      	uxth	r0, r2
    6204:	0040      	lsls	r0, r0, #1
    6206:	4058      	eors	r0, r3
    6208:	0053      	lsls	r3, r2, #1
    620a:	b280      	uxth	r0, r0
    620c:	b29b      	uxth	r3, r3
    620e:	0412      	lsls	r2, r2, #16
    6210:	d500      	bpl.n	6214 <bloomFilterAddressCheck+0x97c>
    6212:	e2ff      	b.n	6814 <bloomFilterAddressCheck+0xf7c>
    6214:	b29a      	uxth	r2, r3
    6216:	4877      	ldr	r0, [pc, #476]	; (63f4 <bloomFilterAddressCheck+0xb5c>)
    6218:	0052      	lsls	r2, r2, #1
    621a:	4050      	eors	r0, r2
    621c:	005a      	lsls	r2, r3, #1
    621e:	b280      	uxth	r0, r0
    6220:	b292      	uxth	r2, r2
    6222:	041b      	lsls	r3, r3, #16
    6224:	d500      	bpl.n	6228 <bloomFilterAddressCheck+0x990>
    6226:	e2f3      	b.n	6810 <bloomFilterAddressCheck+0xf78>
    6228:	4051      	eors	r1, r2
    622a:	b209      	sxth	r1, r1
    622c:	b28b      	uxth	r3, r1
    622e:	4a71      	ldr	r2, [pc, #452]	; (63f4 <bloomFilterAddressCheck+0xb5c>)
    6230:	005b      	lsls	r3, r3, #1
    6232:	405a      	eors	r2, r3
    6234:	b292      	uxth	r2, r2
    6236:	2900      	cmp	r1, #0
    6238:	da00      	bge.n	623c <bloomFilterAddressCheck+0x9a4>
    623a:	e2e7      	b.n	680c <bloomFilterAddressCheck+0xf74>
    623c:	4a6d      	ldr	r2, [pc, #436]	; (63f4 <bloomFilterAddressCheck+0xb5c>)
    623e:	b299      	uxth	r1, r3
    6240:	0049      	lsls	r1, r1, #1
    6242:	4051      	eors	r1, r2
    6244:	b289      	uxth	r1, r1
    6246:	005a      	lsls	r2, r3, #1
    6248:	041b      	lsls	r3, r3, #16
    624a:	d500      	bpl.n	624e <bloomFilterAddressCheck+0x9b6>
    624c:	e2dc      	b.n	6808 <bloomFilterAddressCheck+0xf70>
    624e:	b291      	uxth	r1, r2
    6250:	4b68      	ldr	r3, [pc, #416]	; (63f4 <bloomFilterAddressCheck+0xb5c>)
    6252:	0049      	lsls	r1, r1, #1
    6254:	404b      	eors	r3, r1
    6256:	b29b      	uxth	r3, r3
    6258:	0051      	lsls	r1, r2, #1
    625a:	0412      	lsls	r2, r2, #16
    625c:	d500      	bpl.n	6260 <bloomFilterAddressCheck+0x9c8>
    625e:	e2d1      	b.n	6804 <bloomFilterAddressCheck+0xf6c>
    6260:	b28a      	uxth	r2, r1
    6262:	4b64      	ldr	r3, [pc, #400]	; (63f4 <bloomFilterAddressCheck+0xb5c>)
    6264:	0052      	lsls	r2, r2, #1
    6266:	4053      	eors	r3, r2
    6268:	b29b      	uxth	r3, r3
    626a:	004a      	lsls	r2, r1, #1
    626c:	0409      	lsls	r1, r1, #16
    626e:	d500      	bpl.n	6272 <bloomFilterAddressCheck+0x9da>
    6270:	e2c6      	b.n	6800 <bloomFilterAddressCheck+0xf68>
    6272:	b291      	uxth	r1, r2
    6274:	4b5f      	ldr	r3, [pc, #380]	; (63f4 <bloomFilterAddressCheck+0xb5c>)
    6276:	0049      	lsls	r1, r1, #1
    6278:	404b      	eors	r3, r1
    627a:	b29b      	uxth	r3, r3
    627c:	0051      	lsls	r1, r2, #1
    627e:	0412      	lsls	r2, r2, #16
    6280:	d500      	bpl.n	6284 <bloomFilterAddressCheck+0x9ec>
    6282:	e2bb      	b.n	67fc <bloomFilterAddressCheck+0xf64>
    6284:	b28a      	uxth	r2, r1
    6286:	4b5b      	ldr	r3, [pc, #364]	; (63f4 <bloomFilterAddressCheck+0xb5c>)
    6288:	0052      	lsls	r2, r2, #1
    628a:	4053      	eors	r3, r2
    628c:	b29b      	uxth	r3, r3
    628e:	004a      	lsls	r2, r1, #1
    6290:	0409      	lsls	r1, r1, #16
    6292:	d500      	bpl.n	6296 <bloomFilterAddressCheck+0x9fe>
    6294:	e2b0      	b.n	67f8 <bloomFilterAddressCheck+0xf60>
    6296:	b291      	uxth	r1, r2
    6298:	4b56      	ldr	r3, [pc, #344]	; (63f4 <bloomFilterAddressCheck+0xb5c>)
    629a:	0049      	lsls	r1, r1, #1
    629c:	404b      	eors	r3, r1
    629e:	b29b      	uxth	r3, r3
    62a0:	0051      	lsls	r1, r2, #1
    62a2:	0412      	lsls	r2, r2, #16
    62a4:	d500      	bpl.n	62a8 <bloomFilterAddressCheck+0xa10>
    62a6:	e2a5      	b.n	67f4 <bloomFilterAddressCheck+0xf5c>
    62a8:	b28a      	uxth	r2, r1
    62aa:	4b52      	ldr	r3, [pc, #328]	; (63f4 <bloomFilterAddressCheck+0xb5c>)
    62ac:	0052      	lsls	r2, r2, #1
    62ae:	4053      	eors	r3, r2
    62b0:	b29b      	uxth	r3, r3
    62b2:	004a      	lsls	r2, r1, #1
    62b4:	0409      	lsls	r1, r1, #16
    62b6:	d500      	bpl.n	62ba <bloomFilterAddressCheck+0xa22>
    62b8:	e29a      	b.n	67f0 <bloomFilterAddressCheck+0xf58>
    62ba:	465b      	mov	r3, fp
    62bc:	4053      	eors	r3, r2
    62be:	b21a      	sxth	r2, r3
    62c0:	b293      	uxth	r3, r2
    62c2:	494c      	ldr	r1, [pc, #304]	; (63f4 <bloomFilterAddressCheck+0xb5c>)
    62c4:	005b      	lsls	r3, r3, #1
    62c6:	4059      	eors	r1, r3
    62c8:	b289      	uxth	r1, r1
    62ca:	2a00      	cmp	r2, #0
    62cc:	da00      	bge.n	62d0 <bloomFilterAddressCheck+0xa38>
    62ce:	e28d      	b.n	67ec <bloomFilterAddressCheck+0xf54>
    62d0:	b299      	uxth	r1, r3
    62d2:	4a48      	ldr	r2, [pc, #288]	; (63f4 <bloomFilterAddressCheck+0xb5c>)
    62d4:	0049      	lsls	r1, r1, #1
    62d6:	404a      	eors	r2, r1
    62d8:	b292      	uxth	r2, r2
    62da:	0059      	lsls	r1, r3, #1
    62dc:	041b      	lsls	r3, r3, #16
    62de:	d500      	bpl.n	62e2 <bloomFilterAddressCheck+0xa4a>
    62e0:	e282      	b.n	67e8 <bloomFilterAddressCheck+0xf50>
    62e2:	b28a      	uxth	r2, r1
    62e4:	4b43      	ldr	r3, [pc, #268]	; (63f4 <bloomFilterAddressCheck+0xb5c>)
    62e6:	0052      	lsls	r2, r2, #1
    62e8:	4053      	eors	r3, r2
    62ea:	b29b      	uxth	r3, r3
    62ec:	004a      	lsls	r2, r1, #1
    62ee:	0409      	lsls	r1, r1, #16
    62f0:	d500      	bpl.n	62f4 <bloomFilterAddressCheck+0xa5c>
    62f2:	e277      	b.n	67e4 <bloomFilterAddressCheck+0xf4c>
    62f4:	b291      	uxth	r1, r2
    62f6:	4b3f      	ldr	r3, [pc, #252]	; (63f4 <bloomFilterAddressCheck+0xb5c>)
    62f8:	0049      	lsls	r1, r1, #1
    62fa:	404b      	eors	r3, r1
    62fc:	b29b      	uxth	r3, r3
    62fe:	0051      	lsls	r1, r2, #1
    6300:	0412      	lsls	r2, r2, #16
    6302:	d500      	bpl.n	6306 <bloomFilterAddressCheck+0xa6e>
    6304:	e26c      	b.n	67e0 <bloomFilterAddressCheck+0xf48>
    6306:	b28a      	uxth	r2, r1
    6308:	4b3a      	ldr	r3, [pc, #232]	; (63f4 <bloomFilterAddressCheck+0xb5c>)
    630a:	0052      	lsls	r2, r2, #1
    630c:	4053      	eors	r3, r2
    630e:	b29b      	uxth	r3, r3
    6310:	004a      	lsls	r2, r1, #1
    6312:	0409      	lsls	r1, r1, #16
    6314:	d500      	bpl.n	6318 <bloomFilterAddressCheck+0xa80>
    6316:	e261      	b.n	67dc <bloomFilterAddressCheck+0xf44>
    6318:	b291      	uxth	r1, r2
    631a:	4b36      	ldr	r3, [pc, #216]	; (63f4 <bloomFilterAddressCheck+0xb5c>)
    631c:	0049      	lsls	r1, r1, #1
    631e:	404b      	eors	r3, r1
    6320:	b29b      	uxth	r3, r3
    6322:	0051      	lsls	r1, r2, #1
    6324:	0412      	lsls	r2, r2, #16
    6326:	d500      	bpl.n	632a <bloomFilterAddressCheck+0xa92>
    6328:	e242      	b.n	67b0 <bloomFilterAddressCheck+0xf18>
    632a:	b28a      	uxth	r2, r1
    632c:	4b31      	ldr	r3, [pc, #196]	; (63f4 <bloomFilterAddressCheck+0xb5c>)
    632e:	0052      	lsls	r2, r2, #1
    6330:	4053      	eors	r3, r2
    6332:	b29b      	uxth	r3, r3
    6334:	004a      	lsls	r2, r1, #1
    6336:	0409      	lsls	r1, r1, #16
    6338:	d500      	bpl.n	633c <bloomFilterAddressCheck+0xaa4>
    633a:	e243      	b.n	67c4 <bloomFilterAddressCheck+0xf2c>
    633c:	b291      	uxth	r1, r2
    633e:	4b2d      	ldr	r3, [pc, #180]	; (63f4 <bloomFilterAddressCheck+0xb5c>)
    6340:	0049      	lsls	r1, r1, #1
    6342:	404b      	eors	r3, r1
    6344:	b29b      	uxth	r3, r3
    6346:	0055      	lsls	r5, r2, #1
    6348:	0412      	lsls	r2, r2, #16
    634a:	d500      	bpl.n	634e <bloomFilterAddressCheck+0xab6>
    634c:	e244      	b.n	67d8 <bloomFilterAddressCheck+0xf40>
    634e:	9b01      	ldr	r3, [sp, #4]
    6350:	4a28      	ldr	r2, [pc, #160]	; (63f4 <bloomFilterAddressCheck+0xb5c>)
    6352:	406b      	eors	r3, r5
    6354:	b21d      	sxth	r5, r3
    6356:	b2ab      	uxth	r3, r5
    6358:	005b      	lsls	r3, r3, #1
    635a:	405a      	eors	r2, r3
    635c:	b292      	uxth	r2, r2
    635e:	2d00      	cmp	r5, #0
    6360:	da00      	bge.n	6364 <bloomFilterAddressCheck+0xacc>
    6362:	e2a7      	b.n	68b4 <bloomFilterAddressCheck+0x101c>
    6364:	b299      	uxth	r1, r3
    6366:	4a23      	ldr	r2, [pc, #140]	; (63f4 <bloomFilterAddressCheck+0xb5c>)
    6368:	0049      	lsls	r1, r1, #1
    636a:	404a      	eors	r2, r1
    636c:	b292      	uxth	r2, r2
    636e:	0059      	lsls	r1, r3, #1
    6370:	041b      	lsls	r3, r3, #16
    6372:	d500      	bpl.n	6376 <bloomFilterAddressCheck+0xade>
    6374:	e29c      	b.n	68b0 <bloomFilterAddressCheck+0x1018>
    6376:	b28a      	uxth	r2, r1
    6378:	4b1e      	ldr	r3, [pc, #120]	; (63f4 <bloomFilterAddressCheck+0xb5c>)
    637a:	0052      	lsls	r2, r2, #1
    637c:	4053      	eors	r3, r2
    637e:	b29b      	uxth	r3, r3
    6380:	004a      	lsls	r2, r1, #1
    6382:	0409      	lsls	r1, r1, #16
    6384:	d500      	bpl.n	6388 <bloomFilterAddressCheck+0xaf0>
    6386:	e291      	b.n	68ac <bloomFilterAddressCheck+0x1014>
    6388:	b291      	uxth	r1, r2
    638a:	4b1a      	ldr	r3, [pc, #104]	; (63f4 <bloomFilterAddressCheck+0xb5c>)
    638c:	0049      	lsls	r1, r1, #1
    638e:	404b      	eors	r3, r1
    6390:	b29b      	uxth	r3, r3
    6392:	0051      	lsls	r1, r2, #1
    6394:	0412      	lsls	r2, r2, #16
    6396:	d500      	bpl.n	639a <bloomFilterAddressCheck+0xb02>
    6398:	e286      	b.n	68a8 <bloomFilterAddressCheck+0x1010>
    639a:	b28a      	uxth	r2, r1
    639c:	4b15      	ldr	r3, [pc, #84]	; (63f4 <bloomFilterAddressCheck+0xb5c>)
    639e:	0052      	lsls	r2, r2, #1
    63a0:	4053      	eors	r3, r2
    63a2:	b29b      	uxth	r3, r3
    63a4:	004a      	lsls	r2, r1, #1
    63a6:	0409      	lsls	r1, r1, #16
    63a8:	d500      	bpl.n	63ac <bloomFilterAddressCheck+0xb14>
    63aa:	e27b      	b.n	68a4 <bloomFilterAddressCheck+0x100c>
    63ac:	b291      	uxth	r1, r2
    63ae:	4b11      	ldr	r3, [pc, #68]	; (63f4 <bloomFilterAddressCheck+0xb5c>)
    63b0:	0049      	lsls	r1, r1, #1
    63b2:	404b      	eors	r3, r1
    63b4:	b29b      	uxth	r3, r3
    63b6:	0051      	lsls	r1, r2, #1
    63b8:	0412      	lsls	r2, r2, #16
    63ba:	d500      	bpl.n	63be <bloomFilterAddressCheck+0xb26>
    63bc:	e270      	b.n	68a0 <bloomFilterAddressCheck+0x1008>
    63be:	b28a      	uxth	r2, r1
    63c0:	4b0c      	ldr	r3, [pc, #48]	; (63f4 <bloomFilterAddressCheck+0xb5c>)
    63c2:	0052      	lsls	r2, r2, #1
    63c4:	4053      	eors	r3, r2
    63c6:	b29b      	uxth	r3, r3
    63c8:	004a      	lsls	r2, r1, #1
    63ca:	0409      	lsls	r1, r1, #16
    63cc:	d500      	bpl.n	63d0 <bloomFilterAddressCheck+0xb38>
    63ce:	e265      	b.n	689c <bloomFilterAddressCheck+0x1004>
    63d0:	b291      	uxth	r1, r2
    63d2:	4b08      	ldr	r3, [pc, #32]	; (63f4 <bloomFilterAddressCheck+0xb5c>)
    63d4:	0049      	lsls	r1, r1, #1
    63d6:	404b      	eors	r3, r1
    63d8:	b29b      	uxth	r3, r3
    63da:	0055      	lsls	r5, r2, #1
    63dc:	0412      	lsls	r2, r2, #16
    63de:	d500      	bpl.n	63e2 <bloomFilterAddressCheck+0xb4a>
    63e0:	e25a      	b.n	6898 <bloomFilterAddressCheck+0x1000>
    63e2:	9b02      	ldr	r3, [sp, #8]
    63e4:	4a03      	ldr	r2, [pc, #12]	; (63f4 <bloomFilterAddressCheck+0xb5c>)
    63e6:	406b      	eors	r3, r5
    63e8:	b21d      	sxth	r5, r3
    63ea:	b2ab      	uxth	r3, r5
    63ec:	005b      	lsls	r3, r3, #1
    63ee:	405a      	eors	r2, r3
    63f0:	b292      	uxth	r2, r2
    63f2:	e001      	b.n	63f8 <bloomFilterAddressCheck+0xb60>
    63f4:	ffff8005 	.word	0xffff8005
    63f8:	2d00      	cmp	r5, #0
    63fa:	da00      	bge.n	63fe <bloomFilterAddressCheck+0xb66>
    63fc:	e24a      	b.n	6894 <bloomFilterAddressCheck+0xffc>
    63fe:	b299      	uxth	r1, r3
    6400:	4ae8      	ldr	r2, [pc, #928]	; (67a4 <bloomFilterAddressCheck+0xf0c>)
    6402:	0049      	lsls	r1, r1, #1
    6404:	404a      	eors	r2, r1
    6406:	b292      	uxth	r2, r2
    6408:	0059      	lsls	r1, r3, #1
    640a:	041b      	lsls	r3, r3, #16
    640c:	d500      	bpl.n	6410 <bloomFilterAddressCheck+0xb78>
    640e:	e23f      	b.n	6890 <bloomFilterAddressCheck+0xff8>
    6410:	b28a      	uxth	r2, r1
    6412:	4be4      	ldr	r3, [pc, #912]	; (67a4 <bloomFilterAddressCheck+0xf0c>)
    6414:	0052      	lsls	r2, r2, #1
    6416:	4053      	eors	r3, r2
    6418:	b29b      	uxth	r3, r3
    641a:	004a      	lsls	r2, r1, #1
    641c:	0409      	lsls	r1, r1, #16
    641e:	d500      	bpl.n	6422 <bloomFilterAddressCheck+0xb8a>
    6420:	e234      	b.n	688c <bloomFilterAddressCheck+0xff4>
    6422:	b291      	uxth	r1, r2
    6424:	4bdf      	ldr	r3, [pc, #892]	; (67a4 <bloomFilterAddressCheck+0xf0c>)
    6426:	0049      	lsls	r1, r1, #1
    6428:	404b      	eors	r3, r1
    642a:	b29b      	uxth	r3, r3
    642c:	0051      	lsls	r1, r2, #1
    642e:	0412      	lsls	r2, r2, #16
    6430:	d500      	bpl.n	6434 <bloomFilterAddressCheck+0xb9c>
    6432:	e229      	b.n	6888 <bloomFilterAddressCheck+0xff0>
    6434:	b28a      	uxth	r2, r1
    6436:	4bdb      	ldr	r3, [pc, #876]	; (67a4 <bloomFilterAddressCheck+0xf0c>)
    6438:	0052      	lsls	r2, r2, #1
    643a:	4053      	eors	r3, r2
    643c:	b29b      	uxth	r3, r3
    643e:	004a      	lsls	r2, r1, #1
    6440:	0409      	lsls	r1, r1, #16
    6442:	d500      	bpl.n	6446 <bloomFilterAddressCheck+0xbae>
    6444:	e21e      	b.n	6884 <bloomFilterAddressCheck+0xfec>
    6446:	b291      	uxth	r1, r2
    6448:	4bd6      	ldr	r3, [pc, #856]	; (67a4 <bloomFilterAddressCheck+0xf0c>)
    644a:	0049      	lsls	r1, r1, #1
    644c:	404b      	eors	r3, r1
    644e:	b29b      	uxth	r3, r3
    6450:	0051      	lsls	r1, r2, #1
    6452:	0412      	lsls	r2, r2, #16
    6454:	d500      	bpl.n	6458 <bloomFilterAddressCheck+0xbc0>
    6456:	e1ff      	b.n	6858 <bloomFilterAddressCheck+0xfc0>
    6458:	b28a      	uxth	r2, r1
    645a:	4bd2      	ldr	r3, [pc, #840]	; (67a4 <bloomFilterAddressCheck+0xf0c>)
    645c:	0052      	lsls	r2, r2, #1
    645e:	4053      	eors	r3, r2
    6460:	b29b      	uxth	r3, r3
    6462:	0048      	lsls	r0, r1, #1
    6464:	040a      	lsls	r2, r1, #16
    6466:	d500      	bpl.n	646a <bloomFilterAddressCheck+0xbd2>
    6468:	e200      	b.n	686c <bloomFilterAddressCheck+0xfd4>
    646a:	b282      	uxth	r2, r0
    646c:	4bcd      	ldr	r3, [pc, #820]	; (67a4 <bloomFilterAddressCheck+0xf0c>)
    646e:	0052      	lsls	r2, r2, #1
    6470:	4053      	eors	r3, r2
    6472:	b29b      	uxth	r3, r3
    6474:	0042      	lsls	r2, r0, #1
    6476:	0401      	lsls	r1, r0, #16
    6478:	d500      	bpl.n	647c <bloomFilterAddressCheck+0xbe4>
    647a:	e201      	b.n	6880 <bloomFilterAddressCheck+0xfe8>
    647c:	4653      	mov	r3, sl
    647e:	4053      	eors	r3, r2
    6480:	b21a      	sxth	r2, r3
    6482:	b291      	uxth	r1, r2
    6484:	4bc7      	ldr	r3, [pc, #796]	; (67a4 <bloomFilterAddressCheck+0xf0c>)
    6486:	0049      	lsls	r1, r1, #1
    6488:	404b      	eors	r3, r1
    648a:	b298      	uxth	r0, r3
    648c:	b28b      	uxth	r3, r1
    648e:	2a00      	cmp	r2, #0
    6490:	da00      	bge.n	6494 <bloomFilterAddressCheck+0xbfc>
    6492:	e21b      	b.n	68cc <bloomFilterAddressCheck+0x1034>
    6494:	4ac3      	ldr	r2, [pc, #780]	; (67a4 <bloomFilterAddressCheck+0xf0c>)
    6496:	b299      	uxth	r1, r3
    6498:	0049      	lsls	r1, r1, #1
    649a:	4051      	eors	r1, r2
    649c:	005a      	lsls	r2, r3, #1
    649e:	b289      	uxth	r1, r1
    64a0:	b292      	uxth	r2, r2
    64a2:	041b      	lsls	r3, r3, #16
    64a4:	d500      	bpl.n	64a8 <bloomFilterAddressCheck+0xc10>
    64a6:	e20f      	b.n	68c8 <bloomFilterAddressCheck+0x1030>
    64a8:	4bbe      	ldr	r3, [pc, #760]	; (67a4 <bloomFilterAddressCheck+0xf0c>)
    64aa:	b291      	uxth	r1, r2
    64ac:	0049      	lsls	r1, r1, #1
    64ae:	4059      	eors	r1, r3
    64b0:	0053      	lsls	r3, r2, #1
    64b2:	b289      	uxth	r1, r1
    64b4:	b29b      	uxth	r3, r3
    64b6:	0412      	lsls	r2, r2, #16
    64b8:	d500      	bpl.n	64bc <bloomFilterAddressCheck+0xc24>
    64ba:	e203      	b.n	68c4 <bloomFilterAddressCheck+0x102c>
    64bc:	4ab9      	ldr	r2, [pc, #740]	; (67a4 <bloomFilterAddressCheck+0xf0c>)
    64be:	b299      	uxth	r1, r3
    64c0:	0049      	lsls	r1, r1, #1
    64c2:	4051      	eors	r1, r2
    64c4:	005a      	lsls	r2, r3, #1
    64c6:	b289      	uxth	r1, r1
    64c8:	b292      	uxth	r2, r2
    64ca:	041b      	lsls	r3, r3, #16
    64cc:	d500      	bpl.n	64d0 <bloomFilterAddressCheck+0xc38>
    64ce:	e1f7      	b.n	68c0 <bloomFilterAddressCheck+0x1028>
    64d0:	4bb4      	ldr	r3, [pc, #720]	; (67a4 <bloomFilterAddressCheck+0xf0c>)
    64d2:	b291      	uxth	r1, r2
    64d4:	0049      	lsls	r1, r1, #1
    64d6:	4059      	eors	r1, r3
    64d8:	0053      	lsls	r3, r2, #1
    64da:	b289      	uxth	r1, r1
    64dc:	b29b      	uxth	r3, r3
    64de:	0412      	lsls	r2, r2, #16
    64e0:	d500      	bpl.n	64e4 <bloomFilterAddressCheck+0xc4c>
    64e2:	e1eb      	b.n	68bc <bloomFilterAddressCheck+0x1024>
    64e4:	4aaf      	ldr	r2, [pc, #700]	; (67a4 <bloomFilterAddressCheck+0xf0c>)
    64e6:	b299      	uxth	r1, r3
    64e8:	0049      	lsls	r1, r1, #1
    64ea:	4051      	eors	r1, r2
    64ec:	005a      	lsls	r2, r3, #1
    64ee:	b289      	uxth	r1, r1
    64f0:	b292      	uxth	r2, r2
    64f2:	041b      	lsls	r3, r3, #16
    64f4:	d500      	bpl.n	64f8 <bloomFilterAddressCheck+0xc60>
    64f6:	e1df      	b.n	68b8 <bloomFilterAddressCheck+0x1020>
    64f8:	b293      	uxth	r3, r2
    64fa:	4caa      	ldr	r4, [pc, #680]	; (67a4 <bloomFilterAddressCheck+0xf0c>)
    64fc:	005b      	lsls	r3, r3, #1
    64fe:	405c      	eors	r4, r3
    6500:	b2a1      	uxth	r1, r4
    6502:	0054      	lsls	r4, r2, #1
    6504:	b2a4      	uxth	r4, r4
    6506:	0413      	lsls	r3, r2, #16
    6508:	d500      	bpl.n	650c <bloomFilterAddressCheck+0xc74>
    650a:	e149      	b.n	67a0 <bloomFilterAddressCheck+0xf08>
    650c:	b223      	sxth	r3, r4
    650e:	b2a2      	uxth	r2, r4
    6510:	469b      	mov	fp, r3
    6512:	4ba4      	ldr	r3, [pc, #656]	; (67a4 <bloomFilterAddressCheck+0xf0c>)
    6514:	0052      	lsls	r2, r2, #1
    6516:	4053      	eors	r3, r2
    6518:	00f5      	lsls	r5, r6, #3
    651a:	b29b      	uxth	r3, r3
    651c:	0064      	lsls	r4, r4, #1
    651e:	3d01      	subs	r5, #1
    6520:	4698      	mov	r8, r3
    6522:	b2a4      	uxth	r4, r4
    6524:	b2ed      	uxtb	r5, r5
    6526:	2f00      	cmp	r7, #0
    6528:	da00      	bge.n	652c <bloomFilterAddressCheck+0xc94>
    652a:	e136      	b.n	679a <bloomFilterAddressCheck+0xf02>
    652c:	4648      	mov	r0, r9
    652e:	4b9e      	ldr	r3, [pc, #632]	; (67a8 <bloomFilterAddressCheck+0xf10>)
    6530:	b280      	uxth	r0, r0
    6532:	0029      	movs	r1, r5
    6534:	469a      	mov	sl, r3
    6536:	4798      	blx	r3
    6538:	465b      	mov	r3, fp
    653a:	4689      	mov	r9, r1
    653c:	2b00      	cmp	r3, #0
    653e:	da00      	bge.n	6542 <bloomFilterAddressCheck+0xcaa>
    6540:	e129      	b.n	6796 <bloomFilterAddressCheck+0xefe>
    6542:	b2a0      	uxth	r0, r4
    6544:	0029      	movs	r1, r5
    6546:	47d0      	blx	sl
    6548:	b2cb      	uxtb	r3, r1
    654a:	08db      	lsrs	r3, r3, #3
    654c:	9f03      	ldr	r7, [sp, #12]
    654e:	3301      	adds	r3, #1
    6550:	1af3      	subs	r3, r6, r3
    6552:	466a      	mov	r2, sp
    6554:	5cf8      	ldrb	r0, [r7, r3]
    6556:	464b      	mov	r3, r9
    6558:	7113      	strb	r3, [r2, #4]
    655a:	7913      	ldrb	r3, [r2, #4]
    655c:	2201      	movs	r2, #1
    655e:	08db      	lsrs	r3, r3, #3
    6560:	3301      	adds	r3, #1
    6562:	1af6      	subs	r6, r6, r3
    6564:	2407      	movs	r4, #7
    6566:	464b      	mov	r3, r9
    6568:	0015      	movs	r5, r2
    656a:	4023      	ands	r3, r4
    656c:	409d      	lsls	r5, r3
    656e:	5dbb      	ldrb	r3, [r7, r6]
    6570:	421d      	tst	r5, r3
    6572:	d006      	beq.n	6582 <bloomFilterAddressCheck+0xcea>
    6574:	4021      	ands	r1, r4
    6576:	408a      	lsls	r2, r1
    6578:	4002      	ands	r2, r0
    657a:	1e50      	subs	r0, r2, #1
    657c:	4182      	sbcs	r2, r0
    657e:	b2d3      	uxtb	r3, r2
    6580:	9300      	str	r3, [sp, #0]
    6582:	9800      	ldr	r0, [sp, #0]
    6584:	b007      	add	sp, #28
    6586:	bc3c      	pop	{r2, r3, r4, r5}
    6588:	4690      	mov	r8, r2
    658a:	4699      	mov	r9, r3
    658c:	46a2      	mov	sl, r4
    658e:	46ab      	mov	fp, r5
    6590:	bdf0      	pop	{r4, r5, r6, r7, pc}
    6592:	1c1a      	adds	r2, r3, #0
    6594:	e4ef      	b.n	5f76 <bloomFilterAddressCheck+0x6de>
    6596:	1c08      	adds	r0, r1, #0
    6598:	f7ff f9a2 	bl	58e0 <bloomFilterAddressCheck+0x48>
    659c:	1c0c      	adds	r4, r1, #0
    659e:	b2a0      	uxth	r0, r4
    65a0:	4982      	ldr	r1, [pc, #520]	; (67ac <bloomFilterAddressCheck+0xf14>)
    65a2:	0040      	lsls	r0, r0, #1
    65a4:	4041      	eors	r1, r0
    65a6:	b289      	uxth	r1, r1
    65a8:	0060      	lsls	r0, r4, #1
    65aa:	0423      	lsls	r3, r4, #16
    65ac:	d401      	bmi.n	65b2 <bloomFilterAddressCheck+0xd1a>
    65ae:	f7ff f9ac 	bl	590a <bloomFilterAddressCheck+0x72>
    65b2:	1c08      	adds	r0, r1, #0
    65b4:	b284      	uxth	r4, r0
    65b6:	497d      	ldr	r1, [pc, #500]	; (67ac <bloomFilterAddressCheck+0xf14>)
    65b8:	0064      	lsls	r4, r4, #1
    65ba:	4061      	eors	r1, r4
    65bc:	b289      	uxth	r1, r1
    65be:	0044      	lsls	r4, r0, #1
    65c0:	0403      	lsls	r3, r0, #16
    65c2:	d401      	bmi.n	65c8 <bloomFilterAddressCheck+0xd30>
    65c4:	f7ff f9ab 	bl	591e <bloomFilterAddressCheck+0x86>
    65c8:	1c0c      	adds	r4, r1, #0
    65ca:	b2a0      	uxth	r0, r4
    65cc:	4977      	ldr	r1, [pc, #476]	; (67ac <bloomFilterAddressCheck+0xf14>)
    65ce:	0040      	lsls	r0, r0, #1
    65d0:	4041      	eors	r1, r0
    65d2:	b289      	uxth	r1, r1
    65d4:	0060      	lsls	r0, r4, #1
    65d6:	0423      	lsls	r3, r4, #16
    65d8:	d401      	bmi.n	65de <bloomFilterAddressCheck+0xd46>
    65da:	f7ff f9aa 	bl	5932 <bloomFilterAddressCheck+0x9a>
    65de:	1c08      	adds	r0, r1, #0
    65e0:	b284      	uxth	r4, r0
    65e2:	4972      	ldr	r1, [pc, #456]	; (67ac <bloomFilterAddressCheck+0xf14>)
    65e4:	0064      	lsls	r4, r4, #1
    65e6:	4061      	eors	r1, r4
    65e8:	b289      	uxth	r1, r1
    65ea:	0044      	lsls	r4, r0, #1
    65ec:	0403      	lsls	r3, r0, #16
    65ee:	d401      	bmi.n	65f4 <bloomFilterAddressCheck+0xd5c>
    65f0:	f7ff f9a9 	bl	5946 <bloomFilterAddressCheck+0xae>
    65f4:	1c0c      	adds	r4, r1, #0
    65f6:	b2a0      	uxth	r0, r4
    65f8:	496c      	ldr	r1, [pc, #432]	; (67ac <bloomFilterAddressCheck+0xf14>)
    65fa:	0040      	lsls	r0, r0, #1
    65fc:	4041      	eors	r1, r0
    65fe:	b289      	uxth	r1, r1
    6600:	0060      	lsls	r0, r4, #1
    6602:	0423      	lsls	r3, r4, #16
    6604:	d401      	bmi.n	660a <bloomFilterAddressCheck+0xd72>
    6606:	f7ff f9a8 	bl	595a <bloomFilterAddressCheck+0xc2>
    660a:	1c08      	adds	r0, r1, #0
    660c:	f7ff f9a5 	bl	595a <bloomFilterAddressCheck+0xc2>
    6610:	1c0d      	adds	r5, r1, #0
    6612:	f7ff f9af 	bl	5974 <bloomFilterAddressCheck+0xdc>
    6616:	1c01      	adds	r1, r0, #0
    6618:	b28d      	uxth	r5, r1
    661a:	4864      	ldr	r0, [pc, #400]	; (67ac <bloomFilterAddressCheck+0xf14>)
    661c:	006d      	lsls	r5, r5, #1
    661e:	4045      	eors	r5, r0
    6620:	b2ad      	uxth	r5, r5
    6622:	0048      	lsls	r0, r1, #1
    6624:	040b      	lsls	r3, r1, #16
    6626:	d401      	bmi.n	662c <bloomFilterAddressCheck+0xd94>
    6628:	f7ff f9b9 	bl	599e <bloomFilterAddressCheck+0x106>
    662c:	1c28      	adds	r0, r5, #0
    662e:	b285      	uxth	r5, r0
    6630:	495e      	ldr	r1, [pc, #376]	; (67ac <bloomFilterAddressCheck+0xf14>)
    6632:	006d      	lsls	r5, r5, #1
    6634:	4069      	eors	r1, r5
    6636:	b289      	uxth	r1, r1
    6638:	0045      	lsls	r5, r0, #1
    663a:	0403      	lsls	r3, r0, #16
    663c:	d401      	bmi.n	6642 <bloomFilterAddressCheck+0xdaa>
    663e:	f7ff f9b8 	bl	59b2 <bloomFilterAddressCheck+0x11a>
    6642:	1c0d      	adds	r5, r1, #0
    6644:	b2a8      	uxth	r0, r5
    6646:	4959      	ldr	r1, [pc, #356]	; (67ac <bloomFilterAddressCheck+0xf14>)
    6648:	0040      	lsls	r0, r0, #1
    664a:	4041      	eors	r1, r0
    664c:	b289      	uxth	r1, r1
    664e:	0068      	lsls	r0, r5, #1
    6650:	042b      	lsls	r3, r5, #16
    6652:	d401      	bmi.n	6658 <bloomFilterAddressCheck+0xdc0>
    6654:	f7ff f9b7 	bl	59c6 <bloomFilterAddressCheck+0x12e>
    6658:	1c08      	adds	r0, r1, #0
    665a:	b285      	uxth	r5, r0
    665c:	4953      	ldr	r1, [pc, #332]	; (67ac <bloomFilterAddressCheck+0xf14>)
    665e:	006d      	lsls	r5, r5, #1
    6660:	4069      	eors	r1, r5
    6662:	b289      	uxth	r1, r1
    6664:	0045      	lsls	r5, r0, #1
    6666:	0403      	lsls	r3, r0, #16
    6668:	d401      	bmi.n	666e <bloomFilterAddressCheck+0xdd6>
    666a:	f7ff f9b6 	bl	59da <bloomFilterAddressCheck+0x142>
    666e:	1c0d      	adds	r5, r1, #0
    6670:	b2a8      	uxth	r0, r5
    6672:	494e      	ldr	r1, [pc, #312]	; (67ac <bloomFilterAddressCheck+0xf14>)
    6674:	0040      	lsls	r0, r0, #1
    6676:	4041      	eors	r1, r0
    6678:	b289      	uxth	r1, r1
    667a:	0068      	lsls	r0, r5, #1
    667c:	042b      	lsls	r3, r5, #16
    667e:	d401      	bmi.n	6684 <bloomFilterAddressCheck+0xdec>
    6680:	f7ff f9b5 	bl	59ee <bloomFilterAddressCheck+0x156>
    6684:	1c08      	adds	r0, r1, #0
    6686:	b285      	uxth	r5, r0
    6688:	4948      	ldr	r1, [pc, #288]	; (67ac <bloomFilterAddressCheck+0xf14>)
    668a:	006d      	lsls	r5, r5, #1
    668c:	4069      	eors	r1, r5
    668e:	b289      	uxth	r1, r1
    6690:	0045      	lsls	r5, r0, #1
    6692:	0403      	lsls	r3, r0, #16
    6694:	d401      	bmi.n	669a <bloomFilterAddressCheck+0xe02>
    6696:	f7ff f9b4 	bl	5a02 <bloomFilterAddressCheck+0x16a>
    669a:	1c0d      	adds	r5, r1, #0
    669c:	f7ff f9b1 	bl	5a02 <bloomFilterAddressCheck+0x16a>
    66a0:	4689      	mov	r9, r1
    66a2:	f7ff f9bc 	bl	5a1e <bloomFilterAddressCheck+0x186>
    66a6:	4651      	mov	r1, sl
    66a8:	f7ff f9c9 	bl	5a3e <bloomFilterAddressCheck+0x1a6>
    66ac:	464d      	mov	r5, r9
    66ae:	f7ff f9d3 	bl	5a58 <bloomFilterAddressCheck+0x1c0>
    66b2:	4689      	mov	r9, r1
    66b4:	f7ff f9dd 	bl	5a72 <bloomFilterAddressCheck+0x1da>
    66b8:	1c0d      	adds	r5, r1, #0
    66ba:	f7ff f9e9 	bl	5a90 <bloomFilterAddressCheck+0x1f8>
    66be:	4689      	mov	r9, r1
    66c0:	f7ff f9f3 	bl	5aaa <bloomFilterAddressCheck+0x212>
    66c4:	1c0d      	adds	r5, r1, #0
    66c6:	f7ff f9ff 	bl	5ac8 <bloomFilterAddressCheck+0x230>
    66ca:	468a      	mov	sl, r1
    66cc:	f7ff fa09 	bl	5ae2 <bloomFilterAddressCheck+0x24a>
    66d0:	464d      	mov	r5, r9
    66d2:	f7ff fa19 	bl	5b08 <bloomFilterAddressCheck+0x270>
    66d6:	4655      	mov	r5, sl
    66d8:	f7ff fa26 	bl	5b28 <bloomFilterAddressCheck+0x290>
    66dc:	46d1      	mov	r9, sl
    66de:	f7ff fa36 	bl	5b4e <bloomFilterAddressCheck+0x2b6>
    66e2:	46aa      	mov	sl, r5
    66e4:	f7ff fa43 	bl	5b6e <bloomFilterAddressCheck+0x2d6>
    66e8:	46a9      	mov	r9, r5
    66ea:	f7ff fa50 	bl	5b8e <bloomFilterAddressCheck+0x2f6>
    66ee:	46aa      	mov	sl, r5
    66f0:	f7ff fa5d 	bl	5bae <bloomFilterAddressCheck+0x316>
    66f4:	46a9      	mov	r9, r5
    66f6:	f7ff fa6a 	bl	5bce <bloomFilterAddressCheck+0x336>
    66fa:	46aa      	mov	sl, r5
    66fc:	f7ff fa77 	bl	5bee <bloomFilterAddressCheck+0x356>
    6700:	464d      	mov	r5, r9
    6702:	f7ff fa87 	bl	5c14 <bloomFilterAddressCheck+0x37c>
    6706:	4655      	mov	r5, sl
    6708:	f7ff fa99 	bl	5c3e <bloomFilterAddressCheck+0x3a6>
    670c:	46d1      	mov	r9, sl
    670e:	f7ff faa7 	bl	5c60 <bloomFilterAddressCheck+0x3c8>
    6712:	46aa      	mov	sl, r5
    6714:	f7ff faba 	bl	5c8c <bloomFilterAddressCheck+0x3f4>
    6718:	46a9      	mov	r9, r5
    671a:	f7ff fac7 	bl	5cac <bloomFilterAddressCheck+0x414>
    671e:	46aa      	mov	sl, r5
    6720:	f7ff fad4 	bl	5ccc <bloomFilterAddressCheck+0x434>
    6724:	46a9      	mov	r9, r5
    6726:	f7ff fae1 	bl	5cec <bloomFilterAddressCheck+0x454>
    672a:	46aa      	mov	sl, r5
    672c:	f7ff faee 	bl	5d0c <bloomFilterAddressCheck+0x474>
    6730:	464d      	mov	r5, r9
    6732:	f7ff fafe 	bl	5d32 <bloomFilterAddressCheck+0x49a>
    6736:	4655      	mov	r5, sl
    6738:	f7ff fb10 	bl	5d5c <bloomFilterAddressCheck+0x4c4>
    673c:	46d1      	mov	r9, sl
    673e:	f7ff fb1e 	bl	5d7e <bloomFilterAddressCheck+0x4e6>
    6742:	46aa      	mov	sl, r5
    6744:	f7ff fb2b 	bl	5d9e <bloomFilterAddressCheck+0x506>
    6748:	46a9      	mov	r9, r5
    674a:	f7ff fb38 	bl	5dbe <bloomFilterAddressCheck+0x526>
    674e:	46aa      	mov	sl, r5
    6750:	f7ff fb45 	bl	5dde <bloomFilterAddressCheck+0x546>
    6754:	46a9      	mov	r9, r5
    6756:	f7ff fb52 	bl	5dfe <bloomFilterAddressCheck+0x566>
    675a:	46aa      	mov	sl, r5
    675c:	f7ff fb5f 	bl	5e1e <bloomFilterAddressCheck+0x586>
    6760:	464d      	mov	r5, r9
    6762:	f7ff fb6f 	bl	5e44 <bloomFilterAddressCheck+0x5ac>
    6766:	4655      	mov	r5, sl
    6768:	f7ff fb81 	bl	5e6e <bloomFilterAddressCheck+0x5d6>
    676c:	46ca      	mov	sl, r9
    676e:	f7ff fb8f 	bl	5e90 <bloomFilterAddressCheck+0x5f8>
    6772:	46a9      	mov	r9, r5
    6774:	f7ff fb9c 	bl	5eb0 <bloomFilterAddressCheck+0x618>
    6778:	46aa      	mov	sl, r5
    677a:	f7ff fba9 	bl	5ed0 <bloomFilterAddressCheck+0x638>
    677e:	46a9      	mov	r9, r5
    6780:	f7ff fbb6 	bl	5ef0 <bloomFilterAddressCheck+0x658>
    6784:	46aa      	mov	sl, r5
    6786:	f7ff fbc3 	bl	5f10 <bloomFilterAddressCheck+0x678>
    678a:	46a9      	mov	r9, r5
    678c:	f7ff fbd0 	bl	5f30 <bloomFilterAddressCheck+0x698>
    6790:	1c2a      	adds	r2, r5, #0
    6792:	f7ff fbdf 	bl	5f54 <bloomFilterAddressCheck+0x6bc>
    6796:	4644      	mov	r4, r8
    6798:	e6d3      	b.n	6542 <bloomFilterAddressCheck+0xcaa>
    679a:	466b      	mov	r3, sp
    679c:	8a98      	ldrh	r0, [r3, #20]
    679e:	e6c6      	b.n	652e <bloomFilterAddressCheck+0xc96>
    67a0:	1c0c      	adds	r4, r1, #0
    67a2:	e6b3      	b.n	650c <bloomFilterAddressCheck+0xc74>
    67a4:	ffff8005 	.word	0xffff8005
    67a8:	00009519 	.word	0x00009519
    67ac:	00001021 	.word	0x00001021
    67b0:	1c19      	adds	r1, r3, #0
    67b2:	b28a      	uxth	r2, r1
    67b4:	4b52      	ldr	r3, [pc, #328]	; (6900 <bloomFilterAddressCheck+0x1068>)
    67b6:	0052      	lsls	r2, r2, #1
    67b8:	4053      	eors	r3, r2
    67ba:	b29b      	uxth	r3, r3
    67bc:	004a      	lsls	r2, r1, #1
    67be:	0409      	lsls	r1, r1, #16
    67c0:	d400      	bmi.n	67c4 <bloomFilterAddressCheck+0xf2c>
    67c2:	e5bb      	b.n	633c <bloomFilterAddressCheck+0xaa4>
    67c4:	1c1a      	adds	r2, r3, #0
    67c6:	b291      	uxth	r1, r2
    67c8:	4b4d      	ldr	r3, [pc, #308]	; (6900 <bloomFilterAddressCheck+0x1068>)
    67ca:	0049      	lsls	r1, r1, #1
    67cc:	404b      	eors	r3, r1
    67ce:	b29b      	uxth	r3, r3
    67d0:	0055      	lsls	r5, r2, #1
    67d2:	0412      	lsls	r2, r2, #16
    67d4:	d400      	bmi.n	67d8 <bloomFilterAddressCheck+0xf40>
    67d6:	e5ba      	b.n	634e <bloomFilterAddressCheck+0xab6>
    67d8:	1c1d      	adds	r5, r3, #0
    67da:	e5b8      	b.n	634e <bloomFilterAddressCheck+0xab6>
    67dc:	1c1a      	adds	r2, r3, #0
    67de:	e59b      	b.n	6318 <bloomFilterAddressCheck+0xa80>
    67e0:	1c19      	adds	r1, r3, #0
    67e2:	e590      	b.n	6306 <bloomFilterAddressCheck+0xa6e>
    67e4:	1c1a      	adds	r2, r3, #0
    67e6:	e585      	b.n	62f4 <bloomFilterAddressCheck+0xa5c>
    67e8:	1c11      	adds	r1, r2, #0
    67ea:	e57a      	b.n	62e2 <bloomFilterAddressCheck+0xa4a>
    67ec:	1c0b      	adds	r3, r1, #0
    67ee:	e56f      	b.n	62d0 <bloomFilterAddressCheck+0xa38>
    67f0:	1c1a      	adds	r2, r3, #0
    67f2:	e562      	b.n	62ba <bloomFilterAddressCheck+0xa22>
    67f4:	1c19      	adds	r1, r3, #0
    67f6:	e557      	b.n	62a8 <bloomFilterAddressCheck+0xa10>
    67f8:	1c1a      	adds	r2, r3, #0
    67fa:	e54c      	b.n	6296 <bloomFilterAddressCheck+0x9fe>
    67fc:	1c19      	adds	r1, r3, #0
    67fe:	e541      	b.n	6284 <bloomFilterAddressCheck+0x9ec>
    6800:	1c1a      	adds	r2, r3, #0
    6802:	e536      	b.n	6272 <bloomFilterAddressCheck+0x9da>
    6804:	1c19      	adds	r1, r3, #0
    6806:	e52b      	b.n	6260 <bloomFilterAddressCheck+0x9c8>
    6808:	1c0a      	adds	r2, r1, #0
    680a:	e520      	b.n	624e <bloomFilterAddressCheck+0x9b6>
    680c:	1c13      	adds	r3, r2, #0
    680e:	e515      	b.n	623c <bloomFilterAddressCheck+0x9a4>
    6810:	1c02      	adds	r2, r0, #0
    6812:	e509      	b.n	6228 <bloomFilterAddressCheck+0x990>
    6814:	1c03      	adds	r3, r0, #0
    6816:	e4fd      	b.n	6214 <bloomFilterAddressCheck+0x97c>
    6818:	1c02      	adds	r2, r0, #0
    681a:	e4f1      	b.n	6200 <bloomFilterAddressCheck+0x968>
    681c:	1c03      	adds	r3, r0, #0
    681e:	e4e5      	b.n	61ec <bloomFilterAddressCheck+0x954>
    6820:	1c02      	adds	r2, r0, #0
    6822:	e4d9      	b.n	61d8 <bloomFilterAddressCheck+0x940>
    6824:	1c03      	adds	r3, r0, #0
    6826:	e4cd      	b.n	61c4 <bloomFilterAddressCheck+0x92c>
    6828:	1c02      	adds	r2, r0, #0
    682a:	e4c1      	b.n	61b0 <bloomFilterAddressCheck+0x918>
    682c:	1c23      	adds	r3, r4, #0
    682e:	e4b5      	b.n	619c <bloomFilterAddressCheck+0x904>
    6830:	1c22      	adds	r2, r4, #0
    6832:	e4a8      	b.n	6186 <bloomFilterAddressCheck+0x8ee>
    6834:	1c23      	adds	r3, r4, #0
    6836:	e49c      	b.n	6172 <bloomFilterAddressCheck+0x8da>
    6838:	1c22      	adds	r2, r4, #0
    683a:	e490      	b.n	615e <bloomFilterAddressCheck+0x8c6>
    683c:	1c23      	adds	r3, r4, #0
    683e:	e484      	b.n	614a <bloomFilterAddressCheck+0x8b2>
    6840:	1c22      	adds	r2, r4, #0
    6842:	e478      	b.n	6136 <bloomFilterAddressCheck+0x89e>
    6844:	1c23      	adds	r3, r4, #0
    6846:	e46c      	b.n	6122 <bloomFilterAddressCheck+0x88a>
    6848:	1c22      	adds	r2, r4, #0
    684a:	e460      	b.n	610e <bloomFilterAddressCheck+0x876>
    684c:	1c2b      	adds	r3, r5, #0
    684e:	e454      	b.n	60fa <bloomFilterAddressCheck+0x862>
    6850:	1c2a      	adds	r2, r5, #0
    6852:	e447      	b.n	60e4 <bloomFilterAddressCheck+0x84c>
    6854:	1c2b      	adds	r3, r5, #0
    6856:	e43b      	b.n	60d0 <bloomFilterAddressCheck+0x838>
    6858:	1c19      	adds	r1, r3, #0
    685a:	b28a      	uxth	r2, r1
    685c:	4b28      	ldr	r3, [pc, #160]	; (6900 <bloomFilterAddressCheck+0x1068>)
    685e:	0052      	lsls	r2, r2, #1
    6860:	4053      	eors	r3, r2
    6862:	b29b      	uxth	r3, r3
    6864:	0048      	lsls	r0, r1, #1
    6866:	040a      	lsls	r2, r1, #16
    6868:	d400      	bmi.n	686c <bloomFilterAddressCheck+0xfd4>
    686a:	e5fe      	b.n	646a <bloomFilterAddressCheck+0xbd2>
    686c:	1c18      	adds	r0, r3, #0
    686e:	b282      	uxth	r2, r0
    6870:	4b23      	ldr	r3, [pc, #140]	; (6900 <bloomFilterAddressCheck+0x1068>)
    6872:	0052      	lsls	r2, r2, #1
    6874:	4053      	eors	r3, r2
    6876:	b29b      	uxth	r3, r3
    6878:	0042      	lsls	r2, r0, #1
    687a:	0401      	lsls	r1, r0, #16
    687c:	d400      	bmi.n	6880 <bloomFilterAddressCheck+0xfe8>
    687e:	e5fd      	b.n	647c <bloomFilterAddressCheck+0xbe4>
    6880:	1c1a      	adds	r2, r3, #0
    6882:	e5fb      	b.n	647c <bloomFilterAddressCheck+0xbe4>
    6884:	1c1a      	adds	r2, r3, #0
    6886:	e5de      	b.n	6446 <bloomFilterAddressCheck+0xbae>
    6888:	1c19      	adds	r1, r3, #0
    688a:	e5d3      	b.n	6434 <bloomFilterAddressCheck+0xb9c>
    688c:	1c1a      	adds	r2, r3, #0
    688e:	e5c8      	b.n	6422 <bloomFilterAddressCheck+0xb8a>
    6890:	1c11      	adds	r1, r2, #0
    6892:	e5bd      	b.n	6410 <bloomFilterAddressCheck+0xb78>
    6894:	1c13      	adds	r3, r2, #0
    6896:	e5b2      	b.n	63fe <bloomFilterAddressCheck+0xb66>
    6898:	1c1d      	adds	r5, r3, #0
    689a:	e5a2      	b.n	63e2 <bloomFilterAddressCheck+0xb4a>
    689c:	1c1a      	adds	r2, r3, #0
    689e:	e597      	b.n	63d0 <bloomFilterAddressCheck+0xb38>
    68a0:	1c19      	adds	r1, r3, #0
    68a2:	e58c      	b.n	63be <bloomFilterAddressCheck+0xb26>
    68a4:	1c1a      	adds	r2, r3, #0
    68a6:	e581      	b.n	63ac <bloomFilterAddressCheck+0xb14>
    68a8:	1c19      	adds	r1, r3, #0
    68aa:	e576      	b.n	639a <bloomFilterAddressCheck+0xb02>
    68ac:	1c1a      	adds	r2, r3, #0
    68ae:	e56b      	b.n	6388 <bloomFilterAddressCheck+0xaf0>
    68b0:	1c11      	adds	r1, r2, #0
    68b2:	e560      	b.n	6376 <bloomFilterAddressCheck+0xade>
    68b4:	1c13      	adds	r3, r2, #0
    68b6:	e555      	b.n	6364 <bloomFilterAddressCheck+0xacc>
    68b8:	1c0a      	adds	r2, r1, #0
    68ba:	e61d      	b.n	64f8 <bloomFilterAddressCheck+0xc60>
    68bc:	1c0b      	adds	r3, r1, #0
    68be:	e611      	b.n	64e4 <bloomFilterAddressCheck+0xc4c>
    68c0:	1c0a      	adds	r2, r1, #0
    68c2:	e605      	b.n	64d0 <bloomFilterAddressCheck+0xc38>
    68c4:	1c0b      	adds	r3, r1, #0
    68c6:	e5f9      	b.n	64bc <bloomFilterAddressCheck+0xc24>
    68c8:	1c0a      	adds	r2, r1, #0
    68ca:	e5ed      	b.n	64a8 <bloomFilterAddressCheck+0xc10>
    68cc:	1c03      	adds	r3, r0, #0
    68ce:	e5e1      	b.n	6494 <bloomFilterAddressCheck+0xbfc>
    68d0:	1c2a      	adds	r2, r5, #0
    68d2:	f7ff fbf3 	bl	60bc <bloomFilterAddressCheck+0x824>
    68d6:	1c2b      	adds	r3, r5, #0
    68d8:	f7ff fbe5 	bl	60a6 <bloomFilterAddressCheck+0x80e>
    68dc:	1c2a      	adds	r2, r5, #0
    68de:	f7ff fbd7 	bl	6090 <bloomFilterAddressCheck+0x7f8>
    68e2:	1c2b      	adds	r3, r5, #0
    68e4:	f7ff fbc9 	bl	607a <bloomFilterAddressCheck+0x7e2>
    68e8:	1c2a      	adds	r2, r5, #0
    68ea:	f7ff fbbb 	bl	6064 <bloomFilterAddressCheck+0x7cc>
    68ee:	1c13      	adds	r3, r2, #0
    68f0:	f7ff fbac 	bl	604c <bloomFilterAddressCheck+0x7b4>
    68f4:	464a      	mov	r2, r9
    68f6:	f7ff fb8e 	bl	6016 <bloomFilterAddressCheck+0x77e>
    68fa:	1c2a      	adds	r2, r5, #0
    68fc:	f7ff fb4a 	bl	5f94 <bloomFilterAddressCheck+0x6fc>
    6900:	ffff8005 	.word	0xffff8005

00006904 <handleCommissiongMessage>:
    6904:	b510      	push	{r4, lr}
    6906:	780b      	ldrb	r3, [r1, #0]
    6908:	2b21      	cmp	r3, #33	; 0x21
    690a:	d105      	bne.n	6918 <handleCommissiongMessage+0x14>
    690c:	88c3      	ldrh	r3, [r0, #6]
    690e:	2b00      	cmp	r3, #0
    6910:	d102      	bne.n	6918 <handleCommissiongMessage+0x14>
    6912:	784b      	ldrb	r3, [r1, #1]
    6914:	2b08      	cmp	r3, #8
    6916:	d000      	beq.n	691a <handleCommissiongMessage+0x16>
    6918:	bd10      	pop	{r4, pc}
    691a:	3102      	adds	r1, #2
    691c:	2208      	movs	r2, #8
    691e:	4b02      	ldr	r3, [pc, #8]	; (6928 <handleCommissiongMessage+0x24>)
    6920:	4802      	ldr	r0, [pc, #8]	; (692c <handleCommissiongMessage+0x28>)
    6922:	4798      	blx	r3
    6924:	e7f8      	b.n	6918 <handleCommissiongMessage+0x14>
    6926:	46c0      	nop			; (mov r8, r8)
    6928:	000095df 	.word	0x000095df
    692c:	200020d8 	.word	0x200020d8

00006930 <MiApp_SubscribeDataIndicationCallback>:
    6930:	2800      	cmp	r0, #0
    6932:	d003      	beq.n	693c <MiApp_SubscribeDataIndicationCallback+0xc>
    6934:	4b02      	ldr	r3, [pc, #8]	; (6940 <MiApp_SubscribeDataIndicationCallback+0x10>)
    6936:	6018      	str	r0, [r3, #0]
    6938:	2001      	movs	r0, #1
    693a:	4770      	bx	lr
    693c:	2000      	movs	r0, #0
    693e:	e7fc      	b.n	693a <MiApp_SubscribeDataIndicationCallback+0xa>
    6940:	200003b4 	.word	0x200003b4

00006944 <prepareGenericHeader>:
    6944:	b510      	push	{r4, lr}
    6946:	2403      	movs	r4, #3
    6948:	7018      	strb	r0, [r3, #0]
    694a:	7858      	ldrb	r0, [r3, #1]
    694c:	809a      	strh	r2, [r3, #4]
    694e:	43a0      	bics	r0, r4
    6950:	2401      	movs	r4, #1
    6952:	4304      	orrs	r4, r0
    6954:	20f7      	movs	r0, #247	; 0xf7
    6956:	4020      	ands	r0, r4
    6958:	2404      	movs	r4, #4
    695a:	4320      	orrs	r0, r4
    695c:	2447      	movs	r4, #71	; 0x47
    695e:	4020      	ands	r0, r4
    6960:	7058      	strb	r0, [r3, #1]
    6962:	4802      	ldr	r0, [pc, #8]	; (696c <prepareGenericHeader+0x28>)
    6964:	80d9      	strh	r1, [r3, #6]
    6966:	8800      	ldrh	r0, [r0, #0]
    6968:	8058      	strh	r0, [r3, #2]
    696a:	bd10      	pop	{r4, pc}
    696c:	20002094 	.word	0x20002094

00006970 <generalFrameConstruct>:
    6970:	b5f8      	push	{r3, r4, r5, r6, r7, lr}
    6972:	000c      	movs	r4, r1
    6974:	7802      	ldrb	r2, [r0, #0]
    6976:	0003      	movs	r3, r0
    6978:	700a      	strb	r2, [r1, #0]
    697a:	7842      	ldrb	r2, [r0, #1]
    697c:	704a      	strb	r2, [r1, #1]
    697e:	491d      	ldr	r1, [pc, #116]	; (69f4 <generalFrameConstruct+0x84>)
    6980:	780a      	ldrb	r2, [r1, #0]
    6982:	3201      	adds	r2, #1
    6984:	b2d2      	uxtb	r2, r2
    6986:	70a2      	strb	r2, [r4, #2]
    6988:	700a      	strb	r2, [r1, #0]
    698a:	7842      	ldrb	r2, [r0, #1]
    698c:	0691      	lsls	r1, r2, #26
    698e:	d42b      	bmi.n	69e8 <generalFrameConstruct+0x78>
    6990:	8842      	ldrh	r2, [r0, #2]
    6992:	2516      	movs	r5, #22
    6994:	70e2      	strb	r2, [r4, #3]
    6996:	8842      	ldrh	r2, [r0, #2]
    6998:	260e      	movs	r6, #14
    699a:	0a12      	lsrs	r2, r2, #8
    699c:	7122      	strb	r2, [r4, #4]
    699e:	8882      	ldrh	r2, [r0, #4]
    69a0:	210a      	movs	r1, #10
    69a2:	7162      	strb	r2, [r4, #5]
    69a4:	8882      	ldrh	r2, [r0, #4]
    69a6:	2709      	movs	r7, #9
    69a8:	0a12      	lsrs	r2, r2, #8
    69aa:	71a2      	strb	r2, [r4, #6]
    69ac:	88c2      	ldrh	r2, [r0, #6]
    69ae:	71e2      	strb	r2, [r4, #7]
    69b0:	88c2      	ldrh	r2, [r0, #6]
    69b2:	0a12      	lsrs	r2, r2, #8
    69b4:	7222      	strb	r2, [r4, #8]
    69b6:	7842      	ldrb	r2, [r0, #1]
    69b8:	2009      	movs	r0, #9
    69ba:	0752      	lsls	r2, r2, #29
    69bc:	d513      	bpl.n	69e6 <generalFrameConstruct+0x76>
    69be:	4a0e      	ldr	r2, [pc, #56]	; (69f8 <generalFrameConstruct+0x88>)
    69c0:	6810      	ldr	r0, [r2, #0]
    69c2:	2220      	movs	r2, #32
    69c4:	5c82      	ldrb	r2, [r0, r2]
    69c6:	480d      	ldr	r0, [pc, #52]	; (69fc <generalFrameConstruct+0x8c>)
    69c8:	741a      	strb	r2, [r3, #16]
    69ca:	6800      	ldr	r0, [r0, #0]
    69cc:	3314      	adds	r3, #20
    69ce:	6018      	str	r0, [r3, #0]
    69d0:	55e2      	strb	r2, [r4, r7]
    69d2:	1860      	adds	r0, r4, r1
    69d4:	2204      	movs	r2, #4
    69d6:	0019      	movs	r1, r3
    69d8:	4f09      	ldr	r7, [pc, #36]	; (6a00 <generalFrameConstruct+0x90>)
    69da:	47b8      	blx	r7
    69dc:	19a0      	adds	r0, r4, r6
    69de:	2208      	movs	r2, #8
    69e0:	4908      	ldr	r1, [pc, #32]	; (6a04 <generalFrameConstruct+0x94>)
    69e2:	47b8      	blx	r7
    69e4:	0028      	movs	r0, r5
    69e6:	bdf8      	pop	{r3, r4, r5, r6, r7, pc}
    69e8:	2510      	movs	r5, #16
    69ea:	2608      	movs	r6, #8
    69ec:	2104      	movs	r1, #4
    69ee:	2703      	movs	r7, #3
    69f0:	2003      	movs	r0, #3
    69f2:	e7e2      	b.n	69ba <generalFrameConstruct+0x4a>
    69f4:	2000207c 	.word	0x2000207c
    69f8:	20002064 	.word	0x20002064
    69fc:	200020f0 	.word	0x200020f0
    6a00:	000095df 	.word	0x000095df
    6a04:	20000070 	.word	0x20000070

00006a08 <frameTransmit>:
    6a08:	b5f0      	push	{r4, r5, r6, r7, lr}
    6a0a:	4657      	mov	r7, sl
    6a0c:	464e      	mov	r6, r9
    6a0e:	46de      	mov	lr, fp
    6a10:	4645      	mov	r5, r8
    6a12:	b5e0      	push	{r5, r6, r7, lr}
    6a14:	b085      	sub	sp, #20
    6a16:	4699      	mov	r9, r3
    6a18:	ab0e      	add	r3, sp, #56	; 0x38
    6a1a:	781e      	ldrb	r6, [r3, #0]
    6a1c:	ab10      	add	r3, sp, #64	; 0x40
    6a1e:	781b      	ldrb	r3, [r3, #0]
    6a20:	0007      	movs	r7, r0
    6a22:	469a      	mov	sl, r3
    6a24:	2028      	movs	r0, #40	; 0x28
    6a26:	4b45      	ldr	r3, [pc, #276]	; (6b3c <frameTransmit+0x134>)
    6a28:	4688      	mov	r8, r1
    6a2a:	9203      	str	r2, [sp, #12]
    6a2c:	4798      	blx	r3
    6a2e:	1e04      	subs	r4, r0, #0
    6a30:	d100      	bne.n	6a34 <frameTransmit+0x2c>
    6a32:	e081      	b.n	6b38 <frameTransmit+0x130>
    6a34:	2300      	movs	r3, #0
    6a36:	7603      	strb	r3, [r0, #24]
    6a38:	787b      	ldrb	r3, [r7, #1]
    6a3a:	075b      	lsls	r3, r3, #29
    6a3c:	d45b      	bmi.n	6af6 <frameTransmit+0xee>
    6a3e:	9b0f      	ldr	r3, [sp, #60]	; 0x3c
    6a40:	781a      	ldrb	r2, [r3, #0]
    6a42:	785b      	ldrb	r3, [r3, #1]
    6a44:	2e02      	cmp	r6, #2
    6a46:	d06b      	beq.n	6b20 <frameTransmit+0x118>
    6a48:	2101      	movs	r1, #1
    6a4a:	2200      	movs	r2, #0
    6a4c:	2020      	movs	r0, #32
    6a4e:	7e23      	ldrb	r3, [r4, #24]
    6a50:	0149      	lsls	r1, r1, #5
    6a52:	4383      	bics	r3, r0
    6a54:	430b      	orrs	r3, r1
    6a56:	2104      	movs	r1, #4
    6a58:	0092      	lsls	r2, r2, #2
    6a5a:	438b      	bics	r3, r1
    6a5c:	4313      	orrs	r3, r2
    6a5e:	2208      	movs	r2, #8
    6a60:	4393      	bics	r3, r2
    6a62:	7623      	strb	r3, [r4, #24]
    6a64:	4b36      	ldr	r3, [pc, #216]	; (6b40 <frameTransmit+0x138>)
    6a66:	881a      	ldrh	r2, [r3, #0]
    6a68:	4b36      	ldr	r3, [pc, #216]	; (6b44 <frameTransmit+0x13c>)
    6a6a:	429a      	cmp	r2, r3
    6a6c:	d062      	beq.n	6b34 <frameTransmit+0x12c>
    6a6e:	787a      	ldrb	r2, [r7, #1]
    6a70:	2301      	movs	r3, #1
    6a72:	4211      	tst	r1, r2
    6a74:	d136      	bne.n	6ae4 <frameTransmit+0xdc>
    6a76:	2221      	movs	r2, #33	; 0x21
    6a78:	54a3      	strb	r3, [r4, r2]
    6a7a:	1eb3      	subs	r3, r6, #2
    6a7c:	425a      	negs	r2, r3
    6a7e:	4153      	adcs	r3, r2
    6a80:	2220      	movs	r2, #32
    6a82:	2101      	movs	r1, #1
    6a84:	54a3      	strb	r3, [r4, r2]
    6a86:	7e23      	ldrb	r3, [r4, #24]
    6a88:	089a      	lsrs	r2, r3, #2
    6a8a:	4051      	eors	r1, r2
    6a8c:	2201      	movs	r2, #1
    6a8e:	400a      	ands	r2, r1
    6a90:	2140      	movs	r1, #64	; 0x40
    6a92:	0192      	lsls	r2, r2, #6
    6a94:	438b      	bics	r3, r1
    6a96:	4313      	orrs	r3, r2
    6a98:	2280      	movs	r2, #128	; 0x80
    6a9a:	4252      	negs	r2, r2
    6a9c:	4313      	orrs	r3, r2
    6a9e:	7623      	strb	r3, [r4, #24]
    6aa0:	887b      	ldrh	r3, [r7, #2]
    6aa2:	0027      	movs	r7, r4
    6aa4:	8463      	strh	r3, [r4, #34]	; 0x22
    6aa6:	464b      	mov	r3, r9
    6aa8:	3708      	adds	r7, #8
    6aaa:	6163      	str	r3, [r4, #20]
    6aac:	0032      	movs	r2, r6
    6aae:	990f      	ldr	r1, [sp, #60]	; 0x3c
    6ab0:	4b25      	ldr	r3, [pc, #148]	; (6b48 <frameTransmit+0x140>)
    6ab2:	0038      	movs	r0, r7
    6ab4:	4798      	blx	r3
    6ab6:	9b11      	ldr	r3, [sp, #68]	; 0x44
    6ab8:	4652      	mov	r2, sl
    6aba:	6123      	str	r3, [r4, #16]
    6abc:	2325      	movs	r3, #37	; 0x25
    6abe:	61e7      	str	r7, [r4, #28]
    6ac0:	54e2      	strb	r2, [r4, r3]
    6ac2:	9b03      	ldr	r3, [sp, #12]
    6ac4:	4821      	ldr	r0, [pc, #132]	; (6b4c <frameTransmit+0x144>)
    6ac6:	4443      	add	r3, r8
    6ac8:	001d      	movs	r5, r3
    6aca:	2324      	movs	r3, #36	; 0x24
    6acc:	0021      	movs	r1, r4
    6ace:	54e5      	strb	r5, [r4, r3]
    6ad0:	4b1f      	ldr	r3, [pc, #124]	; (6b50 <frameTransmit+0x148>)
    6ad2:	4798      	blx	r3
    6ad4:	2001      	movs	r0, #1
    6ad6:	b005      	add	sp, #20
    6ad8:	bc3c      	pop	{r2, r3, r4, r5}
    6ada:	4690      	mov	r8, r2
    6adc:	4699      	mov	r9, r3
    6ade:	46a2      	mov	sl, r4
    6ae0:	46ab      	mov	fp, r5
    6ae2:	bdf0      	pop	{r4, r5, r6, r7, pc}
    6ae4:	2100      	movs	r1, #0
    6ae6:	4a1b      	ldr	r2, [pc, #108]	; (6b54 <frameTransmit+0x14c>)
    6ae8:	7812      	ldrb	r2, [r2, #0]
    6aea:	3a06      	subs	r2, #6
    6aec:	b2d2      	uxtb	r2, r2
    6aee:	4293      	cmp	r3, r2
    6af0:	4149      	adcs	r1, r1
    6af2:	b2cb      	uxtb	r3, r1
    6af4:	e7bf      	b.n	6a76 <frameTransmit+0x6e>
    6af6:	4b18      	ldr	r3, [pc, #96]	; (6b58 <frameTransmit+0x150>)
    6af8:	0030      	movs	r0, r6
    6afa:	4798      	blx	r3
    6afc:	464b      	mov	r3, r9
    6afe:	9000      	str	r0, [sp, #0]
    6b00:	9a03      	ldr	r2, [sp, #12]
    6b02:	4641      	mov	r1, r8
    6b04:	0038      	movs	r0, r7
    6b06:	4d15      	ldr	r5, [pc, #84]	; (6b5c <frameTransmit+0x154>)
    6b08:	47a8      	blx	r5
    6b0a:	28ff      	cmp	r0, #255	; 0xff
    6b0c:	d014      	beq.n	6b38 <frameTransmit+0x130>
    6b0e:	9b03      	ldr	r3, [sp, #12]
    6b10:	181d      	adds	r5, r3, r0
    6b12:	b2eb      	uxtb	r3, r5
    6b14:	9303      	str	r3, [sp, #12]
    6b16:	9b0f      	ldr	r3, [sp, #60]	; 0x3c
    6b18:	781a      	ldrb	r2, [r3, #0]
    6b1a:	785b      	ldrb	r3, [r3, #1]
    6b1c:	2e02      	cmp	r6, #2
    6b1e:	d193      	bne.n	6a48 <frameTransmit+0x40>
    6b20:	021b      	lsls	r3, r3, #8
    6b22:	189b      	adds	r3, r3, r2
    6b24:	4a07      	ldr	r2, [pc, #28]	; (6b44 <frameTransmit+0x13c>)
    6b26:	b29b      	uxth	r3, r3
    6b28:	4293      	cmp	r3, r2
    6b2a:	d000      	beq.n	6b2e <frameTransmit+0x126>
    6b2c:	e78c      	b.n	6a48 <frameTransmit+0x40>
    6b2e:	2100      	movs	r1, #0
    6b30:	2201      	movs	r2, #1
    6b32:	e78b      	b.n	6a4c <frameTransmit+0x44>
    6b34:	2300      	movs	r3, #0
    6b36:	e79e      	b.n	6a76 <frameTransmit+0x6e>
    6b38:	2000      	movs	r0, #0
    6b3a:	e7cc      	b.n	6ad6 <frameTransmit+0xce>
    6b3c:	00003831 	.word	0x00003831
    6b40:	200020a8 	.word	0x200020a8
    6b44:	0000ffff 	.word	0x0000ffff
    6b48:	000095df 	.word	0x000095df
    6b4c:	2000209c 	.word	0x2000209c
    6b50:	000038e5 	.word	0x000038e5
    6b54:	2000039c 	.word	0x2000039c
    6b58:	00009055 	.word	0x00009055
    6b5c:	00009079 	.word	0x00009079

00006b60 <sendDataFrame>:
    6b60:	b5f0      	push	{r4, r5, r6, r7, lr}
    6b62:	464e      	mov	r6, r9
    6b64:	4657      	mov	r7, sl
    6b66:	4645      	mov	r5, r8
    6b68:	46de      	mov	lr, fp
    6b6a:	b5e0      	push	{r5, r6, r7, lr}
    6b6c:	b091      	sub	sp, #68	; 0x44
    6b6e:	ab04      	add	r3, sp, #16
    6b70:	469c      	mov	ip, r3
    6b72:	270e      	movs	r7, #14
    6b74:	4bc3      	ldr	r3, [pc, #780]	; (6e84 <sendDataFrame+0x324>)
    6b76:	4467      	add	r7, ip
    6b78:	4699      	mov	r9, r3
    6b7a:	881b      	ldrh	r3, [r3, #0]
    6b7c:	b28d      	uxth	r5, r1
    6b7e:	0006      	movs	r6, r0
    6b80:	9202      	str	r2, [sp, #8]
    6b82:	9703      	str	r7, [sp, #12]
    6b84:	8039      	strh	r1, [r7, #0]
    6b86:	42ab      	cmp	r3, r5
    6b88:	d100      	bne.n	6b8c <sendDataFrame+0x2c>
    6b8a:	e119      	b.n	6dc0 <sendDataFrame+0x260>
    6b8c:	2800      	cmp	r0, #0
    6b8e:	d100      	bne.n	6b92 <sendDataFrame+0x32>
    6b90:	e114      	b.n	6dbc <sendDataFrame+0x25c>
    6b92:	2078      	movs	r0, #120	; 0x78
    6b94:	4bbc      	ldr	r3, [pc, #752]	; (6e88 <sendDataFrame+0x328>)
    6b96:	4798      	blx	r3
    6b98:	4680      	mov	r8, r0
    6b9a:	2800      	cmp	r0, #0
    6b9c:	d100      	bne.n	6ba0 <sendDataFrame+0x40>
    6b9e:	e108      	b.n	6db2 <sendDataFrame+0x252>
    6ba0:	2108      	movs	r1, #8
    6ba2:	8bb2      	ldrh	r2, [r6, #28]
    6ba4:	ac08      	add	r4, sp, #32
    6ba6:	4694      	mov	ip, r2
    6ba8:	7862      	ldrb	r2, [r4, #1]
    6baa:	8bf3      	ldrh	r3, [r6, #30]
    6bac:	438a      	bics	r2, r1
    6bae:	2104      	movs	r1, #4
    6bb0:	430a      	orrs	r2, r1
    6bb2:	49b6      	ldr	r1, [pc, #728]	; (6e8c <sendDataFrame+0x32c>)
    6bb4:	80e3      	strh	r3, [r4, #6]
    6bb6:	8809      	ldrh	r1, [r1, #0]
    6bb8:	7e73      	ldrb	r3, [r6, #25]
    6bba:	8061      	strh	r1, [r4, #2]
    6bbc:	4661      	mov	r1, ip
    6bbe:	469c      	mov	ip, r3
    6bc0:	2303      	movs	r3, #3
    6bc2:	469a      	mov	sl, r3
    6bc4:	80a1      	strh	r1, [r4, #4]
    6bc6:	4663      	mov	r3, ip
    6bc8:	4651      	mov	r1, sl
    6bca:	2720      	movs	r7, #32
    6bcc:	400b      	ands	r3, r1
    6bce:	469b      	mov	fp, r3
    6bd0:	237f      	movs	r3, #127	; 0x7f
    6bd2:	b2d2      	uxtb	r2, r2
    6bd4:	43ba      	bics	r2, r7
    6bd6:	4013      	ands	r3, r2
    6bd8:	4652      	mov	r2, sl
    6bda:	438b      	bics	r3, r1
    6bdc:	4661      	mov	r1, ip
    6bde:	320d      	adds	r2, #13
    6be0:	400a      	ands	r2, r1
    6be2:	4659      	mov	r1, fp
    6be4:	430b      	orrs	r3, r1
    6be6:	2110      	movs	r1, #16
    6be8:	438b      	bics	r3, r1
    6bea:	431a      	orrs	r2, r3
    6bec:	20ff      	movs	r0, #255	; 0xff
    6bee:	4643      	mov	r3, r8
    6bf0:	7062      	strb	r2, [r4, #1]
    6bf2:	4642      	mov	r2, r8
    6bf4:	7020      	strb	r0, [r4, #0]
    6bf6:	7018      	strb	r0, [r3, #0]
    6bf8:	7863      	ldrb	r3, [r4, #1]
    6bfa:	7053      	strb	r3, [r2, #1]
    6bfc:	4ba4      	ldr	r3, [pc, #656]	; (6e90 <sendDataFrame+0x330>)
    6bfe:	469a      	mov	sl, r3
    6c00:	4652      	mov	r2, sl
    6c02:	781b      	ldrb	r3, [r3, #0]
    6c04:	3301      	adds	r3, #1
    6c06:	b2db      	uxtb	r3, r3
    6c08:	7013      	strb	r3, [r2, #0]
    6c0a:	4642      	mov	r2, r8
    6c0c:	7093      	strb	r3, [r2, #2]
    6c0e:	7863      	ldrb	r3, [r4, #1]
    6c10:	421f      	tst	r7, r3
    6c12:	d100      	bne.n	6c16 <sendDataFrame+0xb6>
    6c14:	e08e      	b.n	6d34 <sendDataFrame+0x1d4>
    6c16:	2210      	movs	r2, #16
    6c18:	2103      	movs	r1, #3
    6c1a:	0017      	movs	r7, r2
    6c1c:	9206      	str	r2, [sp, #24]
    6c1e:	3a08      	subs	r2, #8
    6c20:	4693      	mov	fp, r2
    6c22:	2003      	movs	r0, #3
    6c24:	3a04      	subs	r2, #4
    6c26:	9105      	str	r1, [sp, #20]
    6c28:	075b      	lsls	r3, r3, #29
    6c2a:	d500      	bpl.n	6c2e <sendDataFrame+0xce>
    6c2c:	e09e      	b.n	6d6c <sendDataFrame+0x20c>
    6c2e:	4b99      	ldr	r3, [pc, #612]	; (6e94 <sendDataFrame+0x334>)
    6c30:	9304      	str	r3, [sp, #16]
    6c32:	7cf3      	ldrb	r3, [r6, #19]
    6c34:	2b00      	cmp	r3, #0
    6c36:	d100      	bne.n	6c3a <sendDataFrame+0xda>
    6c38:	e0b6      	b.n	6da8 <sendDataFrame+0x248>
    6c3a:	2320      	movs	r3, #32
    6c3c:	4642      	mov	r2, r8
    6c3e:	5cf3      	ldrb	r3, [r6, r3]
    6c40:	7093      	strb	r3, [r2, #2]
    6c42:	4653      	mov	r3, sl
    6c44:	4652      	mov	r2, sl
    6c46:	781b      	ldrb	r3, [r3, #0]
    6c48:	3b01      	subs	r3, #1
    6c4a:	7013      	strb	r3, [r2, #0]
    6c4c:	2338      	movs	r3, #56	; 0x38
    6c4e:	0031      	movs	r1, r6
    6c50:	469a      	mov	sl, r3
    6c52:	5cf2      	ldrb	r2, [r6, r3]
    6c54:	4440      	add	r0, r8
    6c56:	9b04      	ldr	r3, [sp, #16]
    6c58:	3139      	adds	r1, #57	; 0x39
    6c5a:	4798      	blx	r3
    6c5c:	4653      	mov	r3, sl
    6c5e:	5cf3      	ldrb	r3, [r6, r3]
    6c60:	469b      	mov	fp, r3
    6c62:	4b8d      	ldr	r3, [pc, #564]	; (6e98 <sendDataFrame+0x338>)
    6c64:	429d      	cmp	r5, r3
    6c66:	d100      	bne.n	6c6a <sendDataFrame+0x10a>
    6c68:	e0d1      	b.n	6e0e <sendDataFrame+0x2ae>
    6c6a:	7cb3      	ldrb	r3, [r6, #18]
    6c6c:	2028      	movs	r0, #40	; 0x28
    6c6e:	469a      	mov	sl, r3
    6c70:	4b85      	ldr	r3, [pc, #532]	; (6e88 <sendDataFrame+0x328>)
    6c72:	4798      	blx	r3
    6c74:	1e05      	subs	r5, r0, #0
    6c76:	d100      	bne.n	6c7a <sendDataFrame+0x11a>
    6c78:	e09b      	b.n	6db2 <sendDataFrame+0x252>
    6c7a:	2300      	movs	r3, #0
    6c7c:	7603      	strb	r3, [r0, #24]
    6c7e:	7863      	ldrb	r3, [r4, #1]
    6c80:	075b      	lsls	r3, r3, #29
    6c82:	d500      	bpl.n	6c86 <sendDataFrame+0x126>
    6c84:	e0ae      	b.n	6de4 <sendDataFrame+0x284>
    6c86:	9b03      	ldr	r3, [sp, #12]
    6c88:	785a      	ldrb	r2, [r3, #1]
    6c8a:	781b      	ldrb	r3, [r3, #0]
    6c8c:	0212      	lsls	r2, r2, #8
    6c8e:	189b      	adds	r3, r3, r2
    6c90:	4a81      	ldr	r2, [pc, #516]	; (6e98 <sendDataFrame+0x338>)
    6c92:	b29b      	uxth	r3, r3
    6c94:	4293      	cmp	r3, r2
    6c96:	d100      	bne.n	6c9a <sendDataFrame+0x13a>
    6c98:	e0b4      	b.n	6e04 <sendDataFrame+0x2a4>
    6c9a:	2201      	movs	r2, #1
    6c9c:	2100      	movs	r1, #0
    6c9e:	2020      	movs	r0, #32
    6ca0:	7e2b      	ldrb	r3, [r5, #24]
    6ca2:	0152      	lsls	r2, r2, #5
    6ca4:	4383      	bics	r3, r0
    6ca6:	4313      	orrs	r3, r2
    6ca8:	2204      	movs	r2, #4
    6caa:	0089      	lsls	r1, r1, #2
    6cac:	4393      	bics	r3, r2
    6cae:	430b      	orrs	r3, r1
    6cb0:	2108      	movs	r1, #8
    6cb2:	438b      	bics	r3, r1
    6cb4:	762b      	strb	r3, [r5, #24]
    6cb6:	464b      	mov	r3, r9
    6cb8:	8819      	ldrh	r1, [r3, #0]
    6cba:	4b77      	ldr	r3, [pc, #476]	; (6e98 <sendDataFrame+0x338>)
    6cbc:	4299      	cmp	r1, r3
    6cbe:	d100      	bne.n	6cc2 <sendDataFrame+0x162>
    6cc0:	e0a3      	b.n	6e0a <sendDataFrame+0x2aa>
    6cc2:	7861      	ldrb	r1, [r4, #1]
    6cc4:	2301      	movs	r3, #1
    6cc6:	420a      	tst	r2, r1
    6cc8:	d000      	beq.n	6ccc <sendDataFrame+0x16c>
    6cca:	e082      	b.n	6dd2 <sendDataFrame+0x272>
    6ccc:	2221      	movs	r2, #33	; 0x21
    6cce:	54ab      	strb	r3, [r5, r2]
    6cd0:	2320      	movs	r3, #32
    6cd2:	2001      	movs	r0, #1
    6cd4:	3a20      	subs	r2, #32
    6cd6:	54ea      	strb	r2, [r5, r3]
    6cd8:	7e2b      	ldrb	r3, [r5, #24]
    6cda:	0899      	lsrs	r1, r3, #2
    6cdc:	4041      	eors	r1, r0
    6cde:	400a      	ands	r2, r1
    6ce0:	2140      	movs	r1, #64	; 0x40
    6ce2:	0192      	lsls	r2, r2, #6
    6ce4:	438b      	bics	r3, r1
    6ce6:	4313      	orrs	r3, r2
    6ce8:	2280      	movs	r2, #128	; 0x80
    6cea:	4252      	negs	r2, r2
    6cec:	4313      	orrs	r3, r2
    6cee:	762b      	strb	r3, [r5, #24]
    6cf0:	8863      	ldrh	r3, [r4, #2]
    6cf2:	002c      	movs	r4, r5
    6cf4:	846b      	strh	r3, [r5, #34]	; 0x22
    6cf6:	4643      	mov	r3, r8
    6cf8:	3408      	adds	r4, #8
    6cfa:	616b      	str	r3, [r5, #20]
    6cfc:	3282      	adds	r2, #130	; 0x82
    6cfe:	9903      	ldr	r1, [sp, #12]
    6d00:	9b04      	ldr	r3, [sp, #16]
    6d02:	0020      	movs	r0, r4
    6d04:	4798      	blx	r3
    6d06:	9b02      	ldr	r3, [sp, #8]
    6d08:	4652      	mov	r2, sl
    6d0a:	612b      	str	r3, [r5, #16]
    6d0c:	2325      	movs	r3, #37	; 0x25
    6d0e:	61ec      	str	r4, [r5, #28]
    6d10:	54ea      	strb	r2, [r5, r3]
    6d12:	9b05      	ldr	r3, [sp, #20]
    6d14:	0029      	movs	r1, r5
    6d16:	445b      	add	r3, fp
    6d18:	0018      	movs	r0, r3
    6d1a:	2324      	movs	r3, #36	; 0x24
    6d1c:	54e8      	strb	r0, [r5, r3]
    6d1e:	485f      	ldr	r0, [pc, #380]	; (6e9c <sendDataFrame+0x33c>)
    6d20:	4b5f      	ldr	r3, [pc, #380]	; (6ea0 <sendDataFrame+0x340>)
    6d22:	4798      	blx	r3
    6d24:	2001      	movs	r0, #1
    6d26:	b011      	add	sp, #68	; 0x44
    6d28:	bc3c      	pop	{r2, r3, r4, r5}
    6d2a:	4690      	mov	r8, r2
    6d2c:	4699      	mov	r9, r3
    6d2e:	46a2      	mov	sl, r4
    6d30:	46ab      	mov	fp, r5
    6d32:	bdf0      	pop	{r4, r5, r6, r7, pc}
    6d34:	4641      	mov	r1, r8
    6d36:	8862      	ldrh	r2, [r4, #2]
    6d38:	38f6      	subs	r0, #246	; 0xf6
    6d3a:	70ca      	strb	r2, [r1, #3]
    6d3c:	8862      	ldrh	r2, [r4, #2]
    6d3e:	0a12      	lsrs	r2, r2, #8
    6d40:	710a      	strb	r2, [r1, #4]
    6d42:	88a2      	ldrh	r2, [r4, #4]
    6d44:	714a      	strb	r2, [r1, #5]
    6d46:	88a2      	ldrh	r2, [r4, #4]
    6d48:	0a12      	lsrs	r2, r2, #8
    6d4a:	718a      	strb	r2, [r1, #6]
    6d4c:	88e2      	ldrh	r2, [r4, #6]
    6d4e:	71ca      	strb	r2, [r1, #7]
    6d50:	88e2      	ldrh	r2, [r4, #6]
    6d52:	0a12      	lsrs	r2, r2, #8
    6d54:	720a      	strb	r2, [r1, #8]
    6d56:	2216      	movs	r2, #22
    6d58:	2109      	movs	r1, #9
    6d5a:	0017      	movs	r7, r2
    6d5c:	9206      	str	r2, [sp, #24]
    6d5e:	3a08      	subs	r2, #8
    6d60:	4693      	mov	fp, r2
    6d62:	9105      	str	r1, [sp, #20]
    6d64:	3a04      	subs	r2, #4
    6d66:	075b      	lsls	r3, r3, #29
    6d68:	d400      	bmi.n	6d6c <sendDataFrame+0x20c>
    6d6a:	e760      	b.n	6c2e <sendDataFrame+0xce>
    6d6c:	4b4d      	ldr	r3, [pc, #308]	; (6ea4 <sendDataFrame+0x344>)
    6d6e:	4442      	add	r2, r8
    6d70:	6819      	ldr	r1, [r3, #0]
    6d72:	2320      	movs	r3, #32
    6d74:	5ccb      	ldrb	r3, [r1, r3]
    6d76:	494c      	ldr	r1, [pc, #304]	; (6ea8 <sendDataFrame+0x348>)
    6d78:	7423      	strb	r3, [r4, #16]
    6d7a:	6809      	ldr	r1, [r1, #0]
    6d7c:	6161      	str	r1, [r4, #20]
    6d7e:	4641      	mov	r1, r8
    6d80:	540b      	strb	r3, [r1, r0]
    6d82:	4b44      	ldr	r3, [pc, #272]	; (6e94 <sendDataFrame+0x334>)
    6d84:	0010      	movs	r0, r2
    6d86:	a90d      	add	r1, sp, #52	; 0x34
    6d88:	2204      	movs	r2, #4
    6d8a:	9304      	str	r3, [sp, #16]
    6d8c:	4798      	blx	r3
    6d8e:	4658      	mov	r0, fp
    6d90:	9b04      	ldr	r3, [sp, #16]
    6d92:	4440      	add	r0, r8
    6d94:	2208      	movs	r2, #8
    6d96:	4945      	ldr	r1, [pc, #276]	; (6eac <sendDataFrame+0x34c>)
    6d98:	4798      	blx	r3
    6d9a:	9b06      	ldr	r3, [sp, #24]
    6d9c:	0038      	movs	r0, r7
    6d9e:	9305      	str	r3, [sp, #20]
    6da0:	7cf3      	ldrb	r3, [r6, #19]
    6da2:	2b00      	cmp	r3, #0
    6da4:	d000      	beq.n	6da8 <sendDataFrame+0x248>
    6da6:	e748      	b.n	6c3a <sendDataFrame+0xda>
    6da8:	4643      	mov	r3, r8
    6daa:	789a      	ldrb	r2, [r3, #2]
    6dac:	2320      	movs	r3, #32
    6dae:	54f2      	strb	r2, [r6, r3]
    6db0:	e74c      	b.n	6c4c <sendDataFrame+0xec>
    6db2:	7cb0      	ldrb	r0, [r6, #18]
    6db4:	0032      	movs	r2, r6
    6db6:	2101      	movs	r1, #1
    6db8:	9b02      	ldr	r3, [sp, #8]
    6dba:	4798      	blx	r3
    6dbc:	2000      	movs	r0, #0
    6dbe:	e7b2      	b.n	6d26 <sendDataFrame+0x1c6>
    6dc0:	9b02      	ldr	r3, [sp, #8]
    6dc2:	2b00      	cmp	r3, #0
    6dc4:	d0fa      	beq.n	6dbc <sendDataFrame+0x25c>
    6dc6:	7c80      	ldrb	r0, [r0, #18]
    6dc8:	0032      	movs	r2, r6
    6dca:	2101      	movs	r1, #1
    6dcc:	4798      	blx	r3
    6dce:	2000      	movs	r0, #0
    6dd0:	e7a9      	b.n	6d26 <sendDataFrame+0x1c6>
    6dd2:	2100      	movs	r1, #0
    6dd4:	4a36      	ldr	r2, [pc, #216]	; (6eb0 <sendDataFrame+0x350>)
    6dd6:	7812      	ldrb	r2, [r2, #0]
    6dd8:	3a06      	subs	r2, #6
    6dda:	b2d2      	uxtb	r2, r2
    6ddc:	4293      	cmp	r3, r2
    6dde:	4149      	adcs	r1, r1
    6de0:	b2cb      	uxtb	r3, r1
    6de2:	e773      	b.n	6ccc <sendDataFrame+0x16c>
    6de4:	4b33      	ldr	r3, [pc, #204]	; (6eb4 <sendDataFrame+0x354>)
    6de6:	2002      	movs	r0, #2
    6de8:	4798      	blx	r3
    6dea:	4643      	mov	r3, r8
    6dec:	9000      	str	r0, [sp, #0]
    6dee:	465a      	mov	r2, fp
    6df0:	9905      	ldr	r1, [sp, #20]
    6df2:	0020      	movs	r0, r4
    6df4:	4f30      	ldr	r7, [pc, #192]	; (6eb8 <sendDataFrame+0x358>)
    6df6:	47b8      	blx	r7
    6df8:	28ff      	cmp	r0, #255	; 0xff
    6dfa:	d0da      	beq.n	6db2 <sendDataFrame+0x252>
    6dfc:	4458      	add	r0, fp
    6dfe:	b2c3      	uxtb	r3, r0
    6e00:	469b      	mov	fp, r3
    6e02:	e740      	b.n	6c86 <sendDataFrame+0x126>
    6e04:	2200      	movs	r2, #0
    6e06:	2101      	movs	r1, #1
    6e08:	e749      	b.n	6c9e <sendDataFrame+0x13e>
    6e0a:	2300      	movs	r3, #0
    6e0c:	e75e      	b.n	6ccc <sendDataFrame+0x16c>
    6e0e:	464b      	mov	r3, r9
    6e10:	2228      	movs	r2, #40	; 0x28
    6e12:	881b      	ldrh	r3, [r3, #0]
    6e14:	b29b      	uxth	r3, r3
    6e16:	001f      	movs	r7, r3
    6e18:	4b28      	ldr	r3, [pc, #160]	; (6ebc <sendDataFrame+0x35c>)
    6e1a:	681b      	ldr	r3, [r3, #0]
    6e1c:	5c9a      	ldrb	r2, [r3, r2]
    6e1e:	2a00      	cmp	r2, #0
    6e20:	d100      	bne.n	6e24 <sendDataFrame+0x2c4>
    6e22:	e722      	b.n	6c6a <sendDataFrame+0x10a>
    6e24:	6998      	ldr	r0, [r3, #24]
    6e26:	8803      	ldrh	r3, [r0, #0]
    6e28:	42ab      	cmp	r3, r5
    6e2a:	d028      	beq.n	6e7e <sendDataFrame+0x31e>
    6e2c:	3a01      	subs	r2, #1
    6e2e:	b2d2      	uxtb	r2, r2
    6e30:	3201      	adds	r2, #1
    6e32:	0092      	lsls	r2, r2, #2
    6e34:	1d03      	adds	r3, r0, #4
    6e36:	1882      	adds	r2, r0, r2
    6e38:	46ac      	mov	ip, r5
    6e3a:	46b2      	mov	sl, r6
    6e3c:	e006      	b.n	6e4c <sendDataFrame+0x2ec>
    6e3e:	1a1e      	subs	r6, r3, r0
    6e40:	001d      	movs	r5, r3
    6e42:	3304      	adds	r3, #4
    6e44:	1f19      	subs	r1, r3, #4
    6e46:	8809      	ldrh	r1, [r1, #0]
    6e48:	4561      	cmp	r1, ip
    6e4a:	d003      	beq.n	6e54 <sendDataFrame+0x2f4>
    6e4c:	429a      	cmp	r2, r3
    6e4e:	d1f6      	bne.n	6e3e <sendDataFrame+0x2de>
    6e50:	4656      	mov	r6, sl
    6e52:	e70a      	b.n	6c6a <sendDataFrame+0x10a>
    6e54:	4653      	mov	r3, sl
    6e56:	46aa      	mov	sl, r5
    6e58:	0035      	movs	r5, r6
    6e5a:	001e      	movs	r6, r3
    6e5c:	4652      	mov	r2, sl
    6e5e:	4643      	mov	r3, r8
    6e60:	789b      	ldrb	r3, [r3, #2]
    6e62:	8017      	strh	r7, [r2, #0]
    6e64:	4a15      	ldr	r2, [pc, #84]	; (6ebc <sendDataFrame+0x35c>)
    6e66:	6812      	ldr	r2, [r2, #0]
    6e68:	6992      	ldr	r2, [r2, #24]
    6e6a:	1952      	adds	r2, r2, r5
    6e6c:	7093      	strb	r3, [r2, #2]
    6e6e:	2229      	movs	r2, #41	; 0x29
    6e70:	4b12      	ldr	r3, [pc, #72]	; (6ebc <sendDataFrame+0x35c>)
    6e72:	681b      	ldr	r3, [r3, #0]
    6e74:	5c9a      	ldrb	r2, [r3, r2]
    6e76:	699b      	ldr	r3, [r3, #24]
    6e78:	195d      	adds	r5, r3, r5
    6e7a:	70ea      	strb	r2, [r5, #3]
    6e7c:	e6f5      	b.n	6c6a <sendDataFrame+0x10a>
    6e7e:	4682      	mov	sl, r0
    6e80:	2500      	movs	r5, #0
    6e82:	e7eb      	b.n	6e5c <sendDataFrame+0x2fc>
    6e84:	200020a8 	.word	0x200020a8
    6e88:	00003831 	.word	0x00003831
    6e8c:	20002094 	.word	0x20002094
    6e90:	2000207c 	.word	0x2000207c
    6e94:	000095df 	.word	0x000095df
    6e98:	0000ffff 	.word	0x0000ffff
    6e9c:	2000209c 	.word	0x2000209c
    6ea0:	000038e5 	.word	0x000038e5
    6ea4:	20002064 	.word	0x20002064
    6ea8:	200020f0 	.word	0x200020f0
    6eac:	20000070 	.word	0x20000070
    6eb0:	2000039c 	.word	0x2000039c
    6eb4:	00009055 	.word	0x00009055
    6eb8:	00009079 	.word	0x00009079
    6ebc:	20002060 	.word	0x20002060

00006ec0 <addRebroadcastTableEntry>:
    6ec0:	b5f0      	push	{r4, r5, r6, r7, lr}
    6ec2:	46c6      	mov	lr, r8
    6ec4:	2228      	movs	r2, #40	; 0x28
    6ec6:	b500      	push	{lr}
    6ec8:	4e17      	ldr	r6, [pc, #92]	; (6f28 <addRebroadcastTableEntry+0x68>)
    6eca:	4684      	mov	ip, r0
    6ecc:	6833      	ldr	r3, [r6, #0]
    6ece:	4688      	mov	r8, r1
    6ed0:	5c9a      	ldrb	r2, [r3, r2]
    6ed2:	2a00      	cmp	r2, #0
    6ed4:	d014      	beq.n	6f00 <addRebroadcastTableEntry+0x40>
    6ed6:	699d      	ldr	r5, [r3, #24]
    6ed8:	4f14      	ldr	r7, [pc, #80]	; (6f2c <addRebroadcastTableEntry+0x6c>)
    6eda:	882b      	ldrh	r3, [r5, #0]
    6edc:	42bb      	cmp	r3, r7
    6ede:	d012      	beq.n	6f06 <addRebroadcastTableEntry+0x46>
    6ee0:	3a01      	subs	r2, #1
    6ee2:	b2d2      	uxtb	r2, r2
    6ee4:	3201      	adds	r2, #1
    6ee6:	0092      	lsls	r2, r2, #2
    6ee8:	1d2b      	adds	r3, r5, #4
    6eea:	18aa      	adds	r2, r5, r2
    6eec:	e006      	b.n	6efc <addRebroadcastTableEntry+0x3c>
    6eee:	1b59      	subs	r1, r3, r5
    6ef0:	0018      	movs	r0, r3
    6ef2:	3304      	adds	r3, #4
    6ef4:	1f1c      	subs	r4, r3, #4
    6ef6:	8824      	ldrh	r4, [r4, #0]
    6ef8:	42bc      	cmp	r4, r7
    6efa:	d006      	beq.n	6f0a <addRebroadcastTableEntry+0x4a>
    6efc:	4293      	cmp	r3, r2
    6efe:	d1f6      	bne.n	6eee <addRebroadcastTableEntry+0x2e>
    6f00:	bc04      	pop	{r2}
    6f02:	4690      	mov	r8, r2
    6f04:	bdf0      	pop	{r4, r5, r6, r7, pc}
    6f06:	0028      	movs	r0, r5
    6f08:	2100      	movs	r1, #0
    6f0a:	4663      	mov	r3, ip
    6f0c:	4642      	mov	r2, r8
    6f0e:	8003      	strh	r3, [r0, #0]
    6f10:	6833      	ldr	r3, [r6, #0]
    6f12:	699b      	ldr	r3, [r3, #24]
    6f14:	185b      	adds	r3, r3, r1
    6f16:	709a      	strb	r2, [r3, #2]
    6f18:	2229      	movs	r2, #41	; 0x29
    6f1a:	6833      	ldr	r3, [r6, #0]
    6f1c:	5c9a      	ldrb	r2, [r3, r2]
    6f1e:	699b      	ldr	r3, [r3, #24]
    6f20:	185b      	adds	r3, r3, r1
    6f22:	70da      	strb	r2, [r3, #3]
    6f24:	e7ec      	b.n	6f00 <addRebroadcastTableEntry+0x40>
    6f26:	46c0      	nop			; (mov r8, r8)
    6f28:	20002060 	.word	0x20002060
    6f2c:	0000ffff 	.word	0x0000ffff

00006f30 <initRebroadcastTable>:
    6f30:	2328      	movs	r3, #40	; 0x28
    6f32:	b530      	push	{r4, r5, lr}
    6f34:	4809      	ldr	r0, [pc, #36]	; (6f5c <initRebroadcastTable+0x2c>)
    6f36:	6802      	ldr	r2, [r0, #0]
    6f38:	5cd1      	ldrb	r1, [r2, r3]
    6f3a:	2300      	movs	r3, #0
    6f3c:	2900      	cmp	r1, #0
    6f3e:	d00b      	beq.n	6f58 <initRebroadcastTable+0x28>
    6f40:	2501      	movs	r5, #1
    6f42:	2428      	movs	r4, #40	; 0x28
    6f44:	426d      	negs	r5, r5
    6f46:	6992      	ldr	r2, [r2, #24]
    6f48:	0099      	lsls	r1, r3, #2
    6f4a:	528d      	strh	r5, [r1, r2]
    6f4c:	6802      	ldr	r2, [r0, #0]
    6f4e:	3301      	adds	r3, #1
    6f50:	5d11      	ldrb	r1, [r2, r4]
    6f52:	b2db      	uxtb	r3, r3
    6f54:	4299      	cmp	r1, r3
    6f56:	d8f6      	bhi.n	6f46 <initRebroadcastTable+0x16>
    6f58:	bd30      	pop	{r4, r5, pc}
    6f5a:	46c0      	nop			; (mov r8, r8)
    6f5c:	20002060 	.word	0x20002060

00006f60 <rebroadcastTimerHandler>:
    6f60:	b5f0      	push	{r4, r5, r6, r7, lr}
    6f62:	46c6      	mov	lr, r8
    6f64:	2328      	movs	r3, #40	; 0x28
    6f66:	b500      	push	{lr}
    6f68:	4e13      	ldr	r6, [pc, #76]	; (6fb8 <rebroadcastTimerHandler+0x58>)
    6f6a:	6834      	ldr	r4, [r6, #0]
    6f6c:	5ce7      	ldrb	r7, [r4, r3]
    6f6e:	2300      	movs	r3, #0
    6f70:	2f00      	cmp	r7, #0
    6f72:	d01e      	beq.n	6fb2 <rebroadcastTimerHandler+0x52>
    6f74:	2201      	movs	r2, #1
    6f76:	4252      	negs	r2, r2
    6f78:	4694      	mov	ip, r2
    6f7a:	3229      	adds	r2, #41	; 0x29
    6f7c:	4690      	mov	r8, r2
    6f7e:	4d0f      	ldr	r5, [pc, #60]	; (6fbc <rebroadcastTimerHandler+0x5c>)
    6f80:	69a2      	ldr	r2, [r4, #24]
    6f82:	0098      	lsls	r0, r3, #2
    6f84:	1812      	adds	r2, r2, r0
    6f86:	8811      	ldrh	r1, [r2, #0]
    6f88:	42a9      	cmp	r1, r5
    6f8a:	d00e      	beq.n	6faa <rebroadcastTimerHandler+0x4a>
    6f8c:	78d1      	ldrb	r1, [r2, #3]
    6f8e:	2900      	cmp	r1, #0
    6f90:	d00b      	beq.n	6faa <rebroadcastTimerHandler+0x4a>
    6f92:	3901      	subs	r1, #1
    6f94:	b2c9      	uxtb	r1, r1
    6f96:	70d1      	strb	r1, [r2, #3]
    6f98:	2900      	cmp	r1, #0
    6f9a:	d103      	bne.n	6fa4 <rebroadcastTimerHandler+0x44>
    6f9c:	4661      	mov	r1, ip
    6f9e:	6832      	ldr	r2, [r6, #0]
    6fa0:	6992      	ldr	r2, [r2, #24]
    6fa2:	5211      	strh	r1, [r2, r0]
    6fa4:	4642      	mov	r2, r8
    6fa6:	6834      	ldr	r4, [r6, #0]
    6fa8:	5ca7      	ldrb	r7, [r4, r2]
    6faa:	3301      	adds	r3, #1
    6fac:	b2db      	uxtb	r3, r3
    6fae:	42bb      	cmp	r3, r7
    6fb0:	d3e6      	bcc.n	6f80 <rebroadcastTimerHandler+0x20>
    6fb2:	bc04      	pop	{r2}
    6fb4:	4690      	mov	r8, r2
    6fb6:	bdf0      	pop	{r4, r5, r6, r7, pc}
    6fb8:	20002060 	.word	0x20002060
    6fbc:	0000ffff 	.word	0x0000ffff

00006fc0 <handleDataMessage>:
    6fc0:	b5f0      	push	{r4, r5, r6, r7, lr}
    6fc2:	46de      	mov	lr, fp
    6fc4:	4657      	mov	r7, sl
    6fc6:	464e      	mov	r6, r9
    6fc8:	4645      	mov	r5, r8
    6fca:	b5e0      	push	{r5, r6, r7, lr}
    6fcc:	780b      	ldrb	r3, [r1, #0]
    6fce:	b083      	sub	sp, #12
    6fd0:	0004      	movs	r4, r0
    6fd2:	2b31      	cmp	r3, #49	; 0x31
    6fd4:	d04d      	beq.n	7072 <handleDataMessage+0xb2>
    6fd6:	2b32      	cmp	r3, #50	; 0x32
    6fd8:	d144      	bne.n	7064 <handleDataMessage+0xa4>
    6fda:	4d61      	ldr	r5, [pc, #388]	; (7160 <handleDataMessage+0x1a0>)
    6fdc:	7a2b      	ldrb	r3, [r5, #8]
    6fde:	2b00      	cmp	r3, #0
    6fe0:	d040      	beq.n	7064 <handleDataMessage+0xa4>
    6fe2:	4a60      	ldr	r2, [pc, #384]	; (7164 <handleDataMessage+0x1a4>)
    6fe4:	4b60      	ldr	r3, [pc, #384]	; (7168 <handleDataMessage+0x1a8>)
    6fe6:	4691      	mov	r9, r2
    6fe8:	4a60      	ldr	r2, [pc, #384]	; (716c <handleDataMessage+0x1ac>)
    6fea:	2600      	movs	r6, #0
    6fec:	4693      	mov	fp, r2
    6fee:	4a60      	ldr	r2, [pc, #384]	; (7170 <handleDataMessage+0x1b0>)
    6ff0:	4698      	mov	r8, r3
    6ff2:	4692      	mov	sl, r2
    6ff4:	e007      	b.n	7006 <handleDataMessage+0x46>
    6ff6:	0039      	movs	r1, r7
    6ff8:	0028      	movs	r0, r5
    6ffa:	47c8      	blx	r9
    6ffc:	3601      	adds	r6, #1
    6ffe:	7a2b      	ldrb	r3, [r5, #8]
    7000:	b2f6      	uxtb	r6, r6
    7002:	42b3      	cmp	r3, r6
    7004:	d92e      	bls.n	7064 <handleDataMessage+0xa4>
    7006:	2100      	movs	r1, #0
    7008:	0028      	movs	r0, r5
    700a:	47c0      	blx	r8
    700c:	1e07      	subs	r7, r0, #0
    700e:	d029      	beq.n	7064 <handleDataMessage+0xa4>
    7010:	2320      	movs	r3, #32
    7012:	7a22      	ldrb	r2, [r4, #8]
    7014:	5cc3      	ldrb	r3, [r0, r3]
    7016:	429a      	cmp	r2, r3
    7018:	d1ed      	bne.n	6ff6 <handleDataMessage+0x36>
    701a:	88e2      	ldrh	r2, [r4, #6]
    701c:	8b83      	ldrh	r3, [r0, #28]
    701e:	429a      	cmp	r2, r3
    7020:	d1e9      	bne.n	6ff6 <handleDataMessage+0x36>
    7022:	6883      	ldr	r3, [r0, #8]
    7024:	2b00      	cmp	r3, #0
    7026:	d003      	beq.n	7030 <handleDataMessage+0x70>
    7028:	7c80      	ldrb	r0, [r0, #18]
    702a:	003a      	movs	r2, r7
    702c:	2100      	movs	r1, #0
    702e:	4798      	blx	r3
    7030:	0038      	movs	r0, r7
    7032:	47d8      	blx	fp
    7034:	22ff      	movs	r2, #255	; 0xff
    7036:	8bbb      	ldrh	r3, [r7, #28]
    7038:	4393      	bics	r3, r2
    703a:	4652      	mov	r2, sl
    703c:	8812      	ldrh	r2, [r2, #0]
    703e:	4293      	cmp	r3, r2
    7040:	d0dc      	beq.n	6ffc <handleDataMessage+0x3c>
    7042:	4a4c      	ldr	r2, [pc, #304]	; (7174 <handleDataMessage+0x1b4>)
    7044:	0a1b      	lsrs	r3, r3, #8
    7046:	6812      	ldr	r2, [r2, #0]
    7048:	005b      	lsls	r3, r3, #1
    704a:	6912      	ldr	r2, [r2, #16]
    704c:	3601      	adds	r6, #1
    704e:	18d3      	adds	r3, r2, r3
    7050:	220f      	movs	r2, #15
    7052:	7859      	ldrb	r1, [r3, #1]
    7054:	b2f6      	uxtb	r6, r6
    7056:	400a      	ands	r2, r1
    7058:	2130      	movs	r1, #48	; 0x30
    705a:	430a      	orrs	r2, r1
    705c:	705a      	strb	r2, [r3, #1]
    705e:	7a2b      	ldrb	r3, [r5, #8]
    7060:	42b3      	cmp	r3, r6
    7062:	d8d0      	bhi.n	7006 <handleDataMessage+0x46>
    7064:	b003      	add	sp, #12
    7066:	bc3c      	pop	{r2, r3, r4, r5}
    7068:	4690      	mov	r8, r2
    706a:	4699      	mov	r9, r3
    706c:	46a2      	mov	sl, r4
    706e:	46ab      	mov	fp, r5
    7070:	bdf0      	pop	{r4, r5, r6, r7, pc}
    7072:	7983      	ldrb	r3, [r0, #6]
    7074:	009d      	lsls	r5, r3, #2
    7076:	18ed      	adds	r5, r5, r3
    7078:	4b3e      	ldr	r3, [pc, #248]	; (7174 <handleDataMessage+0x1b4>)
    707a:	00ad      	lsls	r5, r5, #2
    707c:	4699      	mov	r9, r3
    707e:	681b      	ldr	r3, [r3, #0]
    7080:	68d8      	ldr	r0, [r3, #12]
    7082:	4b3d      	ldr	r3, [pc, #244]	; (7178 <handleDataMessage+0x1b8>)
    7084:	1940      	adds	r0, r0, r5
    7086:	4798      	blx	r3
    7088:	2800      	cmp	r0, #0
    708a:	d065      	beq.n	7158 <handleDataMessage+0x198>
    708c:	464b      	mov	r3, r9
    708e:	681b      	ldr	r3, [r3, #0]
    7090:	68db      	ldr	r3, [r3, #12]
    7092:	195d      	adds	r5, r3, r5
    7094:	68ab      	ldr	r3, [r5, #8]
    7096:	60eb      	str	r3, [r5, #12]
    7098:	4d38      	ldr	r5, [pc, #224]	; (717c <handleDataMessage+0x1bc>)
    709a:	7a2b      	ldrb	r3, [r5, #8]
    709c:	2b00      	cmp	r3, #0
    709e:	d0e1      	beq.n	7064 <handleDataMessage+0xa4>
    70a0:	21ff      	movs	r1, #255	; 0xff
    70a2:	4b33      	ldr	r3, [pc, #204]	; (7170 <handleDataMessage+0x1b0>)
    70a4:	881a      	ldrh	r2, [r3, #0]
    70a6:	88e3      	ldrh	r3, [r4, #6]
    70a8:	438b      	bics	r3, r1
    70aa:	429a      	cmp	r2, r3
    70ac:	d1da      	bne.n	7064 <handleDataMessage+0xa4>
    70ae:	4b2e      	ldr	r3, [pc, #184]	; (7168 <handleDataMessage+0x1a8>)
    70b0:	2700      	movs	r7, #0
    70b2:	9301      	str	r3, [sp, #4]
    70b4:	4b2b      	ldr	r3, [pc, #172]	; (7164 <handleDataMessage+0x1a4>)
    70b6:	469a      	mov	sl, r3
    70b8:	4b31      	ldr	r3, [pc, #196]	; (7180 <handleDataMessage+0x1c0>)
    70ba:	46d0      	mov	r8, sl
    70bc:	469b      	mov	fp, r3
    70be:	e00a      	b.n	70d6 <handleDataMessage+0x116>
    70c0:	4a30      	ldr	r2, [pc, #192]	; (7184 <handleDataMessage+0x1c4>)
    70c2:	4293      	cmp	r3, r2
    70c4:	d02a      	beq.n	711c <handleDataMessage+0x15c>
    70c6:	0001      	movs	r1, r0
    70c8:	0028      	movs	r0, r5
    70ca:	47d0      	blx	sl
    70cc:	3701      	adds	r7, #1
    70ce:	7a2b      	ldrb	r3, [r5, #8]
    70d0:	b2ff      	uxtb	r7, r7
    70d2:	42bb      	cmp	r3, r7
    70d4:	d9c6      	bls.n	7064 <handleDataMessage+0xa4>
    70d6:	2100      	movs	r1, #0
    70d8:	0028      	movs	r0, r5
    70da:	9b01      	ldr	r3, [sp, #4]
    70dc:	4798      	blx	r3
    70de:	1e06      	subs	r6, r0, #0
    70e0:	d0c0      	beq.n	7064 <handleDataMessage+0xa4>
    70e2:	8b83      	ldrh	r3, [r0, #28]
    70e4:	88e2      	ldrh	r2, [r4, #6]
    70e6:	429a      	cmp	r2, r3
    70e8:	d1ea      	bne.n	70c0 <handleDataMessage+0x100>
    70ea:	2310      	movs	r3, #16
    70ec:	7e42      	ldrb	r2, [r0, #25]
    70ee:	4013      	ands	r3, r2
    70f0:	d025      	beq.n	713e <handleDataMessage+0x17e>
    70f2:	464b      	mov	r3, r9
    70f4:	681a      	ldr	r2, [r3, #0]
    70f6:	2337      	movs	r3, #55	; 0x37
    70f8:	5cd3      	ldrb	r3, [r2, r3]
    70fa:	0001      	movs	r1, r0
    70fc:	3301      	adds	r3, #1
    70fe:	7403      	strb	r3, [r0, #16]
    7100:	2338      	movs	r3, #56	; 0x38
    7102:	5cd3      	ldrb	r3, [r2, r3]
    7104:	7443      	strb	r3, [r0, #17]
    7106:	2300      	movs	r3, #0
    7108:	6083      	str	r3, [r0, #8]
    710a:	4815      	ldr	r0, [pc, #84]	; (7160 <handleDataMessage+0x1a0>)
    710c:	4b15      	ldr	r3, [pc, #84]	; (7164 <handleDataMessage+0x1a4>)
    710e:	4798      	blx	r3
    7110:	8bb1      	ldrh	r1, [r6, #28]
    7112:	4a1d      	ldr	r2, [pc, #116]	; (7188 <handleDataMessage+0x1c8>)
    7114:	0030      	movs	r0, r6
    7116:	4b1d      	ldr	r3, [pc, #116]	; (718c <handleDataMessage+0x1cc>)
    7118:	4798      	blx	r3
    711a:	e7d7      	b.n	70cc <handleDataMessage+0x10c>
    711c:	2300      	movs	r3, #0
    711e:	2201      	movs	r2, #1
    7120:	7443      	strb	r3, [r0, #17]
    7122:	7502      	strb	r2, [r0, #20]
    7124:	6083      	str	r3, [r0, #8]
    7126:	0001      	movs	r1, r0
    7128:	4658      	mov	r0, fp
    712a:	47c0      	blx	r8
    712c:	88e1      	ldrh	r1, [r4, #6]
    712e:	4a18      	ldr	r2, [pc, #96]	; (7190 <handleDataMessage+0x1d0>)
    7130:	0030      	movs	r0, r6
    7132:	4b16      	ldr	r3, [pc, #88]	; (718c <handleDataMessage+0x1cc>)
    7134:	4798      	blx	r3
    7136:	0031      	movs	r1, r6
    7138:	0028      	movs	r0, r5
    713a:	47c0      	blx	r8
    713c:	e7c6      	b.n	70cc <handleDataMessage+0x10c>
    713e:	7443      	strb	r3, [r0, #17]
    7140:	7503      	strb	r3, [r0, #20]
    7142:	6083      	str	r3, [r0, #8]
    7144:	0001      	movs	r1, r0
    7146:	4b07      	ldr	r3, [pc, #28]	; (7164 <handleDataMessage+0x1a4>)
    7148:	480d      	ldr	r0, [pc, #52]	; (7180 <handleDataMessage+0x1c0>)
    714a:	4798      	blx	r3
    714c:	8bb1      	ldrh	r1, [r6, #28]
    714e:	4a10      	ldr	r2, [pc, #64]	; (7190 <handleDataMessage+0x1d0>)
    7150:	0030      	movs	r0, r6
    7152:	4b0e      	ldr	r3, [pc, #56]	; (718c <handleDataMessage+0x1cc>)
    7154:	4798      	blx	r3
    7156:	e7b9      	b.n	70cc <handleDataMessage+0x10c>
    7158:	88e0      	ldrh	r0, [r4, #6]
    715a:	4b0e      	ldr	r3, [pc, #56]	; (7194 <handleDataMessage+0x1d4>)
    715c:	4798      	blx	r3
    715e:	e781      	b.n	7064 <handleDataMessage+0xa4>
    7160:	20002068 	.word	0x20002068
    7164:	000038e5 	.word	0x000038e5
    7168:	0000391d 	.word	0x0000391d
    716c:	00003869 	.word	0x00003869
    7170:	200020a8 	.word	0x200020a8
    7174:	20002060 	.word	0x20002060
    7178:	00008669 	.word	0x00008669
    717c:	20002054 	.word	0x20002054
    7180:	20002048 	.word	0x20002048
    7184:	0000ffff 	.word	0x0000ffff
    7188:	000052e9 	.word	0x000052e9
    718c:	00006b61 	.word	0x00006b61
    7190:	00005151 	.word	0x00005151
    7194:	00008601 	.word	0x00008601

00007198 <frameParse>:
    7198:	b5f0      	push	{r4, r5, r6, r7, lr}
    719a:	464e      	mov	r6, r9
    719c:	4645      	mov	r5, r8
    719e:	46de      	mov	lr, fp
    71a0:	4657      	mov	r7, sl
    71a2:	b5e0      	push	{r5, r6, r7, lr}
    71a4:	6885      	ldr	r5, [r0, #8]
    71a6:	b09f      	sub	sp, #124	; 0x7c
    71a8:	782b      	ldrb	r3, [r5, #0]
    71aa:	ac0e      	add	r4, sp, #56	; 0x38
    71ac:	7023      	strb	r3, [r4, #0]
    71ae:	786b      	ldrb	r3, [r5, #1]
    71b0:	0006      	movs	r6, r0
    71b2:	7063      	strb	r3, [r4, #1]
    71b4:	78ab      	ldrb	r3, [r5, #2]
    71b6:	7223      	strb	r3, [r4, #8]
    71b8:	7bc3      	ldrb	r3, [r0, #15]
    71ba:	2b00      	cmp	r3, #0
    71bc:	d015      	beq.n	71ea <frameParse+0x52>
    71be:	7863      	ldrb	r3, [r4, #1]
    71c0:	069a      	lsls	r2, r3, #26
    71c2:	d400      	bmi.n	71c6 <frameParse+0x2e>
    71c4:	e094      	b.n	72f0 <frameParse+0x158>
    71c6:	6873      	ldr	r3, [r6, #4]
    71c8:	4698      	mov	r8, r3
    71ca:	8a33      	ldrh	r3, [r6, #16]
    71cc:	8063      	strh	r3, [r4, #2]
    71ce:	4643      	mov	r3, r8
    71d0:	785a      	ldrb	r2, [r3, #1]
    71d2:	781b      	ldrb	r3, [r3, #0]
    71d4:	0212      	lsls	r2, r2, #8
    71d6:	4313      	orrs	r3, r2
    71d8:	80e3      	strh	r3, [r4, #6]
    71da:	2302      	movs	r3, #2
    71dc:	4699      	mov	r9, r3
    71de:	7833      	ldrb	r3, [r6, #0]
    71e0:	075b      	lsls	r3, r3, #29
    71e2:	d40e      	bmi.n	7202 <frameParse+0x6a>
    71e4:	4bcb      	ldr	r3, [pc, #812]	; (7514 <frameParse+0x37c>)
    71e6:	881b      	ldrh	r3, [r3, #0]
    71e8:	e00d      	b.n	7206 <frameParse+0x6e>
    71ea:	7863      	ldrb	r3, [r4, #1]
    71ec:	069a      	lsls	r2, r3, #26
    71ee:	d55c      	bpl.n	72aa <frameParse+0x112>
    71f0:	6873      	ldr	r3, [r6, #4]
    71f2:	4698      	mov	r8, r3
    71f4:	8a33      	ldrh	r3, [r6, #16]
    71f6:	8063      	strh	r3, [r4, #2]
    71f8:	2308      	movs	r3, #8
    71fa:	4699      	mov	r9, r3
    71fc:	7833      	ldrb	r3, [r6, #0]
    71fe:	075b      	lsls	r3, r3, #29
    7200:	d5f0      	bpl.n	71e4 <frameParse+0x4c>
    7202:	2301      	movs	r3, #1
    7204:	425b      	negs	r3, r3
    7206:	2210      	movs	r2, #16
    7208:	80a3      	strh	r3, [r4, #4]
    720a:	7863      	ldrb	r3, [r4, #1]
    720c:	9205      	str	r2, [sp, #20]
    720e:	4692      	mov	sl, r2
    7210:	4693      	mov	fp, r2
    7212:	2708      	movs	r7, #8
    7214:	2104      	movs	r1, #4
    7216:	3a0d      	subs	r2, #13
    7218:	075b      	lsls	r3, r3, #29
    721a:	d562      	bpl.n	72e2 <frameParse+0x14a>
    721c:	5cab      	ldrb	r3, [r5, r2]
    721e:	1869      	adds	r1, r5, r1
    7220:	7423      	strb	r3, [r4, #16]
    7222:	2204      	movs	r2, #4
    7224:	4bbc      	ldr	r3, [pc, #752]	; (7518 <frameParse+0x380>)
    7226:	a813      	add	r0, sp, #76	; 0x4c
    7228:	4798      	blx	r3
    722a:	19e9      	adds	r1, r5, r7
    722c:	2208      	movs	r2, #8
    722e:	4bba      	ldr	r3, [pc, #744]	; (7518 <frameParse+0x380>)
    7230:	a814      	add	r0, sp, #80	; 0x50
    7232:	4798      	blx	r3
    7234:	465b      	mov	r3, fp
    7236:	7b37      	ldrb	r7, [r6, #12]
    7238:	4648      	mov	r0, r9
    723a:	1aff      	subs	r7, r7, r3
    723c:	b2fb      	uxtb	r3, r7
    723e:	001f      	movs	r7, r3
    7240:	4bb6      	ldr	r3, [pc, #728]	; (751c <frameParse+0x384>)
    7242:	4798      	blx	r3
    7244:	9001      	str	r0, [sp, #4]
    7246:	68b3      	ldr	r3, [r6, #8]
    7248:	9706      	str	r7, [sp, #24]
    724a:	9300      	str	r3, [sp, #0]
    724c:	465a      	mov	r2, fp
    724e:	003b      	movs	r3, r7
    7250:	a914      	add	r1, sp, #80	; 0x50
    7252:	0020      	movs	r0, r4
    7254:	4fb2      	ldr	r7, [pc, #712]	; (7520 <frameParse+0x388>)
    7256:	47b8      	blx	r7
    7258:	28ff      	cmp	r0, #255	; 0xff
    725a:	d042      	beq.n	72e2 <frameParse+0x14a>
    725c:	002b      	movs	r3, r5
    725e:	9f06      	ldr	r7, [sp, #24]
    7260:	4453      	add	r3, sl
    7262:	1a3f      	subs	r7, r7, r0
    7264:	9307      	str	r3, [sp, #28]
    7266:	b2fb      	uxtb	r3, r7
    7268:	9306      	str	r3, [sp, #24]
    726a:	88a0      	ldrh	r0, [r4, #4]
    726c:	4bad      	ldr	r3, [pc, #692]	; (7524 <frameParse+0x38c>)
    726e:	4298      	cmp	r0, r3
    7270:	d941      	bls.n	72f6 <frameParse+0x15e>
    7272:	2228      	movs	r2, #40	; 0x28
    7274:	4bac      	ldr	r3, [pc, #688]	; (7528 <frameParse+0x390>)
    7276:	88e5      	ldrh	r5, [r4, #6]
    7278:	469a      	mov	sl, r3
    727a:	681b      	ldr	r3, [r3, #0]
    727c:	7a27      	ldrb	r7, [r4, #8]
    727e:	5c9a      	ldrb	r2, [r3, r2]
    7280:	2a00      	cmp	r2, #0
    7282:	d100      	bne.n	7286 <frameParse+0xee>
    7284:	e07c      	b.n	7380 <frameParse+0x1e8>
    7286:	3a01      	subs	r2, #1
    7288:	b2d1      	uxtb	r1, r2
    728a:	699b      	ldr	r3, [r3, #24]
    728c:	3101      	adds	r1, #1
    728e:	0089      	lsls	r1, r1, #2
    7290:	1859      	adds	r1, r3, r1
    7292:	e003      	b.n	729c <frameParse+0x104>
    7294:	3304      	adds	r3, #4
    7296:	4299      	cmp	r1, r3
    7298:	d100      	bne.n	729c <frameParse+0x104>
    729a:	e071      	b.n	7380 <frameParse+0x1e8>
    729c:	881a      	ldrh	r2, [r3, #0]
    729e:	42aa      	cmp	r2, r5
    72a0:	d1f8      	bne.n	7294 <frameParse+0xfc>
    72a2:	789a      	ldrb	r2, [r3, #2]
    72a4:	42ba      	cmp	r2, r7
    72a6:	d1f5      	bne.n	7294 <frameParse+0xfc>
    72a8:	e01b      	b.n	72e2 <frameParse+0x14a>
    72aa:	2208      	movs	r2, #8
    72ac:	4691      	mov	r9, r2
    72ae:	6872      	ldr	r2, [r6, #4]
    72b0:	7929      	ldrb	r1, [r5, #4]
    72b2:	4690      	mov	r8, r2
    72b4:	78ea      	ldrb	r2, [r5, #3]
    72b6:	0209      	lsls	r1, r1, #8
    72b8:	430a      	orrs	r2, r1
    72ba:	79a9      	ldrb	r1, [r5, #6]
    72bc:	8062      	strh	r2, [r4, #2]
    72be:	796a      	ldrb	r2, [r5, #5]
    72c0:	0209      	lsls	r1, r1, #8
    72c2:	430a      	orrs	r2, r1
    72c4:	7a29      	ldrb	r1, [r5, #8]
    72c6:	80a2      	strh	r2, [r4, #4]
    72c8:	79ea      	ldrb	r2, [r5, #7]
    72ca:	0209      	lsls	r1, r1, #8
    72cc:	430a      	orrs	r2, r1
    72ce:	80e2      	strh	r2, [r4, #6]
    72d0:	2216      	movs	r2, #22
    72d2:	270e      	movs	r7, #14
    72d4:	9205      	str	r2, [sp, #20]
    72d6:	4692      	mov	sl, r2
    72d8:	4693      	mov	fp, r2
    72da:	210a      	movs	r1, #10
    72dc:	3a0d      	subs	r2, #13
    72de:	075b      	lsls	r3, r3, #29
    72e0:	d49c      	bmi.n	721c <frameParse+0x84>
    72e2:	b01f      	add	sp, #124	; 0x7c
    72e4:	bc3c      	pop	{r2, r3, r4, r5}
    72e6:	4690      	mov	r8, r2
    72e8:	4699      	mov	r9, r3
    72ea:	46a2      	mov	sl, r4
    72ec:	46ab      	mov	fp, r5
    72ee:	bdf0      	pop	{r4, r5, r6, r7, pc}
    72f0:	2202      	movs	r2, #2
    72f2:	4691      	mov	r9, r2
    72f4:	e7db      	b.n	72ae <frameParse+0x116>
    72f6:	4b87      	ldr	r3, [pc, #540]	; (7514 <frameParse+0x37c>)
    72f8:	881a      	ldrh	r2, [r3, #0]
    72fa:	4290      	cmp	r0, r2
    72fc:	d100      	bne.n	7300 <frameParse+0x168>
    72fe:	e12d      	b.n	755c <frameParse+0x3c4>
    7300:	21ff      	movs	r1, #255	; 0xff
    7302:	0005      	movs	r5, r0
    7304:	881a      	ldrh	r2, [r3, #0]
    7306:	438d      	bics	r5, r1
    7308:	4295      	cmp	r5, r2
    730a:	d100      	bne.n	730e <frameParse+0x176>
    730c:	e129      	b.n	7562 <frameParse+0x3ca>
    730e:	881b      	ldrh	r3, [r3, #0]
    7310:	4298      	cmp	r0, r3
    7312:	d0e6      	beq.n	72e2 <frameParse+0x14a>
    7314:	7823      	ldrb	r3, [r4, #0]
    7316:	2b00      	cmp	r3, #0
    7318:	d0e3      	beq.n	72e2 <frameParse+0x14a>
    731a:	4a84      	ldr	r2, [pc, #528]	; (752c <frameParse+0x394>)
    731c:	7812      	ldrb	r2, [r2, #0]
    731e:	2a06      	cmp	r2, #6
    7320:	d1df      	bne.n	72e2 <frameParse+0x14a>
    7322:	3b01      	subs	r3, #1
    7324:	7023      	strb	r3, [r4, #0]
    7326:	4b82      	ldr	r3, [pc, #520]	; (7530 <frameParse+0x398>)
    7328:	4798      	blx	r3
    732a:	ab0a      	add	r3, sp, #40	; 0x28
    732c:	8618      	strh	r0, [r3, #48]	; 0x30
    732e:	4b81      	ldr	r3, [pc, #516]	; (7534 <frameParse+0x39c>)
    7330:	4298      	cmp	r0, r3
    7332:	d100      	bne.n	7336 <frameParse+0x19e>
    7334:	e32e      	b.n	7994 <frameParse+0x7fc>
    7336:	2078      	movs	r0, #120	; 0x78
    7338:	4b7f      	ldr	r3, [pc, #508]	; (7538 <frameParse+0x3a0>)
    733a:	4798      	blx	r3
    733c:	1e05      	subs	r5, r0, #0
    733e:	d0d0      	beq.n	72e2 <frameParse+0x14a>
    7340:	0001      	movs	r1, r0
    7342:	4b7e      	ldr	r3, [pc, #504]	; (753c <frameParse+0x3a4>)
    7344:	0020      	movs	r0, r4
    7346:	4798      	blx	r3
    7348:	7a23      	ldrb	r3, [r4, #8]
    734a:	9f06      	ldr	r7, [sp, #24]
    734c:	0006      	movs	r6, r0
    734e:	70ab      	strb	r3, [r5, #2]
    7350:	003a      	movs	r2, r7
    7352:	9907      	ldr	r1, [sp, #28]
    7354:	4b70      	ldr	r3, [pc, #448]	; (7518 <frameParse+0x380>)
    7356:	1828      	adds	r0, r5, r0
    7358:	4798      	blx	r3
    735a:	2300      	movs	r3, #0
    735c:	9303      	str	r3, [sp, #12]
    735e:	9302      	str	r3, [sp, #8]
    7360:	ab16      	add	r3, sp, #88	; 0x58
    7362:	9301      	str	r3, [sp, #4]
    7364:	2302      	movs	r3, #2
    7366:	0020      	movs	r0, r4
    7368:	9300      	str	r3, [sp, #0]
    736a:	003a      	movs	r2, r7
    736c:	002b      	movs	r3, r5
    736e:	0031      	movs	r1, r6
    7370:	4c73      	ldr	r4, [pc, #460]	; (7540 <frameParse+0x3a8>)
    7372:	47a0      	blx	r4
    7374:	2800      	cmp	r0, #0
    7376:	d1b4      	bne.n	72e2 <frameParse+0x14a>
    7378:	0028      	movs	r0, r5
    737a:	4b72      	ldr	r3, [pc, #456]	; (7544 <frameParse+0x3ac>)
    737c:	4798      	blx	r3
    737e:	e7b0      	b.n	72e2 <frameParse+0x14a>
    7380:	4b6c      	ldr	r3, [pc, #432]	; (7534 <frameParse+0x39c>)
    7382:	4298      	cmp	r0, r3
    7384:	d100      	bne.n	7388 <frameParse+0x1f0>
    7386:	e0b6      	b.n	74f6 <frameParse+0x35e>
    7388:	2701      	movs	r7, #1
    738a:	7863      	ldrb	r3, [r4, #1]
    738c:	2510      	movs	r5, #16
    738e:	421d      	tst	r5, r3
    7390:	d006      	beq.n	73a0 <frameParse+0x208>
    7392:	4a60      	ldr	r2, [pc, #384]	; (7514 <frameParse+0x37c>)
    7394:	88a1      	ldrh	r1, [r4, #4]
    7396:	4692      	mov	sl, r2
    7398:	8812      	ldrh	r2, [r2, #0]
    739a:	4291      	cmp	r1, r2
    739c:	d100      	bne.n	73a0 <frameParse+0x208>
    739e:	e1c7      	b.n	7730 <frameParse+0x598>
    73a0:	2503      	movs	r5, #3
    73a2:	402b      	ands	r3, r5
    73a4:	2b01      	cmp	r3, #1
    73a6:	d100      	bne.n	73aa <frameParse+0x212>
    73a8:	e160      	b.n	766c <frameParse+0x4d4>
    73aa:	2b00      	cmp	r3, #0
    73ac:	d105      	bne.n	73ba <frameParse+0x222>
    73ae:	4b5f      	ldr	r3, [pc, #380]	; (752c <frameParse+0x394>)
    73b0:	781b      	ldrb	r3, [r3, #0]
    73b2:	3b06      	subs	r3, #6
    73b4:	2b01      	cmp	r3, #1
    73b6:	d800      	bhi.n	73ba <frameParse+0x222>
    73b8:	e16d      	b.n	7696 <frameParse+0x4fe>
    73ba:	2f00      	cmp	r7, #0
    73bc:	d100      	bne.n	73c0 <frameParse+0x228>
    73be:	e790      	b.n	72e2 <frameParse+0x14a>
    73c0:	7823      	ldrb	r3, [r4, #0]
    73c2:	2b00      	cmp	r3, #0
    73c4:	d100      	bne.n	73c8 <frameParse+0x230>
    73c6:	e78c      	b.n	72e2 <frameParse+0x14a>
    73c8:	4b58      	ldr	r3, [pc, #352]	; (752c <frameParse+0x394>)
    73ca:	781b      	ldrb	r3, [r3, #0]
    73cc:	2b06      	cmp	r3, #6
    73ce:	d000      	beq.n	73d2 <frameParse+0x23a>
    73d0:	e787      	b.n	72e2 <frameParse+0x14a>
    73d2:	ab16      	add	r3, sp, #88	; 0x58
    73d4:	001a      	movs	r2, r3
    73d6:	9308      	str	r3, [sp, #32]
    73d8:	2301      	movs	r3, #1
    73da:	425b      	negs	r3, r3
    73dc:	8013      	strh	r3, [r2, #0]
    73de:	2078      	movs	r0, #120	; 0x78
    73e0:	4b55      	ldr	r3, [pc, #340]	; (7538 <frameParse+0x3a0>)
    73e2:	4798      	blx	r3
    73e4:	4680      	mov	r8, r0
    73e6:	2800      	cmp	r0, #0
    73e8:	d100      	bne.n	73ec <frameParse+0x254>
    73ea:	e77a      	b.n	72e2 <frameParse+0x14a>
    73ec:	7823      	ldrb	r3, [r4, #0]
    73ee:	4a56      	ldr	r2, [pc, #344]	; (7548 <frameParse+0x3b0>)
    73f0:	3b01      	subs	r3, #1
    73f2:	b2db      	uxtb	r3, r3
    73f4:	7023      	strb	r3, [r4, #0]
    73f6:	7003      	strb	r3, [r0, #0]
    73f8:	7863      	ldrb	r3, [r4, #1]
    73fa:	7043      	strb	r3, [r0, #1]
    73fc:	7813      	ldrb	r3, [r2, #0]
    73fe:	3301      	adds	r3, #1
    7400:	b2db      	uxtb	r3, r3
    7402:	7083      	strb	r3, [r0, #2]
    7404:	7013      	strb	r3, [r2, #0]
    7406:	7863      	ldrb	r3, [r4, #1]
    7408:	069a      	lsls	r2, r3, #26
    740a:	d500      	bpl.n	740e <frameParse+0x276>
    740c:	e172      	b.n	76f4 <frameParse+0x55c>
    740e:	8862      	ldrh	r2, [r4, #2]
    7410:	2716      	movs	r7, #22
    7412:	70c2      	strb	r2, [r0, #3]
    7414:	8862      	ldrh	r2, [r4, #2]
    7416:	250e      	movs	r5, #14
    7418:	0a12      	lsrs	r2, r2, #8
    741a:	7102      	strb	r2, [r0, #4]
    741c:	88a2      	ldrh	r2, [r4, #4]
    741e:	7142      	strb	r2, [r0, #5]
    7420:	88a2      	ldrh	r2, [r4, #4]
    7422:	0a12      	lsrs	r2, r2, #8
    7424:	7182      	strb	r2, [r0, #6]
    7426:	88e2      	ldrh	r2, [r4, #6]
    7428:	71c2      	strb	r2, [r0, #7]
    742a:	88e2      	ldrh	r2, [r4, #6]
    742c:	0a12      	lsrs	r2, r2, #8
    742e:	7202      	strb	r2, [r0, #8]
    7430:	2216      	movs	r2, #22
    7432:	4692      	mov	sl, r2
    7434:	3a0d      	subs	r2, #13
    7436:	200a      	movs	r0, #10
    7438:	4691      	mov	r9, r2
    743a:	9206      	str	r2, [sp, #24]
    743c:	075b      	lsls	r3, r3, #29
    743e:	d518      	bpl.n	7472 <frameParse+0x2da>
    7440:	4b42      	ldr	r3, [pc, #264]	; (754c <frameParse+0x3b4>)
    7442:	4649      	mov	r1, r9
    7444:	681a      	ldr	r2, [r3, #0]
    7446:	2320      	movs	r3, #32
    7448:	5cd3      	ldrb	r3, [r2, r3]
    744a:	4a41      	ldr	r2, [pc, #260]	; (7550 <frameParse+0x3b8>)
    744c:	7423      	strb	r3, [r4, #16]
    744e:	6812      	ldr	r2, [r2, #0]
    7450:	4440      	add	r0, r8
    7452:	6162      	str	r2, [r4, #20]
    7454:	4642      	mov	r2, r8
    7456:	5453      	strb	r3, [r2, r1]
    7458:	2204      	movs	r2, #4
    745a:	a913      	add	r1, sp, #76	; 0x4c
    745c:	4b2e      	ldr	r3, [pc, #184]	; (7518 <frameParse+0x380>)
    745e:	4798      	blx	r3
    7460:	0028      	movs	r0, r5
    7462:	4b2d      	ldr	r3, [pc, #180]	; (7518 <frameParse+0x380>)
    7464:	4440      	add	r0, r8
    7466:	2208      	movs	r2, #8
    7468:	493a      	ldr	r1, [pc, #232]	; (7554 <frameParse+0x3bc>)
    746a:	4798      	blx	r3
    746c:	4653      	mov	r3, sl
    746e:	46b9      	mov	r9, r7
    7470:	9306      	str	r3, [sp, #24]
    7472:	4642      	mov	r2, r8
    7474:	7a23      	ldrb	r3, [r4, #8]
    7476:	7093      	strb	r3, [r2, #2]
    7478:	2228      	movs	r2, #40	; 0x28
    747a:	4b2b      	ldr	r3, [pc, #172]	; (7528 <frameParse+0x390>)
    747c:	469a      	mov	sl, r3
    747e:	681b      	ldr	r3, [r3, #0]
    7480:	5c9a      	ldrb	r2, [r3, r2]
    7482:	2a00      	cmp	r2, #0
    7484:	d018      	beq.n	74b8 <frameParse+0x320>
    7486:	6998      	ldr	r0, [r3, #24]
    7488:	4d2a      	ldr	r5, [pc, #168]	; (7534 <frameParse+0x39c>)
    748a:	8803      	ldrh	r3, [r0, #0]
    748c:	42ab      	cmp	r3, r5
    748e:	d100      	bne.n	7492 <frameParse+0x2fa>
    7490:	e2a8      	b.n	79e4 <frameParse+0x84c>
    7492:	3a01      	subs	r2, #1
    7494:	b2d2      	uxtb	r2, r2
    7496:	3201      	adds	r2, #1
    7498:	0092      	lsls	r2, r2, #2
    749a:	1d03      	adds	r3, r0, #4
    749c:	1882      	adds	r2, r0, r2
    749e:	46b4      	mov	ip, r6
    74a0:	e007      	b.n	74b2 <frameParse+0x31a>
    74a2:	1a1e      	subs	r6, r3, r0
    74a4:	001f      	movs	r7, r3
    74a6:	3304      	adds	r3, #4
    74a8:	1f19      	subs	r1, r3, #4
    74aa:	8809      	ldrh	r1, [r1, #0]
    74ac:	42a9      	cmp	r1, r5
    74ae:	d100      	bne.n	74b2 <frameParse+0x31a>
    74b0:	e129      	b.n	7706 <frameParse+0x56e>
    74b2:	429a      	cmp	r2, r3
    74b4:	d1f5      	bne.n	74a2 <frameParse+0x30a>
    74b6:	4666      	mov	r6, ip
    74b8:	4648      	mov	r0, r9
    74ba:	9b05      	ldr	r3, [sp, #20]
    74bc:	7b32      	ldrb	r2, [r6, #12]
    74be:	9907      	ldr	r1, [sp, #28]
    74c0:	1ad2      	subs	r2, r2, r3
    74c2:	4440      	add	r0, r8
    74c4:	4b14      	ldr	r3, [pc, #80]	; (7518 <frameParse+0x380>)
    74c6:	4798      	blx	r3
    74c8:	465b      	mov	r3, fp
    74ca:	7b32      	ldrb	r2, [r6, #12]
    74cc:	0020      	movs	r0, r4
    74ce:	1ad2      	subs	r2, r2, r3
    74d0:	2300      	movs	r3, #0
    74d2:	9303      	str	r3, [sp, #12]
    74d4:	9302      	str	r3, [sp, #8]
    74d6:	9b08      	ldr	r3, [sp, #32]
    74d8:	b2d2      	uxtb	r2, r2
    74da:	9301      	str	r3, [sp, #4]
    74dc:	2302      	movs	r3, #2
    74de:	9906      	ldr	r1, [sp, #24]
    74e0:	9300      	str	r3, [sp, #0]
    74e2:	4c17      	ldr	r4, [pc, #92]	; (7540 <frameParse+0x3a8>)
    74e4:	4643      	mov	r3, r8
    74e6:	47a0      	blx	r4
    74e8:	2800      	cmp	r0, #0
    74ea:	d000      	beq.n	74ee <frameParse+0x356>
    74ec:	e6f9      	b.n	72e2 <frameParse+0x14a>
    74ee:	4640      	mov	r0, r8
    74f0:	4b14      	ldr	r3, [pc, #80]	; (7544 <frameParse+0x3ac>)
    74f2:	4798      	blx	r3
    74f4:	e6f5      	b.n	72e2 <frameParse+0x14a>
    74f6:	2503      	movs	r5, #3
    74f8:	7863      	ldrb	r3, [r4, #1]
    74fa:	2701      	movs	r7, #1
    74fc:	401d      	ands	r5, r3
    74fe:	d000      	beq.n	7502 <frameParse+0x36a>
    7500:	e744      	b.n	738c <frameParse+0x1f4>
    7502:	4b15      	ldr	r3, [pc, #84]	; (7558 <frameParse+0x3c0>)
    7504:	4798      	blx	r3
    7506:	1e07      	subs	r7, r0, #0
    7508:	d000      	beq.n	750c <frameParse+0x374>
    750a:	e214      	b.n	7936 <frameParse+0x79e>
    750c:	7863      	ldrb	r3, [r4, #1]
    750e:	3701      	adds	r7, #1
    7510:	e73c      	b.n	738c <frameParse+0x1f4>
    7512:	46c0      	nop			; (mov r8, r8)
    7514:	200020a8 	.word	0x200020a8
    7518:	000095df 	.word	0x000095df
    751c:	00009055 	.word	0x00009055
    7520:	00009181 	.word	0x00009181
    7524:	0000fffc 	.word	0x0000fffc
    7528:	20002060 	.word	0x20002060
    752c:	2000039c 	.word	0x2000039c
    7530:	00008da1 	.word	0x00008da1
    7534:	0000ffff 	.word	0x0000ffff
    7538:	00003831 	.word	0x00003831
    753c:	00006971 	.word	0x00006971
    7540:	00006a09 	.word	0x00006a09
    7544:	00003869 	.word	0x00003869
    7548:	2000207c 	.word	0x2000207c
    754c:	20002064 	.word	0x20002064
    7550:	200020f0 	.word	0x200020f0
    7554:	20000070 	.word	0x20000070
    7558:	00008815 	.word	0x00008815
    755c:	7863      	ldrb	r3, [r4, #1]
    755e:	2700      	movs	r7, #0
    7560:	e714      	b.n	738c <frameParse+0x1f4>
    7562:	4ada      	ldr	r2, [pc, #872]	; (78cc <frameParse+0x734>)
    7564:	7812      	ldrb	r2, [r2, #0]
    7566:	2a06      	cmp	r2, #6
    7568:	d000      	beq.n	756c <frameParse+0x3d4>
    756a:	e6d0      	b.n	730e <frameParse+0x176>
    756c:	2580      	movs	r5, #128	; 0x80
    756e:	4005      	ands	r5, r0
    7570:	d100      	bne.n	7574 <frameParse+0x3dc>
    7572:	e18a      	b.n	788a <frameParse+0x6f2>
    7574:	2078      	movs	r0, #120	; 0x78
    7576:	4bd6      	ldr	r3, [pc, #856]	; (78d0 <frameParse+0x738>)
    7578:	4798      	blx	r3
    757a:	1e05      	subs	r5, r0, #0
    757c:	d100      	bne.n	7580 <frameParse+0x3e8>
    757e:	e6b0      	b.n	72e2 <frameParse+0x14a>
    7580:	2203      	movs	r2, #3
    7582:	7821      	ldrb	r1, [r4, #0]
    7584:	ab16      	add	r3, sp, #88	; 0x58
    7586:	88e0      	ldrh	r0, [r4, #6]
    7588:	88a7      	ldrh	r7, [r4, #4]
    758a:	7019      	strb	r1, [r3, #0]
    758c:	9308      	str	r3, [sp, #32]
    758e:	785b      	ldrb	r3, [r3, #1]
    7590:	4393      	bics	r3, r2
    7592:	2201      	movs	r2, #1
    7594:	4313      	orrs	r3, r2
    7596:	2208      	movs	r2, #8
    7598:	b2db      	uxtb	r3, r3
    759a:	4393      	bics	r3, r2
    759c:	2204      	movs	r2, #4
    759e:	4313      	orrs	r3, r2
    75a0:	2220      	movs	r2, #32
    75a2:	4690      	mov	r8, r2
    75a4:	b2db      	uxtb	r3, r3
    75a6:	4393      	bics	r3, r2
    75a8:	324f      	adds	r2, #79	; 0x4f
    75aa:	4013      	ands	r3, r2
    75ac:	9a08      	ldr	r2, [sp, #32]
    75ae:	7053      	strb	r3, [r2, #1]
    75b0:	4bc8      	ldr	r3, [pc, #800]	; (78d4 <frameParse+0x73c>)
    75b2:	8097      	strh	r7, [r2, #4]
    75b4:	881b      	ldrh	r3, [r3, #0]
    75b6:	80d0      	strh	r0, [r2, #6]
    75b8:	8053      	strh	r3, [r2, #2]
    75ba:	7029      	strb	r1, [r5, #0]
    75bc:	7853      	ldrb	r3, [r2, #1]
    75be:	49c6      	ldr	r1, [pc, #792]	; (78d8 <frameParse+0x740>)
    75c0:	706b      	strb	r3, [r5, #1]
    75c2:	780b      	ldrb	r3, [r1, #0]
    75c4:	3301      	adds	r3, #1
    75c6:	b2db      	uxtb	r3, r3
    75c8:	700b      	strb	r3, [r1, #0]
    75ca:	70ab      	strb	r3, [r5, #2]
    75cc:	4643      	mov	r3, r8
    75ce:	7851      	ldrb	r1, [r2, #1]
    75d0:	420b      	tst	r3, r1
    75d2:	d000      	beq.n	75d6 <frameParse+0x43e>
    75d4:	e1db      	b.n	798e <frameParse+0x7f6>
    75d6:	2009      	movs	r0, #9
    75d8:	2709      	movs	r7, #9
    75da:	8853      	ldrh	r3, [r2, #2]
    75dc:	70eb      	strb	r3, [r5, #3]
    75de:	8853      	ldrh	r3, [r2, #2]
    75e0:	0a1b      	lsrs	r3, r3, #8
    75e2:	712b      	strb	r3, [r5, #4]
    75e4:	8893      	ldrh	r3, [r2, #4]
    75e6:	716b      	strb	r3, [r5, #5]
    75e8:	8893      	ldrh	r3, [r2, #4]
    75ea:	0a1b      	lsrs	r3, r3, #8
    75ec:	71ab      	strb	r3, [r5, #6]
    75ee:	88d3      	ldrh	r3, [r2, #6]
    75f0:	71eb      	strb	r3, [r5, #7]
    75f2:	88d3      	ldrh	r3, [r2, #6]
    75f4:	0a1b      	lsrs	r3, r3, #8
    75f6:	722b      	strb	r3, [r5, #8]
    75f8:	074b      	lsls	r3, r1, #29
    75fa:	d51d      	bpl.n	7638 <frameParse+0x4a0>
    75fc:	4bb7      	ldr	r3, [pc, #732]	; (78dc <frameParse+0x744>)
    75fe:	9908      	ldr	r1, [sp, #32]
    7600:	681a      	ldr	r2, [r3, #0]
    7602:	2320      	movs	r3, #32
    7604:	5cd3      	ldrb	r3, [r2, r3]
    7606:	4ab6      	ldr	r2, [pc, #728]	; (78e0 <frameParse+0x748>)
    7608:	740b      	strb	r3, [r1, #16]
    760a:	6812      	ldr	r2, [r2, #0]
    760c:	9206      	str	r2, [sp, #24]
    760e:	000a      	movs	r2, r1
    7610:	9906      	ldr	r1, [sp, #24]
    7612:	6151      	str	r1, [r2, #20]
    7614:	542b      	strb	r3, [r5, r0]
    7616:	1c78      	adds	r0, r7, #1
    7618:	b2c0      	uxtb	r0, r0
    761a:	2204      	movs	r2, #4
    761c:	a91b      	add	r1, sp, #108	; 0x6c
    761e:	4bb1      	ldr	r3, [pc, #708]	; (78e4 <frameParse+0x74c>)
    7620:	1828      	adds	r0, r5, r0
    7622:	4798      	blx	r3
    7624:	1d78      	adds	r0, r7, #5
    7626:	b2c0      	uxtb	r0, r0
    7628:	370d      	adds	r7, #13
    762a:	1828      	adds	r0, r5, r0
    762c:	2208      	movs	r2, #8
    762e:	49ae      	ldr	r1, [pc, #696]	; (78e8 <frameParse+0x750>)
    7630:	4bac      	ldr	r3, [pc, #688]	; (78e4 <frameParse+0x74c>)
    7632:	b2ff      	uxtb	r7, r7
    7634:	4798      	blx	r3
    7636:	0038      	movs	r0, r7
    7638:	7a23      	ldrb	r3, [r4, #8]
    763a:	9907      	ldr	r1, [sp, #28]
    763c:	70ab      	strb	r3, [r5, #2]
    763e:	7b32      	ldrb	r2, [r6, #12]
    7640:	9b05      	ldr	r3, [sp, #20]
    7642:	1828      	adds	r0, r5, r0
    7644:	1ad2      	subs	r2, r2, r3
    7646:	4ba7      	ldr	r3, [pc, #668]	; (78e4 <frameParse+0x74c>)
    7648:	4798      	blx	r3
    764a:	465b      	mov	r3, fp
    764c:	7b32      	ldrb	r2, [r6, #12]
    764e:	0039      	movs	r1, r7
    7650:	1ad2      	subs	r2, r2, r3
    7652:	2300      	movs	r3, #0
    7654:	9303      	str	r3, [sp, #12]
    7656:	9302      	str	r3, [sp, #8]
    7658:	ab0f      	add	r3, sp, #60	; 0x3c
    765a:	9301      	str	r3, [sp, #4]
    765c:	2302      	movs	r3, #2
    765e:	b2d2      	uxtb	r2, r2
    7660:	9300      	str	r3, [sp, #0]
    7662:	9808      	ldr	r0, [sp, #32]
    7664:	002b      	movs	r3, r5
    7666:	4ca1      	ldr	r4, [pc, #644]	; (78ec <frameParse+0x754>)
    7668:	47a0      	blx	r4
    766a:	e63a      	b.n	72e2 <frameParse+0x14a>
    766c:	220f      	movs	r2, #15
    766e:	9b07      	ldr	r3, [sp, #28]
    7670:	781b      	ldrb	r3, [r3, #0]
    7672:	4393      	bics	r3, r2
    7674:	2b10      	cmp	r3, #16
    7676:	d100      	bne.n	767a <frameParse+0x4e2>
    7678:	e0ed      	b.n	7856 <frameParse+0x6be>
    767a:	d92f      	bls.n	76dc <frameParse+0x544>
    767c:	2b20      	cmp	r3, #32
    767e:	d100      	bne.n	7682 <frameParse+0x4ea>
    7680:	e0e2      	b.n	7848 <frameParse+0x6b0>
    7682:	2b30      	cmp	r3, #48	; 0x30
    7684:	d000      	beq.n	7688 <frameParse+0x4f0>
    7686:	e698      	b.n	73ba <frameParse+0x222>
    7688:	4b99      	ldr	r3, [pc, #612]	; (78f0 <frameParse+0x758>)
    768a:	9907      	ldr	r1, [sp, #28]
    768c:	0020      	movs	r0, r4
    768e:	4798      	blx	r3
    7690:	7863      	ldrb	r3, [r4, #1]
    7692:	402b      	ands	r3, r5
    7694:	e689      	b.n	73aa <frameParse+0x212>
    7696:	88a2      	ldrh	r2, [r4, #4]
    7698:	4b96      	ldr	r3, [pc, #600]	; (78f4 <frameParse+0x75c>)
    769a:	429a      	cmp	r2, r3
    769c:	d90e      	bls.n	76bc <frameParse+0x524>
    769e:	20ff      	movs	r0, #255	; 0xff
    76a0:	4b95      	ldr	r3, [pc, #596]	; (78f8 <frameParse+0x760>)
    76a2:	8819      	ldrh	r1, [r3, #0]
    76a4:	4208      	tst	r0, r1
    76a6:	d100      	bne.n	76aa <frameParse+0x512>
    76a8:	e0e6      	b.n	7878 <frameParse+0x6e0>
    76aa:	8819      	ldrh	r1, [r3, #0]
    76ac:	0609      	lsls	r1, r1, #24
    76ae:	d500      	bpl.n	76b2 <frameParse+0x51a>
    76b0:	e0e2      	b.n	7878 <frameParse+0x6e0>
    76b2:	4992      	ldr	r1, [pc, #584]	; (78fc <frameParse+0x764>)
    76b4:	428a      	cmp	r2, r1
    76b6:	d000      	beq.n	76ba <frameParse+0x522>
    76b8:	e67f      	b.n	73ba <frameParse+0x222>
    76ba:	881b      	ldrh	r3, [r3, #0]
    76bc:	88e3      	ldrh	r3, [r4, #6]
    76be:	a816      	add	r0, sp, #88	; 0x58
    76c0:	8003      	strh	r3, [r0, #0]
    76c2:	466b      	mov	r3, sp
    76c4:	7e1b      	ldrb	r3, [r3, #24]
    76c6:	7203      	strb	r3, [r0, #8]
    76c8:	9b07      	ldr	r3, [sp, #28]
    76ca:	6043      	str	r3, [r0, #4]
    76cc:	7bb3      	ldrb	r3, [r6, #14]
    76ce:	7283      	strb	r3, [r0, #10]
    76d0:	7b73      	ldrb	r3, [r6, #13]
    76d2:	7243      	strb	r3, [r0, #9]
    76d4:	4b8a      	ldr	r3, [pc, #552]	; (7900 <frameParse+0x768>)
    76d6:	681b      	ldr	r3, [r3, #0]
    76d8:	4798      	blx	r3
    76da:	e66e      	b.n	73ba <frameParse+0x222>
    76dc:	2b00      	cmp	r3, #0
    76de:	d000      	beq.n	76e2 <frameParse+0x54a>
    76e0:	e66b      	b.n	73ba <frameParse+0x222>
    76e2:	7bb3      	ldrb	r3, [r6, #14]
    76e4:	0020      	movs	r0, r4
    76e6:	9300      	str	r3, [sp, #0]
    76e8:	4642      	mov	r2, r8
    76ea:	9b07      	ldr	r3, [sp, #28]
    76ec:	4649      	mov	r1, r9
    76ee:	4c85      	ldr	r4, [pc, #532]	; (7904 <frameParse+0x76c>)
    76f0:	47a0      	blx	r4
    76f2:	e5f6      	b.n	72e2 <frameParse+0x14a>
    76f4:	2210      	movs	r2, #16
    76f6:	4692      	mov	sl, r2
    76f8:	3a0d      	subs	r2, #13
    76fa:	2710      	movs	r7, #16
    76fc:	2508      	movs	r5, #8
    76fe:	2004      	movs	r0, #4
    7700:	4691      	mov	r9, r2
    7702:	9206      	str	r2, [sp, #24]
    7704:	e69a      	b.n	743c <frameParse+0x2a4>
    7706:	4663      	mov	r3, ip
    7708:	46bc      	mov	ip, r7
    770a:	0037      	movs	r7, r6
    770c:	001e      	movs	r6, r3
    770e:	4661      	mov	r1, ip
    7710:	88e3      	ldrh	r3, [r4, #6]
    7712:	7a22      	ldrb	r2, [r4, #8]
    7714:	800b      	strh	r3, [r1, #0]
    7716:	4653      	mov	r3, sl
    7718:	681b      	ldr	r3, [r3, #0]
    771a:	699b      	ldr	r3, [r3, #24]
    771c:	19db      	adds	r3, r3, r7
    771e:	709a      	strb	r2, [r3, #2]
    7720:	4653      	mov	r3, sl
    7722:	2229      	movs	r2, #41	; 0x29
    7724:	681b      	ldr	r3, [r3, #0]
    7726:	5c9a      	ldrb	r2, [r3, r2]
    7728:	699b      	ldr	r3, [r3, #24]
    772a:	19df      	adds	r7, r3, r7
    772c:	70fa      	strb	r2, [r7, #3]
    772e:	e6c3      	b.n	74b8 <frameParse+0x320>
    7730:	88e3      	ldrh	r3, [r4, #6]
    7732:	2078      	movs	r0, #120	; 0x78
    7734:	930a      	str	r3, [sp, #40]	; 0x28
    7736:	7a23      	ldrb	r3, [r4, #8]
    7738:	930b      	str	r3, [sp, #44]	; 0x2c
    773a:	4b65      	ldr	r3, [pc, #404]	; (78d0 <frameParse+0x738>)
    773c:	4798      	blx	r3
    773e:	9009      	str	r0, [sp, #36]	; 0x24
    7740:	2800      	cmp	r0, #0
    7742:	d100      	bne.n	7746 <frameParse+0x5ae>
    7744:	e079      	b.n	783a <frameParse+0x6a2>
    7746:	4652      	mov	r2, sl
    7748:	8811      	ldrh	r1, [r2, #0]
    774a:	22ff      	movs	r2, #255	; 0xff
    774c:	2003      	movs	r0, #3
    774e:	ab16      	add	r3, sp, #88	; 0x58
    7750:	701a      	strb	r2, [r3, #0]
    7752:	9308      	str	r3, [sp, #32]
    7754:	785b      	ldrb	r3, [r3, #1]
    7756:	4692      	mov	sl, r2
    7758:	4383      	bics	r3, r0
    775a:	2001      	movs	r0, #1
    775c:	4318      	orrs	r0, r3
    775e:	23f7      	movs	r3, #247	; 0xf7
    7760:	4003      	ands	r3, r0
    7762:	2004      	movs	r0, #4
    7764:	4303      	orrs	r3, r0
    7766:	2020      	movs	r0, #32
    7768:	227f      	movs	r2, #127	; 0x7f
    776a:	b2db      	uxtb	r3, r3
    776c:	4383      	bics	r3, r0
    776e:	4013      	ands	r3, r2
    7770:	43ab      	bics	r3, r5
    7772:	9d08      	ldr	r5, [sp, #32]
    7774:	466a      	mov	r2, sp
    7776:	706b      	strb	r3, [r5, #1]
    7778:	4b56      	ldr	r3, [pc, #344]	; (78d4 <frameParse+0x73c>)
    777a:	80e9      	strh	r1, [r5, #6]
    777c:	881b      	ldrh	r3, [r3, #0]
    777e:	9909      	ldr	r1, [sp, #36]	; 0x24
    7780:	806b      	strh	r3, [r5, #2]
    7782:	4653      	mov	r3, sl
    7784:	8d12      	ldrh	r2, [r2, #40]	; 0x28
    7786:	80aa      	strh	r2, [r5, #4]
    7788:	700b      	strb	r3, [r1, #0]
    778a:	786b      	ldrb	r3, [r5, #1]
    778c:	4a52      	ldr	r2, [pc, #328]	; (78d8 <frameParse+0x740>)
    778e:	704b      	strb	r3, [r1, #1]
    7790:	7813      	ldrb	r3, [r2, #0]
    7792:	3301      	adds	r3, #1
    7794:	b2db      	uxtb	r3, r3
    7796:	708b      	strb	r3, [r1, #2]
    7798:	7013      	strb	r3, [r2, #0]
    779a:	786a      	ldrb	r2, [r5, #1]
    779c:	4210      	tst	r0, r2
    779e:	d000      	beq.n	77a2 <frameParse+0x60a>
    77a0:	e0c0      	b.n	7924 <frameParse+0x78c>
    77a2:	0008      	movs	r0, r1
    77a4:	886b      	ldrh	r3, [r5, #2]
    77a6:	70cb      	strb	r3, [r1, #3]
    77a8:	886b      	ldrh	r3, [r5, #2]
    77aa:	0a1b      	lsrs	r3, r3, #8
    77ac:	710b      	strb	r3, [r1, #4]
    77ae:	88ab      	ldrh	r3, [r5, #4]
    77b0:	714b      	strb	r3, [r1, #5]
    77b2:	88ab      	ldrh	r3, [r5, #4]
    77b4:	2109      	movs	r1, #9
    77b6:	0a1b      	lsrs	r3, r3, #8
    77b8:	7183      	strb	r3, [r0, #6]
    77ba:	88eb      	ldrh	r3, [r5, #6]
    77bc:	71c3      	strb	r3, [r0, #7]
    77be:	88eb      	ldrh	r3, [r5, #6]
    77c0:	0a1b      	lsrs	r3, r3, #8
    77c2:	7203      	strb	r3, [r0, #8]
    77c4:	2316      	movs	r3, #22
    77c6:	200a      	movs	r0, #10
    77c8:	469a      	mov	sl, r3
    77ca:	930c      	str	r3, [sp, #48]	; 0x30
    77cc:	3b08      	subs	r3, #8
    77ce:	930a      	str	r3, [sp, #40]	; 0x28
    77d0:	3b05      	subs	r3, #5
    77d2:	0752      	lsls	r2, r2, #29
    77d4:	d51b      	bpl.n	780e <frameParse+0x676>
    77d6:	4a41      	ldr	r2, [pc, #260]	; (78dc <frameParse+0x744>)
    77d8:	9d08      	ldr	r5, [sp, #32]
    77da:	6811      	ldr	r1, [r2, #0]
    77dc:	2220      	movs	r2, #32
    77de:	5c8a      	ldrb	r2, [r1, r2]
    77e0:	493f      	ldr	r1, [pc, #252]	; (78e0 <frameParse+0x748>)
    77e2:	742a      	strb	r2, [r5, #16]
    77e4:	6809      	ldr	r1, [r1, #0]
    77e6:	910d      	str	r1, [sp, #52]	; 0x34
    77e8:	0029      	movs	r1, r5
    77ea:	9d0d      	ldr	r5, [sp, #52]	; 0x34
    77ec:	614d      	str	r5, [r1, #20]
    77ee:	9d09      	ldr	r5, [sp, #36]	; 0x24
    77f0:	a91b      	add	r1, sp, #108	; 0x6c
    77f2:	46ac      	mov	ip, r5
    77f4:	54ea      	strb	r2, [r5, r3]
    77f6:	4460      	add	r0, ip
    77f8:	2204      	movs	r2, #4
    77fa:	4b3a      	ldr	r3, [pc, #232]	; (78e4 <frameParse+0x74c>)
    77fc:	4798      	blx	r3
    77fe:	9b0a      	ldr	r3, [sp, #40]	; 0x28
    7800:	4939      	ldr	r1, [pc, #228]	; (78e8 <frameParse+0x750>)
    7802:	18e8      	adds	r0, r5, r3
    7804:	2208      	movs	r2, #8
    7806:	4b37      	ldr	r3, [pc, #220]	; (78e4 <frameParse+0x74c>)
    7808:	4798      	blx	r3
    780a:	4653      	mov	r3, sl
    780c:	990c      	ldr	r1, [sp, #48]	; 0x30
    780e:	222c      	movs	r2, #44	; 0x2c
    7810:	466d      	mov	r5, sp
    7812:	18ad      	adds	r5, r5, r2
    7814:	782d      	ldrb	r5, [r5, #0]
    7816:	9809      	ldr	r0, [sp, #36]	; 0x24
    7818:	3206      	adds	r2, #6
    781a:	7085      	strb	r5, [r0, #2]
    781c:	54c2      	strb	r2, [r0, r3]
    781e:	2300      	movs	r3, #0
    7820:	9303      	str	r3, [sp, #12]
    7822:	9302      	str	r3, [sp, #8]
    7824:	4643      	mov	r3, r8
    7826:	9301      	str	r3, [sp, #4]
    7828:	464b      	mov	r3, r9
    782a:	3a31      	subs	r2, #49	; 0x31
    782c:	9300      	str	r3, [sp, #0]
    782e:	4d2f      	ldr	r5, [pc, #188]	; (78ec <frameParse+0x754>)
    7830:	0003      	movs	r3, r0
    7832:	9808      	ldr	r0, [sp, #32]
    7834:	47a8      	blx	r5
    7836:	2800      	cmp	r0, #0
    7838:	d001      	beq.n	783e <frameParse+0x6a6>
    783a:	7863      	ldrb	r3, [r4, #1]
    783c:	e5b0      	b.n	73a0 <frameParse+0x208>
    783e:	4b32      	ldr	r3, [pc, #200]	; (7908 <frameParse+0x770>)
    7840:	9809      	ldr	r0, [sp, #36]	; 0x24
    7842:	4798      	blx	r3
    7844:	7863      	ldrb	r3, [r4, #1]
    7846:	e5ab      	b.n	73a0 <frameParse+0x208>
    7848:	4b30      	ldr	r3, [pc, #192]	; (790c <frameParse+0x774>)
    784a:	9907      	ldr	r1, [sp, #28]
    784c:	0020      	movs	r0, r4
    784e:	4798      	blx	r3
    7850:	7863      	ldrb	r3, [r4, #1]
    7852:	402b      	ands	r3, r5
    7854:	e5a9      	b.n	73aa <frameParse+0x212>
    7856:	4b1d      	ldr	r3, [pc, #116]	; (78cc <frameParse+0x734>)
    7858:	781b      	ldrb	r3, [r3, #0]
    785a:	2b06      	cmp	r3, #6
    785c:	d000      	beq.n	7860 <frameParse+0x6c8>
    785e:	e5ac      	b.n	73ba <frameParse+0x222>
    7860:	7bb3      	ldrb	r3, [r6, #14]
    7862:	4f2b      	ldr	r7, [pc, #172]	; (7910 <frameParse+0x778>)
    7864:	9300      	str	r3, [sp, #0]
    7866:	4642      	mov	r2, r8
    7868:	9b07      	ldr	r3, [sp, #28]
    786a:	4649      	mov	r1, r9
    786c:	0020      	movs	r0, r4
    786e:	47b8      	blx	r7
    7870:	7863      	ldrb	r3, [r4, #1]
    7872:	0007      	movs	r7, r0
    7874:	402b      	ands	r3, r5
    7876:	e598      	b.n	73aa <frameParse+0x212>
    7878:	881b      	ldrh	r3, [r3, #0]
    787a:	061b      	lsls	r3, r3, #24
    787c:	d400      	bmi.n	7880 <frameParse+0x6e8>
    787e:	e71d      	b.n	76bc <frameParse+0x524>
    7880:	4b24      	ldr	r3, [pc, #144]	; (7914 <frameParse+0x77c>)
    7882:	429a      	cmp	r2, r3
    7884:	d000      	beq.n	7888 <frameParse+0x6f0>
    7886:	e719      	b.n	76bc <frameParse+0x524>
    7888:	e597      	b.n	73ba <frameParse+0x222>
    788a:	2090      	movs	r0, #144	; 0x90
    788c:	4b10      	ldr	r3, [pc, #64]	; (78d0 <frameParse+0x738>)
    788e:	4798      	blx	r3
    7890:	1e06      	subs	r6, r0, #0
    7892:	d100      	bne.n	7896 <frameParse+0x6fe>
    7894:	e525      	b.n	72e2 <frameParse+0x14a>
    7896:	0021      	movs	r1, r4
    7898:	2220      	movs	r2, #32
    789a:	4b12      	ldr	r3, [pc, #72]	; (78e4 <frameParse+0x74c>)
    789c:	3018      	adds	r0, #24
    789e:	4798      	blx	r3
    78a0:	2338      	movs	r3, #56	; 0x38
    78a2:	0030      	movs	r0, r6
    78a4:	9a06      	ldr	r2, [sp, #24]
    78a6:	9907      	ldr	r1, [sp, #28]
    78a8:	54f2      	strb	r2, [r6, r3]
    78aa:	3039      	adds	r0, #57	; 0x39
    78ac:	60b5      	str	r5, [r6, #8]
    78ae:	4b0d      	ldr	r3, [pc, #52]	; (78e4 <frameParse+0x74c>)
    78b0:	4798      	blx	r3
    78b2:	2301      	movs	r3, #1
    78b4:	74f3      	strb	r3, [r6, #19]
    78b6:	4b18      	ldr	r3, [pc, #96]	; (7918 <frameParse+0x780>)
    78b8:	0031      	movs	r1, r6
    78ba:	681a      	ldr	r2, [r3, #0]
    78bc:	2327      	movs	r3, #39	; 0x27
    78be:	5cd3      	ldrb	r3, [r2, r3]
    78c0:	4816      	ldr	r0, [pc, #88]	; (791c <frameParse+0x784>)
    78c2:	3301      	adds	r3, #1
    78c4:	7433      	strb	r3, [r6, #16]
    78c6:	4b16      	ldr	r3, [pc, #88]	; (7920 <frameParse+0x788>)
    78c8:	4798      	blx	r3
    78ca:	e50a      	b.n	72e2 <frameParse+0x14a>
    78cc:	2000039c 	.word	0x2000039c
    78d0:	00003831 	.word	0x00003831
    78d4:	20002094 	.word	0x20002094
    78d8:	2000207c 	.word	0x2000207c
    78dc:	20002064 	.word	0x20002064
    78e0:	200020f0 	.word	0x200020f0
    78e4:	000095df 	.word	0x000095df
    78e8:	20000070 	.word	0x20000070
    78ec:	00006a09 	.word	0x00006a09
    78f0:	00006fc1 	.word	0x00006fc1
    78f4:	0000fffc 	.word	0x0000fffc
    78f8:	200020a8 	.word	0x200020a8
    78fc:	0000ffff 	.word	0x0000ffff
    7900:	200003b4 	.word	0x200003b4
    7904:	00008095 	.word	0x00008095
    7908:	00003869 	.word	0x00003869
    790c:	00006905 	.word	0x00006905
    7910:	000089f9 	.word	0x000089f9
    7914:	0000fffd 	.word	0x0000fffd
    7918:	20002060 	.word	0x20002060
    791c:	20002054 	.word	0x20002054
    7920:	000038e5 	.word	0x000038e5
    7924:	2310      	movs	r3, #16
    7926:	469a      	mov	sl, r3
    7928:	930c      	str	r3, [sp, #48]	; 0x30
    792a:	3b08      	subs	r3, #8
    792c:	930a      	str	r3, [sp, #40]	; 0x28
    792e:	2004      	movs	r0, #4
    7930:	3b05      	subs	r3, #5
    7932:	2103      	movs	r1, #3
    7934:	e74d      	b.n	77d2 <frameParse+0x63a>
    7936:	4b2d      	ldr	r3, [pc, #180]	; (79ec <frameParse+0x854>)
    7938:	4798      	blx	r3
    793a:	2832      	cmp	r0, #50	; 0x32
    793c:	d801      	bhi.n	7942 <frameParse+0x7aa>
    793e:	7863      	ldrb	r3, [r4, #1]
    7940:	e524      	b.n	738c <frameParse+0x1f4>
    7942:	2090      	movs	r0, #144	; 0x90
    7944:	4b2a      	ldr	r3, [pc, #168]	; (79f0 <frameParse+0x858>)
    7946:	4798      	blx	r3
    7948:	2800      	cmp	r0, #0
    794a:	d100      	bne.n	794e <frameParse+0x7b6>
    794c:	e4c9      	b.n	72e2 <frameParse+0x14a>
    794e:	9008      	str	r0, [sp, #32]
    7950:	2220      	movs	r2, #32
    7952:	0021      	movs	r1, r4
    7954:	4b27      	ldr	r3, [pc, #156]	; (79f4 <frameParse+0x85c>)
    7956:	3018      	adds	r0, #24
    7958:	4798      	blx	r3
    795a:	2338      	movs	r3, #56	; 0x38
    795c:	9808      	ldr	r0, [sp, #32]
    795e:	9a06      	ldr	r2, [sp, #24]
    7960:	9907      	ldr	r1, [sp, #28]
    7962:	54c2      	strb	r2, [r0, r3]
    7964:	6085      	str	r5, [r0, #8]
    7966:	4b23      	ldr	r3, [pc, #140]	; (79f4 <frameParse+0x85c>)
    7968:	3039      	adds	r0, #57	; 0x39
    796a:	4798      	blx	r3
    796c:	4653      	mov	r3, sl
    796e:	2201      	movs	r2, #1
    7970:	6819      	ldr	r1, [r3, #0]
    7972:	2327      	movs	r3, #39	; 0x27
    7974:	9808      	ldr	r0, [sp, #32]
    7976:	74c2      	strb	r2, [r0, #19]
    7978:	5ccb      	ldrb	r3, [r1, r3]
    797a:	7445      	strb	r5, [r0, #17]
    797c:	189b      	adds	r3, r3, r2
    797e:	7403      	strb	r3, [r0, #16]
    7980:	7502      	strb	r2, [r0, #20]
    7982:	0001      	movs	r1, r0
    7984:	4b1c      	ldr	r3, [pc, #112]	; (79f8 <frameParse+0x860>)
    7986:	481d      	ldr	r0, [pc, #116]	; (79fc <frameParse+0x864>)
    7988:	4798      	blx	r3
    798a:	7863      	ldrb	r3, [r4, #1]
    798c:	e4fe      	b.n	738c <frameParse+0x1f4>
    798e:	2003      	movs	r0, #3
    7990:	2703      	movs	r7, #3
    7992:	e631      	b.n	75f8 <frameParse+0x460>
    7994:	2090      	movs	r0, #144	; 0x90
    7996:	4b16      	ldr	r3, [pc, #88]	; (79f0 <frameParse+0x858>)
    7998:	4798      	blx	r3
    799a:	1e05      	subs	r5, r0, #0
    799c:	d100      	bne.n	79a0 <frameParse+0x808>
    799e:	e4a0      	b.n	72e2 <frameParse+0x14a>
    79a0:	2220      	movs	r2, #32
    79a2:	0021      	movs	r1, r4
    79a4:	4b13      	ldr	r3, [pc, #76]	; (79f4 <frameParse+0x85c>)
    79a6:	3018      	adds	r0, #24
    79a8:	4798      	blx	r3
    79aa:	2338      	movs	r3, #56	; 0x38
    79ac:	9a06      	ldr	r2, [sp, #24]
    79ae:	0028      	movs	r0, r5
    79b0:	54ea      	strb	r2, [r5, r3]
    79b2:	2300      	movs	r3, #0
    79b4:	9907      	ldr	r1, [sp, #28]
    79b6:	60ab      	str	r3, [r5, #8]
    79b8:	3039      	adds	r0, #57	; 0x39
    79ba:	4b0e      	ldr	r3, [pc, #56]	; (79f4 <frameParse+0x85c>)
    79bc:	4798      	blx	r3
    79be:	2301      	movs	r3, #1
    79c0:	74eb      	strb	r3, [r5, #19]
    79c2:	88a0      	ldrh	r0, [r4, #4]
    79c4:	4b0e      	ldr	r3, [pc, #56]	; (7a00 <frameParse+0x868>)
    79c6:	4798      	blx	r3
    79c8:	2800      	cmp	r0, #0
    79ca:	d100      	bne.n	79ce <frameParse+0x836>
    79cc:	e4d4      	b.n	7378 <frameParse+0x1e0>
    79ce:	4b0d      	ldr	r3, [pc, #52]	; (7a04 <frameParse+0x86c>)
    79d0:	0029      	movs	r1, r5
    79d2:	681a      	ldr	r2, [r3, #0]
    79d4:	2326      	movs	r3, #38	; 0x26
    79d6:	5cd3      	ldrb	r3, [r2, r3]
    79d8:	480b      	ldr	r0, [pc, #44]	; (7a08 <frameParse+0x870>)
    79da:	3301      	adds	r3, #1
    79dc:	742b      	strb	r3, [r5, #16]
    79de:	4b06      	ldr	r3, [pc, #24]	; (79f8 <frameParse+0x860>)
    79e0:	4798      	blx	r3
    79e2:	e47e      	b.n	72e2 <frameParse+0x14a>
    79e4:	4684      	mov	ip, r0
    79e6:	2700      	movs	r7, #0
    79e8:	e691      	b.n	770e <frameParse+0x576>
    79ea:	46c0      	nop			; (mov r8, r8)
    79ec:	000038a1 	.word	0x000038a1
    79f0:	00003831 	.word	0x00003831
    79f4:	000095df 	.word	0x000095df
    79f8:	000038e5 	.word	0x000038e5
    79fc:	20002054 	.word	0x20002054
    7a00:	00008fa9 	.word	0x00008fa9
    7a04:	20002060 	.word	0x20002060
    7a08:	200020e4 	.word	0x200020e4

00007a0c <indirectDataTimerHandler>:
    7a0c:	b5f8      	push	{r3, r4, r5, r6, r7, lr}
    7a0e:	46ce      	mov	lr, r9
    7a10:	4647      	mov	r7, r8
    7a12:	b580      	push	{r7, lr}
    7a14:	4e18      	ldr	r6, [pc, #96]	; (7a78 <indirectDataTimerHandler+0x6c>)
    7a16:	7a33      	ldrb	r3, [r6, #8]
    7a18:	2b00      	cmp	r3, #0
    7a1a:	d029      	beq.n	7a70 <indirectDataTimerHandler+0x64>
    7a1c:	4b17      	ldr	r3, [pc, #92]	; (7a7c <indirectDataTimerHandler+0x70>)
    7a1e:	2500      	movs	r5, #0
    7a20:	4698      	mov	r8, r3
    7a22:	4b17      	ldr	r3, [pc, #92]	; (7a80 <indirectDataTimerHandler+0x74>)
    7a24:	4f17      	ldr	r7, [pc, #92]	; (7a84 <indirectDataTimerHandler+0x78>)
    7a26:	4699      	mov	r9, r3
    7a28:	e00d      	b.n	7a46 <indirectDataTimerHandler+0x3a>
    7a2a:	6883      	ldr	r3, [r0, #8]
    7a2c:	2b00      	cmp	r3, #0
    7a2e:	d003      	beq.n	7a38 <indirectDataTimerHandler+0x2c>
    7a30:	7c80      	ldrb	r0, [r0, #18]
    7a32:	0022      	movs	r2, r4
    7a34:	2105      	movs	r1, #5
    7a36:	4798      	blx	r3
    7a38:	0020      	movs	r0, r4
    7a3a:	47c8      	blx	r9
    7a3c:	3501      	adds	r5, #1
    7a3e:	7a33      	ldrb	r3, [r6, #8]
    7a40:	b2ed      	uxtb	r5, r5
    7a42:	42ab      	cmp	r3, r5
    7a44:	d914      	bls.n	7a70 <indirectDataTimerHandler+0x64>
    7a46:	2100      	movs	r1, #0
    7a48:	0030      	movs	r0, r6
    7a4a:	47b8      	blx	r7
    7a4c:	1e04      	subs	r4, r0, #0
    7a4e:	d00f      	beq.n	7a70 <indirectDataTimerHandler+0x64>
    7a50:	7c03      	ldrb	r3, [r0, #16]
    7a52:	2b00      	cmp	r3, #0
    7a54:	d004      	beq.n	7a60 <indirectDataTimerHandler+0x54>
    7a56:	3b01      	subs	r3, #1
    7a58:	b2db      	uxtb	r3, r3
    7a5a:	7403      	strb	r3, [r0, #16]
    7a5c:	2b00      	cmp	r3, #0
    7a5e:	d0e4      	beq.n	7a2a <indirectDataTimerHandler+0x1e>
    7a60:	0021      	movs	r1, r4
    7a62:	0030      	movs	r0, r6
    7a64:	47c0      	blx	r8
    7a66:	3501      	adds	r5, #1
    7a68:	7a33      	ldrb	r3, [r6, #8]
    7a6a:	b2ed      	uxtb	r5, r5
    7a6c:	42ab      	cmp	r3, r5
    7a6e:	d8ea      	bhi.n	7a46 <indirectDataTimerHandler+0x3a>
    7a70:	bc0c      	pop	{r2, r3}
    7a72:	4690      	mov	r8, r2
    7a74:	4699      	mov	r9, r3
    7a76:	bdf8      	pop	{r3, r4, r5, r6, r7, pc}
    7a78:	20002054 	.word	0x20002054
    7a7c:	000038e5 	.word	0x000038e5
    7a80:	00003869 	.word	0x00003869
    7a84:	0000391d 	.word	0x0000391d

00007a88 <edScanDurationExpired>:
    7a88:	2200      	movs	r2, #0
    7a8a:	4b01      	ldr	r3, [pc, #4]	; (7a90 <edScanDurationExpired+0x8>)
    7a8c:	701a      	strb	r2, [r3, #0]
    7a8e:	4770      	bx	lr
    7a90:	200003bb 	.word	0x200003bb

00007a94 <assignAddress>:
    7a94:	b5f0      	push	{r4, r5, r6, r7, lr}
    7a96:	4645      	mov	r5, r8
    7a98:	46de      	mov	lr, fp
    7a9a:	4657      	mov	r7, sl
    7a9c:	464e      	mov	r6, r9
    7a9e:	b5e0      	push	{r5, r6, r7, lr}
    7aa0:	b087      	sub	sp, #28
    7aa2:	9303      	str	r3, [sp, #12]
    7aa4:	b2cb      	uxtb	r3, r1
    7aa6:	4698      	mov	r8, r3
    7aa8:	0005      	movs	r5, r0
    7aaa:	2306      	movs	r3, #6
    7aac:	4668      	mov	r0, sp
    7aae:	4641      	mov	r1, r8
    7ab0:	7002      	strb	r2, [r0, #0]
    7ab2:	420b      	tst	r3, r1
    7ab4:	d003      	beq.n	7abe <assignAddress+0x2a>
    7ab6:	4013      	ands	r3, r2
    7ab8:	2b04      	cmp	r3, #4
    7aba:	d100      	bne.n	7abe <assignAddress+0x2a>
    7abc:	e0ae      	b.n	7c1c <assignAddress+0x188>
    7abe:	4643      	mov	r3, r8
    7ac0:	079b      	lsls	r3, r3, #30
    7ac2:	d107      	bne.n	7ad4 <assignAddress+0x40>
    7ac4:	488e      	ldr	r0, [pc, #568]	; (7d00 <assignAddress+0x26c>)
    7ac6:	b007      	add	sp, #28
    7ac8:	bc3c      	pop	{r2, r3, r4, r5}
    7aca:	4690      	mov	r8, r2
    7acc:	4699      	mov	r9, r3
    7ace:	46a2      	mov	sl, r4
    7ad0:	46ab      	mov	fp, r5
    7ad2:	bdf0      	pop	{r4, r5, r6, r7, pc}
    7ad4:	9b00      	ldr	r3, [sp, #0]
    7ad6:	07db      	lsls	r3, r3, #31
    7ad8:	d550      	bpl.n	7b7c <assignAddress+0xe8>
    7ada:	4b8a      	ldr	r3, [pc, #552]	; (7d04 <assignAddress+0x270>)
    7adc:	4699      	mov	r9, r3
    7ade:	681b      	ldr	r3, [r3, #0]
    7ae0:	001a      	movs	r2, r3
    7ae2:	9303      	str	r3, [sp, #12]
    7ae4:	2323      	movs	r3, #35	; 0x23
    7ae6:	5cd3      	ldrb	r3, [r2, r3]
    7ae8:	469b      	mov	fp, r3
    7aea:	2b00      	cmp	r3, #0
    7aec:	d0ea      	beq.n	7ac4 <assignAddress+0x30>
    7aee:	6893      	ldr	r3, [r2, #8]
    7af0:	4f85      	ldr	r7, [pc, #532]	; (7d08 <assignAddress+0x274>)
    7af2:	469a      	mov	sl, r3
    7af4:	001c      	movs	r4, r3
    7af6:	003b      	movs	r3, r7
    7af8:	2600      	movs	r6, #0
    7afa:	4657      	mov	r7, sl
    7afc:	469a      	mov	sl, r3
    7afe:	1be3      	subs	r3, r4, r7
    7b00:	2208      	movs	r2, #8
    7b02:	0029      	movs	r1, r5
    7b04:	0020      	movs	r0, r4
    7b06:	4698      	mov	r8, r3
    7b08:	47d0      	blx	sl
    7b0a:	2800      	cmp	r0, #0
    7b0c:	d100      	bne.n	7b10 <assignAddress+0x7c>
    7b0e:	e0e9      	b.n	7ce4 <assignAddress+0x250>
    7b10:	7823      	ldrb	r3, [r4, #0]
    7b12:	2bff      	cmp	r3, #255	; 0xff
    7b14:	d000      	beq.n	7b18 <assignAddress+0x84>
    7b16:	e0c2      	b.n	7c9e <assignAddress+0x20a>
    7b18:	7863      	ldrb	r3, [r4, #1]
    7b1a:	2bff      	cmp	r3, #255	; 0xff
    7b1c:	d000      	beq.n	7b20 <assignAddress+0x8c>
    7b1e:	e0be      	b.n	7c9e <assignAddress+0x20a>
    7b20:	78a3      	ldrb	r3, [r4, #2]
    7b22:	2bff      	cmp	r3, #255	; 0xff
    7b24:	d000      	beq.n	7b28 <assignAddress+0x94>
    7b26:	e0ba      	b.n	7c9e <assignAddress+0x20a>
    7b28:	78e3      	ldrb	r3, [r4, #3]
    7b2a:	2bff      	cmp	r3, #255	; 0xff
    7b2c:	d000      	beq.n	7b30 <assignAddress+0x9c>
    7b2e:	e0b6      	b.n	7c9e <assignAddress+0x20a>
    7b30:	7923      	ldrb	r3, [r4, #4]
    7b32:	2bff      	cmp	r3, #255	; 0xff
    7b34:	d000      	beq.n	7b38 <assignAddress+0xa4>
    7b36:	e0b2      	b.n	7c9e <assignAddress+0x20a>
    7b38:	7963      	ldrb	r3, [r4, #5]
    7b3a:	2bff      	cmp	r3, #255	; 0xff
    7b3c:	d000      	beq.n	7b40 <assignAddress+0xac>
    7b3e:	e0ae      	b.n	7c9e <assignAddress+0x20a>
    7b40:	79a3      	ldrb	r3, [r4, #6]
    7b42:	2bff      	cmp	r3, #255	; 0xff
    7b44:	d000      	beq.n	7b48 <assignAddress+0xb4>
    7b46:	e0aa      	b.n	7c9e <assignAddress+0x20a>
    7b48:	79e3      	ldrb	r3, [r4, #7]
    7b4a:	2bff      	cmp	r3, #255	; 0xff
    7b4c:	d000      	beq.n	7b50 <assignAddress+0xbc>
    7b4e:	e0a6      	b.n	7c9e <assignAddress+0x20a>
    7b50:	2208      	movs	r2, #8
    7b52:	0029      	movs	r1, r5
    7b54:	4b6d      	ldr	r3, [pc, #436]	; (7d0c <assignAddress+0x278>)
    7b56:	0020      	movs	r0, r4
    7b58:	4798      	blx	r3
    7b5a:	464b      	mov	r3, r9
    7b5c:	4669      	mov	r1, sp
    7b5e:	681a      	ldr	r2, [r3, #0]
    7b60:	7809      	ldrb	r1, [r1, #0]
    7b62:	6893      	ldr	r3, [r2, #8]
    7b64:	4443      	add	r3, r8
    7b66:	7319      	strb	r1, [r3, #12]
    7b68:	6893      	ldr	r3, [r2, #8]
    7b6a:	4443      	add	r3, r8
    7b6c:	8e52      	ldrh	r2, [r2, #50]	; 0x32
    7b6e:	609a      	str	r2, [r3, #8]
    7b70:	4b67      	ldr	r3, [pc, #412]	; (7d10 <assignAddress+0x27c>)
    7b72:	8818      	ldrh	r0, [r3, #0]
    7b74:	3080      	adds	r0, #128	; 0x80
    7b76:	1980      	adds	r0, r0, r6
    7b78:	b280      	uxth	r0, r0
    7b7a:	e7a4      	b.n	7ac6 <assignAddress+0x32>
    7b7c:	4b61      	ldr	r3, [pc, #388]	; (7d04 <assignAddress+0x270>)
    7b7e:	4699      	mov	r9, r3
    7b80:	681b      	ldr	r3, [r3, #0]
    7b82:	001a      	movs	r2, r3
    7b84:	9304      	str	r3, [sp, #16]
    7b86:	2324      	movs	r3, #36	; 0x24
    7b88:	5cd3      	ldrb	r3, [r2, r3]
    7b8a:	469b      	mov	fp, r3
    7b8c:	2b01      	cmp	r3, #1
    7b8e:	d999      	bls.n	7ac4 <assignAddress+0x30>
    7b90:	68d3      	ldr	r3, [r2, #12]
    7b92:	4f5d      	ldr	r7, [pc, #372]	; (7d08 <assignAddress+0x274>)
    7b94:	469a      	mov	sl, r3
    7b96:	001c      	movs	r4, r3
    7b98:	003b      	movs	r3, r7
    7b9a:	2601      	movs	r6, #1
    7b9c:	4657      	mov	r7, sl
    7b9e:	469a      	mov	sl, r3
    7ba0:	3414      	adds	r4, #20
    7ba2:	1be3      	subs	r3, r4, r7
    7ba4:	2208      	movs	r2, #8
    7ba6:	0029      	movs	r1, r5
    7ba8:	0020      	movs	r0, r4
    7baa:	4698      	mov	r8, r3
    7bac:	47d0      	blx	sl
    7bae:	2800      	cmp	r0, #0
    7bb0:	d100      	bne.n	7bb4 <assignAddress+0x120>
    7bb2:	e08a      	b.n	7cca <assignAddress+0x236>
    7bb4:	7823      	ldrb	r3, [r4, #0]
    7bb6:	2bff      	cmp	r3, #255	; 0xff
    7bb8:	d178      	bne.n	7cac <assignAddress+0x218>
    7bba:	7863      	ldrb	r3, [r4, #1]
    7bbc:	2bff      	cmp	r3, #255	; 0xff
    7bbe:	d175      	bne.n	7cac <assignAddress+0x218>
    7bc0:	78a3      	ldrb	r3, [r4, #2]
    7bc2:	2bff      	cmp	r3, #255	; 0xff
    7bc4:	d172      	bne.n	7cac <assignAddress+0x218>
    7bc6:	78e3      	ldrb	r3, [r4, #3]
    7bc8:	2bff      	cmp	r3, #255	; 0xff
    7bca:	d16f      	bne.n	7cac <assignAddress+0x218>
    7bcc:	7923      	ldrb	r3, [r4, #4]
    7bce:	2bff      	cmp	r3, #255	; 0xff
    7bd0:	d16c      	bne.n	7cac <assignAddress+0x218>
    7bd2:	7963      	ldrb	r3, [r4, #5]
    7bd4:	2bff      	cmp	r3, #255	; 0xff
    7bd6:	d169      	bne.n	7cac <assignAddress+0x218>
    7bd8:	79a3      	ldrb	r3, [r4, #6]
    7bda:	2bff      	cmp	r3, #255	; 0xff
    7bdc:	d166      	bne.n	7cac <assignAddress+0x218>
    7bde:	79e3      	ldrb	r3, [r4, #7]
    7be0:	2bff      	cmp	r3, #255	; 0xff
    7be2:	d163      	bne.n	7cac <assignAddress+0x218>
    7be4:	0029      	movs	r1, r5
    7be6:	2208      	movs	r2, #8
    7be8:	0020      	movs	r0, r4
    7bea:	4c48      	ldr	r4, [pc, #288]	; (7d0c <assignAddress+0x278>)
    7bec:	47a0      	blx	r4
    7bee:	464b      	mov	r3, r9
    7bf0:	466a      	mov	r2, sp
    7bf2:	681d      	ldr	r5, [r3, #0]
    7bf4:	7812      	ldrb	r2, [r2, #0]
    7bf6:	68eb      	ldr	r3, [r5, #12]
    7bf8:	9903      	ldr	r1, [sp, #12]
    7bfa:	4443      	add	r3, r8
    7bfc:	741a      	strb	r2, [r3, #16]
    7bfe:	68eb      	ldr	r3, [r5, #12]
    7c00:	2204      	movs	r2, #4
    7c02:	4443      	add	r3, r8
    7c04:	0018      	movs	r0, r3
    7c06:	3008      	adds	r0, #8
    7c08:	47a0      	blx	r4
    7c0a:	68eb      	ldr	r3, [r5, #12]
    7c0c:	4443      	add	r3, r8
    7c0e:	689a      	ldr	r2, [r3, #8]
    7c10:	60da      	str	r2, [r3, #12]
    7c12:	4b3f      	ldr	r3, [pc, #252]	; (7d10 <assignAddress+0x27c>)
    7c14:	8818      	ldrh	r0, [r3, #0]
    7c16:	1980      	adds	r0, r0, r6
    7c18:	b280      	uxth	r0, r0
    7c1a:	e754      	b.n	7ac6 <assignAddress+0x32>
    7c1c:	4b39      	ldr	r3, [pc, #228]	; (7d04 <assignAddress+0x270>)
    7c1e:	4699      	mov	r9, r3
    7c20:	681b      	ldr	r3, [r3, #0]
    7c22:	001a      	movs	r2, r3
    7c24:	9304      	str	r3, [sp, #16]
    7c26:	2320      	movs	r3, #32
    7c28:	5cd3      	ldrb	r3, [r2, r3]
    7c2a:	2b01      	cmp	r3, #1
    7c2c:	d800      	bhi.n	7c30 <assignAddress+0x19c>
    7c2e:	e746      	b.n	7abe <assignAddress+0x2a>
    7c30:	6812      	ldr	r2, [r2, #0]
    7c32:	4f35      	ldr	r7, [pc, #212]	; (7d08 <assignAddress+0x274>)
    7c34:	4693      	mov	fp, r2
    7c36:	0014      	movs	r4, r2
    7c38:	46b8      	mov	r8, r7
    7c3a:	2601      	movs	r6, #1
    7c3c:	465f      	mov	r7, fp
    7c3e:	469b      	mov	fp, r3
    7c40:	340c      	adds	r4, #12
    7c42:	9105      	str	r1, [sp, #20]
    7c44:	1be3      	subs	r3, r4, r7
    7c46:	2208      	movs	r2, #8
    7c48:	0029      	movs	r1, r5
    7c4a:	0020      	movs	r0, r4
    7c4c:	469a      	mov	sl, r3
    7c4e:	47c0      	blx	r8
    7c50:	2800      	cmp	r0, #0
    7c52:	d04d      	beq.n	7cf0 <assignAddress+0x25c>
    7c54:	7823      	ldrb	r3, [r4, #0]
    7c56:	2bff      	cmp	r3, #255	; 0xff
    7c58:	d12f      	bne.n	7cba <assignAddress+0x226>
    7c5a:	7863      	ldrb	r3, [r4, #1]
    7c5c:	2bff      	cmp	r3, #255	; 0xff
    7c5e:	d12c      	bne.n	7cba <assignAddress+0x226>
    7c60:	78a3      	ldrb	r3, [r4, #2]
    7c62:	2bff      	cmp	r3, #255	; 0xff
    7c64:	d129      	bne.n	7cba <assignAddress+0x226>
    7c66:	78e3      	ldrb	r3, [r4, #3]
    7c68:	2bff      	cmp	r3, #255	; 0xff
    7c6a:	d126      	bne.n	7cba <assignAddress+0x226>
    7c6c:	7923      	ldrb	r3, [r4, #4]
    7c6e:	2bff      	cmp	r3, #255	; 0xff
    7c70:	d123      	bne.n	7cba <assignAddress+0x226>
    7c72:	7963      	ldrb	r3, [r4, #5]
    7c74:	2bff      	cmp	r3, #255	; 0xff
    7c76:	d120      	bne.n	7cba <assignAddress+0x226>
    7c78:	79a3      	ldrb	r3, [r4, #6]
    7c7a:	2bff      	cmp	r3, #255	; 0xff
    7c7c:	d11d      	bne.n	7cba <assignAddress+0x226>
    7c7e:	79e3      	ldrb	r3, [r4, #7]
    7c80:	2bff      	cmp	r3, #255	; 0xff
    7c82:	d11a      	bne.n	7cba <assignAddress+0x226>
    7c84:	2208      	movs	r2, #8
    7c86:	4b21      	ldr	r3, [pc, #132]	; (7d0c <assignAddress+0x278>)
    7c88:	0029      	movs	r1, r5
    7c8a:	0020      	movs	r0, r4
    7c8c:	4798      	blx	r3
    7c8e:	464b      	mov	r3, r9
    7c90:	681a      	ldr	r2, [r3, #0]
    7c92:	0230      	lsls	r0, r6, #8
    7c94:	6813      	ldr	r3, [r2, #0]
    7c96:	8bd2      	ldrh	r2, [r2, #30]
    7c98:	4453      	add	r3, sl
    7c9a:	609a      	str	r2, [r3, #8]
    7c9c:	e713      	b.n	7ac6 <assignAddress+0x32>
    7c9e:	3601      	adds	r6, #1
    7ca0:	b2f6      	uxtb	r6, r6
    7ca2:	3410      	adds	r4, #16
    7ca4:	455e      	cmp	r6, fp
    7ca6:	d000      	beq.n	7caa <assignAddress+0x216>
    7ca8:	e729      	b.n	7afe <assignAddress+0x6a>
    7caa:	e70b      	b.n	7ac4 <assignAddress+0x30>
    7cac:	3601      	adds	r6, #1
    7cae:	b2f6      	uxtb	r6, r6
    7cb0:	3414      	adds	r4, #20
    7cb2:	455e      	cmp	r6, fp
    7cb4:	d000      	beq.n	7cb8 <assignAddress+0x224>
    7cb6:	e774      	b.n	7ba2 <assignAddress+0x10e>
    7cb8:	e704      	b.n	7ac4 <assignAddress+0x30>
    7cba:	3601      	adds	r6, #1
    7cbc:	b2f6      	uxtb	r6, r6
    7cbe:	340c      	adds	r4, #12
    7cc0:	455e      	cmp	r6, fp
    7cc2:	d1bf      	bne.n	7c44 <assignAddress+0x1b0>
    7cc4:	9b05      	ldr	r3, [sp, #20]
    7cc6:	4698      	mov	r8, r3
    7cc8:	e6f9      	b.n	7abe <assignAddress+0x2a>
    7cca:	46ba      	mov	sl, r7
    7ccc:	4811      	ldr	r0, [pc, #68]	; (7d14 <assignAddress+0x280>)
    7cce:	2204      	movs	r2, #4
    7cd0:	4b0e      	ldr	r3, [pc, #56]	; (7d0c <assignAddress+0x278>)
    7cd2:	4450      	add	r0, sl
    7cd4:	9903      	ldr	r1, [sp, #12]
    7cd6:	4798      	blx	r3
    7cd8:	4a0f      	ldr	r2, [pc, #60]	; (7d18 <assignAddress+0x284>)
    7cda:	9b04      	ldr	r3, [sp, #16]
    7cdc:	4694      	mov	ip, r2
    7cde:	68db      	ldr	r3, [r3, #12]
    7ce0:	4463      	add	r3, ip
    7ce2:	e794      	b.n	7c0e <assignAddress+0x17a>
    7ce4:	23ff      	movs	r3, #255	; 0xff
    7ce6:	46ba      	mov	sl, r7
    7ce8:	011b      	lsls	r3, r3, #4
    7cea:	4453      	add	r3, sl
    7cec:	9a03      	ldr	r2, [sp, #12]
    7cee:	e73d      	b.n	7b6c <assignAddress+0xd8>
    7cf0:	46bb      	mov	fp, r7
    7cf2:	9a04      	ldr	r2, [sp, #16]
    7cf4:	4b09      	ldr	r3, [pc, #36]	; (7d1c <assignAddress+0x288>)
    7cf6:	8bd2      	ldrh	r2, [r2, #30]
    7cf8:	445b      	add	r3, fp
    7cfa:	609a      	str	r2, [r3, #8]
    7cfc:	0230      	lsls	r0, r6, #8
    7cfe:	e6e2      	b.n	7ac6 <assignAddress+0x32>
    7d00:	0000ffff 	.word	0x0000ffff
    7d04:	20002060 	.word	0x20002060
    7d08:	000095c1 	.word	0x000095c1
    7d0c:	000095df 	.word	0x000095df
    7d10:	200020a8 	.word	0x200020a8
    7d14:	000013f4 	.word	0x000013f4
    7d18:	000013ec 	.word	0x000013ec
    7d1c:	00000bf4 	.word	0x00000bf4

00007d20 <commandConfcb>:
    7d20:	b510      	push	{r4, lr}
    7d22:	0010      	movs	r0, r2
    7d24:	4b01      	ldr	r3, [pc, #4]	; (7d2c <commandConfcb+0xc>)
    7d26:	4798      	blx	r3
    7d28:	bd10      	pop	{r4, pc}
    7d2a:	46c0      	nop			; (mov r8, r8)
    7d2c:	00003869 	.word	0x00003869

00007d30 <MiApp_NoiseDetection.part.0>:
    7d30:	b5f0      	push	{r4, r5, r6, r7, lr}
    7d32:	4645      	mov	r5, r8
    7d34:	464e      	mov	r6, r9
    7d36:	46de      	mov	lr, fp
    7d38:	4657      	mov	r7, sl
    7d3a:	b5e0      	push	{r5, r6, r7, lr}
    7d3c:	b087      	sub	sp, #28
    7d3e:	ab04      	add	r3, sp, #16
    7d40:	1ddd      	adds	r5, r3, #7
    7d42:	2300      	movs	r3, #0
    7d44:	702b      	strb	r3, [r5, #0]
    7d46:	3301      	adds	r3, #1
    7d48:	408b      	lsls	r3, r1
    7d4a:	3301      	adds	r3, #1
    7d4c:	9203      	str	r2, [sp, #12]
    7d4e:	011a      	lsls	r2, r3, #4
    7d50:	1ad3      	subs	r3, r2, r3
    7d52:	019b      	lsls	r3, r3, #6
    7d54:	9300      	str	r3, [sp, #0]
    7d56:	23ff      	movs	r3, #255	; 0xff
    7d58:	9302      	str	r3, [sp, #8]
    7d5a:	9301      	str	r3, [sp, #4]
    7d5c:	4b2d      	ldr	r3, [pc, #180]	; (7e14 <MiApp_NoiseDetection.part.0+0xe4>)
    7d5e:	4681      	mov	r9, r0
    7d60:	4698      	mov	r8, r3
    7d62:	4c2d      	ldr	r4, [pc, #180]	; (7e18 <MiApp_NoiseDetection.part.0+0xe8>)
    7d64:	e004      	b.n	7d70 <MiApp_NoiseDetection.part.0+0x40>
    7d66:	3301      	adds	r3, #1
    7d68:	b2db      	uxtb	r3, r3
    7d6a:	702b      	strb	r3, [r5, #0]
    7d6c:	2b1f      	cmp	r3, #31
    7d6e:	d83e      	bhi.n	7dee <MiApp_NoiseDetection.part.0+0xbe>
    7d70:	2601      	movs	r6, #1
    7d72:	47c0      	blx	r8
    7d74:	0032      	movs	r2, r6
    7d76:	782b      	ldrb	r3, [r5, #0]
    7d78:	4649      	mov	r1, r9
    7d7a:	409a      	lsls	r2, r3
    7d7c:	400a      	ands	r2, r1
    7d7e:	4210      	tst	r0, r2
    7d80:	d0f1      	beq.n	7d66 <MiApp_NoiseDetection.part.0+0x36>
    7d82:	0029      	movs	r1, r5
    7d84:	4b25      	ldr	r3, [pc, #148]	; (7e1c <MiApp_NoiseDetection.part.0+0xec>)
    7d86:	2000      	movs	r0, #0
    7d88:	4798      	blx	r3
    7d8a:	4f25      	ldr	r7, [pc, #148]	; (7e20 <MiApp_NoiseDetection.part.0+0xf0>)
    7d8c:	4b25      	ldr	r3, [pc, #148]	; (7e24 <MiApp_NoiseDetection.part.0+0xf4>)
    7d8e:	9800      	ldr	r0, [sp, #0]
    7d90:	613b      	str	r3, [r7, #16]
    7d92:	4b25      	ldr	r3, [pc, #148]	; (7e28 <MiApp_NoiseDetection.part.0+0xf8>)
    7d94:	469b      	mov	fp, r3
    7d96:	4798      	blx	r3
    7d98:	21fa      	movs	r1, #250	; 0xfa
    7d9a:	4b24      	ldr	r3, [pc, #144]	; (7e2c <MiApp_NoiseDetection.part.0+0xfc>)
    7d9c:	0089      	lsls	r1, r1, #2
    7d9e:	469a      	mov	sl, r3
    7da0:	4798      	blx	r3
    7da2:	6078      	str	r0, [r7, #4]
    7da4:	9800      	ldr	r0, [sp, #0]
    7da6:	47d8      	blx	fp
    7da8:	21fa      	movs	r1, #250	; 0xfa
    7daa:	0089      	lsls	r1, r1, #2
    7dac:	47d0      	blx	sl
    7dae:	2300      	movs	r3, #0
    7db0:	60b8      	str	r0, [r7, #8]
    7db2:	733b      	strb	r3, [r7, #12]
    7db4:	0038      	movs	r0, r7
    7db6:	4b1e      	ldr	r3, [pc, #120]	; (7e30 <MiApp_NoiseDetection.part.0+0x100>)
    7db8:	4798      	blx	r3
    7dba:	4f1e      	ldr	r7, [pc, #120]	; (7e34 <MiApp_NoiseDetection.part.0+0x104>)
    7dbc:	4b1e      	ldr	r3, [pc, #120]	; (7e38 <MiApp_NoiseDetection.part.0+0x108>)
    7dbe:	703e      	strb	r6, [r7, #0]
    7dc0:	469a      	mov	sl, r3
    7dc2:	2600      	movs	r6, #0
    7dc4:	e000      	b.n	7dc8 <MiApp_NoiseDetection.part.0+0x98>
    7dc6:	47a0      	blx	r4
    7dc8:	2001      	movs	r0, #1
    7dca:	47d0      	blx	sl
    7dcc:	1c03      	adds	r3, r0, #0
    7dce:	42b0      	cmp	r0, r6
    7dd0:	d200      	bcs.n	7dd4 <MiApp_NoiseDetection.part.0+0xa4>
    7dd2:	1c33      	adds	r3, r6, #0
    7dd4:	b2de      	uxtb	r6, r3
    7dd6:	783b      	ldrb	r3, [r7, #0]
    7dd8:	2b00      	cmp	r3, #0
    7dda:	d1f4      	bne.n	7dc6 <MiApp_NoiseDetection.part.0+0x96>
    7ddc:	9b01      	ldr	r3, [sp, #4]
    7dde:	429e      	cmp	r6, r3
    7de0:	d30d      	bcc.n	7dfe <MiApp_NoiseDetection.part.0+0xce>
    7de2:	782b      	ldrb	r3, [r5, #0]
    7de4:	3301      	adds	r3, #1
    7de6:	b2db      	uxtb	r3, r3
    7de8:	702b      	strb	r3, [r5, #0]
    7dea:	2b1f      	cmp	r3, #31
    7dec:	d9c0      	bls.n	7d70 <MiApp_NoiseDetection.part.0+0x40>
    7dee:	9802      	ldr	r0, [sp, #8]
    7df0:	b007      	add	sp, #28
    7df2:	bc3c      	pop	{r2, r3, r4, r5}
    7df4:	4690      	mov	r8, r2
    7df6:	4699      	mov	r9, r3
    7df8:	46a2      	mov	sl, r4
    7dfa:	46ab      	mov	fp, r5
    7dfc:	bdf0      	pop	{r4, r5, r6, r7, pc}
    7dfe:	782b      	ldrb	r3, [r5, #0]
    7e00:	9a03      	ldr	r2, [sp, #12]
    7e02:	9302      	str	r3, [sp, #8]
    7e04:	2a00      	cmp	r2, #0
    7e06:	d002      	beq.n	7e0e <MiApp_NoiseDetection.part.0+0xde>
    7e08:	7016      	strb	r6, [r2, #0]
    7e0a:	9601      	str	r6, [sp, #4]
    7e0c:	e7ab      	b.n	7d66 <MiApp_NoiseDetection.part.0+0x36>
    7e0e:	9601      	str	r6, [sp, #4]
    7e10:	e7a9      	b.n	7d66 <MiApp_NoiseDetection.part.0+0x36>
    7e12:	46c0      	nop			; (mov r8, r8)
    7e14:	00002c95 	.word	0x00002c95
    7e18:	00003aa9 	.word	0x00003aa9
    7e1c:	0000552d 	.word	0x0000552d
    7e20:	200020c4 	.word	0x200020c4
    7e24:	00007a89 	.word	0x00007a89
    7e28:	00002c91 	.word	0x00002c91
    7e2c:	00009239 	.word	0x00009239
    7e30:	00003a11 	.word	0x00003a11
    7e34:	200003bb 	.word	0x200003bb
    7e38:	00002c79 	.word	0x00002c79

00007e3c <MiApp_StartConnection>:
    7e3c:	b5f0      	push	{r4, r5, r6, r7, lr}
    7e3e:	4647      	mov	r7, r8
    7e40:	46ce      	mov	lr, r9
    7e42:	b580      	push	{r7, lr}
    7e44:	000d      	movs	r5, r1
    7e46:	b083      	sub	sp, #12
    7e48:	0017      	movs	r7, r2
    7e4a:	001e      	movs	r6, r3
    7e4c:	2400      	movs	r4, #0
    7e4e:	290e      	cmp	r1, #14
    7e50:	d807      	bhi.n	7e62 <MiApp_StartConnection+0x26>
    7e52:	2b00      	cmp	r3, #0
    7e54:	d005      	beq.n	7e62 <MiApp_StartConnection+0x26>
    7e56:	4b2a      	ldr	r3, [pc, #168]	; (7f00 <MiApp_StartConnection+0xc4>)
    7e58:	4698      	mov	r8, r3
    7e5a:	781b      	ldrb	r3, [r3, #0]
    7e5c:	4699      	mov	r9, r3
    7e5e:	2b01      	cmp	r3, #1
    7e60:	d005      	beq.n	7e6e <MiApp_StartConnection+0x32>
    7e62:	0020      	movs	r0, r4
    7e64:	b003      	add	sp, #12
    7e66:	bc0c      	pop	{r2, r3}
    7e68:	4690      	mov	r8, r2
    7e6a:	4699      	mov	r9, r3
    7e6c:	bdf0      	pop	{r4, r5, r6, r7, pc}
    7e6e:	4642      	mov	r2, r8
    7e70:	3301      	adds	r3, #1
    7e72:	7013      	strb	r3, [r2, #0]
    7e74:	2801      	cmp	r0, #1
    7e76:	d007      	beq.n	7e88 <MiApp_StartConnection+0x4c>
    7e78:	2800      	cmp	r0, #0
    7e7a:	d022      	beq.n	7ec2 <MiApp_StartConnection+0x86>
    7e7c:	2001      	movs	r0, #1
    7e7e:	47b0      	blx	r6
    7e80:	4643      	mov	r3, r8
    7e82:	464a      	mov	r2, r9
    7e84:	701a      	strb	r2, [r3, #0]
    7e86:	e7ec      	b.n	7e62 <MiApp_StartConnection+0x26>
    7e88:	491e      	ldr	r1, [pc, #120]	; (7f04 <MiApp_StartConnection+0xc8>)
    7e8a:	4b1f      	ldr	r3, [pc, #124]	; (7f08 <MiApp_StartConnection+0xcc>)
    7e8c:	481f      	ldr	r0, [pc, #124]	; (7f0c <MiApp_StartConnection+0xd0>)
    7e8e:	800b      	strh	r3, [r1, #0]
    7e90:	4b1f      	ldr	r3, [pc, #124]	; (7f10 <MiApp_StartConnection+0xd4>)
    7e92:	8004      	strh	r4, [r0, #0]
    7e94:	4798      	blx	r3
    7e96:	2200      	movs	r2, #0
    7e98:	4b1e      	ldr	r3, [pc, #120]	; (7f14 <MiApp_StartConnection+0xd8>)
    7e9a:	0029      	movs	r1, r5
    7e9c:	701a      	strb	r2, [r3, #0]
    7e9e:	466b      	mov	r3, sp
    7ea0:	0038      	movs	r0, r7
    7ea2:	1dda      	adds	r2, r3, #7
    7ea4:	4b1c      	ldr	r3, [pc, #112]	; (7f18 <MiApp_StartConnection+0xdc>)
    7ea6:	4798      	blx	r3
    7ea8:	466b      	mov	r3, sp
    7eaa:	1d99      	adds	r1, r3, #6
    7eac:	7008      	strb	r0, [r1, #0]
    7eae:	4b1b      	ldr	r3, [pc, #108]	; (7f1c <MiApp_StartConnection+0xe0>)
    7eb0:	2000      	movs	r0, #0
    7eb2:	4798      	blx	r3
    7eb4:	2000      	movs	r0, #0
    7eb6:	47b0      	blx	r6
    7eb8:	2306      	movs	r3, #6
    7eba:	4642      	mov	r2, r8
    7ebc:	2401      	movs	r4, #1
    7ebe:	7013      	strb	r3, [r2, #0]
    7ec0:	e7cf      	b.n	7e62 <MiApp_StartConnection+0x26>
    7ec2:	466b      	mov	r3, sp
    7ec4:	4c0f      	ldr	r4, [pc, #60]	; (7f04 <MiApp_StartConnection+0xc8>)
    7ec6:	71d8      	strb	r0, [r3, #7]
    7ec8:	4b0f      	ldr	r3, [pc, #60]	; (7f08 <MiApp_StartConnection+0xcc>)
    7eca:	2101      	movs	r1, #1
    7ecc:	8023      	strh	r3, [r4, #0]
    7ece:	464b      	mov	r3, r9
    7ed0:	2201      	movs	r2, #1
    7ed2:	423b      	tst	r3, r7
    7ed4:	d00c      	beq.n	7ef0 <MiApp_StartConnection+0xb4>
    7ed6:	466b      	mov	r3, sp
    7ed8:	2000      	movs	r0, #0
    7eda:	1dd9      	adds	r1, r3, #7
    7edc:	4b0f      	ldr	r3, [pc, #60]	; (7f1c <MiApp_StartConnection+0xe0>)
    7ede:	4798      	blx	r3
    7ee0:	2300      	movs	r3, #0
    7ee2:	480a      	ldr	r0, [pc, #40]	; (7f0c <MiApp_StartConnection+0xd0>)
    7ee4:	0021      	movs	r1, r4
    7ee6:	8003      	strh	r3, [r0, #0]
    7ee8:	4b09      	ldr	r3, [pc, #36]	; (7f10 <MiApp_StartConnection+0xd4>)
    7eea:	4798      	blx	r3
    7eec:	e7e2      	b.n	7eb4 <MiApp_StartConnection+0x78>
    7eee:	0019      	movs	r1, r3
    7ef0:	1c4b      	adds	r3, r1, #1
    7ef2:	0052      	lsls	r2, r2, #1
    7ef4:	b2db      	uxtb	r3, r3
    7ef6:	423a      	tst	r2, r7
    7ef8:	d0f9      	beq.n	7eee <MiApp_StartConnection+0xb2>
    7efa:	466b      	mov	r3, sp
    7efc:	71d9      	strb	r1, [r3, #7]
    7efe:	e7ea      	b.n	7ed6 <MiApp_StartConnection+0x9a>
    7f00:	2000039c 	.word	0x2000039c
    7f04:	20002094 	.word	0x20002094
    7f08:	00001234 	.word	0x00001234
    7f0c:	200020a8 	.word	0x200020a8
    7f10:	00002655 	.word	0x00002655
    7f14:	200003bb 	.word	0x200003bb
    7f18:	00007d31 	.word	0x00007d31
    7f1c:	0000552d 	.word	0x0000552d

00007f20 <calculatePermitCapacity>:
    7f20:	b5f8      	push	{r3, r4, r5, r6, r7, lr}
    7f22:	46de      	mov	lr, fp
    7f24:	4657      	mov	r7, sl
    7f26:	4645      	mov	r5, r8
    7f28:	464e      	mov	r6, r9
    7f2a:	2320      	movs	r3, #32
    7f2c:	b5e0      	push	{r5, r6, r7, lr}
    7f2e:	4d57      	ldr	r5, [pc, #348]	; (808c <calculatePermitCapacity+0x16c>)
    7f30:	468a      	mov	sl, r1
    7f32:	6829      	ldr	r1, [r5, #0]
    7f34:	4683      	mov	fp, r0
    7f36:	5cca      	ldrb	r2, [r1, r3]
    7f38:	2a01      	cmp	r2, #1
    7f3a:	d800      	bhi.n	7f3e <calculatePermitCapacity+0x1e>
    7f3c:	e09d      	b.n	807a <calculatePermitCapacity+0x15a>
    7f3e:	6808      	ldr	r0, [r1, #0]
    7f40:	3a02      	subs	r2, #2
    7f42:	b2d2      	uxtb	r2, r2
    7f44:	0003      	movs	r3, r0
    7f46:	0054      	lsls	r4, r2, #1
    7f48:	18a2      	adds	r2, r4, r2
    7f4a:	2400      	movs	r4, #0
    7f4c:	0092      	lsls	r2, r2, #2
    7f4e:	3218      	adds	r2, #24
    7f50:	330c      	adds	r3, #12
    7f52:	1880      	adds	r0, r0, r2
    7f54:	781a      	ldrb	r2, [r3, #0]
    7f56:	2aff      	cmp	r2, #255	; 0xff
    7f58:	d115      	bne.n	7f86 <calculatePermitCapacity+0x66>
    7f5a:	785a      	ldrb	r2, [r3, #1]
    7f5c:	2aff      	cmp	r2, #255	; 0xff
    7f5e:	d112      	bne.n	7f86 <calculatePermitCapacity+0x66>
    7f60:	789a      	ldrb	r2, [r3, #2]
    7f62:	2aff      	cmp	r2, #255	; 0xff
    7f64:	d10f      	bne.n	7f86 <calculatePermitCapacity+0x66>
    7f66:	78da      	ldrb	r2, [r3, #3]
    7f68:	2aff      	cmp	r2, #255	; 0xff
    7f6a:	d10c      	bne.n	7f86 <calculatePermitCapacity+0x66>
    7f6c:	791a      	ldrb	r2, [r3, #4]
    7f6e:	2aff      	cmp	r2, #255	; 0xff
    7f70:	d109      	bne.n	7f86 <calculatePermitCapacity+0x66>
    7f72:	795a      	ldrb	r2, [r3, #5]
    7f74:	2aff      	cmp	r2, #255	; 0xff
    7f76:	d106      	bne.n	7f86 <calculatePermitCapacity+0x66>
    7f78:	799a      	ldrb	r2, [r3, #6]
    7f7a:	2aff      	cmp	r2, #255	; 0xff
    7f7c:	d103      	bne.n	7f86 <calculatePermitCapacity+0x66>
    7f7e:	79da      	ldrb	r2, [r3, #7]
    7f80:	2aff      	cmp	r2, #255	; 0xff
    7f82:	d100      	bne.n	7f86 <calculatePermitCapacity+0x66>
    7f84:	2401      	movs	r4, #1
    7f86:	330c      	adds	r3, #12
    7f88:	4298      	cmp	r0, r3
    7f8a:	d1e3      	bne.n	7f54 <calculatePermitCapacity+0x34>
    7f8c:	2323      	movs	r3, #35	; 0x23
    7f8e:	5cce      	ldrb	r6, [r1, r3]
    7f90:	2e00      	cmp	r6, #0
    7f92:	d100      	bne.n	7f96 <calculatePermitCapacity+0x76>
    7f94:	e073      	b.n	807e <calculatePermitCapacity+0x15e>
    7f96:	1e72      	subs	r2, r6, #1
    7f98:	b2d2      	uxtb	r2, r2
    7f9a:	688b      	ldr	r3, [r1, #8]
    7f9c:	3201      	adds	r2, #1
    7f9e:	0112      	lsls	r2, r2, #4
    7fa0:	189f      	adds	r7, r3, r2
    7fa2:	2200      	movs	r2, #0
    7fa4:	7818      	ldrb	r0, [r3, #0]
    7fa6:	28ff      	cmp	r0, #255	; 0xff
    7fa8:	d164      	bne.n	8074 <calculatePermitCapacity+0x154>
    7faa:	7858      	ldrb	r0, [r3, #1]
    7fac:	28ff      	cmp	r0, #255	; 0xff
    7fae:	d161      	bne.n	8074 <calculatePermitCapacity+0x154>
    7fb0:	7898      	ldrb	r0, [r3, #2]
    7fb2:	28ff      	cmp	r0, #255	; 0xff
    7fb4:	d15e      	bne.n	8074 <calculatePermitCapacity+0x154>
    7fb6:	78d8      	ldrb	r0, [r3, #3]
    7fb8:	28ff      	cmp	r0, #255	; 0xff
    7fba:	d15b      	bne.n	8074 <calculatePermitCapacity+0x154>
    7fbc:	7918      	ldrb	r0, [r3, #4]
    7fbe:	28ff      	cmp	r0, #255	; 0xff
    7fc0:	d158      	bne.n	8074 <calculatePermitCapacity+0x154>
    7fc2:	7958      	ldrb	r0, [r3, #5]
    7fc4:	28ff      	cmp	r0, #255	; 0xff
    7fc6:	d155      	bne.n	8074 <calculatePermitCapacity+0x154>
    7fc8:	7998      	ldrb	r0, [r3, #6]
    7fca:	28ff      	cmp	r0, #255	; 0xff
    7fcc:	d152      	bne.n	8074 <calculatePermitCapacity+0x154>
    7fce:	79d8      	ldrb	r0, [r3, #7]
    7fd0:	28ff      	cmp	r0, #255	; 0xff
    7fd2:	d14f      	bne.n	8074 <calculatePermitCapacity+0x154>
    7fd4:	2401      	movs	r4, #1
    7fd6:	3310      	adds	r3, #16
    7fd8:	42bb      	cmp	r3, r7
    7fda:	d1e3      	bne.n	7fa4 <calculatePermitCapacity+0x84>
    7fdc:	2364      	movs	r3, #100	; 0x64
    7fde:	1ab2      	subs	r2, r6, r2
    7fe0:	4353      	muls	r3, r2
    7fe2:	0030      	movs	r0, r6
    7fe4:	469c      	mov	ip, r3
    7fe6:	2324      	movs	r3, #36	; 0x24
    7fe8:	5cca      	ldrb	r2, [r1, r3]
    7fea:	2a01      	cmp	r2, #1
    7fec:	d94b      	bls.n	8086 <calculatePermitCapacity+0x166>
    7fee:	3a02      	subs	r2, #2
    7ff0:	b2d2      	uxtb	r2, r2
    7ff2:	0096      	lsls	r6, r2, #2
    7ff4:	68c9      	ldr	r1, [r1, #12]
    7ff6:	18b2      	adds	r2, r6, r2
    7ff8:	0092      	lsls	r2, r2, #2
    7ffa:	3228      	adds	r2, #40	; 0x28
    7ffc:	000b      	movs	r3, r1
    7ffe:	188e      	adds	r6, r1, r2
    8000:	2200      	movs	r2, #0
    8002:	3314      	adds	r3, #20
    8004:	7819      	ldrb	r1, [r3, #0]
    8006:	29ff      	cmp	r1, #255	; 0xff
    8008:	d131      	bne.n	806e <calculatePermitCapacity+0x14e>
    800a:	7859      	ldrb	r1, [r3, #1]
    800c:	29ff      	cmp	r1, #255	; 0xff
    800e:	d12e      	bne.n	806e <calculatePermitCapacity+0x14e>
    8010:	7899      	ldrb	r1, [r3, #2]
    8012:	29ff      	cmp	r1, #255	; 0xff
    8014:	d12b      	bne.n	806e <calculatePermitCapacity+0x14e>
    8016:	78d9      	ldrb	r1, [r3, #3]
    8018:	29ff      	cmp	r1, #255	; 0xff
    801a:	d128      	bne.n	806e <calculatePermitCapacity+0x14e>
    801c:	7919      	ldrb	r1, [r3, #4]
    801e:	29ff      	cmp	r1, #255	; 0xff
    8020:	d125      	bne.n	806e <calculatePermitCapacity+0x14e>
    8022:	7959      	ldrb	r1, [r3, #5]
    8024:	29ff      	cmp	r1, #255	; 0xff
    8026:	d122      	bne.n	806e <calculatePermitCapacity+0x14e>
    8028:	7999      	ldrb	r1, [r3, #6]
    802a:	29ff      	cmp	r1, #255	; 0xff
    802c:	d11f      	bne.n	806e <calculatePermitCapacity+0x14e>
    802e:	79d9      	ldrb	r1, [r3, #7]
    8030:	29ff      	cmp	r1, #255	; 0xff
    8032:	d11c      	bne.n	806e <calculatePermitCapacity+0x14e>
    8034:	2401      	movs	r4, #1
    8036:	3314      	adds	r3, #20
    8038:	429e      	cmp	r6, r3
    803a:	d1e3      	bne.n	8004 <calculatePermitCapacity+0xe4>
    803c:	4691      	mov	r9, r2
    803e:	4b14      	ldr	r3, [pc, #80]	; (8090 <calculatePermitCapacity+0x170>)
    8040:	0001      	movs	r1, r0
    8042:	4660      	mov	r0, ip
    8044:	4698      	mov	r8, r3
    8046:	4798      	blx	r3
    8048:	465b      	mov	r3, fp
    804a:	7018      	strb	r0, [r3, #0]
    804c:	2324      	movs	r3, #36	; 0x24
    804e:	682a      	ldr	r2, [r5, #0]
    8050:	2064      	movs	r0, #100	; 0x64
    8052:	5cd1      	ldrb	r1, [r2, r3]
    8054:	464b      	mov	r3, r9
    8056:	1aca      	subs	r2, r1, r3
    8058:	4350      	muls	r0, r2
    805a:	47c0      	blx	r8
    805c:	4653      	mov	r3, sl
    805e:	7018      	strb	r0, [r3, #0]
    8060:	0020      	movs	r0, r4
    8062:	bc3c      	pop	{r2, r3, r4, r5}
    8064:	4690      	mov	r8, r2
    8066:	4699      	mov	r9, r3
    8068:	46a2      	mov	sl, r4
    806a:	46ab      	mov	fp, r5
    806c:	bdf8      	pop	{r3, r4, r5, r6, r7, pc}
    806e:	3201      	adds	r2, #1
    8070:	b2d2      	uxtb	r2, r2
    8072:	e7e0      	b.n	8036 <calculatePermitCapacity+0x116>
    8074:	3201      	adds	r2, #1
    8076:	b2d2      	uxtb	r2, r2
    8078:	e7ad      	b.n	7fd6 <calculatePermitCapacity+0xb6>
    807a:	2400      	movs	r4, #0
    807c:	e786      	b.n	7f8c <calculatePermitCapacity+0x6c>
    807e:	2300      	movs	r3, #0
    8080:	2000      	movs	r0, #0
    8082:	469c      	mov	ip, r3
    8084:	e7af      	b.n	7fe6 <calculatePermitCapacity+0xc6>
    8086:	2300      	movs	r3, #0
    8088:	4699      	mov	r9, r3
    808a:	e7d8      	b.n	803e <calculatePermitCapacity+0x11e>
    808c:	20002060 	.word	0x20002060
    8090:	0000934d 	.word	0x0000934d

00008094 <handleJoinMessage>:
    8094:	b5f0      	push	{r4, r5, r6, r7, lr}
    8096:	4645      	mov	r5, r8
    8098:	4657      	mov	r7, sl
    809a:	464e      	mov	r6, r9
    809c:	46de      	mov	lr, fp
    809e:	b5e0      	push	{r5, r6, r7, lr}
    80a0:	001d      	movs	r5, r3
    80a2:	b091      	sub	sp, #68	; 0x44
    80a4:	ab1a      	add	r3, sp, #104	; 0x68
    80a6:	781b      	ldrb	r3, [r3, #0]
    80a8:	0006      	movs	r6, r0
    80aa:	4698      	mov	r8, r3
    80ac:	782b      	ldrb	r3, [r5, #0]
    80ae:	000f      	movs	r7, r1
    80b0:	0014      	movs	r4, r2
    80b2:	2b03      	cmp	r3, #3
    80b4:	d100      	bne.n	80b8 <handleJoinMessage+0x24>
    80b6:	e0b6      	b.n	8226 <handleJoinMessage+0x192>
    80b8:	d957      	bls.n	816a <handleJoinMessage+0xd6>
    80ba:	2b05      	cmp	r3, #5
    80bc:	d00d      	beq.n	80da <handleJoinMessage+0x46>
    80be:	2b07      	cmp	r3, #7
    80c0:	d104      	bne.n	80cc <handleJoinMessage+0x38>
    80c2:	4bd4      	ldr	r3, [pc, #848]	; (8414 <handleJoinMessage+0x380>)
    80c4:	781b      	ldrb	r3, [r3, #0]
    80c6:	2b06      	cmp	r3, #6
    80c8:	d100      	bne.n	80cc <handleJoinMessage+0x38>
    80ca:	e10d      	b.n	82e8 <handleJoinMessage+0x254>
    80cc:	b011      	add	sp, #68	; 0x44
    80ce:	bc3c      	pop	{r2, r3, r4, r5}
    80d0:	4690      	mov	r8, r2
    80d2:	4699      	mov	r9, r3
    80d4:	46a2      	mov	sl, r4
    80d6:	46ab      	mov	fp, r5
    80d8:	bdf0      	pop	{r4, r5, r6, r7, pc}
    80da:	2400      	movs	r4, #0
    80dc:	ab02      	add	r3, sp, #8
    80de:	82dc      	strh	r4, [r3, #22]
    80e0:	4bcc      	ldr	r3, [pc, #816]	; (8414 <handleJoinMessage+0x380>)
    80e2:	781f      	ldrb	r7, [r3, #0]
    80e4:	2f06      	cmp	r7, #6
    80e6:	d1f1      	bne.n	80cc <handleJoinMessage+0x38>
    80e8:	1c68      	adds	r0, r5, #1
    80ea:	2300      	movs	r3, #0
    80ec:	4dca      	ldr	r5, [pc, #808]	; (8418 <handleJoinMessage+0x384>)
    80ee:	2205      	movs	r2, #5
    80f0:	2102      	movs	r1, #2
    80f2:	47a8      	blx	r5
    80f4:	4bc9      	ldr	r3, [pc, #804]	; (841c <handleJoinMessage+0x388>)
    80f6:	0005      	movs	r5, r0
    80f8:	4298      	cmp	r0, r3
    80fa:	d0e7      	beq.n	80cc <handleJoinMessage+0x38>
    80fc:	2078      	movs	r0, #120	; 0x78
    80fe:	4bc8      	ldr	r3, [pc, #800]	; (8420 <handleJoinMessage+0x38c>)
    8100:	4798      	blx	r3
    8102:	4680      	mov	r8, r0
    8104:	2800      	cmp	r0, #0
    8106:	d0e1      	beq.n	80cc <handleJoinMessage+0x38>
    8108:	4bc6      	ldr	r3, [pc, #792]	; (8424 <handleJoinMessage+0x390>)
    810a:	88f2      	ldrh	r2, [r6, #6]
    810c:	8819      	ldrh	r1, [r3, #0]
    810e:	ab08      	add	r3, sp, #32
    8110:	4699      	mov	r9, r3
    8112:	b289      	uxth	r1, r1
    8114:	20ff      	movs	r0, #255	; 0xff
    8116:	4ec4      	ldr	r6, [pc, #784]	; (8428 <handleJoinMessage+0x394>)
    8118:	47b0      	blx	r6
    811a:	4641      	mov	r1, r8
    811c:	4648      	mov	r0, r9
    811e:	4bc3      	ldr	r3, [pc, #780]	; (842c <handleJoinMessage+0x398>)
    8120:	4798      	blx	r3
    8122:	4643      	mov	r3, r8
    8124:	4642      	mov	r2, r8
    8126:	541f      	strb	r7, [r3, r0]
    8128:	1c43      	adds	r3, r0, #1
    812a:	b2db      	uxtb	r3, r3
    812c:	54d5      	strb	r5, [r2, r3]
    812e:	1c83      	adds	r3, r0, #2
    8130:	b2db      	uxtb	r3, r3
    8132:	0a2d      	lsrs	r5, r5, #8
    8134:	54d5      	strb	r5, [r2, r3]
    8136:	464b      	mov	r3, r9
    8138:	0006      	movs	r6, r0
    813a:	8898      	ldrh	r0, [r3, #4]
    813c:	23ff      	movs	r3, #255	; 0xff
    813e:	4398      	bics	r0, r3
    8140:	4bbb      	ldr	r3, [pc, #748]	; (8430 <handleJoinMessage+0x39c>)
    8142:	4798      	blx	r3
    8144:	ab02      	add	r3, sp, #8
    8146:	82d8      	strh	r0, [r3, #22]
    8148:	4bba      	ldr	r3, [pc, #744]	; (8434 <handleJoinMessage+0x3a0>)
    814a:	aa02      	add	r2, sp, #8
    814c:	4694      	mov	ip, r2
    814e:	9303      	str	r3, [sp, #12]
    8150:	2316      	movs	r3, #22
    8152:	4463      	add	r3, ip
    8154:	9301      	str	r3, [sp, #4]
    8156:	2302      	movs	r3, #2
    8158:	9402      	str	r4, [sp, #8]
    815a:	9300      	str	r3, [sp, #0]
    815c:	2203      	movs	r2, #3
    815e:	4643      	mov	r3, r8
    8160:	0031      	movs	r1, r6
    8162:	4648      	mov	r0, r9
    8164:	4cb4      	ldr	r4, [pc, #720]	; (8438 <handleJoinMessage+0x3a4>)
    8166:	47a0      	blx	r4
    8168:	e7b0      	b.n	80cc <handleJoinMessage+0x38>
    816a:	2b01      	cmp	r3, #1
    816c:	d1ae      	bne.n	80cc <handleJoinMessage+0x38>
    816e:	4ba9      	ldr	r3, [pc, #676]	; (8414 <handleJoinMessage+0x380>)
    8170:	781b      	ldrb	r3, [r3, #0]
    8172:	2b06      	cmp	r3, #6
    8174:	d1aa      	bne.n	80cc <handleJoinMessage+0x38>
    8176:	4bb1      	ldr	r3, [pc, #708]	; (843c <handleJoinMessage+0x3a8>)
    8178:	2108      	movs	r1, #8
    817a:	4699      	mov	r9, r3
    817c:	0018      	movs	r0, r3
    817e:	4bb0      	ldr	r3, [pc, #704]	; (8440 <handleJoinMessage+0x3ac>)
    8180:	4798      	blx	r3
    8182:	2800      	cmp	r0, #0
    8184:	d0a2      	beq.n	80cc <handleJoinMessage+0x38>
    8186:	2078      	movs	r0, #120	; 0x78
    8188:	4ba5      	ldr	r3, [pc, #660]	; (8420 <handleJoinMessage+0x38c>)
    818a:	4798      	blx	r3
    818c:	1e05      	subs	r5, r0, #0
    818e:	d09d      	beq.n	80cc <handleJoinMessage+0x38>
    8190:	4ba4      	ldr	r3, [pc, #656]	; (8424 <handleJoinMessage+0x390>)
    8192:	aa08      	add	r2, sp, #32
    8194:	8819      	ldrh	r1, [r3, #0]
    8196:	9205      	str	r2, [sp, #20]
    8198:	0013      	movs	r3, r2
    819a:	b289      	uxth	r1, r1
    819c:	2200      	movs	r2, #0
    819e:	2001      	movs	r0, #1
    81a0:	4ea1      	ldr	r6, [pc, #644]	; (8428 <handleJoinMessage+0x394>)
    81a2:	47b0      	blx	r6
    81a4:	2220      	movs	r2, #32
    81a6:	9e05      	ldr	r6, [sp, #20]
    81a8:	0029      	movs	r1, r5
    81aa:	7873      	ldrb	r3, [r6, #1]
    81ac:	0030      	movs	r0, r6
    81ae:	4313      	orrs	r3, r2
    81b0:	7073      	strb	r3, [r6, #1]
    81b2:	4b9e      	ldr	r3, [pc, #632]	; (842c <handleJoinMessage+0x398>)
    81b4:	4798      	blx	r3
    81b6:	2302      	movs	r3, #2
    81b8:	542b      	strb	r3, [r5, r0]
    81ba:	4ba2      	ldr	r3, [pc, #648]	; (8444 <handleJoinMessage+0x3b0>)
    81bc:	4680      	mov	r8, r0
    81be:	781a      	ldrb	r2, [r3, #0]
    81c0:	0003      	movs	r3, r0
    81c2:	3301      	adds	r3, #1
    81c4:	b2db      	uxtb	r3, r3
    81c6:	54ea      	strb	r2, [r5, r3]
    81c8:	4b9f      	ldr	r3, [pc, #636]	; (8448 <handleJoinMessage+0x3b4>)
    81ca:	469a      	mov	sl, r3
    81cc:	4b9f      	ldr	r3, [pc, #636]	; (844c <handleJoinMessage+0x3b8>)
    81ce:	4651      	mov	r1, sl
    81d0:	469b      	mov	fp, r3
    81d2:	0018      	movs	r0, r3
    81d4:	4b9e      	ldr	r3, [pc, #632]	; (8450 <handleJoinMessage+0x3bc>)
    81d6:	4798      	blx	r3
    81d8:	4b9e      	ldr	r3, [pc, #632]	; (8454 <handleJoinMessage+0x3c0>)
    81da:	4649      	mov	r1, r9
    81dc:	7018      	strb	r0, [r3, #0]
    81de:	4643      	mov	r3, r8
    81e0:	3302      	adds	r3, #2
    81e2:	b2db      	uxtb	r3, r3
    81e4:	54e8      	strb	r0, [r5, r3]
    81e6:	465b      	mov	r3, fp
    81e8:	781a      	ldrb	r2, [r3, #0]
    81ea:	4643      	mov	r3, r8
    81ec:	3303      	adds	r3, #3
    81ee:	b2db      	uxtb	r3, r3
    81f0:	54ea      	strb	r2, [r5, r3]
    81f2:	4653      	mov	r3, sl
    81f4:	781a      	ldrb	r2, [r3, #0]
    81f6:	4643      	mov	r3, r8
    81f8:	3304      	adds	r3, #4
    81fa:	b2db      	uxtb	r3, r3
    81fc:	54ea      	strb	r2, [r5, r3]
    81fe:	4643      	mov	r3, r8
    8200:	1d58      	adds	r0, r3, #5
    8202:	b2c0      	uxtb	r0, r0
    8204:	1828      	adds	r0, r5, r0
    8206:	2208      	movs	r2, #8
    8208:	4b93      	ldr	r3, [pc, #588]	; (8458 <handleJoinMessage+0x3c4>)
    820a:	4798      	blx	r3
    820c:	4b89      	ldr	r3, [pc, #548]	; (8434 <handleJoinMessage+0x3a0>)
    820e:	9401      	str	r4, [sp, #4]
    8210:	9303      	str	r3, [sp, #12]
    8212:	2300      	movs	r3, #0
    8214:	9700      	str	r7, [sp, #0]
    8216:	9302      	str	r3, [sp, #8]
    8218:	220d      	movs	r2, #13
    821a:	002b      	movs	r3, r5
    821c:	4641      	mov	r1, r8
    821e:	0030      	movs	r0, r6
    8220:	4c85      	ldr	r4, [pc, #532]	; (8438 <handleJoinMessage+0x3a4>)
    8222:	47a0      	blx	r4
    8224:	e752      	b.n	80cc <handleJoinMessage+0x38>
    8226:	78ab      	ldrb	r3, [r5, #2]
    8228:	786e      	ldrb	r6, [r5, #1]
    822a:	469a      	mov	sl, r3
    822c:	4b79      	ldr	r3, [pc, #484]	; (8414 <handleJoinMessage+0x380>)
    822e:	781b      	ldrb	r3, [r3, #0]
    8230:	2b06      	cmp	r3, #6
    8232:	d000      	beq.n	8236 <handleJoinMessage+0x1a2>
    8234:	e74a      	b.n	80cc <handleJoinMessage+0x38>
    8236:	2078      	movs	r0, #120	; 0x78
    8238:	4b79      	ldr	r3, [pc, #484]	; (8420 <handleJoinMessage+0x38c>)
    823a:	4798      	blx	r3
    823c:	4681      	mov	r9, r0
    823e:	2800      	cmp	r0, #0
    8240:	d100      	bne.n	8244 <handleJoinMessage+0x1b0>
    8242:	e743      	b.n	80cc <handleJoinMessage+0x38>
    8244:	1ceb      	adds	r3, r5, #3
    8246:	4652      	mov	r2, sl
    8248:	1c31      	adds	r1, r6, #0
    824a:	4d73      	ldr	r5, [pc, #460]	; (8418 <handleJoinMessage+0x384>)
    824c:	0020      	movs	r0, r4
    824e:	47a8      	blx	r5
    8250:	4b74      	ldr	r3, [pc, #464]	; (8424 <handleJoinMessage+0x390>)
    8252:	ad08      	add	r5, sp, #32
    8254:	8819      	ldrh	r1, [r3, #0]
    8256:	2201      	movs	r2, #1
    8258:	b289      	uxth	r1, r1
    825a:	002b      	movs	r3, r5
    825c:	4683      	mov	fp, r0
    825e:	4e72      	ldr	r6, [pc, #456]	; (8428 <handleJoinMessage+0x394>)
    8260:	2001      	movs	r0, #1
    8262:	47b0      	blx	r6
    8264:	2220      	movs	r2, #32
    8266:	786b      	ldrb	r3, [r5, #1]
    8268:	4649      	mov	r1, r9
    826a:	4313      	orrs	r3, r2
    826c:	706b      	strb	r3, [r5, #1]
    826e:	0028      	movs	r0, r5
    8270:	4b6e      	ldr	r3, [pc, #440]	; (842c <handleJoinMessage+0x398>)
    8272:	4798      	blx	r3
    8274:	2204      	movs	r2, #4
    8276:	4649      	mov	r1, r9
    8278:	0003      	movs	r3, r0
    827a:	540a      	strb	r2, [r1, r0]
    827c:	4a67      	ldr	r2, [pc, #412]	; (841c <handleJoinMessage+0x388>)
    827e:	3301      	adds	r3, #1
    8280:	4682      	mov	sl, r0
    8282:	b2db      	uxtb	r3, r3
    8284:	4593      	cmp	fp, r2
    8286:	d100      	bne.n	828a <handleJoinMessage+0x1f6>
    8288:	e11e      	b.n	84c8 <handleJoinMessage+0x434>
    828a:	1c86      	adds	r6, r0, #2
    828c:	b2f2      	uxtb	r2, r6
    828e:	9205      	str	r2, [sp, #20]
    8290:	2200      	movs	r2, #0
    8292:	4658      	mov	r0, fp
    8294:	54ca      	strb	r2, [r1, r3]
    8296:	4e71      	ldr	r6, [pc, #452]	; (845c <handleJoinMessage+0x3c8>)
    8298:	4643      	mov	r3, r8
    829a:	3201      	adds	r2, #1
    829c:	4659      	mov	r1, fp
    829e:	47b0      	blx	r6
    82a0:	464b      	mov	r3, r9
    82a2:	465a      	mov	r2, fp
    82a4:	9e05      	ldr	r6, [sp, #20]
    82a6:	4649      	mov	r1, r9
    82a8:	559a      	strb	r2, [r3, r6]
    82aa:	0032      	movs	r2, r6
    82ac:	465b      	mov	r3, fp
    82ae:	3201      	adds	r2, #1
    82b0:	b2d2      	uxtb	r2, r2
    82b2:	0a1b      	lsrs	r3, r3, #8
    82b4:	548b      	strb	r3, [r1, r2]
    82b6:	4b6a      	ldr	r3, [pc, #424]	; (8460 <handleJoinMessage+0x3cc>)
    82b8:	1cb0      	adds	r0, r6, #2
    82ba:	6819      	ldr	r1, [r3, #0]
    82bc:	b2c0      	uxtb	r0, r0
    82be:	4448      	add	r0, r9
    82c0:	3110      	adds	r1, #16
    82c2:	2210      	movs	r2, #16
    82c4:	4b64      	ldr	r3, [pc, #400]	; (8458 <handleJoinMessage+0x3c4>)
    82c6:	4798      	blx	r3
    82c8:	4653      	mov	r3, sl
    82ca:	1af2      	subs	r2, r6, r3
    82cc:	4b59      	ldr	r3, [pc, #356]	; (8434 <handleJoinMessage+0x3a0>)
    82ce:	3212      	adds	r2, #18
    82d0:	9303      	str	r3, [sp, #12]
    82d2:	2300      	movs	r3, #0
    82d4:	9401      	str	r4, [sp, #4]
    82d6:	9302      	str	r3, [sp, #8]
    82d8:	b2d2      	uxtb	r2, r2
    82da:	9700      	str	r7, [sp, #0]
    82dc:	464b      	mov	r3, r9
    82de:	4651      	mov	r1, sl
    82e0:	0028      	movs	r0, r5
    82e2:	4c55      	ldr	r4, [pc, #340]	; (8438 <handleJoinMessage+0x3a4>)
    82e4:	47a0      	blx	r4
    82e6:	e6f1      	b.n	80cc <handleJoinMessage+0x38>
    82e8:	88c3      	ldrh	r3, [r0, #6]
    82ea:	4698      	mov	r8, r3
    82ec:	23ff      	movs	r3, #255	; 0xff
    82ee:	4642      	mov	r2, r8
    82f0:	4213      	tst	r3, r2
    82f2:	d131      	bne.n	8358 <handleJoinMessage+0x2c4>
    82f4:	439a      	bics	r2, r3
    82f6:	d02f      	beq.n	8358 <handleJoinMessage+0x2c4>
    82f8:	4b5a      	ldr	r3, [pc, #360]	; (8464 <handleJoinMessage+0x3d0>)
    82fa:	4699      	mov	r9, r3
    82fc:	681b      	ldr	r3, [r3, #0]
    82fe:	469b      	mov	fp, r3
    8300:	2320      	movs	r3, #32
    8302:	465a      	mov	r2, fp
    8304:	5cd2      	ldrb	r2, [r2, r3]
    8306:	2a01      	cmp	r2, #1
    8308:	d926      	bls.n	8358 <handleJoinMessage+0x2c4>
    830a:	4b57      	ldr	r3, [pc, #348]	; (8468 <handleJoinMessage+0x3d4>)
    830c:	4644      	mov	r4, r8
    830e:	2701      	movs	r7, #1
    8310:	46a8      	mov	r8, r5
    8312:	469a      	mov	sl, r3
    8314:	465d      	mov	r5, fp
    8316:	e003      	b.n	8320 <handleJoinMessage+0x28c>
    8318:	3701      	adds	r7, #1
    831a:	b2ff      	uxtb	r7, r7
    831c:	4297      	cmp	r7, r2
    831e:	d219      	bcs.n	8354 <handleJoinMessage+0x2c0>
    8320:	0a23      	lsrs	r3, r4, #8
    8322:	429f      	cmp	r7, r3
    8324:	d1f8      	bne.n	8318 <handleJoinMessage+0x284>
    8326:	682b      	ldr	r3, [r5, #0]
    8328:	0078      	lsls	r0, r7, #1
    832a:	469b      	mov	fp, r3
    832c:	4643      	mov	r3, r8
    832e:	19c0      	adds	r0, r0, r7
    8330:	0080      	lsls	r0, r0, #2
    8332:	4483      	add	fp, r0
    8334:	1c59      	adds	r1, r3, #1
    8336:	2208      	movs	r2, #8
    8338:	4658      	mov	r0, fp
    833a:	47d0      	blx	sl
    833c:	2800      	cmp	r0, #0
    833e:	d000      	beq.n	8342 <handleJoinMessage+0x2ae>
    8340:	e094      	b.n	846c <handleJoinMessage+0x3d8>
    8342:	465a      	mov	r2, fp
    8344:	8beb      	ldrh	r3, [r5, #30]
    8346:	6093      	str	r3, [r2, #8]
    8348:	464b      	mov	r3, r9
    834a:	681d      	ldr	r5, [r3, #0]
    834c:	2320      	movs	r3, #32
    834e:	88f4      	ldrh	r4, [r6, #6]
    8350:	5cea      	ldrb	r2, [r5, r3]
    8352:	e7e1      	b.n	8318 <handleJoinMessage+0x284>
    8354:	4645      	mov	r5, r8
    8356:	46a0      	mov	r8, r4
    8358:	4643      	mov	r3, r8
    835a:	061b      	lsls	r3, r3, #24
    835c:	d400      	bmi.n	8360 <handleJoinMessage+0x2cc>
    835e:	e6b5      	b.n	80cc <handleJoinMessage+0x38>
    8360:	4b40      	ldr	r3, [pc, #256]	; (8464 <handleJoinMessage+0x3d0>)
    8362:	4699      	mov	r9, r3
    8364:	681b      	ldr	r3, [r3, #0]
    8366:	469b      	mov	fp, r3
    8368:	2323      	movs	r3, #35	; 0x23
    836a:	465a      	mov	r2, fp
    836c:	5cd2      	ldrb	r2, [r2, r3]
    836e:	2a00      	cmp	r2, #0
    8370:	d100      	bne.n	8374 <handleJoinMessage+0x2e0>
    8372:	e6ab      	b.n	80cc <handleJoinMessage+0x38>
    8374:	4b3c      	ldr	r3, [pc, #240]	; (8468 <handleJoinMessage+0x3d4>)
    8376:	4647      	mov	r7, r8
    8378:	2400      	movs	r4, #0
    837a:	46a8      	mov	r8, r5
    837c:	469a      	mov	sl, r3
    837e:	465d      	mov	r5, fp
    8380:	e005      	b.n	838e <handleJoinMessage+0x2fa>
    8382:	3401      	adds	r4, #1
    8384:	b2e4      	uxtb	r4, r4
    8386:	4294      	cmp	r4, r2
    8388:	d300      	bcc.n	838c <handleJoinMessage+0x2f8>
    838a:	e69f      	b.n	80cc <handleJoinMessage+0x38>
    838c:	88f7      	ldrh	r7, [r6, #6]
    838e:	2380      	movs	r3, #128	; 0x80
    8390:	403b      	ands	r3, r7
    8392:	429c      	cmp	r4, r3
    8394:	d1f5      	bne.n	8382 <handleJoinMessage+0x2ee>
    8396:	68aa      	ldr	r2, [r5, #8]
    8398:	0123      	lsls	r3, r4, #4
    839a:	4693      	mov	fp, r2
    839c:	449b      	add	fp, r3
    839e:	4643      	mov	r3, r8
    83a0:	2208      	movs	r2, #8
    83a2:	1c59      	adds	r1, r3, #1
    83a4:	4658      	mov	r0, fp
    83a6:	47d0      	blx	sl
    83a8:	2800      	cmp	r0, #0
    83aa:	d107      	bne.n	83bc <handleJoinMessage+0x328>
    83ac:	465a      	mov	r2, fp
    83ae:	8e6b      	ldrh	r3, [r5, #50]	; 0x32
    83b0:	6093      	str	r3, [r2, #8]
    83b2:	464b      	mov	r3, r9
    83b4:	681d      	ldr	r5, [r3, #0]
    83b6:	2323      	movs	r3, #35	; 0x23
    83b8:	5cea      	ldrb	r2, [r5, r3]
    83ba:	e7e2      	b.n	8382 <handleJoinMessage+0x2ee>
    83bc:	ab02      	add	r3, sp, #8
    83be:	469c      	mov	ip, r3
    83c0:	2516      	movs	r5, #22
    83c2:	2078      	movs	r0, #120	; 0x78
    83c4:	4465      	add	r5, ip
    83c6:	4b16      	ldr	r3, [pc, #88]	; (8420 <handleJoinMessage+0x38c>)
    83c8:	802f      	strh	r7, [r5, #0]
    83ca:	4798      	blx	r3
    83cc:	1e07      	subs	r7, r0, #0
    83ce:	d076      	beq.n	84be <handleJoinMessage+0x42a>
    83d0:	4b14      	ldr	r3, [pc, #80]	; (8424 <handleJoinMessage+0x390>)
    83d2:	882a      	ldrh	r2, [r5, #0]
    83d4:	8819      	ldrh	r1, [r3, #0]
    83d6:	9505      	str	r5, [sp, #20]
    83d8:	b289      	uxth	r1, r1
    83da:	ab08      	add	r3, sp, #32
    83dc:	20ff      	movs	r0, #255	; 0xff
    83de:	4d12      	ldr	r5, [pc, #72]	; (8428 <handleJoinMessage+0x394>)
    83e0:	47a8      	blx	r5
    83e2:	0039      	movs	r1, r7
    83e4:	4b11      	ldr	r3, [pc, #68]	; (842c <handleJoinMessage+0x398>)
    83e6:	a808      	add	r0, sp, #32
    83e8:	4798      	blx	r3
    83ea:	2308      	movs	r3, #8
    83ec:	543b      	strb	r3, [r7, r0]
    83ee:	4b11      	ldr	r3, [pc, #68]	; (8434 <handleJoinMessage+0x3a0>)
    83f0:	0001      	movs	r1, r0
    83f2:	9303      	str	r3, [sp, #12]
    83f4:	2300      	movs	r3, #0
    83f6:	9302      	str	r3, [sp, #8]
    83f8:	9b05      	ldr	r3, [sp, #20]
    83fa:	2201      	movs	r2, #1
    83fc:	9301      	str	r3, [sp, #4]
    83fe:	2302      	movs	r3, #2
    8400:	4d0d      	ldr	r5, [pc, #52]	; (8438 <handleJoinMessage+0x3a4>)
    8402:	9300      	str	r3, [sp, #0]
    8404:	a808      	add	r0, sp, #32
    8406:	003b      	movs	r3, r7
    8408:	47a8      	blx	r5
    840a:	464b      	mov	r3, r9
    840c:	681d      	ldr	r5, [r3, #0]
    840e:	2323      	movs	r3, #35	; 0x23
    8410:	5cea      	ldrb	r2, [r5, r3]
    8412:	e7b6      	b.n	8382 <handleJoinMessage+0x2ee>
    8414:	2000039c 	.word	0x2000039c
    8418:	00007a95 	.word	0x00007a95
    841c:	0000ffff 	.word	0x0000ffff
    8420:	00003831 	.word	0x00003831
    8424:	200020a8 	.word	0x200020a8
    8428:	00006945 	.word	0x00006945
    842c:	00006971 	.word	0x00006971
    8430:	00008da1 	.word	0x00008da1
    8434:	00007d21 	.word	0x00007d21
    8438:	00006a09 	.word	0x00006a09
    843c:	200020d8 	.word	0x200020d8
    8440:	00005899 	.word	0x00005899
    8444:	200020aa 	.word	0x200020aa
    8448:	200003b8 	.word	0x200003b8
    844c:	200003ba 	.word	0x200003ba
    8450:	00007f21 	.word	0x00007f21
    8454:	200003b9 	.word	0x200003b9
    8458:	000095df 	.word	0x000095df
    845c:	00008935 	.word	0x00008935
    8460:	20002064 	.word	0x20002064
    8464:	20002060 	.word	0x20002060
    8468:	000095c1 	.word	0x000095c1
    846c:	ab02      	add	r3, sp, #8
    846e:	469c      	mov	ip, r3
    8470:	2516      	movs	r5, #22
    8472:	2078      	movs	r0, #120	; 0x78
    8474:	4465      	add	r5, ip
    8476:	4b18      	ldr	r3, [pc, #96]	; (84d8 <handleJoinMessage+0x444>)
    8478:	802c      	strh	r4, [r5, #0]
    847a:	4798      	blx	r3
    847c:	1e04      	subs	r4, r0, #0
    847e:	d100      	bne.n	8482 <handleJoinMessage+0x3ee>
    8480:	e762      	b.n	8348 <handleJoinMessage+0x2b4>
    8482:	4b16      	ldr	r3, [pc, #88]	; (84dc <handleJoinMessage+0x448>)
    8484:	882a      	ldrh	r2, [r5, #0]
    8486:	8819      	ldrh	r1, [r3, #0]
    8488:	9505      	str	r5, [sp, #20]
    848a:	ab08      	add	r3, sp, #32
    848c:	b289      	uxth	r1, r1
    848e:	20ff      	movs	r0, #255	; 0xff
    8490:	4d13      	ldr	r5, [pc, #76]	; (84e0 <handleJoinMessage+0x44c>)
    8492:	47a8      	blx	r5
    8494:	0021      	movs	r1, r4
    8496:	a808      	add	r0, sp, #32
    8498:	4b12      	ldr	r3, [pc, #72]	; (84e4 <handleJoinMessage+0x450>)
    849a:	4798      	blx	r3
    849c:	2308      	movs	r3, #8
    849e:	5423      	strb	r3, [r4, r0]
    84a0:	4b11      	ldr	r3, [pc, #68]	; (84e8 <handleJoinMessage+0x454>)
    84a2:	0001      	movs	r1, r0
    84a4:	9303      	str	r3, [sp, #12]
    84a6:	2300      	movs	r3, #0
    84a8:	9302      	str	r3, [sp, #8]
    84aa:	9b05      	ldr	r3, [sp, #20]
    84ac:	2201      	movs	r2, #1
    84ae:	9301      	str	r3, [sp, #4]
    84b0:	2302      	movs	r3, #2
    84b2:	a808      	add	r0, sp, #32
    84b4:	9300      	str	r3, [sp, #0]
    84b6:	0023      	movs	r3, r4
    84b8:	4c0c      	ldr	r4, [pc, #48]	; (84ec <handleJoinMessage+0x458>)
    84ba:	47a0      	blx	r4
    84bc:	e744      	b.n	8348 <handleJoinMessage+0x2b4>
    84be:	464b      	mov	r3, r9
    84c0:	681d      	ldr	r5, [r3, #0]
    84c2:	2323      	movs	r3, #35	; 0x23
    84c4:	5cea      	ldrb	r2, [r5, r3]
    84c6:	e75c      	b.n	8382 <handleJoinMessage+0x2ee>
    84c8:	1c86      	adds	r6, r0, #2
    84ca:	b2f2      	uxtb	r2, r6
    84cc:	9205      	str	r2, [sp, #20]
    84ce:	4649      	mov	r1, r9
    84d0:	2201      	movs	r2, #1
    84d2:	54ca      	strb	r2, [r1, r3]
    84d4:	e6e4      	b.n	82a0 <handleJoinMessage+0x20c>
    84d6:	46c0      	nop			; (mov r8, r8)
    84d8:	00003831 	.word	0x00003831
    84dc:	200020a8 	.word	0x200020a8
    84e0:	00006945 	.word	0x00006945
    84e4:	00006971 	.word	0x00006971
    84e8:	00007d21 	.word	0x00007d21
    84ec:	00006a09 	.word	0x00006a09

000084f0 <coordinatorTableInit>:
    84f0:	b5f8      	push	{r3, r4, r5, r6, r7, lr}
    84f2:	4647      	mov	r7, r8
    84f4:	46ce      	mov	lr, r9
    84f6:	b580      	push	{r7, lr}
    84f8:	4b13      	ldr	r3, [pc, #76]	; (8548 <coordinatorTableInit+0x58>)
    84fa:	681e      	ldr	r6, [r3, #0]
    84fc:	4698      	mov	r8, r3
    84fe:	2320      	movs	r3, #32
    8500:	5cf3      	ldrb	r3, [r6, r3]
    8502:	2b00      	cmp	r3, #0
    8504:	d01b      	beq.n	853e <coordinatorTableInit+0x4e>
    8506:	2320      	movs	r3, #32
    8508:	2400      	movs	r4, #0
    850a:	4699      	mov	r9, r3
    850c:	4f0f      	ldr	r7, [pc, #60]	; (854c <coordinatorTableInit+0x5c>)
    850e:	0065      	lsls	r5, r4, #1
    8510:	6830      	ldr	r0, [r6, #0]
    8512:	192d      	adds	r5, r5, r4
    8514:	00ad      	lsls	r5, r5, #2
    8516:	1940      	adds	r0, r0, r5
    8518:	2208      	movs	r2, #8
    851a:	21ff      	movs	r1, #255	; 0xff
    851c:	47b8      	blx	r7
    851e:	4643      	mov	r3, r8
    8520:	681e      	ldr	r6, [r3, #0]
    8522:	2204      	movs	r2, #4
    8524:	6833      	ldr	r3, [r6, #0]
    8526:	21ff      	movs	r1, #255	; 0xff
    8528:	469c      	mov	ip, r3
    852a:	4465      	add	r5, ip
    852c:	0028      	movs	r0, r5
    852e:	3008      	adds	r0, #8
    8530:	47b8      	blx	r7
    8532:	464b      	mov	r3, r9
    8534:	3401      	adds	r4, #1
    8536:	5cf3      	ldrb	r3, [r6, r3]
    8538:	b2e4      	uxtb	r4, r4
    853a:	42a3      	cmp	r3, r4
    853c:	d8e7      	bhi.n	850e <coordinatorTableInit+0x1e>
    853e:	bc0c      	pop	{r2, r3}
    8540:	4690      	mov	r8, r2
    8542:	4699      	mov	r9, r3
    8544:	bdf8      	pop	{r3, r4, r5, r6, r7, pc}
    8546:	46c0      	nop			; (mov r8, r8)
    8548:	20002060 	.word	0x20002060
    854c:	000095f1 	.word	0x000095f1

00008550 <deviceTableInit>:
    8550:	b5f8      	push	{r3, r4, r5, r6, r7, lr}
    8552:	4647      	mov	r7, r8
    8554:	46ce      	mov	lr, r9
    8556:	b580      	push	{r7, lr}
    8558:	4b27      	ldr	r3, [pc, #156]	; (85f8 <deviceTableInit+0xa8>)
    855a:	681c      	ldr	r4, [r3, #0]
    855c:	4698      	mov	r8, r3
    855e:	2323      	movs	r3, #35	; 0x23
    8560:	5ce3      	ldrb	r3, [r4, r3]
    8562:	2b00      	cmp	r3, #0
    8564:	d01b      	beq.n	859e <deviceTableInit+0x4e>
    8566:	2323      	movs	r3, #35	; 0x23
    8568:	2500      	movs	r5, #0
    856a:	4699      	mov	r9, r3
    856c:	4f23      	ldr	r7, [pc, #140]	; (85fc <deviceTableInit+0xac>)
    856e:	68a0      	ldr	r0, [r4, #8]
    8570:	012e      	lsls	r6, r5, #4
    8572:	2208      	movs	r2, #8
    8574:	21ff      	movs	r1, #255	; 0xff
    8576:	1980      	adds	r0, r0, r6
    8578:	47b8      	blx	r7
    857a:	4643      	mov	r3, r8
    857c:	681c      	ldr	r4, [r3, #0]
    857e:	2204      	movs	r2, #4
    8580:	68a3      	ldr	r3, [r4, #8]
    8582:	21ff      	movs	r1, #255	; 0xff
    8584:	1998      	adds	r0, r3, r6
    8586:	3008      	adds	r0, #8
    8588:	47b8      	blx	r7
    858a:	22ff      	movs	r2, #255	; 0xff
    858c:	68a3      	ldr	r3, [r4, #8]
    858e:	3501      	adds	r5, #1
    8590:	199b      	adds	r3, r3, r6
    8592:	731a      	strb	r2, [r3, #12]
    8594:	464b      	mov	r3, r9
    8596:	5ce3      	ldrb	r3, [r4, r3]
    8598:	b2ed      	uxtb	r5, r5
    859a:	42ab      	cmp	r3, r5
    859c:	d8e7      	bhi.n	856e <deviceTableInit+0x1e>
    859e:	2324      	movs	r3, #36	; 0x24
    85a0:	5ce3      	ldrb	r3, [r4, r3]
    85a2:	2b00      	cmp	r3, #0
    85a4:	d024      	beq.n	85f0 <deviceTableInit+0xa0>
    85a6:	2324      	movs	r3, #36	; 0x24
    85a8:	2600      	movs	r6, #0
    85aa:	4699      	mov	r9, r3
    85ac:	4f13      	ldr	r7, [pc, #76]	; (85fc <deviceTableInit+0xac>)
    85ae:	00b5      	lsls	r5, r6, #2
    85b0:	68e0      	ldr	r0, [r4, #12]
    85b2:	19ad      	adds	r5, r5, r6
    85b4:	00ad      	lsls	r5, r5, #2
    85b6:	1940      	adds	r0, r0, r5
    85b8:	2208      	movs	r2, #8
    85ba:	21ff      	movs	r1, #255	; 0xff
    85bc:	47b8      	blx	r7
    85be:	4643      	mov	r3, r8
    85c0:	681c      	ldr	r4, [r3, #0]
    85c2:	2204      	movs	r2, #4
    85c4:	68e3      	ldr	r3, [r4, #12]
    85c6:	21ff      	movs	r1, #255	; 0xff
    85c8:	1958      	adds	r0, r3, r5
    85ca:	3008      	adds	r0, #8
    85cc:	47b8      	blx	r7
    85ce:	68e3      	ldr	r3, [r4, #12]
    85d0:	2204      	movs	r2, #4
    85d2:	1958      	adds	r0, r3, r5
    85d4:	300c      	adds	r0, #12
    85d6:	21ff      	movs	r1, #255	; 0xff
    85d8:	47b8      	blx	r7
    85da:	68e3      	ldr	r3, [r4, #12]
    85dc:	3601      	adds	r6, #1
    85de:	469c      	mov	ip, r3
    85e0:	23ff      	movs	r3, #255	; 0xff
    85e2:	4465      	add	r5, ip
    85e4:	742b      	strb	r3, [r5, #16]
    85e6:	464b      	mov	r3, r9
    85e8:	5ce3      	ldrb	r3, [r4, r3]
    85ea:	b2f6      	uxtb	r6, r6
    85ec:	42b3      	cmp	r3, r6
    85ee:	d8de      	bhi.n	85ae <deviceTableInit+0x5e>
    85f0:	bc0c      	pop	{r2, r3}
    85f2:	4690      	mov	r8, r2
    85f4:	4699      	mov	r9, r3
    85f6:	bdf8      	pop	{r3, r4, r5, r6, r7, pc}
    85f8:	20002060 	.word	0x20002060
    85fc:	000095f1 	.word	0x000095f1

00008600 <sendForceLeaveNetwork>:
    8600:	b570      	push	{r4, r5, r6, lr}
    8602:	2516      	movs	r5, #22
    8604:	b08e      	sub	sp, #56	; 0x38
    8606:	446d      	add	r5, sp
    8608:	8028      	strh	r0, [r5, #0]
    860a:	4b11      	ldr	r3, [pc, #68]	; (8650 <sendForceLeaveNetwork+0x50>)
    860c:	2078      	movs	r0, #120	; 0x78
    860e:	4798      	blx	r3
    8610:	1e04      	subs	r4, r0, #0
    8612:	d01a      	beq.n	864a <sendForceLeaveNetwork+0x4a>
    8614:	4b0f      	ldr	r3, [pc, #60]	; (8654 <sendForceLeaveNetwork+0x54>)
    8616:	882a      	ldrh	r2, [r5, #0]
    8618:	8819      	ldrh	r1, [r3, #0]
    861a:	20ff      	movs	r0, #255	; 0xff
    861c:	b289      	uxth	r1, r1
    861e:	ab06      	add	r3, sp, #24
    8620:	4e0d      	ldr	r6, [pc, #52]	; (8658 <sendForceLeaveNetwork+0x58>)
    8622:	47b0      	blx	r6
    8624:	0021      	movs	r1, r4
    8626:	4b0d      	ldr	r3, [pc, #52]	; (865c <sendForceLeaveNetwork+0x5c>)
    8628:	a806      	add	r0, sp, #24
    862a:	4798      	blx	r3
    862c:	2308      	movs	r3, #8
    862e:	5423      	strb	r3, [r4, r0]
    8630:	4b0b      	ldr	r3, [pc, #44]	; (8660 <sendForceLeaveNetwork+0x60>)
    8632:	0001      	movs	r1, r0
    8634:	9303      	str	r3, [sp, #12]
    8636:	2300      	movs	r3, #0
    8638:	9302      	str	r3, [sp, #8]
    863a:	3302      	adds	r3, #2
    863c:	9300      	str	r3, [sp, #0]
    863e:	9501      	str	r5, [sp, #4]
    8640:	0023      	movs	r3, r4
    8642:	2201      	movs	r2, #1
    8644:	a806      	add	r0, sp, #24
    8646:	4c07      	ldr	r4, [pc, #28]	; (8664 <sendForceLeaveNetwork+0x64>)
    8648:	47a0      	blx	r4
    864a:	b00e      	add	sp, #56	; 0x38
    864c:	bd70      	pop	{r4, r5, r6, pc}
    864e:	46c0      	nop			; (mov r8, r8)
    8650:	00003831 	.word	0x00003831
    8654:	200020a8 	.word	0x200020a8
    8658:	00006945 	.word	0x00006945
    865c:	00006971 	.word	0x00006971
    8660:	00007d21 	.word	0x00007d21
    8664:	00006a09 	.word	0x00006a09

00008668 <isCorrectIeeeAddr>:
    8668:	7803      	ldrb	r3, [r0, #0]
    866a:	2bff      	cmp	r3, #255	; 0xff
    866c:	d117      	bne.n	869e <isCorrectIeeeAddr+0x36>
    866e:	7843      	ldrb	r3, [r0, #1]
    8670:	2bff      	cmp	r3, #255	; 0xff
    8672:	d114      	bne.n	869e <isCorrectIeeeAddr+0x36>
    8674:	7883      	ldrb	r3, [r0, #2]
    8676:	2bff      	cmp	r3, #255	; 0xff
    8678:	d111      	bne.n	869e <isCorrectIeeeAddr+0x36>
    867a:	78c3      	ldrb	r3, [r0, #3]
    867c:	2bff      	cmp	r3, #255	; 0xff
    867e:	d10e      	bne.n	869e <isCorrectIeeeAddr+0x36>
    8680:	7903      	ldrb	r3, [r0, #4]
    8682:	2bff      	cmp	r3, #255	; 0xff
    8684:	d10b      	bne.n	869e <isCorrectIeeeAddr+0x36>
    8686:	7943      	ldrb	r3, [r0, #5]
    8688:	2bff      	cmp	r3, #255	; 0xff
    868a:	d108      	bne.n	869e <isCorrectIeeeAddr+0x36>
    868c:	7983      	ldrb	r3, [r0, #6]
    868e:	2bff      	cmp	r3, #255	; 0xff
    8690:	d105      	bne.n	869e <isCorrectIeeeAddr+0x36>
    8692:	79c0      	ldrb	r0, [r0, #7]
    8694:	38ff      	subs	r0, #255	; 0xff
    8696:	1e43      	subs	r3, r0, #1
    8698:	4198      	sbcs	r0, r3
    869a:	b2c0      	uxtb	r0, r0
    869c:	4770      	bx	lr
    869e:	2001      	movs	r0, #1
    86a0:	e7fc      	b.n	869c <isCorrectIeeeAddr+0x34>
    86a2:	46c0      	nop			; (mov r8, r8)

000086a4 <keepAliveTimerHandler>:
    86a4:	b5f0      	push	{r4, r5, r6, r7, lr}
    86a6:	46c6      	mov	lr, r8
    86a8:	2320      	movs	r3, #32
    86aa:	b500      	push	{lr}
    86ac:	4d57      	ldr	r5, [pc, #348]	; (880c <keepAliveTimerHandler+0x168>)
    86ae:	682a      	ldr	r2, [r5, #0]
    86b0:	5cd7      	ldrb	r7, [r2, r3]
    86b2:	2f00      	cmp	r7, #0
    86b4:	d027      	beq.n	8706 <keepAliveTimerHandler+0x62>
    86b6:	4b56      	ldr	r3, [pc, #344]	; (8810 <keepAliveTimerHandler+0x16c>)
    86b8:	2400      	movs	r4, #0
    86ba:	4698      	mov	r8, r3
    86bc:	2620      	movs	r6, #32
    86be:	0060      	lsls	r0, r4, #1
    86c0:	1900      	adds	r0, r0, r4
    86c2:	6813      	ldr	r3, [r2, #0]
    86c4:	0080      	lsls	r0, r0, #2
    86c6:	181b      	adds	r3, r3, r0
    86c8:	7819      	ldrb	r1, [r3, #0]
    86ca:	29ff      	cmp	r1, #255	; 0xff
    86cc:	d000      	beq.n	86d0 <keepAliveTimerHandler+0x2c>
    86ce:	e077      	b.n	87c0 <keepAliveTimerHandler+0x11c>
    86d0:	7859      	ldrb	r1, [r3, #1]
    86d2:	29ff      	cmp	r1, #255	; 0xff
    86d4:	d000      	beq.n	86d8 <keepAliveTimerHandler+0x34>
    86d6:	e073      	b.n	87c0 <keepAliveTimerHandler+0x11c>
    86d8:	7899      	ldrb	r1, [r3, #2]
    86da:	29ff      	cmp	r1, #255	; 0xff
    86dc:	d000      	beq.n	86e0 <keepAliveTimerHandler+0x3c>
    86de:	e06f      	b.n	87c0 <keepAliveTimerHandler+0x11c>
    86e0:	78d9      	ldrb	r1, [r3, #3]
    86e2:	29ff      	cmp	r1, #255	; 0xff
    86e4:	d16c      	bne.n	87c0 <keepAliveTimerHandler+0x11c>
    86e6:	7919      	ldrb	r1, [r3, #4]
    86e8:	29ff      	cmp	r1, #255	; 0xff
    86ea:	d169      	bne.n	87c0 <keepAliveTimerHandler+0x11c>
    86ec:	7959      	ldrb	r1, [r3, #5]
    86ee:	29ff      	cmp	r1, #255	; 0xff
    86f0:	d166      	bne.n	87c0 <keepAliveTimerHandler+0x11c>
    86f2:	7999      	ldrb	r1, [r3, #6]
    86f4:	29ff      	cmp	r1, #255	; 0xff
    86f6:	d163      	bne.n	87c0 <keepAliveTimerHandler+0x11c>
    86f8:	79d9      	ldrb	r1, [r3, #7]
    86fa:	29ff      	cmp	r1, #255	; 0xff
    86fc:	d160      	bne.n	87c0 <keepAliveTimerHandler+0x11c>
    86fe:	3401      	adds	r4, #1
    8700:	b2e4      	uxtb	r4, r4
    8702:	42bc      	cmp	r4, r7
    8704:	d3db      	bcc.n	86be <keepAliveTimerHandler+0x1a>
    8706:	2323      	movs	r3, #35	; 0x23
    8708:	5cd7      	ldrb	r7, [r2, r3]
    870a:	2f00      	cmp	r7, #0
    870c:	d022      	beq.n	8754 <keepAliveTimerHandler+0xb0>
    870e:	4b40      	ldr	r3, [pc, #256]	; (8810 <keepAliveTimerHandler+0x16c>)
    8710:	2400      	movs	r4, #0
    8712:	4698      	mov	r8, r3
    8714:	2623      	movs	r6, #35	; 0x23
    8716:	6893      	ldr	r3, [r2, #8]
    8718:	0120      	lsls	r0, r4, #4
    871a:	181b      	adds	r3, r3, r0
    871c:	7819      	ldrb	r1, [r3, #0]
    871e:	29ff      	cmp	r1, #255	; 0xff
    8720:	d158      	bne.n	87d4 <keepAliveTimerHandler+0x130>
    8722:	7859      	ldrb	r1, [r3, #1]
    8724:	29ff      	cmp	r1, #255	; 0xff
    8726:	d155      	bne.n	87d4 <keepAliveTimerHandler+0x130>
    8728:	7899      	ldrb	r1, [r3, #2]
    872a:	29ff      	cmp	r1, #255	; 0xff
    872c:	d152      	bne.n	87d4 <keepAliveTimerHandler+0x130>
    872e:	78d9      	ldrb	r1, [r3, #3]
    8730:	29ff      	cmp	r1, #255	; 0xff
    8732:	d14f      	bne.n	87d4 <keepAliveTimerHandler+0x130>
    8734:	7919      	ldrb	r1, [r3, #4]
    8736:	29ff      	cmp	r1, #255	; 0xff
    8738:	d14c      	bne.n	87d4 <keepAliveTimerHandler+0x130>
    873a:	7959      	ldrb	r1, [r3, #5]
    873c:	29ff      	cmp	r1, #255	; 0xff
    873e:	d149      	bne.n	87d4 <keepAliveTimerHandler+0x130>
    8740:	7999      	ldrb	r1, [r3, #6]
    8742:	29ff      	cmp	r1, #255	; 0xff
    8744:	d146      	bne.n	87d4 <keepAliveTimerHandler+0x130>
    8746:	79d9      	ldrb	r1, [r3, #7]
    8748:	29ff      	cmp	r1, #255	; 0xff
    874a:	d143      	bne.n	87d4 <keepAliveTimerHandler+0x130>
    874c:	3401      	adds	r4, #1
    874e:	b2e4      	uxtb	r4, r4
    8750:	42bc      	cmp	r4, r7
    8752:	d3e0      	bcc.n	8716 <keepAliveTimerHandler+0x72>
    8754:	2324      	movs	r3, #36	; 0x24
    8756:	5cd7      	ldrb	r7, [r2, r3]
    8758:	2401      	movs	r4, #1
    875a:	2f01      	cmp	r7, #1
    875c:	d923      	bls.n	87a6 <keepAliveTimerHandler+0x102>
    875e:	4b2c      	ldr	r3, [pc, #176]	; (8810 <keepAliveTimerHandler+0x16c>)
    8760:	2624      	movs	r6, #36	; 0x24
    8762:	4698      	mov	r8, r3
    8764:	00a0      	lsls	r0, r4, #2
    8766:	1900      	adds	r0, r0, r4
    8768:	68d3      	ldr	r3, [r2, #12]
    876a:	0080      	lsls	r0, r0, #2
    876c:	181b      	adds	r3, r3, r0
    876e:	7819      	ldrb	r1, [r3, #0]
    8770:	29ff      	cmp	r1, #255	; 0xff
    8772:	d11b      	bne.n	87ac <keepAliveTimerHandler+0x108>
    8774:	7859      	ldrb	r1, [r3, #1]
    8776:	29ff      	cmp	r1, #255	; 0xff
    8778:	d118      	bne.n	87ac <keepAliveTimerHandler+0x108>
    877a:	7899      	ldrb	r1, [r3, #2]
    877c:	29ff      	cmp	r1, #255	; 0xff
    877e:	d115      	bne.n	87ac <keepAliveTimerHandler+0x108>
    8780:	78d9      	ldrb	r1, [r3, #3]
    8782:	29ff      	cmp	r1, #255	; 0xff
    8784:	d112      	bne.n	87ac <keepAliveTimerHandler+0x108>
    8786:	7919      	ldrb	r1, [r3, #4]
    8788:	29ff      	cmp	r1, #255	; 0xff
    878a:	d10f      	bne.n	87ac <keepAliveTimerHandler+0x108>
    878c:	7959      	ldrb	r1, [r3, #5]
    878e:	29ff      	cmp	r1, #255	; 0xff
    8790:	d10c      	bne.n	87ac <keepAliveTimerHandler+0x108>
    8792:	7999      	ldrb	r1, [r3, #6]
    8794:	29ff      	cmp	r1, #255	; 0xff
    8796:	d109      	bne.n	87ac <keepAliveTimerHandler+0x108>
    8798:	79d9      	ldrb	r1, [r3, #7]
    879a:	29ff      	cmp	r1, #255	; 0xff
    879c:	d106      	bne.n	87ac <keepAliveTimerHandler+0x108>
    879e:	3401      	adds	r4, #1
    87a0:	b2e4      	uxtb	r4, r4
    87a2:	42bc      	cmp	r4, r7
    87a4:	d3de      	bcc.n	8764 <keepAliveTimerHandler+0xc0>
    87a6:	bc04      	pop	{r2}
    87a8:	4690      	mov	r8, r2
    87aa:	bdf0      	pop	{r4, r5, r6, r7, pc}
    87ac:	68d9      	ldr	r1, [r3, #12]
    87ae:	2900      	cmp	r1, #0
    87b0:	d0f5      	beq.n	879e <keepAliveTimerHandler+0xfa>
    87b2:	3901      	subs	r1, #1
    87b4:	60d9      	str	r1, [r3, #12]
    87b6:	2900      	cmp	r1, #0
    87b8:	d016      	beq.n	87e8 <keepAliveTimerHandler+0x144>
    87ba:	682a      	ldr	r2, [r5, #0]
    87bc:	5d97      	ldrb	r7, [r2, r6]
    87be:	e7ee      	b.n	879e <keepAliveTimerHandler+0xfa>
    87c0:	6899      	ldr	r1, [r3, #8]
    87c2:	2900      	cmp	r1, #0
    87c4:	d09b      	beq.n	86fe <keepAliveTimerHandler+0x5a>
    87c6:	3901      	subs	r1, #1
    87c8:	6099      	str	r1, [r3, #8]
    87ca:	2900      	cmp	r1, #0
    87cc:	d012      	beq.n	87f4 <keepAliveTimerHandler+0x150>
    87ce:	682a      	ldr	r2, [r5, #0]
    87d0:	5d97      	ldrb	r7, [r2, r6]
    87d2:	e794      	b.n	86fe <keepAliveTimerHandler+0x5a>
    87d4:	6899      	ldr	r1, [r3, #8]
    87d6:	2900      	cmp	r1, #0
    87d8:	d0b8      	beq.n	874c <keepAliveTimerHandler+0xa8>
    87da:	3901      	subs	r1, #1
    87dc:	6099      	str	r1, [r3, #8]
    87de:	2900      	cmp	r1, #0
    87e0:	d00e      	beq.n	8800 <keepAliveTimerHandler+0x15c>
    87e2:	682a      	ldr	r2, [r5, #0]
    87e4:	5d97      	ldrb	r7, [r2, r6]
    87e6:	e7b1      	b.n	874c <keepAliveTimerHandler+0xa8>
    87e8:	68d3      	ldr	r3, [r2, #12]
    87ea:	21ff      	movs	r1, #255	; 0xff
    87ec:	1818      	adds	r0, r3, r0
    87ee:	2208      	movs	r2, #8
    87f0:	47c0      	blx	r8
    87f2:	e7e2      	b.n	87ba <keepAliveTimerHandler+0x116>
    87f4:	6813      	ldr	r3, [r2, #0]
    87f6:	21ff      	movs	r1, #255	; 0xff
    87f8:	1818      	adds	r0, r3, r0
    87fa:	2208      	movs	r2, #8
    87fc:	47c0      	blx	r8
    87fe:	e7e6      	b.n	87ce <keepAliveTimerHandler+0x12a>
    8800:	6893      	ldr	r3, [r2, #8]
    8802:	21ff      	movs	r1, #255	; 0xff
    8804:	1818      	adds	r0, r3, r0
    8806:	2208      	movs	r2, #8
    8808:	47c0      	blx	r8
    880a:	e7ea      	b.n	87e2 <keepAliveTimerHandler+0x13e>
    880c:	20002060 	.word	0x20002060
    8810:	000095f1 	.word	0x000095f1

00008814 <isRxOffEdAvailable>:
    8814:	2224      	movs	r2, #36	; 0x24
    8816:	4b1e      	ldr	r3, [pc, #120]	; (8890 <isRxOffEdAvailable+0x7c>)
    8818:	681b      	ldr	r3, [r3, #0]
    881a:	5c9a      	ldrb	r2, [r3, r2]
    881c:	2a01      	cmp	r2, #1
    881e:	d932      	bls.n	8886 <isRxOffEdAvailable+0x72>
    8820:	68d9      	ldr	r1, [r3, #12]
    8822:	7d0b      	ldrb	r3, [r1, #20]
    8824:	2bff      	cmp	r3, #255	; 0xff
    8826:	d130      	bne.n	888a <isRxOffEdAvailable+0x76>
    8828:	7d4b      	ldrb	r3, [r1, #21]
    882a:	2bff      	cmp	r3, #255	; 0xff
    882c:	d12d      	bne.n	888a <isRxOffEdAvailable+0x76>
    882e:	7d8b      	ldrb	r3, [r1, #22]
    8830:	2bff      	cmp	r3, #255	; 0xff
    8832:	d12a      	bne.n	888a <isRxOffEdAvailable+0x76>
    8834:	7dcb      	ldrb	r3, [r1, #23]
    8836:	2bff      	cmp	r3, #255	; 0xff
    8838:	d127      	bne.n	888a <isRxOffEdAvailable+0x76>
    883a:	000b      	movs	r3, r1
    883c:	3a02      	subs	r2, #2
    883e:	b2d2      	uxtb	r2, r2
    8840:	0090      	lsls	r0, r2, #2
    8842:	1882      	adds	r2, r0, r2
    8844:	0092      	lsls	r2, r2, #2
    8846:	3218      	adds	r2, #24
    8848:	3318      	adds	r3, #24
    884a:	1889      	adds	r1, r1, r2
    884c:	e00d      	b.n	886a <isRxOffEdAvailable+0x56>
    884e:	7c1a      	ldrb	r2, [r3, #16]
    8850:	2aff      	cmp	r2, #255	; 0xff
    8852:	d11a      	bne.n	888a <isRxOffEdAvailable+0x76>
    8854:	7c5a      	ldrb	r2, [r3, #17]
    8856:	2aff      	cmp	r2, #255	; 0xff
    8858:	d117      	bne.n	888a <isRxOffEdAvailable+0x76>
    885a:	7c9a      	ldrb	r2, [r3, #18]
    885c:	2aff      	cmp	r2, #255	; 0xff
    885e:	d114      	bne.n	888a <isRxOffEdAvailable+0x76>
    8860:	3314      	adds	r3, #20
    8862:	1e5a      	subs	r2, r3, #1
    8864:	7812      	ldrb	r2, [r2, #0]
    8866:	2aff      	cmp	r2, #255	; 0xff
    8868:	d10f      	bne.n	888a <isRxOffEdAvailable+0x76>
    886a:	781a      	ldrb	r2, [r3, #0]
    886c:	2aff      	cmp	r2, #255	; 0xff
    886e:	d10c      	bne.n	888a <isRxOffEdAvailable+0x76>
    8870:	785a      	ldrb	r2, [r3, #1]
    8872:	2aff      	cmp	r2, #255	; 0xff
    8874:	d109      	bne.n	888a <isRxOffEdAvailable+0x76>
    8876:	789a      	ldrb	r2, [r3, #2]
    8878:	2aff      	cmp	r2, #255	; 0xff
    887a:	d106      	bne.n	888a <isRxOffEdAvailable+0x76>
    887c:	78da      	ldrb	r2, [r3, #3]
    887e:	2aff      	cmp	r2, #255	; 0xff
    8880:	d103      	bne.n	888a <isRxOffEdAvailable+0x76>
    8882:	4299      	cmp	r1, r3
    8884:	d1e3      	bne.n	884e <isRxOffEdAvailable+0x3a>
    8886:	2000      	movs	r0, #0
    8888:	4770      	bx	lr
    888a:	2001      	movs	r0, #1
    888c:	e7fc      	b.n	8888 <isRxOffEdAvailable+0x74>
    888e:	46c0      	nop			; (mov r8, r8)
    8890:	20002060 	.word	0x20002060

00008894 <routeReplyConfcb>:
    8894:	b510      	push	{r4, lr}
    8896:	0010      	movs	r0, r2
    8898:	4b01      	ldr	r3, [pc, #4]	; (88a0 <routeReplyConfcb+0xc>)
    889a:	4798      	blx	r3
    889c:	bd10      	pop	{r4, pc}
    889e:	46c0      	nop			; (mov r8, r8)
    88a0:	00003869 	.word	0x00003869

000088a4 <routeUpdateConfcb>:
    88a4:	b510      	push	{r4, lr}
    88a6:	0010      	movs	r0, r2
    88a8:	4b01      	ldr	r3, [pc, #4]	; (88b0 <routeUpdateConfcb+0xc>)
    88aa:	4798      	blx	r3
    88ac:	bd10      	pop	{r4, pc}
    88ae:	46c0      	nop			; (mov r8, r8)
    88b0:	00003869 	.word	0x00003869

000088b4 <routeReqConfcb>:
    88b4:	b510      	push	{r4, lr}
    88b6:	0010      	movs	r0, r2
    88b8:	4b01      	ldr	r3, [pc, #4]	; (88c0 <routeReqConfcb+0xc>)
    88ba:	4798      	blx	r3
    88bc:	bd10      	pop	{r4, pc}
    88be:	46c0      	nop			; (mov r8, r8)
    88c0:	00003869 	.word	0x00003869

000088c4 <initRouteTable>:
    88c4:	b5f8      	push	{r3, r4, r5, r6, r7, lr}
    88c6:	2320      	movs	r3, #32
    88c8:	4c15      	ldr	r4, [pc, #84]	; (8920 <initRouteTable+0x5c>)
    88ca:	6822      	ldr	r2, [r4, #0]
    88cc:	5cd3      	ldrb	r3, [r2, r3]
    88ce:	2b00      	cmp	r3, #0
    88d0:	d018      	beq.n	8904 <initRouteTable+0x40>
    88d2:	2300      	movs	r3, #0
    88d4:	27ff      	movs	r7, #255	; 0xff
    88d6:	250f      	movs	r5, #15
    88d8:	2620      	movs	r6, #32
    88da:	6912      	ldr	r2, [r2, #16]
    88dc:	0058      	lsls	r0, r3, #1
    88de:	5417      	strb	r7, [r2, r0]
    88e0:	6822      	ldr	r2, [r4, #0]
    88e2:	3301      	adds	r3, #1
    88e4:	6911      	ldr	r1, [r2, #16]
    88e6:	b2db      	uxtb	r3, r3
    88e8:	1809      	adds	r1, r1, r0
    88ea:	784a      	ldrb	r2, [r1, #1]
    88ec:	43aa      	bics	r2, r5
    88ee:	704a      	strb	r2, [r1, #1]
    88f0:	6822      	ldr	r2, [r4, #0]
    88f2:	6912      	ldr	r2, [r2, #16]
    88f4:	1812      	adds	r2, r2, r0
    88f6:	7851      	ldrb	r1, [r2, #1]
    88f8:	4029      	ands	r1, r5
    88fa:	7051      	strb	r1, [r2, #1]
    88fc:	6822      	ldr	r2, [r4, #0]
    88fe:	5d91      	ldrb	r1, [r2, r6]
    8900:	4299      	cmp	r1, r3
    8902:	d8ea      	bhi.n	88da <initRouteTable+0x16>
    8904:	2100      	movs	r1, #0
    8906:	6950      	ldr	r0, [r2, #20]
    8908:	4b06      	ldr	r3, [pc, #24]	; (8924 <initRouteTable+0x60>)
    890a:	2220      	movs	r2, #32
    890c:	4798      	blx	r3
    890e:	4806      	ldr	r0, [pc, #24]	; (8928 <initRouteTable+0x64>)
    8910:	4b06      	ldr	r3, [pc, #24]	; (892c <initRouteTable+0x68>)
    8912:	4798      	blx	r3
    8914:	2325      	movs	r3, #37	; 0x25
    8916:	6822      	ldr	r2, [r4, #0]
    8918:	5cd2      	ldrb	r2, [r2, r3]
    891a:	4b05      	ldr	r3, [pc, #20]	; (8930 <initRouteTable+0x6c>)
    891c:	701a      	strb	r2, [r3, #0]
    891e:	bdf8      	pop	{r3, r4, r5, r6, r7, pc}
    8920:	20002060 	.word	0x20002060
    8924:	000095f1 	.word	0x000095f1
    8928:	200020e4 	.word	0x200020e4
    892c:	000038d9 	.word	0x000038d9
    8930:	200020e0 	.word	0x200020e0

00008934 <addRoute>:
    8934:	b5f0      	push	{r4, r5, r6, r7, lr}
    8936:	46c6      	mov	lr, r8
    8938:	0a04      	lsrs	r4, r0, #8
    893a:	2020      	movs	r0, #32
    893c:	b500      	push	{lr}
    893e:	4f2d      	ldr	r7, [pc, #180]	; (89f4 <addRoute+0xc0>)
    8940:	683d      	ldr	r5, [r7, #0]
    8942:	5c2e      	ldrb	r6, [r5, r0]
    8944:	2000      	movs	r0, #0
    8946:	42b4      	cmp	r4, r6
    8948:	d237      	bcs.n	89ba <addRoute+0x86>
    894a:	0a09      	lsrs	r1, r1, #8
    894c:	42b1      	cmp	r1, r6
    894e:	d234      	bcs.n	89ba <addRoute+0x86>
    8950:	1c10      	adds	r0, r2, #0
    8952:	2a0f      	cmp	r2, #15
    8954:	d834      	bhi.n	89c0 <addRoute+0x8c>
    8956:	b2c2      	uxtb	r2, r0
    8958:	2001      	movs	r0, #1
    895a:	4020      	ands	r0, r4
    895c:	4684      	mov	ip, r0
    895e:	d135      	bne.n	89cc <addRoute+0x98>
    8960:	0860      	lsrs	r0, r4, #1
    8962:	4680      	mov	r8, r0
    8964:	4646      	mov	r6, r8
    8966:	6968      	ldr	r0, [r5, #20]
    8968:	5d86      	ldrb	r6, [r0, r6]
    896a:	0936      	lsrs	r6, r6, #4
    896c:	2e00      	cmp	r6, #0
    896e:	d002      	beq.n	8976 <addRoute+0x42>
    8970:	2000      	movs	r0, #0
    8972:	42b2      	cmp	r2, r6
    8974:	d221      	bcs.n	89ba <addRoute+0x86>
    8976:	0060      	lsls	r0, r4, #1
    8978:	692c      	ldr	r4, [r5, #16]
    897a:	5421      	strb	r1, [r4, r0]
    897c:	4661      	mov	r1, ip
    897e:	2900      	cmp	r1, #0
    8980:	d12c      	bne.n	89dc <addRoute+0xa8>
    8982:	0114      	lsls	r4, r2, #4
    8984:	4642      	mov	r2, r8
    8986:	6839      	ldr	r1, [r7, #0]
    8988:	6949      	ldr	r1, [r1, #20]
    898a:	5c8d      	ldrb	r5, [r1, r2]
    898c:	220f      	movs	r2, #15
    898e:	402a      	ands	r2, r5
    8990:	4322      	orrs	r2, r4
    8992:	4644      	mov	r4, r8
    8994:	550a      	strb	r2, [r1, r4]
    8996:	683a      	ldr	r2, [r7, #0]
    8998:	091c      	lsrs	r4, r3, #4
    899a:	6911      	ldr	r1, [r2, #16]
    899c:	220f      	movs	r2, #15
    899e:	1809      	adds	r1, r1, r0
    89a0:	784b      	ldrb	r3, [r1, #1]
    89a2:	4393      	bics	r3, r2
    89a4:	4323      	orrs	r3, r4
    89a6:	704b      	strb	r3, [r1, #1]
    89a8:	683b      	ldr	r3, [r7, #0]
    89aa:	691c      	ldr	r4, [r3, #16]
    89ac:	1824      	adds	r4, r4, r0
    89ae:	7863      	ldrb	r3, [r4, #1]
    89b0:	2001      	movs	r0, #1
    89b2:	401a      	ands	r2, r3
    89b4:	2330      	movs	r3, #48	; 0x30
    89b6:	431a      	orrs	r2, r3
    89b8:	7062      	strb	r2, [r4, #1]
    89ba:	bc04      	pop	{r2}
    89bc:	4690      	mov	r8, r2
    89be:	bdf0      	pop	{r4, r5, r6, r7, pc}
    89c0:	200f      	movs	r0, #15
    89c2:	b2c2      	uxtb	r2, r0
    89c4:	2001      	movs	r0, #1
    89c6:	4020      	ands	r0, r4
    89c8:	4684      	mov	ip, r0
    89ca:	d0c9      	beq.n	8960 <addRoute+0x2c>
    89cc:	0860      	lsrs	r0, r4, #1
    89ce:	4680      	mov	r8, r0
    89d0:	4646      	mov	r6, r8
    89d2:	6968      	ldr	r0, [r5, #20]
    89d4:	5d86      	ldrb	r6, [r0, r6]
    89d6:	0736      	lsls	r6, r6, #28
    89d8:	0f36      	lsrs	r6, r6, #28
    89da:	e7c7      	b.n	896c <addRoute+0x38>
    89dc:	240f      	movs	r4, #15
    89de:	4022      	ands	r2, r4
    89e0:	0015      	movs	r5, r2
    89e2:	4642      	mov	r2, r8
    89e4:	6839      	ldr	r1, [r7, #0]
    89e6:	6949      	ldr	r1, [r1, #20]
    89e8:	5c8a      	ldrb	r2, [r1, r2]
    89ea:	43a2      	bics	r2, r4
    89ec:	4644      	mov	r4, r8
    89ee:	432a      	orrs	r2, r5
    89f0:	550a      	strb	r2, [r1, r4]
    89f2:	e7d0      	b.n	8996 <addRoute+0x62>
    89f4:	20002060 	.word	0x20002060

000089f8 <handleRouteMessage>:
    89f8:	b5f0      	push	{r4, r5, r6, r7, lr}
    89fa:	4657      	mov	r7, sl
    89fc:	46de      	mov	lr, fp
    89fe:	464e      	mov	r6, r9
    8a00:	4645      	mov	r5, r8
    8a02:	b5e0      	push	{r5, r6, r7, lr}
    8a04:	0004      	movs	r4, r0
    8a06:	b093      	sub	sp, #76	; 0x4c
    8a08:	7850      	ldrb	r0, [r2, #1]
    8a0a:	a91c      	add	r1, sp, #112	; 0x70
    8a0c:	7812      	ldrb	r2, [r2, #0]
    8a0e:	780f      	ldrb	r7, [r1, #0]
    8a10:	0201      	lsls	r1, r0, #8
    8a12:	4311      	orrs	r1, r2
    8a14:	781a      	ldrb	r2, [r3, #0]
    8a16:	2a12      	cmp	r2, #18
    8a18:	d100      	bne.n	8a1c <handleRouteMessage+0x24>
    8a1a:	e150      	b.n	8cbe <handleRouteMessage+0x2c6>
    8a1c:	2a13      	cmp	r2, #19
    8a1e:	d100      	bne.n	8a22 <handleRouteMessage+0x2a>
    8a20:	e07f      	b.n	8b22 <handleRouteMessage+0x12a>
    8a22:	2a11      	cmp	r2, #17
    8a24:	d009      	beq.n	8a3a <handleRouteMessage+0x42>
    8a26:	2300      	movs	r3, #0
    8a28:	4698      	mov	r8, r3
    8a2a:	4640      	mov	r0, r8
    8a2c:	b013      	add	sp, #76	; 0x4c
    8a2e:	bc3c      	pop	{r2, r3, r4, r5}
    8a30:	4690      	mov	r8, r2
    8a32:	4699      	mov	r9, r3
    8a34:	46a2      	mov	sl, r4
    8a36:	46ab      	mov	fp, r5
    8a38:	bdf0      	pop	{r4, r5, r6, r7, pc}
    8a3a:	789d      	ldrb	r5, [r3, #2]
    8a3c:	785a      	ldrb	r2, [r3, #1]
    8a3e:	022b      	lsls	r3, r5, #8
    8a40:	431a      	orrs	r2, r3
    8a42:	4691      	mov	r9, r2
    8a44:	7822      	ldrb	r2, [r4, #0]
    8a46:	b289      	uxth	r1, r1
    8a48:	4252      	negs	r2, r2
    8a4a:	b2d2      	uxtb	r2, r2
    8a4c:	003b      	movs	r3, r7
    8a4e:	4eb3      	ldr	r6, [pc, #716]	; (8d1c <handleRouteMessage+0x324>)
    8a50:	88e0      	ldrh	r0, [r4, #6]
    8a52:	47b0      	blx	r6
    8a54:	2220      	movs	r2, #32
    8a56:	2101      	movs	r1, #1
    8a58:	4eb1      	ldr	r6, [pc, #708]	; (8d20 <handleRouteMessage+0x328>)
    8a5a:	4688      	mov	r8, r1
    8a5c:	6833      	ldr	r3, [r6, #0]
    8a5e:	5c9a      	ldrb	r2, [r3, r2]
    8a60:	42aa      	cmp	r2, r5
    8a62:	d9e2      	bls.n	8a2a <handleRouteMessage+0x32>
    8a64:	4229      	tst	r1, r5
    8a66:	d000      	beq.n	8a6a <handleRouteMessage+0x72>
    8a68:	e147      	b.n	8cfa <handleRouteMessage+0x302>
    8a6a:	695b      	ldr	r3, [r3, #20]
    8a6c:	086a      	lsrs	r2, r5, #1
    8a6e:	5c9f      	ldrb	r7, [r3, r2]
    8a70:	093b      	lsrs	r3, r7, #4
    8a72:	469b      	mov	fp, r3
    8a74:	4bab      	ldr	r3, [pc, #684]	; (8d24 <handleRouteMessage+0x32c>)
    8a76:	469a      	mov	sl, r3
    8a78:	881b      	ldrh	r3, [r3, #0]
    8a7a:	4599      	cmp	r9, r3
    8a7c:	d004      	beq.n	8a88 <handleRouteMessage+0x90>
    8a7e:	2301      	movs	r3, #1
    8a80:	4698      	mov	r8, r3
    8a82:	465b      	mov	r3, fp
    8a84:	2b00      	cmp	r3, #0
    8a86:	d0d0      	beq.n	8a2a <handleRouteMessage+0x32>
    8a88:	88e3      	ldrh	r3, [r4, #6]
    8a8a:	2078      	movs	r0, #120	; 0x78
    8a8c:	4699      	mov	r9, r3
    8a8e:	4ba6      	ldr	r3, [pc, #664]	; (8d28 <handleRouteMessage+0x330>)
    8a90:	4798      	blx	r3
    8a92:	4680      	mov	r8, r0
    8a94:	2800      	cmp	r0, #0
    8a96:	d0c6      	beq.n	8a26 <handleRouteMessage+0x2e>
    8a98:	4653      	mov	r3, sl
    8a9a:	8819      	ldrh	r1, [r3, #0]
    8a9c:	ac0a      	add	r4, sp, #40	; 0x28
    8a9e:	b289      	uxth	r1, r1
    8aa0:	0023      	movs	r3, r4
    8aa2:	464a      	mov	r2, r9
    8aa4:	20ff      	movs	r0, #255	; 0xff
    8aa6:	4fa1      	ldr	r7, [pc, #644]	; (8d2c <handleRouteMessage+0x334>)
    8aa8:	47b8      	blx	r7
    8aaa:	2210      	movs	r2, #16
    8aac:	7863      	ldrb	r3, [r4, #1]
    8aae:	4641      	mov	r1, r8
    8ab0:	4393      	bics	r3, r2
    8ab2:	7063      	strb	r3, [r4, #1]
    8ab4:	0020      	movs	r0, r4
    8ab6:	4b9e      	ldr	r3, [pc, #632]	; (8d30 <handleRouteMessage+0x338>)
    8ab8:	4798      	blx	r3
    8aba:	2312      	movs	r3, #18
    8abc:	4642      	mov	r2, r8
    8abe:	0001      	movs	r1, r0
    8ac0:	5413      	strb	r3, [r2, r0]
    8ac2:	1c43      	adds	r3, r0, #1
    8ac4:	2200      	movs	r2, #0
    8ac6:	4640      	mov	r0, r8
    8ac8:	b2db      	uxtb	r3, r3
    8aca:	54c2      	strb	r2, [r0, r3]
    8acc:	1c8b      	adds	r3, r1, #2
    8ace:	b2db      	uxtb	r3, r3
    8ad0:	54c5      	strb	r5, [r0, r3]
    8ad2:	4642      	mov	r2, r8
    8ad4:	4658      	mov	r0, fp
    8ad6:	1ccb      	adds	r3, r1, #3
    8ad8:	b2db      	uxtb	r3, r3
    8ada:	54d0      	strb	r0, [r2, r3]
    8adc:	2020      	movs	r0, #32
    8ade:	464b      	mov	r3, r9
    8ae0:	6832      	ldr	r2, [r6, #0]
    8ae2:	0a1b      	lsrs	r3, r3, #8
    8ae4:	5c10      	ldrb	r0, [r2, r0]
    8ae6:	4298      	cmp	r0, r3
    8ae8:	d800      	bhi.n	8aec <handleRouteMessage+0xf4>
    8aea:	e10d      	b.n	8d08 <handleRouteMessage+0x310>
    8aec:	6912      	ldr	r2, [r2, #16]
    8aee:	005b      	lsls	r3, r3, #1
    8af0:	5c9b      	ldrb	r3, [r3, r2]
    8af2:	2bff      	cmp	r3, #255	; 0xff
    8af4:	d100      	bne.n	8af8 <handleRouteMessage+0x100>
    8af6:	e107      	b.n	8d08 <handleRouteMessage+0x310>
    8af8:	021b      	lsls	r3, r3, #8
    8afa:	a804      	add	r0, sp, #16
    8afc:	4684      	mov	ip, r0
    8afe:	2216      	movs	r2, #22
    8b00:	4462      	add	r2, ip
    8b02:	8013      	strh	r3, [r2, #0]
    8b04:	4b8b      	ldr	r3, [pc, #556]	; (8d34 <handleRouteMessage+0x33c>)
    8b06:	9201      	str	r2, [sp, #4]
    8b08:	9303      	str	r3, [sp, #12]
    8b0a:	2300      	movs	r3, #0
    8b0c:	9302      	str	r3, [sp, #8]
    8b0e:	3302      	adds	r3, #2
    8b10:	9300      	str	r3, [sp, #0]
    8b12:	0020      	movs	r0, r4
    8b14:	4643      	mov	r3, r8
    8b16:	2204      	movs	r2, #4
    8b18:	4c87      	ldr	r4, [pc, #540]	; (8d38 <handleRouteMessage+0x340>)
    8b1a:	47a0      	blx	r4
    8b1c:	2300      	movs	r3, #0
    8b1e:	4698      	mov	r8, r3
    8b20:	e783      	b.n	8a2a <handleRouteMessage+0x32>
    8b22:	4a86      	ldr	r2, [pc, #536]	; (8d3c <handleRouteMessage+0x344>)
    8b24:	7812      	ldrb	r2, [r2, #0]
    8b26:	4690      	mov	r8, r2
    8b28:	2a00      	cmp	r2, #0
    8b2a:	d000      	beq.n	8b2e <handleRouteMessage+0x136>
    8b2c:	e77b      	b.n	8a26 <handleRouteMessage+0x2e>
    8b2e:	785a      	ldrb	r2, [r3, #1]
    8b30:	1c9d      	adds	r5, r3, #2
    8b32:	4693      	mov	fp, r2
    8b34:	2a00      	cmp	r2, #0
    8b36:	d100      	bne.n	8b3a <handleRouteMessage+0x142>
    8b38:	e0e8      	b.n	8d0c <handleRouteMessage+0x314>
    8b3a:	4e79      	ldr	r6, [pc, #484]	; (8d20 <handleRouteMessage+0x328>)
    8b3c:	240f      	movs	r4, #15
    8b3e:	6833      	ldr	r3, [r6, #0]
    8b40:	4641      	mov	r1, r8
    8b42:	695b      	ldr	r3, [r3, #20]
    8b44:	9107      	str	r1, [sp, #28]
    8b46:	469c      	mov	ip, r3
    8b48:	093b      	lsrs	r3, r7, #4
    8b4a:	001a      	movs	r2, r3
    8b4c:	4022      	ands	r2, r4
    8b4e:	9205      	str	r2, [sp, #20]
    8b50:	4662      	mov	r2, ip
    8b52:	2702      	movs	r7, #2
    8b54:	9306      	str	r3, [sp, #24]
    8b56:	4684      	mov	ip, r0
    8b58:	2300      	movs	r3, #0
    8b5a:	0010      	movs	r0, r2
    8b5c:	9704      	str	r7, [sp, #16]
    8b5e:	782a      	ldrb	r2, [r5, #0]
    8b60:	0011      	movs	r1, r2
    8b62:	43a1      	bics	r1, r4
    8b64:	d02d      	beq.n	8bc2 <handleRouteMessage+0x1ca>
    8b66:	0911      	lsrs	r1, r2, #4
    8b68:	3101      	adds	r1, #1
    8b6a:	2910      	cmp	r1, #16
    8b6c:	d100      	bne.n	8b70 <handleRouteMessage+0x178>
    8b6e:	3901      	subs	r1, #1
    8b70:	18c7      	adds	r7, r0, r3
    8b72:	46b8      	mov	r8, r7
    8b74:	783f      	ldrb	r7, [r7, #0]
    8b76:	46b9      	mov	r9, r7
    8b78:	43a7      	bics	r7, r4
    8b7a:	d003      	beq.n	8b84 <handleRouteMessage+0x18c>
    8b7c:	464f      	mov	r7, r9
    8b7e:	093f      	lsrs	r7, r7, #4
    8b80:	42b9      	cmp	r1, r7
    8b82:	da1e      	bge.n	8bc2 <handleRouteMessage+0x1ca>
    8b84:	4642      	mov	r2, r8
    8b86:	7812      	ldrb	r2, [r2, #0]
    8b88:	0109      	lsls	r1, r1, #4
    8b8a:	4022      	ands	r2, r4
    8b8c:	4311      	orrs	r1, r2
    8b8e:	4642      	mov	r2, r8
    8b90:	4660      	mov	r0, ip
    8b92:	7011      	strb	r1, [r2, #0]
    8b94:	6831      	ldr	r1, [r6, #0]
    8b96:	009a      	lsls	r2, r3, #2
    8b98:	6909      	ldr	r1, [r1, #16]
    8b9a:	9f05      	ldr	r7, [sp, #20]
    8b9c:	5488      	strb	r0, [r1, r2]
    8b9e:	6831      	ldr	r1, [r6, #0]
    8ba0:	6908      	ldr	r0, [r1, #16]
    8ba2:	1880      	adds	r0, r0, r2
    8ba4:	7841      	ldrb	r1, [r0, #1]
    8ba6:	43a1      	bics	r1, r4
    8ba8:	4339      	orrs	r1, r7
    8baa:	7041      	strb	r1, [r0, #1]
    8bac:	2030      	movs	r0, #48	; 0x30
    8bae:	6831      	ldr	r1, [r6, #0]
    8bb0:	6909      	ldr	r1, [r1, #16]
    8bb2:	188a      	adds	r2, r1, r2
    8bb4:	7851      	ldrb	r1, [r2, #1]
    8bb6:	4021      	ands	r1, r4
    8bb8:	4301      	orrs	r1, r0
    8bba:	7051      	strb	r1, [r2, #1]
    8bbc:	6831      	ldr	r1, [r6, #0]
    8bbe:	782a      	ldrb	r2, [r5, #0]
    8bc0:	6948      	ldr	r0, [r1, #20]
    8bc2:	4214      	tst	r4, r2
    8bc4:	d02a      	beq.n	8c1c <handleRouteMessage+0x224>
    8bc6:	0712      	lsls	r2, r2, #28
    8bc8:	0f12      	lsrs	r2, r2, #28
    8bca:	3201      	adds	r2, #1
    8bcc:	2a10      	cmp	r2, #16
    8bce:	d100      	bne.n	8bd2 <handleRouteMessage+0x1da>
    8bd0:	3a01      	subs	r2, #1
    8bd2:	18c1      	adds	r1, r0, r3
    8bd4:	780f      	ldrb	r7, [r1, #0]
    8bd6:	423c      	tst	r4, r7
    8bd8:	d003      	beq.n	8be2 <handleRouteMessage+0x1ea>
    8bda:	073f      	lsls	r7, r7, #28
    8bdc:	0f3f      	lsrs	r7, r7, #28
    8bde:	42ba      	cmp	r2, r7
    8be0:	da1c      	bge.n	8c1c <handleRouteMessage+0x224>
    8be2:	7808      	ldrb	r0, [r1, #0]
    8be4:	4022      	ands	r2, r4
    8be6:	43a0      	bics	r0, r4
    8be8:	4302      	orrs	r2, r0
    8bea:	700a      	strb	r2, [r1, #0]
    8bec:	4661      	mov	r1, ip
    8bee:	9f04      	ldr	r7, [sp, #16]
    8bf0:	6832      	ldr	r2, [r6, #0]
    8bf2:	46b8      	mov	r8, r7
    8bf4:	6912      	ldr	r2, [r2, #16]
    8bf6:	9805      	ldr	r0, [sp, #20]
    8bf8:	55d1      	strb	r1, [r2, r7]
    8bfa:	6832      	ldr	r2, [r6, #0]
    8bfc:	6911      	ldr	r1, [r2, #16]
    8bfe:	4441      	add	r1, r8
    8c00:	784a      	ldrb	r2, [r1, #1]
    8c02:	43a2      	bics	r2, r4
    8c04:	4302      	orrs	r2, r0
    8c06:	2030      	movs	r0, #48	; 0x30
    8c08:	704a      	strb	r2, [r1, #1]
    8c0a:	6832      	ldr	r2, [r6, #0]
    8c0c:	6911      	ldr	r1, [r2, #16]
    8c0e:	4441      	add	r1, r8
    8c10:	784a      	ldrb	r2, [r1, #1]
    8c12:	4022      	ands	r2, r4
    8c14:	4302      	orrs	r2, r0
    8c16:	704a      	strb	r2, [r1, #1]
    8c18:	6832      	ldr	r2, [r6, #0]
    8c1a:	6950      	ldr	r0, [r2, #20]
    8c1c:	9a04      	ldr	r2, [sp, #16]
    8c1e:	3301      	adds	r3, #1
    8c20:	3204      	adds	r2, #4
    8c22:	9204      	str	r2, [sp, #16]
    8c24:	b2da      	uxtb	r2, r3
    8c26:	3501      	adds	r5, #1
    8c28:	4593      	cmp	fp, r2
    8c2a:	d898      	bhi.n	8b5e <handleRouteMessage+0x166>
    8c2c:	0002      	movs	r2, r0
    8c2e:	9b07      	ldr	r3, [sp, #28]
    8c30:	4660      	mov	r0, ip
    8c32:	4698      	mov	r8, r3
    8c34:	4694      	mov	ip, r2
    8c36:	0842      	lsrs	r2, r0, #1
    8c38:	07c3      	lsls	r3, r0, #31
    8c3a:	d54f      	bpl.n	8cdc <handleRouteMessage+0x2e4>
    8c3c:	4663      	mov	r3, ip
    8c3e:	210f      	movs	r1, #15
    8c40:	5c9b      	ldrb	r3, [r3, r2]
    8c42:	438b      	bics	r3, r1
    8c44:	2101      	movs	r1, #1
    8c46:	430b      	orrs	r3, r1
    8c48:	4661      	mov	r1, ip
    8c4a:	548b      	strb	r3, [r1, r2]
    8c4c:	210f      	movs	r1, #15
    8c4e:	6833      	ldr	r3, [r6, #0]
    8c50:	0044      	lsls	r4, r0, #1
    8c52:	691b      	ldr	r3, [r3, #16]
    8c54:	9a06      	ldr	r2, [sp, #24]
    8c56:	5518      	strb	r0, [r3, r4]
    8c58:	6833      	ldr	r3, [r6, #0]
    8c5a:	6918      	ldr	r0, [r3, #16]
    8c5c:	1900      	adds	r0, r0, r4
    8c5e:	7843      	ldrb	r3, [r0, #1]
    8c60:	438b      	bics	r3, r1
    8c62:	4313      	orrs	r3, r2
    8c64:	7043      	strb	r3, [r0, #1]
    8c66:	2030      	movs	r0, #48	; 0x30
    8c68:	6833      	ldr	r3, [r6, #0]
    8c6a:	691a      	ldr	r2, [r3, #16]
    8c6c:	1912      	adds	r2, r2, r4
    8c6e:	7853      	ldrb	r3, [r2, #1]
    8c70:	400b      	ands	r3, r1
    8c72:	4303      	orrs	r3, r0
    8c74:	7053      	strb	r3, [r2, #1]
    8c76:	4b2b      	ldr	r3, [pc, #172]	; (8d24 <handleRouteMessage+0x32c>)
    8c78:	6830      	ldr	r0, [r6, #0]
    8c7a:	881b      	ldrh	r3, [r3, #0]
    8c7c:	6904      	ldr	r4, [r0, #16]
    8c7e:	0a1b      	lsrs	r3, r3, #8
    8c80:	b2da      	uxtb	r2, r3
    8c82:	005b      	lsls	r3, r3, #1
    8c84:	5ce4      	ldrb	r4, [r4, r3]
    8c86:	2cff      	cmp	r4, #255	; 0xff
    8c88:	d100      	bne.n	8c8c <handleRouteMessage+0x294>
    8c8a:	e6cc      	b.n	8a26 <handleRouteMessage+0x2e>
    8c8c:	07d4      	lsls	r4, r2, #31
    8c8e:	d52e      	bpl.n	8cee <handleRouteMessage+0x2f6>
    8c90:	6944      	ldr	r4, [r0, #20]
    8c92:	0852      	lsrs	r2, r2, #1
    8c94:	5ca0      	ldrb	r0, [r4, r2]
    8c96:	4388      	bics	r0, r1
    8c98:	54a0      	strb	r0, [r4, r2]
    8c9a:	21ff      	movs	r1, #255	; 0xff
    8c9c:	6832      	ldr	r2, [r6, #0]
    8c9e:	6912      	ldr	r2, [r2, #16]
    8ca0:	54d1      	strb	r1, [r2, r3]
    8ca2:	6832      	ldr	r2, [r6, #0]
    8ca4:	39f0      	subs	r1, #240	; 0xf0
    8ca6:	6912      	ldr	r2, [r2, #16]
    8ca8:	18d2      	adds	r2, r2, r3
    8caa:	7850      	ldrb	r0, [r2, #1]
    8cac:	4388      	bics	r0, r1
    8cae:	7050      	strb	r0, [r2, #1]
    8cb0:	6832      	ldr	r2, [r6, #0]
    8cb2:	6912      	ldr	r2, [r2, #16]
    8cb4:	18d3      	adds	r3, r2, r3
    8cb6:	785a      	ldrb	r2, [r3, #1]
    8cb8:	4011      	ands	r1, r2
    8cba:	7059      	strb	r1, [r3, #1]
    8cbc:	e6b5      	b.n	8a2a <handleRouteMessage+0x32>
    8cbe:	7858      	ldrb	r0, [r3, #1]
    8cc0:	789d      	ldrb	r5, [r3, #2]
    8cc2:	78da      	ldrb	r2, [r3, #3]
    8cc4:	7823      	ldrb	r3, [r4, #0]
    8cc6:	022d      	lsls	r5, r5, #8
    8cc8:	1ad2      	subs	r2, r2, r3
    8cca:	b2d2      	uxtb	r2, r2
    8ccc:	003b      	movs	r3, r7
    8cce:	b289      	uxth	r1, r1
    8cd0:	4328      	orrs	r0, r5
    8cd2:	4c12      	ldr	r4, [pc, #72]	; (8d1c <handleRouteMessage+0x324>)
    8cd4:	47a0      	blx	r4
    8cd6:	2300      	movs	r3, #0
    8cd8:	4698      	mov	r8, r3
    8cda:	e6a6      	b.n	8a2a <handleRouteMessage+0x32>
    8cdc:	4663      	mov	r3, ip
    8cde:	5c99      	ldrb	r1, [r3, r2]
    8ce0:	230f      	movs	r3, #15
    8ce2:	400b      	ands	r3, r1
    8ce4:	2110      	movs	r1, #16
    8ce6:	430b      	orrs	r3, r1
    8ce8:	4661      	mov	r1, ip
    8cea:	548b      	strb	r3, [r1, r2]
    8cec:	e7ae      	b.n	8c4c <handleRouteMessage+0x254>
    8cee:	6940      	ldr	r0, [r0, #20]
    8cf0:	0852      	lsrs	r2, r2, #1
    8cf2:	5c84      	ldrb	r4, [r0, r2]
    8cf4:	4021      	ands	r1, r4
    8cf6:	5481      	strb	r1, [r0, r2]
    8cf8:	e7cf      	b.n	8c9a <handleRouteMessage+0x2a2>
    8cfa:	695b      	ldr	r3, [r3, #20]
    8cfc:	086a      	lsrs	r2, r5, #1
    8cfe:	5c9f      	ldrb	r7, [r3, r2]
    8d00:	073f      	lsls	r7, r7, #28
    8d02:	0f3b      	lsrs	r3, r7, #28
    8d04:	469b      	mov	fp, r3
    8d06:	e6b5      	b.n	8a74 <handleRouteMessage+0x7c>
    8d08:	4b0d      	ldr	r3, [pc, #52]	; (8d40 <handleRouteMessage+0x348>)
    8d0a:	e6f6      	b.n	8afa <handleRouteMessage+0x102>
    8d0c:	4e04      	ldr	r6, [pc, #16]	; (8d20 <handleRouteMessage+0x328>)
    8d0e:	093b      	lsrs	r3, r7, #4
    8d10:	9306      	str	r3, [sp, #24]
    8d12:	6833      	ldr	r3, [r6, #0]
    8d14:	695b      	ldr	r3, [r3, #20]
    8d16:	469c      	mov	ip, r3
    8d18:	e78d      	b.n	8c36 <handleRouteMessage+0x23e>
    8d1a:	46c0      	nop			; (mov r8, r8)
    8d1c:	00008935 	.word	0x00008935
    8d20:	20002060 	.word	0x20002060
    8d24:	200020a8 	.word	0x200020a8
    8d28:	00003831 	.word	0x00003831
    8d2c:	00006945 	.word	0x00006945
    8d30:	00006971 	.word	0x00006971
    8d34:	00008895 	.word	0x00008895
    8d38:	00006a09 	.word	0x00006a09
    8d3c:	200003bc 	.word	0x200003bc
    8d40:	0000ffff 	.word	0x0000ffff

00008d44 <removeRoute>:
    8d44:	2120      	movs	r1, #32
    8d46:	b530      	push	{r4, r5, lr}
    8d48:	4a14      	ldr	r2, [pc, #80]	; (8d9c <removeRoute+0x58>)
    8d4a:	0a03      	lsrs	r3, r0, #8
    8d4c:	6814      	ldr	r4, [r2, #0]
    8d4e:	2000      	movs	r0, #0
    8d50:	5c61      	ldrb	r1, [r4, r1]
    8d52:	4299      	cmp	r1, r3
    8d54:	d919      	bls.n	8d8a <removeRoute+0x46>
    8d56:	6920      	ldr	r0, [r4, #16]
    8d58:	24ff      	movs	r4, #255	; 0xff
    8d5a:	0059      	lsls	r1, r3, #1
    8d5c:	5444      	strb	r4, [r0, r1]
    8d5e:	6810      	ldr	r0, [r2, #0]
    8d60:	3cf0      	subs	r4, #240	; 0xf0
    8d62:	6900      	ldr	r0, [r0, #16]
    8d64:	1840      	adds	r0, r0, r1
    8d66:	7845      	ldrb	r5, [r0, #1]
    8d68:	43a5      	bics	r5, r4
    8d6a:	7045      	strb	r5, [r0, #1]
    8d6c:	6810      	ldr	r0, [r2, #0]
    8d6e:	6900      	ldr	r0, [r0, #16]
    8d70:	1841      	adds	r1, r0, r1
    8d72:	7848      	ldrb	r0, [r1, #1]
    8d74:	4020      	ands	r0, r4
    8d76:	7048      	strb	r0, [r1, #1]
    8d78:	6812      	ldr	r2, [r2, #0]
    8d7a:	07d9      	lsls	r1, r3, #31
    8d7c:	d406      	bmi.n	8d8c <removeRoute+0x48>
    8d7e:	2001      	movs	r0, #1
    8d80:	6952      	ldr	r2, [r2, #20]
    8d82:	085b      	lsrs	r3, r3, #1
    8d84:	5cd1      	ldrb	r1, [r2, r3]
    8d86:	400c      	ands	r4, r1
    8d88:	54d4      	strb	r4, [r2, r3]
    8d8a:	bd30      	pop	{r4, r5, pc}
    8d8c:	6951      	ldr	r1, [r2, #20]
    8d8e:	085b      	lsrs	r3, r3, #1
    8d90:	5cca      	ldrb	r2, [r1, r3]
    8d92:	2001      	movs	r0, #1
    8d94:	43a2      	bics	r2, r4
    8d96:	54ca      	strb	r2, [r1, r3]
    8d98:	e7f7      	b.n	8d8a <removeRoute+0x46>
    8d9a:	46c0      	nop			; (mov r8, r8)
    8d9c:	20002060 	.word	0x20002060

00008da0 <getNextHopAddr>:
    8da0:	2220      	movs	r2, #32
    8da2:	4b07      	ldr	r3, [pc, #28]	; (8dc0 <getNextHopAddr+0x20>)
    8da4:	0a00      	lsrs	r0, r0, #8
    8da6:	681b      	ldr	r3, [r3, #0]
    8da8:	5c9a      	ldrb	r2, [r3, r2]
    8daa:	4282      	cmp	r2, r0
    8dac:	d801      	bhi.n	8db2 <getNextHopAddr+0x12>
    8dae:	4805      	ldr	r0, [pc, #20]	; (8dc4 <getNextHopAddr+0x24>)
    8db0:	4770      	bx	lr
    8db2:	691b      	ldr	r3, [r3, #16]
    8db4:	0040      	lsls	r0, r0, #1
    8db6:	5cc0      	ldrb	r0, [r0, r3]
    8db8:	28ff      	cmp	r0, #255	; 0xff
    8dba:	d0f8      	beq.n	8dae <getNextHopAddr+0xe>
    8dbc:	0200      	lsls	r0, r0, #8
    8dbe:	e7f7      	b.n	8db0 <getNextHopAddr+0x10>
    8dc0:	20002060 	.word	0x20002060
    8dc4:	0000ffff 	.word	0x0000ffff

00008dc8 <routeTimerHandler>:
    8dc8:	b5f0      	push	{r4, r5, r6, r7, lr}
    8dca:	464e      	mov	r6, r9
    8dcc:	46de      	mov	lr, fp
    8dce:	4657      	mov	r7, sl
    8dd0:	4645      	mov	r5, r8
    8dd2:	b5e0      	push	{r5, r6, r7, lr}
    8dd4:	4e64      	ldr	r6, [pc, #400]	; (8f68 <routeTimerHandler+0x1a0>)
    8dd6:	b08f      	sub	sp, #60	; 0x3c
    8dd8:	7a33      	ldrb	r3, [r6, #8]
    8dda:	2b00      	cmp	r3, #0
    8ddc:	d045      	beq.n	8e6a <routeTimerHandler+0xa2>
    8dde:	4b63      	ldr	r3, [pc, #396]	; (8f6c <routeTimerHandler+0x1a4>)
    8de0:	2500      	movs	r5, #0
    8de2:	4698      	mov	r8, r3
    8de4:	4b62      	ldr	r3, [pc, #392]	; (8f70 <routeTimerHandler+0x1a8>)
    8de6:	4f63      	ldr	r7, [pc, #396]	; (8f74 <routeTimerHandler+0x1ac>)
    8de8:	4699      	mov	r9, r3
    8dea:	4b63      	ldr	r3, [pc, #396]	; (8f78 <routeTimerHandler+0x1b0>)
    8dec:	469a      	mov	sl, r3
    8dee:	e027      	b.n	8e40 <routeTimerHandler+0x78>
    8df0:	464b      	mov	r3, r9
    8df2:	2120      	movs	r1, #32
    8df4:	681a      	ldr	r2, [r3, #0]
    8df6:	8b83      	ldrh	r3, [r0, #28]
    8df8:	5c51      	ldrb	r1, [r2, r1]
    8dfa:	0a1b      	lsrs	r3, r3, #8
    8dfc:	4299      	cmp	r1, r3
    8dfe:	d944      	bls.n	8e8a <routeTimerHandler+0xc2>
    8e00:	6911      	ldr	r1, [r2, #16]
    8e02:	005b      	lsls	r3, r3, #1
    8e04:	5c5b      	ldrb	r3, [r3, r1]
    8e06:	2bff      	cmp	r3, #255	; 0xff
    8e08:	d03f      	beq.n	8e8a <routeTimerHandler+0xc2>
    8e0a:	021b      	lsls	r3, r3, #8
    8e0c:	469b      	mov	fp, r3
    8e0e:	2310      	movs	r3, #16
    8e10:	7e41      	ldrb	r1, [r0, #25]
    8e12:	400b      	ands	r3, r1
    8e14:	d041      	beq.n	8e9a <routeTimerHandler+0xd2>
    8e16:	2337      	movs	r3, #55	; 0x37
    8e18:	5cd3      	ldrb	r3, [r2, r3]
    8e1a:	0001      	movs	r1, r0
    8e1c:	3301      	adds	r3, #1
    8e1e:	7403      	strb	r3, [r0, #16]
    8e20:	2338      	movs	r3, #56	; 0x38
    8e22:	5cd3      	ldrb	r3, [r2, r3]
    8e24:	7443      	strb	r3, [r0, #17]
    8e26:	4855      	ldr	r0, [pc, #340]	; (8f7c <routeTimerHandler+0x1b4>)
    8e28:	4b50      	ldr	r3, [pc, #320]	; (8f6c <routeTimerHandler+0x1a4>)
    8e2a:	4798      	blx	r3
    8e2c:	4a54      	ldr	r2, [pc, #336]	; (8f80 <routeTimerHandler+0x1b8>)
    8e2e:	4659      	mov	r1, fp
    8e30:	0020      	movs	r0, r4
    8e32:	4b51      	ldr	r3, [pc, #324]	; (8f78 <routeTimerHandler+0x1b0>)
    8e34:	4798      	blx	r3
    8e36:	3501      	adds	r5, #1
    8e38:	7a33      	ldrb	r3, [r6, #8]
    8e3a:	b2ed      	uxtb	r5, r5
    8e3c:	42ab      	cmp	r3, r5
    8e3e:	d914      	bls.n	8e6a <routeTimerHandler+0xa2>
    8e40:	2100      	movs	r1, #0
    8e42:	0030      	movs	r0, r6
    8e44:	47b8      	blx	r7
    8e46:	1e04      	subs	r4, r0, #0
    8e48:	d018      	beq.n	8e7c <routeTimerHandler+0xb4>
    8e4a:	7c03      	ldrb	r3, [r0, #16]
    8e4c:	2b00      	cmp	r3, #0
    8e4e:	d004      	beq.n	8e5a <routeTimerHandler+0x92>
    8e50:	3b01      	subs	r3, #1
    8e52:	b2db      	uxtb	r3, r3
    8e54:	7403      	strb	r3, [r0, #16]
    8e56:	2b00      	cmp	r3, #0
    8e58:	d0ca      	beq.n	8df0 <routeTimerHandler+0x28>
    8e5a:	0021      	movs	r1, r4
    8e5c:	0030      	movs	r0, r6
    8e5e:	47c0      	blx	r8
    8e60:	3501      	adds	r5, #1
    8e62:	7a33      	ldrb	r3, [r6, #8]
    8e64:	b2ed      	uxtb	r5, r5
    8e66:	42ab      	cmp	r3, r5
    8e68:	d8ea      	bhi.n	8e40 <routeTimerHandler+0x78>
    8e6a:	4b46      	ldr	r3, [pc, #280]	; (8f84 <routeTimerHandler+0x1bc>)
    8e6c:	781a      	ldrb	r2, [r3, #0]
    8e6e:	2a00      	cmp	r2, #0
    8e70:	d004      	beq.n	8e7c <routeTimerHandler+0xb4>
    8e72:	3a01      	subs	r2, #1
    8e74:	b2d2      	uxtb	r2, r2
    8e76:	701a      	strb	r2, [r3, #0]
    8e78:	2a00      	cmp	r2, #0
    8e7a:	d016      	beq.n	8eaa <routeTimerHandler+0xe2>
    8e7c:	b00f      	add	sp, #60	; 0x3c
    8e7e:	bc3c      	pop	{r2, r3, r4, r5}
    8e80:	4690      	mov	r8, r2
    8e82:	4699      	mov	r9, r3
    8e84:	46a2      	mov	sl, r4
    8e86:	46ab      	mov	fp, r5
    8e88:	bdf0      	pop	{r4, r5, r6, r7, pc}
    8e8a:	68a3      	ldr	r3, [r4, #8]
    8e8c:	2b00      	cmp	r3, #0
    8e8e:	d0d2      	beq.n	8e36 <routeTimerHandler+0x6e>
    8e90:	7ca0      	ldrb	r0, [r4, #18]
    8e92:	0022      	movs	r2, r4
    8e94:	2107      	movs	r1, #7
    8e96:	4798      	blx	r3
    8e98:	e7cd      	b.n	8e36 <routeTimerHandler+0x6e>
    8e9a:	7443      	strb	r3, [r0, #17]
    8e9c:	6882      	ldr	r2, [r0, #8]
    8e9e:	4659      	mov	r1, fp
    8ea0:	47d0      	blx	sl
    8ea2:	0020      	movs	r0, r4
    8ea4:	4b38      	ldr	r3, [pc, #224]	; (8f88 <routeTimerHandler+0x1c0>)
    8ea6:	4798      	blx	r3
    8ea8:	e7c5      	b.n	8e36 <routeTimerHandler+0x6e>
    8eaa:	2025      	movs	r0, #37	; 0x25
    8eac:	4930      	ldr	r1, [pc, #192]	; (8f70 <routeTimerHandler+0x1a8>)
    8eae:	4689      	mov	r9, r1
    8eb0:	6809      	ldr	r1, [r1, #0]
    8eb2:	5c08      	ldrb	r0, [r1, r0]
    8eb4:	7018      	strb	r0, [r3, #0]
    8eb6:	2320      	movs	r3, #32
    8eb8:	5cce      	ldrb	r6, [r1, r3]
    8eba:	2e00      	cmp	r6, #0
    8ebc:	d0de      	beq.n	8e7c <routeTimerHandler+0xb4>
    8ebe:	3601      	adds	r6, #1
    8ec0:	6909      	ldr	r1, [r1, #16]
    8ec2:	b2f6      	uxtb	r6, r6
    8ec4:	3b1f      	subs	r3, #31
    8ec6:	e005      	b.n	8ed4 <routeTimerHandler+0x10c>
    8ec8:	3301      	adds	r3, #1
    8eca:	b2db      	uxtb	r3, r3
    8ecc:	b2c2      	uxtb	r2, r0
    8ece:	3102      	adds	r1, #2
    8ed0:	429e      	cmp	r6, r3
    8ed2:	d00a      	beq.n	8eea <routeTimerHandler+0x122>
    8ed4:	780c      	ldrb	r4, [r1, #0]
    8ed6:	1c18      	adds	r0, r3, #0
    8ed8:	2cff      	cmp	r4, #255	; 0xff
    8eda:	d1f5      	bne.n	8ec8 <routeTimerHandler+0x100>
    8edc:	3301      	adds	r3, #1
    8ede:	1c10      	adds	r0, r2, #0
    8ee0:	b2db      	uxtb	r3, r3
    8ee2:	b2c2      	uxtb	r2, r0
    8ee4:	3102      	adds	r1, #2
    8ee6:	429e      	cmp	r6, r3
    8ee8:	d1f4      	bne.n	8ed4 <routeTimerHandler+0x10c>
    8eea:	2a00      	cmp	r2, #0
    8eec:	d0c6      	beq.n	8e7c <routeTimerHandler+0xb4>
    8eee:	0854      	lsrs	r4, r2, #1
    8ef0:	07d3      	lsls	r3, r2, #31
    8ef2:	d501      	bpl.n	8ef8 <routeTimerHandler+0x130>
    8ef4:	0852      	lsrs	r2, r2, #1
    8ef6:	1c54      	adds	r4, r2, #1
    8ef8:	2616      	movs	r6, #22
    8efa:	2303      	movs	r3, #3
    8efc:	446e      	add	r6, sp
    8efe:	425b      	negs	r3, r3
    8f00:	8033      	strh	r3, [r6, #0]
    8f02:	2078      	movs	r0, #120	; 0x78
    8f04:	4b21      	ldr	r3, [pc, #132]	; (8f8c <routeTimerHandler+0x1c4>)
    8f06:	4798      	blx	r3
    8f08:	1e07      	subs	r7, r0, #0
    8f0a:	d0b7      	beq.n	8e7c <routeTimerHandler+0xb4>
    8f0c:	4b20      	ldr	r3, [pc, #128]	; (8f90 <routeTimerHandler+0x1c8>)
    8f0e:	8832      	ldrh	r2, [r6, #0]
    8f10:	8819      	ldrh	r1, [r3, #0]
    8f12:	2001      	movs	r0, #1
    8f14:	ab06      	add	r3, sp, #24
    8f16:	b289      	uxth	r1, r1
    8f18:	4d1e      	ldr	r5, [pc, #120]	; (8f94 <routeTimerHandler+0x1cc>)
    8f1a:	47a8      	blx	r5
    8f1c:	0039      	movs	r1, r7
    8f1e:	a806      	add	r0, sp, #24
    8f20:	4b1d      	ldr	r3, [pc, #116]	; (8f98 <routeTimerHandler+0x1d0>)
    8f22:	4798      	blx	r3
    8f24:	2313      	movs	r3, #19
    8f26:	543b      	strb	r3, [r7, r0]
    8f28:	0003      	movs	r3, r0
    8f2a:	3301      	adds	r3, #1
    8f2c:	b2db      	uxtb	r3, r3
    8f2e:	54fc      	strb	r4, [r7, r3]
    8f30:	464b      	mov	r3, r9
    8f32:	4680      	mov	r8, r0
    8f34:	681b      	ldr	r3, [r3, #0]
    8f36:	3002      	adds	r0, #2
    8f38:	b2c0      	uxtb	r0, r0
    8f3a:	6959      	ldr	r1, [r3, #20]
    8f3c:	0022      	movs	r2, r4
    8f3e:	1838      	adds	r0, r7, r0
    8f40:	4b16      	ldr	r3, [pc, #88]	; (8f9c <routeTimerHandler+0x1d4>)
    8f42:	4798      	blx	r3
    8f44:	2301      	movs	r3, #1
    8f46:	425b      	negs	r3, r3
    8f48:	8033      	strh	r3, [r6, #0]
    8f4a:	4b15      	ldr	r3, [pc, #84]	; (8fa0 <routeTimerHandler+0x1d8>)
    8f4c:	3402      	adds	r4, #2
    8f4e:	9303      	str	r3, [sp, #12]
    8f50:	2300      	movs	r3, #0
    8f52:	9302      	str	r3, [sp, #8]
    8f54:	3302      	adds	r3, #2
    8f56:	b2e2      	uxtb	r2, r4
    8f58:	9300      	str	r3, [sp, #0]
    8f5a:	9601      	str	r6, [sp, #4]
    8f5c:	003b      	movs	r3, r7
    8f5e:	4641      	mov	r1, r8
    8f60:	a806      	add	r0, sp, #24
    8f62:	4c10      	ldr	r4, [pc, #64]	; (8fa4 <routeTimerHandler+0x1dc>)
    8f64:	47a0      	blx	r4
    8f66:	e789      	b.n	8e7c <routeTimerHandler+0xb4>
    8f68:	200020e4 	.word	0x200020e4
    8f6c:	000038e5 	.word	0x000038e5
    8f70:	20002060 	.word	0x20002060
    8f74:	0000391d 	.word	0x0000391d
    8f78:	00006b61 	.word	0x00006b61
    8f7c:	20002068 	.word	0x20002068
    8f80:	000052e9 	.word	0x000052e9
    8f84:	200020e0 	.word	0x200020e0
    8f88:	00003869 	.word	0x00003869
    8f8c:	00003831 	.word	0x00003831
    8f90:	200020a8 	.word	0x200020a8
    8f94:	00006945 	.word	0x00006945
    8f98:	00006971 	.word	0x00006971
    8f9c:	000095df 	.word	0x000095df
    8fa0:	000088a5 	.word	0x000088a5
    8fa4:	00006a09 	.word	0x00006a09

00008fa8 <initiateRouteReq>:
    8fa8:	b5f0      	push	{r4, r5, r6, r7, lr}
    8faa:	4647      	mov	r7, r8
    8fac:	46ce      	mov	lr, r9
    8fae:	2301      	movs	r3, #1
    8fb0:	b580      	push	{r7, lr}
    8fb2:	2716      	movs	r7, #22
    8fb4:	b08f      	sub	sp, #60	; 0x3c
    8fb6:	425b      	negs	r3, r3
    8fb8:	446f      	add	r7, sp
    8fba:	803b      	strh	r3, [r7, #0]
    8fbc:	4680      	mov	r8, r0
    8fbe:	4b1e      	ldr	r3, [pc, #120]	; (9038 <initiateRouteReq+0x90>)
    8fc0:	2078      	movs	r0, #120	; 0x78
    8fc2:	4798      	blx	r3
    8fc4:	1e04      	subs	r4, r0, #0
    8fc6:	d034      	beq.n	9032 <initiateRouteReq+0x8a>
    8fc8:	4b1c      	ldr	r3, [pc, #112]	; (903c <initiateRouteReq+0x94>)
    8fca:	ad06      	add	r5, sp, #24
    8fcc:	8819      	ldrh	r1, [r3, #0]
    8fce:	4699      	mov	r9, r3
    8fd0:	b289      	uxth	r1, r1
    8fd2:	883a      	ldrh	r2, [r7, #0]
    8fd4:	002b      	movs	r3, r5
    8fd6:	20ff      	movs	r0, #255	; 0xff
    8fd8:	4e19      	ldr	r6, [pc, #100]	; (9040 <initiateRouteReq+0x98>)
    8fda:	47b0      	blx	r6
    8fdc:	2220      	movs	r2, #32
    8fde:	786b      	ldrb	r3, [r5, #1]
    8fe0:	0021      	movs	r1, r4
    8fe2:	4313      	orrs	r3, r2
    8fe4:	706b      	strb	r3, [r5, #1]
    8fe6:	0028      	movs	r0, r5
    8fe8:	4b16      	ldr	r3, [pc, #88]	; (9044 <initiateRouteReq+0x9c>)
    8fea:	4798      	blx	r3
    8fec:	464b      	mov	r3, r9
    8fee:	0006      	movs	r6, r0
    8ff0:	8818      	ldrh	r0, [r3, #0]
    8ff2:	78a1      	ldrb	r1, [r4, #2]
    8ff4:	b280      	uxth	r0, r0
    8ff6:	4b14      	ldr	r3, [pc, #80]	; (9048 <initiateRouteReq+0xa0>)
    8ff8:	4798      	blx	r3
    8ffa:	2311      	movs	r3, #17
    8ffc:	2100      	movs	r1, #0
    8ffe:	55a3      	strb	r3, [r4, r6]
    9000:	1c73      	adds	r3, r6, #1
    9002:	b2db      	uxtb	r3, r3
    9004:	54e1      	strb	r1, [r4, r3]
    9006:	4643      	mov	r3, r8
    9008:	1cb2      	adds	r2, r6, #2
    900a:	b2d2      	uxtb	r2, r2
    900c:	0a1b      	lsrs	r3, r3, #8
    900e:	54a3      	strb	r3, [r4, r2]
    9010:	4b0e      	ldr	r3, [pc, #56]	; (904c <initiateRouteReq+0xa4>)
    9012:	9102      	str	r1, [sp, #8]
    9014:	9303      	str	r3, [sp, #12]
    9016:	2302      	movs	r3, #2
    9018:	9701      	str	r7, [sp, #4]
    901a:	9300      	str	r3, [sp, #0]
    901c:	2203      	movs	r2, #3
    901e:	0023      	movs	r3, r4
    9020:	0031      	movs	r1, r6
    9022:	0028      	movs	r0, r5
    9024:	4c0a      	ldr	r4, [pc, #40]	; (9050 <initiateRouteReq+0xa8>)
    9026:	47a0      	blx	r4
    9028:	b00f      	add	sp, #60	; 0x3c
    902a:	bc0c      	pop	{r2, r3}
    902c:	4690      	mov	r8, r2
    902e:	4699      	mov	r9, r3
    9030:	bdf0      	pop	{r4, r5, r6, r7, pc}
    9032:	2000      	movs	r0, #0
    9034:	e7f8      	b.n	9028 <initiateRouteReq+0x80>
    9036:	46c0      	nop			; (mov r8, r8)
    9038:	00003831 	.word	0x00003831
    903c:	200020a8 	.word	0x200020a8
    9040:	00006945 	.word	0x00006945
    9044:	00006971 	.word	0x00006971
    9048:	00006ec1 	.word	0x00006ec1
    904c:	000088b5 	.word	0x000088b5
    9050:	00006a09 	.word	0x00006a09

00009054 <keyDetermineProcedure>:
    9054:	4b06      	ldr	r3, [pc, #24]	; (9070 <keyDetermineProcedure+0x1c>)
    9056:	781b      	ldrb	r3, [r3, #0]
    9058:	3b06      	subs	r3, #6
    905a:	2b01      	cmp	r3, #1
    905c:	d902      	bls.n	9064 <keyDetermineProcedure+0x10>
    905e:	4b05      	ldr	r3, [pc, #20]	; (9074 <keyDetermineProcedure+0x20>)
    9060:	6818      	ldr	r0, [r3, #0]
    9062:	4770      	bx	lr
    9064:	2808      	cmp	r0, #8
    9066:	d0fa      	beq.n	905e <keyDetermineProcedure+0xa>
    9068:	4b02      	ldr	r3, [pc, #8]	; (9074 <keyDetermineProcedure+0x20>)
    906a:	6818      	ldr	r0, [r3, #0]
    906c:	3010      	adds	r0, #16
    906e:	e7f8      	b.n	9062 <keyDetermineProcedure+0xe>
    9070:	2000039c 	.word	0x2000039c
    9074:	20002064 	.word	0x20002064

00009078 <secureFrame>:
    9078:	b5f0      	push	{r4, r5, r6, r7, lr}
    907a:	4657      	mov	r7, sl
    907c:	4645      	mov	r5, r8
    907e:	46de      	mov	lr, fp
    9080:	464e      	mov	r6, r9
    9082:	b5e0      	push	{r5, r6, r7, lr}
    9084:	0005      	movs	r5, r0
    9086:	b0af      	sub	sp, #188	; 0xbc
    9088:	ac06      	add	r4, sp, #24
    908a:	000e      	movs	r6, r1
    908c:	4690      	mov	r8, r2
    908e:	469a      	mov	sl, r3
    9090:	2210      	movs	r2, #16
    9092:	2100      	movs	r1, #0
    9094:	0020      	movs	r0, r4
    9096:	4b35      	ldr	r3, [pc, #212]	; (916c <secureFrame+0xf4>)
    9098:	4798      	blx	r3
    909a:	7c2f      	ldrb	r7, [r5, #16]
    909c:	2f07      	cmp	r7, #7
    909e:	d80e      	bhi.n	90be <secureFrame+0x46>
    90a0:	2301      	movs	r3, #1
    90a2:	2288      	movs	r2, #136	; 0x88
    90a4:	40bb      	lsls	r3, r7
    90a6:	421a      	tst	r2, r3
    90a8:	d14e      	bne.n	9148 <secureFrame+0xd0>
    90aa:	3a44      	subs	r2, #68	; 0x44
    90ac:	421a      	tst	r2, r3
    90ae:	d14f      	bne.n	9150 <secureFrame+0xd8>
    90b0:	3a22      	subs	r2, #34	; 0x22
    90b2:	421a      	tst	r2, r3
    90b4:	d003      	beq.n	90be <secureFrame+0x46>
    90b6:	2304      	movs	r3, #4
    90b8:	9305      	str	r3, [sp, #20]
    90ba:	469b      	mov	fp, r3
    90bc:	e002      	b.n	90c4 <secureFrame+0x4c>
    90be:	2300      	movs	r3, #0
    90c0:	469b      	mov	fp, r3
    90c2:	9305      	str	r3, [sp, #20]
    90c4:	4b2a      	ldr	r3, [pc, #168]	; (9170 <secureFrame+0xf8>)
    90c6:	4d2b      	ldr	r5, [pc, #172]	; (9174 <secureFrame+0xfc>)
    90c8:	79da      	ldrb	r2, [r3, #7]
    90ca:	4651      	mov	r1, sl
    90cc:	7062      	strb	r2, [r4, #1]
    90ce:	799a      	ldrb	r2, [r3, #6]
    90d0:	7367      	strb	r7, [r4, #13]
    90d2:	70a2      	strb	r2, [r4, #2]
    90d4:	795a      	ldrb	r2, [r3, #5]
    90d6:	a80a      	add	r0, sp, #40	; 0x28
    90d8:	70e2      	strb	r2, [r4, #3]
    90da:	791a      	ldrb	r2, [r3, #4]
    90dc:	44b2      	add	sl, r6
    90de:	7122      	strb	r2, [r4, #4]
    90e0:	78da      	ldrb	r2, [r3, #3]
    90e2:	7162      	strb	r2, [r4, #5]
    90e4:	789a      	ldrb	r2, [r3, #2]
    90e6:	71a2      	strb	r2, [r4, #6]
    90e8:	785a      	ldrb	r2, [r3, #1]
    90ea:	781b      	ldrb	r3, [r3, #0]
    90ec:	71e2      	strb	r2, [r4, #7]
    90ee:	7223      	strb	r3, [r4, #8]
    90f0:	78eb      	ldrb	r3, [r5, #3]
    90f2:	0032      	movs	r2, r6
    90f4:	7263      	strb	r3, [r4, #9]
    90f6:	78ab      	ldrb	r3, [r5, #2]
    90f8:	72a3      	strb	r3, [r4, #10]
    90fa:	786b      	ldrb	r3, [r5, #1]
    90fc:	72e3      	strb	r3, [r4, #11]
    90fe:	782b      	ldrb	r3, [r5, #0]
    9100:	7323      	strb	r3, [r4, #12]
    9102:	4b1d      	ldr	r3, [pc, #116]	; (9178 <secureFrame+0x100>)
    9104:	4699      	mov	r9, r3
    9106:	4798      	blx	r3
    9108:	ab0a      	add	r3, sp, #40	; 0x28
    910a:	469c      	mov	ip, r3
    910c:	44b4      	add	ip, r6
    910e:	4663      	mov	r3, ip
    9110:	4642      	mov	r2, r8
    9112:	4651      	mov	r1, sl
    9114:	4660      	mov	r0, ip
    9116:	9304      	str	r3, [sp, #16]
    9118:	47c8      	blx	r9
    911a:	2300      	movs	r3, #0
    911c:	9302      	str	r3, [sp, #8]
    911e:	4643      	mov	r3, r8
    9120:	0021      	movs	r1, r4
    9122:	9300      	str	r3, [sp, #0]
    9124:	9701      	str	r7, [sp, #4]
    9126:	0033      	movs	r3, r6
    9128:	9a38      	ldr	r2, [sp, #224]	; 0xe0
    912a:	a80a      	add	r0, sp, #40	; 0x28
    912c:	4c13      	ldr	r4, [pc, #76]	; (917c <secureFrame+0x104>)
    912e:	47a0      	blx	r4
    9130:	2800      	cmp	r0, #0
    9132:	d011      	beq.n	9158 <secureFrame+0xe0>
    9134:	23ff      	movs	r3, #255	; 0xff
    9136:	469b      	mov	fp, r3
    9138:	4658      	mov	r0, fp
    913a:	b02f      	add	sp, #188	; 0xbc
    913c:	bc3c      	pop	{r2, r3, r4, r5}
    913e:	4690      	mov	r8, r2
    9140:	4699      	mov	r9, r3
    9142:	46a2      	mov	sl, r4
    9144:	46ab      	mov	fp, r5
    9146:	bdf0      	pop	{r4, r5, r6, r7, pc}
    9148:	2310      	movs	r3, #16
    914a:	9305      	str	r3, [sp, #20]
    914c:	469b      	mov	fp, r3
    914e:	e7b9      	b.n	90c4 <secureFrame+0x4c>
    9150:	2308      	movs	r3, #8
    9152:	9305      	str	r3, [sp, #20]
    9154:	469b      	mov	fp, r3
    9156:	e7b5      	b.n	90c4 <secureFrame+0x4c>
    9158:	682b      	ldr	r3, [r5, #0]
    915a:	9904      	ldr	r1, [sp, #16]
    915c:	3301      	adds	r3, #1
    915e:	602b      	str	r3, [r5, #0]
    9160:	9b05      	ldr	r3, [sp, #20]
    9162:	4650      	mov	r0, sl
    9164:	4443      	add	r3, r8
    9166:	001a      	movs	r2, r3
    9168:	47c8      	blx	r9
    916a:	e7e5      	b.n	9138 <secureFrame+0xc0>
    916c:	000095f1 	.word	0x000095f1
    9170:	20000070 	.word	0x20000070
    9174:	200020f0 	.word	0x200020f0
    9178:	000095df 	.word	0x000095df
    917c:	0000323d 	.word	0x0000323d

00009180 <unsecureFrame>:
    9180:	b5f0      	push	{r4, r5, r6, r7, lr}
    9182:	46ce      	mov	lr, r9
    9184:	4647      	mov	r7, r8
    9186:	b580      	push	{r7, lr}
    9188:	b089      	sub	sp, #36	; 0x24
    918a:	0007      	movs	r7, r0
    918c:	ac04      	add	r4, sp, #16
    918e:	000d      	movs	r5, r1
    9190:	4691      	mov	r9, r2
    9192:	001e      	movs	r6, r3
    9194:	2210      	movs	r2, #16
    9196:	4b26      	ldr	r3, [pc, #152]	; (9230 <unsecureFrame+0xb0>)
    9198:	2100      	movs	r1, #0
    919a:	0020      	movs	r0, r4
    919c:	4798      	blx	r3
    919e:	2200      	movs	r2, #0
    91a0:	7c3b      	ldrb	r3, [r7, #16]
    91a2:	4690      	mov	r8, r2
    91a4:	2b07      	cmp	r3, #7
    91a6:	d806      	bhi.n	91b6 <unsecureFrame+0x36>
    91a8:	3201      	adds	r2, #1
    91aa:	2010      	movs	r0, #16
    91ac:	409a      	lsls	r2, r3
    91ae:	2188      	movs	r1, #136	; 0x88
    91b0:	4680      	mov	r8, r0
    91b2:	4211      	tst	r1, r2
    91b4:	d02f      	beq.n	9216 <unsecureFrame+0x96>
    91b6:	79ea      	ldrb	r2, [r5, #7]
    91b8:	7363      	strb	r3, [r4, #13]
    91ba:	7062      	strb	r2, [r4, #1]
    91bc:	79aa      	ldrb	r2, [r5, #6]
    91be:	0021      	movs	r1, r4
    91c0:	70a2      	strb	r2, [r4, #2]
    91c2:	796a      	ldrb	r2, [r5, #5]
    91c4:	9810      	ldr	r0, [sp, #64]	; 0x40
    91c6:	70e2      	strb	r2, [r4, #3]
    91c8:	792a      	ldrb	r2, [r5, #4]
    91ca:	7122      	strb	r2, [r4, #4]
    91cc:	78ea      	ldrb	r2, [r5, #3]
    91ce:	7162      	strb	r2, [r4, #5]
    91d0:	78aa      	ldrb	r2, [r5, #2]
    91d2:	71a2      	strb	r2, [r4, #6]
    91d4:	786a      	ldrb	r2, [r5, #1]
    91d6:	71e2      	strb	r2, [r4, #7]
    91d8:	782a      	ldrb	r2, [r5, #0]
    91da:	7222      	strb	r2, [r4, #8]
    91dc:	7dfa      	ldrb	r2, [r7, #23]
    91de:	7262      	strb	r2, [r4, #9]
    91e0:	7dba      	ldrb	r2, [r7, #22]
    91e2:	72a2      	strb	r2, [r4, #10]
    91e4:	7d7a      	ldrb	r2, [r7, #21]
    91e6:	72e2      	strb	r2, [r4, #11]
    91e8:	7d3a      	ldrb	r2, [r7, #20]
    91ea:	7322      	strb	r2, [r4, #12]
    91ec:	9301      	str	r3, [sp, #4]
    91ee:	4643      	mov	r3, r8
    91f0:	2201      	movs	r2, #1
    91f2:	1af6      	subs	r6, r6, r3
    91f4:	b2f6      	uxtb	r6, r6
    91f6:	9202      	str	r2, [sp, #8]
    91f8:	9600      	str	r6, [sp, #0]
    91fa:	464b      	mov	r3, r9
    91fc:	9a11      	ldr	r2, [sp, #68]	; 0x44
    91fe:	4c0d      	ldr	r4, [pc, #52]	; (9234 <unsecureFrame+0xb4>)
    9200:	47a0      	blx	r4
    9202:	2800      	cmp	r0, #0
    9204:	d001      	beq.n	920a <unsecureFrame+0x8a>
    9206:	23ff      	movs	r3, #255	; 0xff
    9208:	4698      	mov	r8, r3
    920a:	4640      	mov	r0, r8
    920c:	b009      	add	sp, #36	; 0x24
    920e:	bc0c      	pop	{r2, r3}
    9210:	4690      	mov	r8, r2
    9212:	4699      	mov	r9, r3
    9214:	bdf0      	pop	{r4, r5, r6, r7, pc}
    9216:	3808      	subs	r0, #8
    9218:	3944      	subs	r1, #68	; 0x44
    921a:	4680      	mov	r8, r0
    921c:	4211      	tst	r1, r2
    921e:	d1ca      	bne.n	91b6 <unsecureFrame+0x36>
    9220:	3922      	subs	r1, #34	; 0x22
    9222:	400a      	ands	r2, r1
    9224:	1e51      	subs	r1, r2, #1
    9226:	418a      	sbcs	r2, r1
    9228:	0092      	lsls	r2, r2, #2
    922a:	4690      	mov	r8, r2
    922c:	e7c3      	b.n	91b6 <unsecureFrame+0x36>
    922e:	46c0      	nop			; (mov r8, r8)
    9230:	000095f1 	.word	0x000095f1
    9234:	0000323d 	.word	0x0000323d

00009238 <__udivsi3>:
    9238:	2200      	movs	r2, #0
    923a:	0843      	lsrs	r3, r0, #1
    923c:	428b      	cmp	r3, r1
    923e:	d374      	bcc.n	932a <__udivsi3+0xf2>
    9240:	0903      	lsrs	r3, r0, #4
    9242:	428b      	cmp	r3, r1
    9244:	d35f      	bcc.n	9306 <__udivsi3+0xce>
    9246:	0a03      	lsrs	r3, r0, #8
    9248:	428b      	cmp	r3, r1
    924a:	d344      	bcc.n	92d6 <__udivsi3+0x9e>
    924c:	0b03      	lsrs	r3, r0, #12
    924e:	428b      	cmp	r3, r1
    9250:	d328      	bcc.n	92a4 <__udivsi3+0x6c>
    9252:	0c03      	lsrs	r3, r0, #16
    9254:	428b      	cmp	r3, r1
    9256:	d30d      	bcc.n	9274 <__udivsi3+0x3c>
    9258:	22ff      	movs	r2, #255	; 0xff
    925a:	0209      	lsls	r1, r1, #8
    925c:	ba12      	rev	r2, r2
    925e:	0c03      	lsrs	r3, r0, #16
    9260:	428b      	cmp	r3, r1
    9262:	d302      	bcc.n	926a <__udivsi3+0x32>
    9264:	1212      	asrs	r2, r2, #8
    9266:	0209      	lsls	r1, r1, #8
    9268:	d065      	beq.n	9336 <__udivsi3+0xfe>
    926a:	0b03      	lsrs	r3, r0, #12
    926c:	428b      	cmp	r3, r1
    926e:	d319      	bcc.n	92a4 <__udivsi3+0x6c>
    9270:	e000      	b.n	9274 <__udivsi3+0x3c>
    9272:	0a09      	lsrs	r1, r1, #8
    9274:	0bc3      	lsrs	r3, r0, #15
    9276:	428b      	cmp	r3, r1
    9278:	d301      	bcc.n	927e <__udivsi3+0x46>
    927a:	03cb      	lsls	r3, r1, #15
    927c:	1ac0      	subs	r0, r0, r3
    927e:	4152      	adcs	r2, r2
    9280:	0b83      	lsrs	r3, r0, #14
    9282:	428b      	cmp	r3, r1
    9284:	d301      	bcc.n	928a <__udivsi3+0x52>
    9286:	038b      	lsls	r3, r1, #14
    9288:	1ac0      	subs	r0, r0, r3
    928a:	4152      	adcs	r2, r2
    928c:	0b43      	lsrs	r3, r0, #13
    928e:	428b      	cmp	r3, r1
    9290:	d301      	bcc.n	9296 <__udivsi3+0x5e>
    9292:	034b      	lsls	r3, r1, #13
    9294:	1ac0      	subs	r0, r0, r3
    9296:	4152      	adcs	r2, r2
    9298:	0b03      	lsrs	r3, r0, #12
    929a:	428b      	cmp	r3, r1
    929c:	d301      	bcc.n	92a2 <__udivsi3+0x6a>
    929e:	030b      	lsls	r3, r1, #12
    92a0:	1ac0      	subs	r0, r0, r3
    92a2:	4152      	adcs	r2, r2
    92a4:	0ac3      	lsrs	r3, r0, #11
    92a6:	428b      	cmp	r3, r1
    92a8:	d301      	bcc.n	92ae <__udivsi3+0x76>
    92aa:	02cb      	lsls	r3, r1, #11
    92ac:	1ac0      	subs	r0, r0, r3
    92ae:	4152      	adcs	r2, r2
    92b0:	0a83      	lsrs	r3, r0, #10
    92b2:	428b      	cmp	r3, r1
    92b4:	d301      	bcc.n	92ba <__udivsi3+0x82>
    92b6:	028b      	lsls	r3, r1, #10
    92b8:	1ac0      	subs	r0, r0, r3
    92ba:	4152      	adcs	r2, r2
    92bc:	0a43      	lsrs	r3, r0, #9
    92be:	428b      	cmp	r3, r1
    92c0:	d301      	bcc.n	92c6 <__udivsi3+0x8e>
    92c2:	024b      	lsls	r3, r1, #9
    92c4:	1ac0      	subs	r0, r0, r3
    92c6:	4152      	adcs	r2, r2
    92c8:	0a03      	lsrs	r3, r0, #8
    92ca:	428b      	cmp	r3, r1
    92cc:	d301      	bcc.n	92d2 <__udivsi3+0x9a>
    92ce:	020b      	lsls	r3, r1, #8
    92d0:	1ac0      	subs	r0, r0, r3
    92d2:	4152      	adcs	r2, r2
    92d4:	d2cd      	bcs.n	9272 <__udivsi3+0x3a>
    92d6:	09c3      	lsrs	r3, r0, #7
    92d8:	428b      	cmp	r3, r1
    92da:	d301      	bcc.n	92e0 <__udivsi3+0xa8>
    92dc:	01cb      	lsls	r3, r1, #7
    92de:	1ac0      	subs	r0, r0, r3
    92e0:	4152      	adcs	r2, r2
    92e2:	0983      	lsrs	r3, r0, #6
    92e4:	428b      	cmp	r3, r1
    92e6:	d301      	bcc.n	92ec <__udivsi3+0xb4>
    92e8:	018b      	lsls	r3, r1, #6
    92ea:	1ac0      	subs	r0, r0, r3
    92ec:	4152      	adcs	r2, r2
    92ee:	0943      	lsrs	r3, r0, #5
    92f0:	428b      	cmp	r3, r1
    92f2:	d301      	bcc.n	92f8 <__udivsi3+0xc0>
    92f4:	014b      	lsls	r3, r1, #5
    92f6:	1ac0      	subs	r0, r0, r3
    92f8:	4152      	adcs	r2, r2
    92fa:	0903      	lsrs	r3, r0, #4
    92fc:	428b      	cmp	r3, r1
    92fe:	d301      	bcc.n	9304 <__udivsi3+0xcc>
    9300:	010b      	lsls	r3, r1, #4
    9302:	1ac0      	subs	r0, r0, r3
    9304:	4152      	adcs	r2, r2
    9306:	08c3      	lsrs	r3, r0, #3
    9308:	428b      	cmp	r3, r1
    930a:	d301      	bcc.n	9310 <__udivsi3+0xd8>
    930c:	00cb      	lsls	r3, r1, #3
    930e:	1ac0      	subs	r0, r0, r3
    9310:	4152      	adcs	r2, r2
    9312:	0883      	lsrs	r3, r0, #2
    9314:	428b      	cmp	r3, r1
    9316:	d301      	bcc.n	931c <__udivsi3+0xe4>
    9318:	008b      	lsls	r3, r1, #2
    931a:	1ac0      	subs	r0, r0, r3
    931c:	4152      	adcs	r2, r2
    931e:	0843      	lsrs	r3, r0, #1
    9320:	428b      	cmp	r3, r1
    9322:	d301      	bcc.n	9328 <__udivsi3+0xf0>
    9324:	004b      	lsls	r3, r1, #1
    9326:	1ac0      	subs	r0, r0, r3
    9328:	4152      	adcs	r2, r2
    932a:	1a41      	subs	r1, r0, r1
    932c:	d200      	bcs.n	9330 <__udivsi3+0xf8>
    932e:	4601      	mov	r1, r0
    9330:	4152      	adcs	r2, r2
    9332:	4610      	mov	r0, r2
    9334:	4770      	bx	lr
    9336:	e7ff      	b.n	9338 <__udivsi3+0x100>
    9338:	b501      	push	{r0, lr}
    933a:	2000      	movs	r0, #0
    933c:	f000 f8f0 	bl	9520 <__aeabi_idiv0>
    9340:	bd02      	pop	{r1, pc}
    9342:	46c0      	nop			; (mov r8, r8)

00009344 <__aeabi_uidivmod>:
    9344:	2900      	cmp	r1, #0
    9346:	d0f7      	beq.n	9338 <__udivsi3+0x100>
    9348:	e776      	b.n	9238 <__udivsi3>
    934a:	4770      	bx	lr

0000934c <__divsi3>:
    934c:	4603      	mov	r3, r0
    934e:	430b      	orrs	r3, r1
    9350:	d47f      	bmi.n	9452 <__divsi3+0x106>
    9352:	2200      	movs	r2, #0
    9354:	0843      	lsrs	r3, r0, #1
    9356:	428b      	cmp	r3, r1
    9358:	d374      	bcc.n	9444 <__divsi3+0xf8>
    935a:	0903      	lsrs	r3, r0, #4
    935c:	428b      	cmp	r3, r1
    935e:	d35f      	bcc.n	9420 <__divsi3+0xd4>
    9360:	0a03      	lsrs	r3, r0, #8
    9362:	428b      	cmp	r3, r1
    9364:	d344      	bcc.n	93f0 <__divsi3+0xa4>
    9366:	0b03      	lsrs	r3, r0, #12
    9368:	428b      	cmp	r3, r1
    936a:	d328      	bcc.n	93be <__divsi3+0x72>
    936c:	0c03      	lsrs	r3, r0, #16
    936e:	428b      	cmp	r3, r1
    9370:	d30d      	bcc.n	938e <__divsi3+0x42>
    9372:	22ff      	movs	r2, #255	; 0xff
    9374:	0209      	lsls	r1, r1, #8
    9376:	ba12      	rev	r2, r2
    9378:	0c03      	lsrs	r3, r0, #16
    937a:	428b      	cmp	r3, r1
    937c:	d302      	bcc.n	9384 <__divsi3+0x38>
    937e:	1212      	asrs	r2, r2, #8
    9380:	0209      	lsls	r1, r1, #8
    9382:	d065      	beq.n	9450 <__divsi3+0x104>
    9384:	0b03      	lsrs	r3, r0, #12
    9386:	428b      	cmp	r3, r1
    9388:	d319      	bcc.n	93be <__divsi3+0x72>
    938a:	e000      	b.n	938e <__divsi3+0x42>
    938c:	0a09      	lsrs	r1, r1, #8
    938e:	0bc3      	lsrs	r3, r0, #15
    9390:	428b      	cmp	r3, r1
    9392:	d301      	bcc.n	9398 <__divsi3+0x4c>
    9394:	03cb      	lsls	r3, r1, #15
    9396:	1ac0      	subs	r0, r0, r3
    9398:	4152      	adcs	r2, r2
    939a:	0b83      	lsrs	r3, r0, #14
    939c:	428b      	cmp	r3, r1
    939e:	d301      	bcc.n	93a4 <__divsi3+0x58>
    93a0:	038b      	lsls	r3, r1, #14
    93a2:	1ac0      	subs	r0, r0, r3
    93a4:	4152      	adcs	r2, r2
    93a6:	0b43      	lsrs	r3, r0, #13
    93a8:	428b      	cmp	r3, r1
    93aa:	d301      	bcc.n	93b0 <__divsi3+0x64>
    93ac:	034b      	lsls	r3, r1, #13
    93ae:	1ac0      	subs	r0, r0, r3
    93b0:	4152      	adcs	r2, r2
    93b2:	0b03      	lsrs	r3, r0, #12
    93b4:	428b      	cmp	r3, r1
    93b6:	d301      	bcc.n	93bc <__divsi3+0x70>
    93b8:	030b      	lsls	r3, r1, #12
    93ba:	1ac0      	subs	r0, r0, r3
    93bc:	4152      	adcs	r2, r2
    93be:	0ac3      	lsrs	r3, r0, #11
    93c0:	428b      	cmp	r3, r1
    93c2:	d301      	bcc.n	93c8 <__divsi3+0x7c>
    93c4:	02cb      	lsls	r3, r1, #11
    93c6:	1ac0      	subs	r0, r0, r3
    93c8:	4152      	adcs	r2, r2
    93ca:	0a83      	lsrs	r3, r0, #10
    93cc:	428b      	cmp	r3, r1
    93ce:	d301      	bcc.n	93d4 <__divsi3+0x88>
    93d0:	028b      	lsls	r3, r1, #10
    93d2:	1ac0      	subs	r0, r0, r3
    93d4:	4152      	adcs	r2, r2
    93d6:	0a43      	lsrs	r3, r0, #9
    93d8:	428b      	cmp	r3, r1
    93da:	d301      	bcc.n	93e0 <__divsi3+0x94>
    93dc:	024b      	lsls	r3, r1, #9
    93de:	1ac0      	subs	r0, r0, r3
    93e0:	4152      	adcs	r2, r2
    93e2:	0a03      	lsrs	r3, r0, #8
    93e4:	428b      	cmp	r3, r1
    93e6:	d301      	bcc.n	93ec <__divsi3+0xa0>
    93e8:	020b      	lsls	r3, r1, #8
    93ea:	1ac0      	subs	r0, r0, r3
    93ec:	4152      	adcs	r2, r2
    93ee:	d2cd      	bcs.n	938c <__divsi3+0x40>
    93f0:	09c3      	lsrs	r3, r0, #7
    93f2:	428b      	cmp	r3, r1
    93f4:	d301      	bcc.n	93fa <__divsi3+0xae>
    93f6:	01cb      	lsls	r3, r1, #7
    93f8:	1ac0      	subs	r0, r0, r3
    93fa:	4152      	adcs	r2, r2
    93fc:	0983      	lsrs	r3, r0, #6
    93fe:	428b      	cmp	r3, r1
    9400:	d301      	bcc.n	9406 <__divsi3+0xba>
    9402:	018b      	lsls	r3, r1, #6
    9404:	1ac0      	subs	r0, r0, r3
    9406:	4152      	adcs	r2, r2
    9408:	0943      	lsrs	r3, r0, #5
    940a:	428b      	cmp	r3, r1
    940c:	d301      	bcc.n	9412 <__divsi3+0xc6>
    940e:	014b      	lsls	r3, r1, #5
    9410:	1ac0      	subs	r0, r0, r3
    9412:	4152      	adcs	r2, r2
    9414:	0903      	lsrs	r3, r0, #4
    9416:	428b      	cmp	r3, r1
    9418:	d301      	bcc.n	941e <__divsi3+0xd2>
    941a:	010b      	lsls	r3, r1, #4
    941c:	1ac0      	subs	r0, r0, r3
    941e:	4152      	adcs	r2, r2
    9420:	08c3      	lsrs	r3, r0, #3
    9422:	428b      	cmp	r3, r1
    9424:	d301      	bcc.n	942a <__divsi3+0xde>
    9426:	00cb      	lsls	r3, r1, #3
    9428:	1ac0      	subs	r0, r0, r3
    942a:	4152      	adcs	r2, r2
    942c:	0883      	lsrs	r3, r0, #2
    942e:	428b      	cmp	r3, r1
    9430:	d301      	bcc.n	9436 <__divsi3+0xea>
    9432:	008b      	lsls	r3, r1, #2
    9434:	1ac0      	subs	r0, r0, r3
    9436:	4152      	adcs	r2, r2
    9438:	0843      	lsrs	r3, r0, #1
    943a:	428b      	cmp	r3, r1
    943c:	d301      	bcc.n	9442 <__divsi3+0xf6>
    943e:	004b      	lsls	r3, r1, #1
    9440:	1ac0      	subs	r0, r0, r3
    9442:	4152      	adcs	r2, r2
    9444:	1a41      	subs	r1, r0, r1
    9446:	d200      	bcs.n	944a <__divsi3+0xfe>
    9448:	4601      	mov	r1, r0
    944a:	4152      	adcs	r2, r2
    944c:	4610      	mov	r0, r2
    944e:	4770      	bx	lr
    9450:	e05d      	b.n	950e <__divsi3+0x1c2>
    9452:	0fca      	lsrs	r2, r1, #31
    9454:	d000      	beq.n	9458 <__divsi3+0x10c>
    9456:	4249      	negs	r1, r1
    9458:	1003      	asrs	r3, r0, #32
    945a:	d300      	bcc.n	945e <__divsi3+0x112>
    945c:	4240      	negs	r0, r0
    945e:	4053      	eors	r3, r2
    9460:	2200      	movs	r2, #0
    9462:	469c      	mov	ip, r3
    9464:	0903      	lsrs	r3, r0, #4
    9466:	428b      	cmp	r3, r1
    9468:	d32d      	bcc.n	94c6 <__divsi3+0x17a>
    946a:	0a03      	lsrs	r3, r0, #8
    946c:	428b      	cmp	r3, r1
    946e:	d312      	bcc.n	9496 <__divsi3+0x14a>
    9470:	22fc      	movs	r2, #252	; 0xfc
    9472:	0189      	lsls	r1, r1, #6
    9474:	ba12      	rev	r2, r2
    9476:	0a03      	lsrs	r3, r0, #8
    9478:	428b      	cmp	r3, r1
    947a:	d30c      	bcc.n	9496 <__divsi3+0x14a>
    947c:	0189      	lsls	r1, r1, #6
    947e:	1192      	asrs	r2, r2, #6
    9480:	428b      	cmp	r3, r1
    9482:	d308      	bcc.n	9496 <__divsi3+0x14a>
    9484:	0189      	lsls	r1, r1, #6
    9486:	1192      	asrs	r2, r2, #6
    9488:	428b      	cmp	r3, r1
    948a:	d304      	bcc.n	9496 <__divsi3+0x14a>
    948c:	0189      	lsls	r1, r1, #6
    948e:	d03a      	beq.n	9506 <__divsi3+0x1ba>
    9490:	1192      	asrs	r2, r2, #6
    9492:	e000      	b.n	9496 <__divsi3+0x14a>
    9494:	0989      	lsrs	r1, r1, #6
    9496:	09c3      	lsrs	r3, r0, #7
    9498:	428b      	cmp	r3, r1
    949a:	d301      	bcc.n	94a0 <__divsi3+0x154>
    949c:	01cb      	lsls	r3, r1, #7
    949e:	1ac0      	subs	r0, r0, r3
    94a0:	4152      	adcs	r2, r2
    94a2:	0983      	lsrs	r3, r0, #6
    94a4:	428b      	cmp	r3, r1
    94a6:	d301      	bcc.n	94ac <__divsi3+0x160>
    94a8:	018b      	lsls	r3, r1, #6
    94aa:	1ac0      	subs	r0, r0, r3
    94ac:	4152      	adcs	r2, r2
    94ae:	0943      	lsrs	r3, r0, #5
    94b0:	428b      	cmp	r3, r1
    94b2:	d301      	bcc.n	94b8 <__divsi3+0x16c>
    94b4:	014b      	lsls	r3, r1, #5
    94b6:	1ac0      	subs	r0, r0, r3
    94b8:	4152      	adcs	r2, r2
    94ba:	0903      	lsrs	r3, r0, #4
    94bc:	428b      	cmp	r3, r1
    94be:	d301      	bcc.n	94c4 <__divsi3+0x178>
    94c0:	010b      	lsls	r3, r1, #4
    94c2:	1ac0      	subs	r0, r0, r3
    94c4:	4152      	adcs	r2, r2
    94c6:	08c3      	lsrs	r3, r0, #3
    94c8:	428b      	cmp	r3, r1
    94ca:	d301      	bcc.n	94d0 <__divsi3+0x184>
    94cc:	00cb      	lsls	r3, r1, #3
    94ce:	1ac0      	subs	r0, r0, r3
    94d0:	4152      	adcs	r2, r2
    94d2:	0883      	lsrs	r3, r0, #2
    94d4:	428b      	cmp	r3, r1
    94d6:	d301      	bcc.n	94dc <__divsi3+0x190>
    94d8:	008b      	lsls	r3, r1, #2
    94da:	1ac0      	subs	r0, r0, r3
    94dc:	4152      	adcs	r2, r2
    94de:	d2d9      	bcs.n	9494 <__divsi3+0x148>
    94e0:	0843      	lsrs	r3, r0, #1
    94e2:	428b      	cmp	r3, r1
    94e4:	d301      	bcc.n	94ea <__divsi3+0x19e>
    94e6:	004b      	lsls	r3, r1, #1
    94e8:	1ac0      	subs	r0, r0, r3
    94ea:	4152      	adcs	r2, r2
    94ec:	1a41      	subs	r1, r0, r1
    94ee:	d200      	bcs.n	94f2 <__divsi3+0x1a6>
    94f0:	4601      	mov	r1, r0
    94f2:	4663      	mov	r3, ip
    94f4:	4152      	adcs	r2, r2
    94f6:	105b      	asrs	r3, r3, #1
    94f8:	4610      	mov	r0, r2
    94fa:	d301      	bcc.n	9500 <__divsi3+0x1b4>
    94fc:	4240      	negs	r0, r0
    94fe:	2b00      	cmp	r3, #0
    9500:	d500      	bpl.n	9504 <__divsi3+0x1b8>
    9502:	4249      	negs	r1, r1
    9504:	4770      	bx	lr
    9506:	4663      	mov	r3, ip
    9508:	105b      	asrs	r3, r3, #1
    950a:	d300      	bcc.n	950e <__divsi3+0x1c2>
    950c:	4240      	negs	r0, r0
    950e:	b501      	push	{r0, lr}
    9510:	2000      	movs	r0, #0
    9512:	f000 f805 	bl	9520 <__aeabi_idiv0>
    9516:	bd02      	pop	{r1, pc}

00009518 <__aeabi_idivmod>:
    9518:	2900      	cmp	r1, #0
    951a:	d0f8      	beq.n	950e <__divsi3+0x1c2>
    951c:	e716      	b.n	934c <__divsi3>
    951e:	4770      	bx	lr

00009520 <__aeabi_idiv0>:
    9520:	4770      	bx	lr
    9522:	46c0      	nop			; (mov r8, r8)

00009524 <__aeabi_lmul>:
    9524:	b5f0      	push	{r4, r5, r6, r7, lr}
    9526:	46ce      	mov	lr, r9
    9528:	4647      	mov	r7, r8
    952a:	0415      	lsls	r5, r2, #16
    952c:	0c2d      	lsrs	r5, r5, #16
    952e:	002e      	movs	r6, r5
    9530:	b580      	push	{r7, lr}
    9532:	0407      	lsls	r7, r0, #16
    9534:	0c14      	lsrs	r4, r2, #16
    9536:	0c3f      	lsrs	r7, r7, #16
    9538:	4699      	mov	r9, r3
    953a:	0c03      	lsrs	r3, r0, #16
    953c:	437e      	muls	r6, r7
    953e:	435d      	muls	r5, r3
    9540:	4367      	muls	r7, r4
    9542:	4363      	muls	r3, r4
    9544:	197f      	adds	r7, r7, r5
    9546:	0c34      	lsrs	r4, r6, #16
    9548:	19e4      	adds	r4, r4, r7
    954a:	469c      	mov	ip, r3
    954c:	42a5      	cmp	r5, r4
    954e:	d903      	bls.n	9558 <__aeabi_lmul+0x34>
    9550:	2380      	movs	r3, #128	; 0x80
    9552:	025b      	lsls	r3, r3, #9
    9554:	4698      	mov	r8, r3
    9556:	44c4      	add	ip, r8
    9558:	464b      	mov	r3, r9
    955a:	4351      	muls	r1, r2
    955c:	4343      	muls	r3, r0
    955e:	0436      	lsls	r6, r6, #16
    9560:	0c36      	lsrs	r6, r6, #16
    9562:	0c25      	lsrs	r5, r4, #16
    9564:	0424      	lsls	r4, r4, #16
    9566:	4465      	add	r5, ip
    9568:	19a4      	adds	r4, r4, r6
    956a:	1859      	adds	r1, r3, r1
    956c:	1949      	adds	r1, r1, r5
    956e:	0020      	movs	r0, r4
    9570:	bc0c      	pop	{r2, r3}
    9572:	4690      	mov	r8, r2
    9574:	4699      	mov	r9, r3
    9576:	bdf0      	pop	{r4, r5, r6, r7, pc}

00009578 <__libc_init_array>:
    9578:	b570      	push	{r4, r5, r6, lr}
    957a:	2600      	movs	r6, #0
    957c:	4d0c      	ldr	r5, [pc, #48]	; (95b0 <__libc_init_array+0x38>)
    957e:	4c0d      	ldr	r4, [pc, #52]	; (95b4 <__libc_init_array+0x3c>)
    9580:	1b64      	subs	r4, r4, r5
    9582:	10a4      	asrs	r4, r4, #2
    9584:	42a6      	cmp	r6, r4
    9586:	d109      	bne.n	959c <__libc_init_array+0x24>
    9588:	2600      	movs	r6, #0
    958a:	f001 f83f 	bl	a60c <_init>
    958e:	4d0a      	ldr	r5, [pc, #40]	; (95b8 <__libc_init_array+0x40>)
    9590:	4c0a      	ldr	r4, [pc, #40]	; (95bc <__libc_init_array+0x44>)
    9592:	1b64      	subs	r4, r4, r5
    9594:	10a4      	asrs	r4, r4, #2
    9596:	42a6      	cmp	r6, r4
    9598:	d105      	bne.n	95a6 <__libc_init_array+0x2e>
    959a:	bd70      	pop	{r4, r5, r6, pc}
    959c:	00b3      	lsls	r3, r6, #2
    959e:	58eb      	ldr	r3, [r5, r3]
    95a0:	4798      	blx	r3
    95a2:	3601      	adds	r6, #1
    95a4:	e7ee      	b.n	9584 <__libc_init_array+0xc>
    95a6:	00b3      	lsls	r3, r6, #2
    95a8:	58eb      	ldr	r3, [r5, r3]
    95aa:	4798      	blx	r3
    95ac:	3601      	adds	r6, #1
    95ae:	e7f2      	b.n	9596 <__libc_init_array+0x1e>
    95b0:	0000a618 	.word	0x0000a618
    95b4:	0000a618 	.word	0x0000a618
    95b8:	0000a618 	.word	0x0000a618
    95bc:	0000a61c 	.word	0x0000a61c

000095c0 <memcmp>:
    95c0:	b530      	push	{r4, r5, lr}
    95c2:	2400      	movs	r4, #0
    95c4:	42a2      	cmp	r2, r4
    95c6:	d101      	bne.n	95cc <memcmp+0xc>
    95c8:	2000      	movs	r0, #0
    95ca:	e005      	b.n	95d8 <memcmp+0x18>
    95cc:	5d03      	ldrb	r3, [r0, r4]
    95ce:	1c65      	adds	r5, r4, #1
    95d0:	5d0c      	ldrb	r4, [r1, r4]
    95d2:	42a3      	cmp	r3, r4
    95d4:	d001      	beq.n	95da <memcmp+0x1a>
    95d6:	1b18      	subs	r0, r3, r4
    95d8:	bd30      	pop	{r4, r5, pc}
    95da:	002c      	movs	r4, r5
    95dc:	e7f2      	b.n	95c4 <memcmp+0x4>

000095de <memcpy>:
    95de:	2300      	movs	r3, #0
    95e0:	b510      	push	{r4, lr}
    95e2:	429a      	cmp	r2, r3
    95e4:	d100      	bne.n	95e8 <memcpy+0xa>
    95e6:	bd10      	pop	{r4, pc}
    95e8:	5ccc      	ldrb	r4, [r1, r3]
    95ea:	54c4      	strb	r4, [r0, r3]
    95ec:	3301      	adds	r3, #1
    95ee:	e7f8      	b.n	95e2 <memcpy+0x4>

000095f0 <memset>:
    95f0:	0003      	movs	r3, r0
    95f2:	1882      	adds	r2, r0, r2
    95f4:	4293      	cmp	r3, r2
    95f6:	d100      	bne.n	95fa <memset+0xa>
    95f8:	4770      	bx	lr
    95fa:	7019      	strb	r1, [r3, #0]
    95fc:	3301      	adds	r3, #1
    95fe:	e7f9      	b.n	95f4 <memset+0x4>

00009600 <rand>:
    9600:	4b15      	ldr	r3, [pc, #84]	; (9658 <rand+0x58>)
    9602:	b510      	push	{r4, lr}
    9604:	681c      	ldr	r4, [r3, #0]
    9606:	6ba3      	ldr	r3, [r4, #56]	; 0x38
    9608:	2b00      	cmp	r3, #0
    960a:	d115      	bne.n	9638 <rand+0x38>
    960c:	2018      	movs	r0, #24
    960e:	f000 fac1 	bl	9b94 <malloc>
    9612:	4b12      	ldr	r3, [pc, #72]	; (965c <rand+0x5c>)
    9614:	63a0      	str	r0, [r4, #56]	; 0x38
    9616:	8003      	strh	r3, [r0, #0]
    9618:	4b11      	ldr	r3, [pc, #68]	; (9660 <rand+0x60>)
    961a:	2201      	movs	r2, #1
    961c:	8043      	strh	r3, [r0, #2]
    961e:	4b11      	ldr	r3, [pc, #68]	; (9664 <rand+0x64>)
    9620:	8083      	strh	r3, [r0, #4]
    9622:	4b11      	ldr	r3, [pc, #68]	; (9668 <rand+0x68>)
    9624:	80c3      	strh	r3, [r0, #6]
    9626:	4b11      	ldr	r3, [pc, #68]	; (966c <rand+0x6c>)
    9628:	8103      	strh	r3, [r0, #8]
    962a:	2305      	movs	r3, #5
    962c:	8143      	strh	r3, [r0, #10]
    962e:	3306      	adds	r3, #6
    9630:	8183      	strh	r3, [r0, #12]
    9632:	2300      	movs	r3, #0
    9634:	6102      	str	r2, [r0, #16]
    9636:	6143      	str	r3, [r0, #20]
    9638:	6ba4      	ldr	r4, [r4, #56]	; 0x38
    963a:	4a0d      	ldr	r2, [pc, #52]	; (9670 <rand+0x70>)
    963c:	6920      	ldr	r0, [r4, #16]
    963e:	6961      	ldr	r1, [r4, #20]
    9640:	4b0c      	ldr	r3, [pc, #48]	; (9674 <rand+0x74>)
    9642:	f7ff ff6f 	bl	9524 <__aeabi_lmul>
    9646:	2201      	movs	r2, #1
    9648:	2300      	movs	r3, #0
    964a:	1880      	adds	r0, r0, r2
    964c:	4159      	adcs	r1, r3
    964e:	6120      	str	r0, [r4, #16]
    9650:	6161      	str	r1, [r4, #20]
    9652:	0048      	lsls	r0, r1, #1
    9654:	0840      	lsrs	r0, r0, #1
    9656:	bd10      	pop	{r4, pc}
    9658:	20000078 	.word	0x20000078
    965c:	0000330e 	.word	0x0000330e
    9660:	ffffabcd 	.word	0xffffabcd
    9664:	00001234 	.word	0x00001234
    9668:	ffffe66d 	.word	0xffffe66d
    966c:	ffffdeec 	.word	0xffffdeec
    9670:	4c957f2d 	.word	0x4c957f2d
    9674:	5851f42d 	.word	0x5851f42d

00009678 <setbuf>:
    9678:	424a      	negs	r2, r1
    967a:	414a      	adcs	r2, r1
    967c:	2380      	movs	r3, #128	; 0x80
    967e:	b510      	push	{r4, lr}
    9680:	0052      	lsls	r2, r2, #1
    9682:	00db      	lsls	r3, r3, #3
    9684:	f000 f802 	bl	968c <setvbuf>
    9688:	bd10      	pop	{r4, pc}
	...

0000968c <setvbuf>:
    968c:	b5f0      	push	{r4, r5, r6, r7, lr}
    968e:	001d      	movs	r5, r3
    9690:	4b4f      	ldr	r3, [pc, #316]	; (97d0 <setvbuf+0x144>)
    9692:	b085      	sub	sp, #20
    9694:	681e      	ldr	r6, [r3, #0]
    9696:	0004      	movs	r4, r0
    9698:	000f      	movs	r7, r1
    969a:	9200      	str	r2, [sp, #0]
    969c:	2e00      	cmp	r6, #0
    969e:	d005      	beq.n	96ac <setvbuf+0x20>
    96a0:	69b3      	ldr	r3, [r6, #24]
    96a2:	2b00      	cmp	r3, #0
    96a4:	d102      	bne.n	96ac <setvbuf+0x20>
    96a6:	0030      	movs	r0, r6
    96a8:	f000 f9b6 	bl	9a18 <__sinit>
    96ac:	4b49      	ldr	r3, [pc, #292]	; (97d4 <setvbuf+0x148>)
    96ae:	429c      	cmp	r4, r3
    96b0:	d150      	bne.n	9754 <setvbuf+0xc8>
    96b2:	6874      	ldr	r4, [r6, #4]
    96b4:	9b00      	ldr	r3, [sp, #0]
    96b6:	2b02      	cmp	r3, #2
    96b8:	d005      	beq.n	96c6 <setvbuf+0x3a>
    96ba:	2b01      	cmp	r3, #1
    96bc:	d900      	bls.n	96c0 <setvbuf+0x34>
    96be:	e084      	b.n	97ca <setvbuf+0x13e>
    96c0:	2d00      	cmp	r5, #0
    96c2:	da00      	bge.n	96c6 <setvbuf+0x3a>
    96c4:	e081      	b.n	97ca <setvbuf+0x13e>
    96c6:	0021      	movs	r1, r4
    96c8:	0030      	movs	r0, r6
    96ca:	f000 f937 	bl	993c <_fflush_r>
    96ce:	6b61      	ldr	r1, [r4, #52]	; 0x34
    96d0:	2900      	cmp	r1, #0
    96d2:	d008      	beq.n	96e6 <setvbuf+0x5a>
    96d4:	0023      	movs	r3, r4
    96d6:	3344      	adds	r3, #68	; 0x44
    96d8:	4299      	cmp	r1, r3
    96da:	d002      	beq.n	96e2 <setvbuf+0x56>
    96dc:	0030      	movs	r0, r6
    96de:	f000 fa63 	bl	9ba8 <_free_r>
    96e2:	2300      	movs	r3, #0
    96e4:	6363      	str	r3, [r4, #52]	; 0x34
    96e6:	2300      	movs	r3, #0
    96e8:	61a3      	str	r3, [r4, #24]
    96ea:	6063      	str	r3, [r4, #4]
    96ec:	89a3      	ldrh	r3, [r4, #12]
    96ee:	061b      	lsls	r3, r3, #24
    96f0:	d503      	bpl.n	96fa <setvbuf+0x6e>
    96f2:	6921      	ldr	r1, [r4, #16]
    96f4:	0030      	movs	r0, r6
    96f6:	f000 fa57 	bl	9ba8 <_free_r>
    96fa:	89a3      	ldrh	r3, [r4, #12]
    96fc:	4a36      	ldr	r2, [pc, #216]	; (97d8 <setvbuf+0x14c>)
    96fe:	4013      	ands	r3, r2
    9700:	81a3      	strh	r3, [r4, #12]
    9702:	9b00      	ldr	r3, [sp, #0]
    9704:	2b02      	cmp	r3, #2
    9706:	d05a      	beq.n	97be <setvbuf+0x132>
    9708:	ab03      	add	r3, sp, #12
    970a:	aa02      	add	r2, sp, #8
    970c:	0021      	movs	r1, r4
    970e:	0030      	movs	r0, r6
    9710:	f000 fa18 	bl	9b44 <__swhatbuf_r>
    9714:	89a3      	ldrh	r3, [r4, #12]
    9716:	4318      	orrs	r0, r3
    9718:	81a0      	strh	r0, [r4, #12]
    971a:	2d00      	cmp	r5, #0
    971c:	d124      	bne.n	9768 <setvbuf+0xdc>
    971e:	9d02      	ldr	r5, [sp, #8]
    9720:	0028      	movs	r0, r5
    9722:	f000 fa37 	bl	9b94 <malloc>
    9726:	9501      	str	r5, [sp, #4]
    9728:	1e07      	subs	r7, r0, #0
    972a:	d142      	bne.n	97b2 <setvbuf+0x126>
    972c:	9b02      	ldr	r3, [sp, #8]
    972e:	9301      	str	r3, [sp, #4]
    9730:	42ab      	cmp	r3, r5
    9732:	d139      	bne.n	97a8 <setvbuf+0x11c>
    9734:	2001      	movs	r0, #1
    9736:	4240      	negs	r0, r0
    9738:	2302      	movs	r3, #2
    973a:	89a2      	ldrh	r2, [r4, #12]
    973c:	4313      	orrs	r3, r2
    973e:	81a3      	strh	r3, [r4, #12]
    9740:	2300      	movs	r3, #0
    9742:	60a3      	str	r3, [r4, #8]
    9744:	0023      	movs	r3, r4
    9746:	3347      	adds	r3, #71	; 0x47
    9748:	6023      	str	r3, [r4, #0]
    974a:	6123      	str	r3, [r4, #16]
    974c:	2301      	movs	r3, #1
    974e:	6163      	str	r3, [r4, #20]
    9750:	b005      	add	sp, #20
    9752:	bdf0      	pop	{r4, r5, r6, r7, pc}
    9754:	4b21      	ldr	r3, [pc, #132]	; (97dc <setvbuf+0x150>)
    9756:	429c      	cmp	r4, r3
    9758:	d101      	bne.n	975e <setvbuf+0xd2>
    975a:	68b4      	ldr	r4, [r6, #8]
    975c:	e7aa      	b.n	96b4 <setvbuf+0x28>
    975e:	4b20      	ldr	r3, [pc, #128]	; (97e0 <setvbuf+0x154>)
    9760:	429c      	cmp	r4, r3
    9762:	d1a7      	bne.n	96b4 <setvbuf+0x28>
    9764:	68f4      	ldr	r4, [r6, #12]
    9766:	e7a5      	b.n	96b4 <setvbuf+0x28>
    9768:	2f00      	cmp	r7, #0
    976a:	d0d9      	beq.n	9720 <setvbuf+0x94>
    976c:	69b3      	ldr	r3, [r6, #24]
    976e:	2b00      	cmp	r3, #0
    9770:	d102      	bne.n	9778 <setvbuf+0xec>
    9772:	0030      	movs	r0, r6
    9774:	f000 f950 	bl	9a18 <__sinit>
    9778:	9b00      	ldr	r3, [sp, #0]
    977a:	2b01      	cmp	r3, #1
    977c:	d103      	bne.n	9786 <setvbuf+0xfa>
    977e:	89a3      	ldrh	r3, [r4, #12]
    9780:	9a00      	ldr	r2, [sp, #0]
    9782:	431a      	orrs	r2, r3
    9784:	81a2      	strh	r2, [r4, #12]
    9786:	2008      	movs	r0, #8
    9788:	89a3      	ldrh	r3, [r4, #12]
    978a:	6027      	str	r7, [r4, #0]
    978c:	6127      	str	r7, [r4, #16]
    978e:	6165      	str	r5, [r4, #20]
    9790:	4018      	ands	r0, r3
    9792:	d018      	beq.n	97c6 <setvbuf+0x13a>
    9794:	2001      	movs	r0, #1
    9796:	4018      	ands	r0, r3
    9798:	2300      	movs	r3, #0
    979a:	4298      	cmp	r0, r3
    979c:	d011      	beq.n	97c2 <setvbuf+0x136>
    979e:	426d      	negs	r5, r5
    97a0:	60a3      	str	r3, [r4, #8]
    97a2:	61a5      	str	r5, [r4, #24]
    97a4:	0018      	movs	r0, r3
    97a6:	e7d3      	b.n	9750 <setvbuf+0xc4>
    97a8:	9801      	ldr	r0, [sp, #4]
    97aa:	f000 f9f3 	bl	9b94 <malloc>
    97ae:	1e07      	subs	r7, r0, #0
    97b0:	d0c0      	beq.n	9734 <setvbuf+0xa8>
    97b2:	2380      	movs	r3, #128	; 0x80
    97b4:	89a2      	ldrh	r2, [r4, #12]
    97b6:	9d01      	ldr	r5, [sp, #4]
    97b8:	4313      	orrs	r3, r2
    97ba:	81a3      	strh	r3, [r4, #12]
    97bc:	e7d6      	b.n	976c <setvbuf+0xe0>
    97be:	2000      	movs	r0, #0
    97c0:	e7ba      	b.n	9738 <setvbuf+0xac>
    97c2:	60a5      	str	r5, [r4, #8]
    97c4:	e7c4      	b.n	9750 <setvbuf+0xc4>
    97c6:	60a0      	str	r0, [r4, #8]
    97c8:	e7c2      	b.n	9750 <setvbuf+0xc4>
    97ca:	2001      	movs	r0, #1
    97cc:	4240      	negs	r0, r0
    97ce:	e7bf      	b.n	9750 <setvbuf+0xc4>
    97d0:	20000078 	.word	0x20000078
    97d4:	0000a598 	.word	0x0000a598
    97d8:	fffff35c 	.word	0xfffff35c
    97dc:	0000a5b8 	.word	0x0000a5b8
    97e0:	0000a578 	.word	0x0000a578

000097e4 <siprintf>:
    97e4:	b40e      	push	{r1, r2, r3}
    97e6:	b510      	push	{r4, lr}
    97e8:	b09d      	sub	sp, #116	; 0x74
    97ea:	a902      	add	r1, sp, #8
    97ec:	9002      	str	r0, [sp, #8]
    97ee:	6108      	str	r0, [r1, #16]
    97f0:	480b      	ldr	r0, [pc, #44]	; (9820 <siprintf+0x3c>)
    97f2:	2482      	movs	r4, #130	; 0x82
    97f4:	6088      	str	r0, [r1, #8]
    97f6:	6148      	str	r0, [r1, #20]
    97f8:	2001      	movs	r0, #1
    97fa:	4240      	negs	r0, r0
    97fc:	ab1f      	add	r3, sp, #124	; 0x7c
    97fe:	81c8      	strh	r0, [r1, #14]
    9800:	4808      	ldr	r0, [pc, #32]	; (9824 <siprintf+0x40>)
    9802:	cb04      	ldmia	r3!, {r2}
    9804:	00a4      	lsls	r4, r4, #2
    9806:	6800      	ldr	r0, [r0, #0]
    9808:	9301      	str	r3, [sp, #4]
    980a:	818c      	strh	r4, [r1, #12]
    980c:	f000 fad6 	bl	9dbc <_svfiprintf_r>
    9810:	2300      	movs	r3, #0
    9812:	9a02      	ldr	r2, [sp, #8]
    9814:	7013      	strb	r3, [r2, #0]
    9816:	b01d      	add	sp, #116	; 0x74
    9818:	bc10      	pop	{r4}
    981a:	bc08      	pop	{r3}
    981c:	b003      	add	sp, #12
    981e:	4718      	bx	r3
    9820:	7fffffff 	.word	0x7fffffff
    9824:	20000078 	.word	0x20000078

00009828 <__sflush_r>:
    9828:	b5f7      	push	{r0, r1, r2, r4, r5, r6, r7, lr}
    982a:	898a      	ldrh	r2, [r1, #12]
    982c:	0005      	movs	r5, r0
    982e:	000c      	movs	r4, r1
    9830:	0713      	lsls	r3, r2, #28
    9832:	d460      	bmi.n	98f6 <__sflush_r+0xce>
    9834:	684b      	ldr	r3, [r1, #4]
    9836:	2b00      	cmp	r3, #0
    9838:	dc04      	bgt.n	9844 <__sflush_r+0x1c>
    983a:	6c0b      	ldr	r3, [r1, #64]	; 0x40
    983c:	2b00      	cmp	r3, #0
    983e:	dc01      	bgt.n	9844 <__sflush_r+0x1c>
    9840:	2000      	movs	r0, #0
    9842:	bdfe      	pop	{r1, r2, r3, r4, r5, r6, r7, pc}
    9844:	6ae7      	ldr	r7, [r4, #44]	; 0x2c
    9846:	2f00      	cmp	r7, #0
    9848:	d0fa      	beq.n	9840 <__sflush_r+0x18>
    984a:	2300      	movs	r3, #0
    984c:	682e      	ldr	r6, [r5, #0]
    984e:	602b      	str	r3, [r5, #0]
    9850:	2380      	movs	r3, #128	; 0x80
    9852:	015b      	lsls	r3, r3, #5
    9854:	401a      	ands	r2, r3
    9856:	d034      	beq.n	98c2 <__sflush_r+0x9a>
    9858:	6d60      	ldr	r0, [r4, #84]	; 0x54
    985a:	89a3      	ldrh	r3, [r4, #12]
    985c:	075b      	lsls	r3, r3, #29
    985e:	d506      	bpl.n	986e <__sflush_r+0x46>
    9860:	6863      	ldr	r3, [r4, #4]
    9862:	1ac0      	subs	r0, r0, r3
    9864:	6b63      	ldr	r3, [r4, #52]	; 0x34
    9866:	2b00      	cmp	r3, #0
    9868:	d001      	beq.n	986e <__sflush_r+0x46>
    986a:	6c23      	ldr	r3, [r4, #64]	; 0x40
    986c:	1ac0      	subs	r0, r0, r3
    986e:	0002      	movs	r2, r0
    9870:	6a21      	ldr	r1, [r4, #32]
    9872:	2300      	movs	r3, #0
    9874:	0028      	movs	r0, r5
    9876:	6ae7      	ldr	r7, [r4, #44]	; 0x2c
    9878:	47b8      	blx	r7
    987a:	89a1      	ldrh	r1, [r4, #12]
    987c:	1c43      	adds	r3, r0, #1
    987e:	d106      	bne.n	988e <__sflush_r+0x66>
    9880:	682b      	ldr	r3, [r5, #0]
    9882:	2b1d      	cmp	r3, #29
    9884:	d831      	bhi.n	98ea <__sflush_r+0xc2>
    9886:	4a2c      	ldr	r2, [pc, #176]	; (9938 <__sflush_r+0x110>)
    9888:	40da      	lsrs	r2, r3
    988a:	07d3      	lsls	r3, r2, #31
    988c:	d52d      	bpl.n	98ea <__sflush_r+0xc2>
    988e:	2300      	movs	r3, #0
    9890:	6063      	str	r3, [r4, #4]
    9892:	6923      	ldr	r3, [r4, #16]
    9894:	6023      	str	r3, [r4, #0]
    9896:	04cb      	lsls	r3, r1, #19
    9898:	d505      	bpl.n	98a6 <__sflush_r+0x7e>
    989a:	1c43      	adds	r3, r0, #1
    989c:	d102      	bne.n	98a4 <__sflush_r+0x7c>
    989e:	682b      	ldr	r3, [r5, #0]
    98a0:	2b00      	cmp	r3, #0
    98a2:	d100      	bne.n	98a6 <__sflush_r+0x7e>
    98a4:	6560      	str	r0, [r4, #84]	; 0x54
    98a6:	6b61      	ldr	r1, [r4, #52]	; 0x34
    98a8:	602e      	str	r6, [r5, #0]
    98aa:	2900      	cmp	r1, #0
    98ac:	d0c8      	beq.n	9840 <__sflush_r+0x18>
    98ae:	0023      	movs	r3, r4
    98b0:	3344      	adds	r3, #68	; 0x44
    98b2:	4299      	cmp	r1, r3
    98b4:	d002      	beq.n	98bc <__sflush_r+0x94>
    98b6:	0028      	movs	r0, r5
    98b8:	f000 f976 	bl	9ba8 <_free_r>
    98bc:	2000      	movs	r0, #0
    98be:	6360      	str	r0, [r4, #52]	; 0x34
    98c0:	e7bf      	b.n	9842 <__sflush_r+0x1a>
    98c2:	2301      	movs	r3, #1
    98c4:	6a21      	ldr	r1, [r4, #32]
    98c6:	0028      	movs	r0, r5
    98c8:	47b8      	blx	r7
    98ca:	1c43      	adds	r3, r0, #1
    98cc:	d1c5      	bne.n	985a <__sflush_r+0x32>
    98ce:	682b      	ldr	r3, [r5, #0]
    98d0:	2b00      	cmp	r3, #0
    98d2:	d0c2      	beq.n	985a <__sflush_r+0x32>
    98d4:	2b1d      	cmp	r3, #29
    98d6:	d001      	beq.n	98dc <__sflush_r+0xb4>
    98d8:	2b16      	cmp	r3, #22
    98da:	d101      	bne.n	98e0 <__sflush_r+0xb8>
    98dc:	602e      	str	r6, [r5, #0]
    98de:	e7af      	b.n	9840 <__sflush_r+0x18>
    98e0:	2340      	movs	r3, #64	; 0x40
    98e2:	89a2      	ldrh	r2, [r4, #12]
    98e4:	4313      	orrs	r3, r2
    98e6:	81a3      	strh	r3, [r4, #12]
    98e8:	e7ab      	b.n	9842 <__sflush_r+0x1a>
    98ea:	2340      	movs	r3, #64	; 0x40
    98ec:	430b      	orrs	r3, r1
    98ee:	2001      	movs	r0, #1
    98f0:	81a3      	strh	r3, [r4, #12]
    98f2:	4240      	negs	r0, r0
    98f4:	e7a5      	b.n	9842 <__sflush_r+0x1a>
    98f6:	690f      	ldr	r7, [r1, #16]
    98f8:	2f00      	cmp	r7, #0
    98fa:	d0a1      	beq.n	9840 <__sflush_r+0x18>
    98fc:	680b      	ldr	r3, [r1, #0]
    98fe:	600f      	str	r7, [r1, #0]
    9900:	1bdb      	subs	r3, r3, r7
    9902:	9301      	str	r3, [sp, #4]
    9904:	2300      	movs	r3, #0
    9906:	0792      	lsls	r2, r2, #30
    9908:	d100      	bne.n	990c <__sflush_r+0xe4>
    990a:	694b      	ldr	r3, [r1, #20]
    990c:	60a3      	str	r3, [r4, #8]
    990e:	9b01      	ldr	r3, [sp, #4]
    9910:	2b00      	cmp	r3, #0
    9912:	dc00      	bgt.n	9916 <__sflush_r+0xee>
    9914:	e794      	b.n	9840 <__sflush_r+0x18>
    9916:	9b01      	ldr	r3, [sp, #4]
    9918:	003a      	movs	r2, r7
    991a:	6a21      	ldr	r1, [r4, #32]
    991c:	0028      	movs	r0, r5
    991e:	6aa6      	ldr	r6, [r4, #40]	; 0x28
    9920:	47b0      	blx	r6
    9922:	2800      	cmp	r0, #0
    9924:	dc03      	bgt.n	992e <__sflush_r+0x106>
    9926:	2340      	movs	r3, #64	; 0x40
    9928:	89a2      	ldrh	r2, [r4, #12]
    992a:	4313      	orrs	r3, r2
    992c:	e7df      	b.n	98ee <__sflush_r+0xc6>
    992e:	9b01      	ldr	r3, [sp, #4]
    9930:	183f      	adds	r7, r7, r0
    9932:	1a1b      	subs	r3, r3, r0
    9934:	9301      	str	r3, [sp, #4]
    9936:	e7ea      	b.n	990e <__sflush_r+0xe6>
    9938:	20400001 	.word	0x20400001

0000993c <_fflush_r>:
    993c:	690b      	ldr	r3, [r1, #16]
    993e:	b570      	push	{r4, r5, r6, lr}
    9940:	0005      	movs	r5, r0
    9942:	000c      	movs	r4, r1
    9944:	2b00      	cmp	r3, #0
    9946:	d101      	bne.n	994c <_fflush_r+0x10>
    9948:	2000      	movs	r0, #0
    994a:	bd70      	pop	{r4, r5, r6, pc}
    994c:	2800      	cmp	r0, #0
    994e:	d004      	beq.n	995a <_fflush_r+0x1e>
    9950:	6983      	ldr	r3, [r0, #24]
    9952:	2b00      	cmp	r3, #0
    9954:	d101      	bne.n	995a <_fflush_r+0x1e>
    9956:	f000 f85f 	bl	9a18 <__sinit>
    995a:	4b0b      	ldr	r3, [pc, #44]	; (9988 <_fflush_r+0x4c>)
    995c:	429c      	cmp	r4, r3
    995e:	d109      	bne.n	9974 <_fflush_r+0x38>
    9960:	686c      	ldr	r4, [r5, #4]
    9962:	220c      	movs	r2, #12
    9964:	5ea3      	ldrsh	r3, [r4, r2]
    9966:	2b00      	cmp	r3, #0
    9968:	d0ee      	beq.n	9948 <_fflush_r+0xc>
    996a:	0021      	movs	r1, r4
    996c:	0028      	movs	r0, r5
    996e:	f7ff ff5b 	bl	9828 <__sflush_r>
    9972:	e7ea      	b.n	994a <_fflush_r+0xe>
    9974:	4b05      	ldr	r3, [pc, #20]	; (998c <_fflush_r+0x50>)
    9976:	429c      	cmp	r4, r3
    9978:	d101      	bne.n	997e <_fflush_r+0x42>
    997a:	68ac      	ldr	r4, [r5, #8]
    997c:	e7f1      	b.n	9962 <_fflush_r+0x26>
    997e:	4b04      	ldr	r3, [pc, #16]	; (9990 <_fflush_r+0x54>)
    9980:	429c      	cmp	r4, r3
    9982:	d1ee      	bne.n	9962 <_fflush_r+0x26>
    9984:	68ec      	ldr	r4, [r5, #12]
    9986:	e7ec      	b.n	9962 <_fflush_r+0x26>
    9988:	0000a598 	.word	0x0000a598
    998c:	0000a5b8 	.word	0x0000a5b8
    9990:	0000a578 	.word	0x0000a578

00009994 <_cleanup_r>:
    9994:	b510      	push	{r4, lr}
    9996:	4902      	ldr	r1, [pc, #8]	; (99a0 <_cleanup_r+0xc>)
    9998:	f000 f8b2 	bl	9b00 <_fwalk_reent>
    999c:	bd10      	pop	{r4, pc}
    999e:	46c0      	nop			; (mov r8, r8)
    99a0:	0000993d 	.word	0x0000993d

000099a4 <std.isra.0>:
    99a4:	2300      	movs	r3, #0
    99a6:	b510      	push	{r4, lr}
    99a8:	0004      	movs	r4, r0
    99aa:	6003      	str	r3, [r0, #0]
    99ac:	6043      	str	r3, [r0, #4]
    99ae:	6083      	str	r3, [r0, #8]
    99b0:	8181      	strh	r1, [r0, #12]
    99b2:	6643      	str	r3, [r0, #100]	; 0x64
    99b4:	81c2      	strh	r2, [r0, #14]
    99b6:	6103      	str	r3, [r0, #16]
    99b8:	6143      	str	r3, [r0, #20]
    99ba:	6183      	str	r3, [r0, #24]
    99bc:	0019      	movs	r1, r3
    99be:	2208      	movs	r2, #8
    99c0:	305c      	adds	r0, #92	; 0x5c
    99c2:	f7ff fe15 	bl	95f0 <memset>
    99c6:	4b05      	ldr	r3, [pc, #20]	; (99dc <std.isra.0+0x38>)
    99c8:	6224      	str	r4, [r4, #32]
    99ca:	6263      	str	r3, [r4, #36]	; 0x24
    99cc:	4b04      	ldr	r3, [pc, #16]	; (99e0 <std.isra.0+0x3c>)
    99ce:	62a3      	str	r3, [r4, #40]	; 0x28
    99d0:	4b04      	ldr	r3, [pc, #16]	; (99e4 <std.isra.0+0x40>)
    99d2:	62e3      	str	r3, [r4, #44]	; 0x2c
    99d4:	4b04      	ldr	r3, [pc, #16]	; (99e8 <std.isra.0+0x44>)
    99d6:	6323      	str	r3, [r4, #48]	; 0x30
    99d8:	bd10      	pop	{r4, pc}
    99da:	46c0      	nop			; (mov r8, r8)
    99dc:	0000a2f9 	.word	0x0000a2f9
    99e0:	0000a321 	.word	0x0000a321
    99e4:	0000a359 	.word	0x0000a359
    99e8:	0000a385 	.word	0x0000a385

000099ec <__sfmoreglue>:
    99ec:	b570      	push	{r4, r5, r6, lr}
    99ee:	2568      	movs	r5, #104	; 0x68
    99f0:	1e4a      	subs	r2, r1, #1
    99f2:	4355      	muls	r5, r2
    99f4:	000e      	movs	r6, r1
    99f6:	0029      	movs	r1, r5
    99f8:	3174      	adds	r1, #116	; 0x74
    99fa:	f000 f91f 	bl	9c3c <_malloc_r>
    99fe:	1e04      	subs	r4, r0, #0
    9a00:	d008      	beq.n	9a14 <__sfmoreglue+0x28>
    9a02:	2100      	movs	r1, #0
    9a04:	002a      	movs	r2, r5
    9a06:	6001      	str	r1, [r0, #0]
    9a08:	6046      	str	r6, [r0, #4]
    9a0a:	300c      	adds	r0, #12
    9a0c:	60a0      	str	r0, [r4, #8]
    9a0e:	3268      	adds	r2, #104	; 0x68
    9a10:	f7ff fdee 	bl	95f0 <memset>
    9a14:	0020      	movs	r0, r4
    9a16:	bd70      	pop	{r4, r5, r6, pc}

00009a18 <__sinit>:
    9a18:	6983      	ldr	r3, [r0, #24]
    9a1a:	b513      	push	{r0, r1, r4, lr}
    9a1c:	0004      	movs	r4, r0
    9a1e:	2b00      	cmp	r3, #0
    9a20:	d128      	bne.n	9a74 <__sinit+0x5c>
    9a22:	6483      	str	r3, [r0, #72]	; 0x48
    9a24:	64c3      	str	r3, [r0, #76]	; 0x4c
    9a26:	6503      	str	r3, [r0, #80]	; 0x50
    9a28:	4b13      	ldr	r3, [pc, #76]	; (9a78 <__sinit+0x60>)
    9a2a:	4a14      	ldr	r2, [pc, #80]	; (9a7c <__sinit+0x64>)
    9a2c:	681b      	ldr	r3, [r3, #0]
    9a2e:	6282      	str	r2, [r0, #40]	; 0x28
    9a30:	9301      	str	r3, [sp, #4]
    9a32:	4298      	cmp	r0, r3
    9a34:	d101      	bne.n	9a3a <__sinit+0x22>
    9a36:	2301      	movs	r3, #1
    9a38:	6183      	str	r3, [r0, #24]
    9a3a:	0020      	movs	r0, r4
    9a3c:	f000 f820 	bl	9a80 <__sfp>
    9a40:	6060      	str	r0, [r4, #4]
    9a42:	0020      	movs	r0, r4
    9a44:	f000 f81c 	bl	9a80 <__sfp>
    9a48:	60a0      	str	r0, [r4, #8]
    9a4a:	0020      	movs	r0, r4
    9a4c:	f000 f818 	bl	9a80 <__sfp>
    9a50:	2200      	movs	r2, #0
    9a52:	60e0      	str	r0, [r4, #12]
    9a54:	2104      	movs	r1, #4
    9a56:	6860      	ldr	r0, [r4, #4]
    9a58:	f7ff ffa4 	bl	99a4 <std.isra.0>
    9a5c:	2201      	movs	r2, #1
    9a5e:	2109      	movs	r1, #9
    9a60:	68a0      	ldr	r0, [r4, #8]
    9a62:	f7ff ff9f 	bl	99a4 <std.isra.0>
    9a66:	2202      	movs	r2, #2
    9a68:	2112      	movs	r1, #18
    9a6a:	68e0      	ldr	r0, [r4, #12]
    9a6c:	f7ff ff9a 	bl	99a4 <std.isra.0>
    9a70:	2301      	movs	r3, #1
    9a72:	61a3      	str	r3, [r4, #24]
    9a74:	bd13      	pop	{r0, r1, r4, pc}
    9a76:	46c0      	nop			; (mov r8, r8)
    9a78:	0000a574 	.word	0x0000a574
    9a7c:	00009995 	.word	0x00009995

00009a80 <__sfp>:
    9a80:	b5f8      	push	{r3, r4, r5, r6, r7, lr}
    9a82:	4b1e      	ldr	r3, [pc, #120]	; (9afc <__sfp+0x7c>)
    9a84:	0007      	movs	r7, r0
    9a86:	681e      	ldr	r6, [r3, #0]
    9a88:	69b3      	ldr	r3, [r6, #24]
    9a8a:	2b00      	cmp	r3, #0
    9a8c:	d102      	bne.n	9a94 <__sfp+0x14>
    9a8e:	0030      	movs	r0, r6
    9a90:	f7ff ffc2 	bl	9a18 <__sinit>
    9a94:	3648      	adds	r6, #72	; 0x48
    9a96:	68b4      	ldr	r4, [r6, #8]
    9a98:	6873      	ldr	r3, [r6, #4]
    9a9a:	3b01      	subs	r3, #1
    9a9c:	d504      	bpl.n	9aa8 <__sfp+0x28>
    9a9e:	6833      	ldr	r3, [r6, #0]
    9aa0:	2b00      	cmp	r3, #0
    9aa2:	d007      	beq.n	9ab4 <__sfp+0x34>
    9aa4:	6836      	ldr	r6, [r6, #0]
    9aa6:	e7f6      	b.n	9a96 <__sfp+0x16>
    9aa8:	220c      	movs	r2, #12
    9aaa:	5ea5      	ldrsh	r5, [r4, r2]
    9aac:	2d00      	cmp	r5, #0
    9aae:	d00d      	beq.n	9acc <__sfp+0x4c>
    9ab0:	3468      	adds	r4, #104	; 0x68
    9ab2:	e7f2      	b.n	9a9a <__sfp+0x1a>
    9ab4:	2104      	movs	r1, #4
    9ab6:	0038      	movs	r0, r7
    9ab8:	f7ff ff98 	bl	99ec <__sfmoreglue>
    9abc:	6030      	str	r0, [r6, #0]
    9abe:	2800      	cmp	r0, #0
    9ac0:	d1f0      	bne.n	9aa4 <__sfp+0x24>
    9ac2:	230c      	movs	r3, #12
    9ac4:	0004      	movs	r4, r0
    9ac6:	603b      	str	r3, [r7, #0]
    9ac8:	0020      	movs	r0, r4
    9aca:	bdf8      	pop	{r3, r4, r5, r6, r7, pc}
    9acc:	2301      	movs	r3, #1
    9ace:	0020      	movs	r0, r4
    9ad0:	425b      	negs	r3, r3
    9ad2:	81e3      	strh	r3, [r4, #14]
    9ad4:	3302      	adds	r3, #2
    9ad6:	81a3      	strh	r3, [r4, #12]
    9ad8:	6665      	str	r5, [r4, #100]	; 0x64
    9ada:	6025      	str	r5, [r4, #0]
    9adc:	60a5      	str	r5, [r4, #8]
    9ade:	6065      	str	r5, [r4, #4]
    9ae0:	6125      	str	r5, [r4, #16]
    9ae2:	6165      	str	r5, [r4, #20]
    9ae4:	61a5      	str	r5, [r4, #24]
    9ae6:	2208      	movs	r2, #8
    9ae8:	0029      	movs	r1, r5
    9aea:	305c      	adds	r0, #92	; 0x5c
    9aec:	f7ff fd80 	bl	95f0 <memset>
    9af0:	6365      	str	r5, [r4, #52]	; 0x34
    9af2:	63a5      	str	r5, [r4, #56]	; 0x38
    9af4:	64a5      	str	r5, [r4, #72]	; 0x48
    9af6:	64e5      	str	r5, [r4, #76]	; 0x4c
    9af8:	e7e6      	b.n	9ac8 <__sfp+0x48>
    9afa:	46c0      	nop			; (mov r8, r8)
    9afc:	0000a574 	.word	0x0000a574

00009b00 <_fwalk_reent>:
    9b00:	b5f7      	push	{r0, r1, r2, r4, r5, r6, r7, lr}
    9b02:	0004      	movs	r4, r0
    9b04:	0007      	movs	r7, r0
    9b06:	2600      	movs	r6, #0
    9b08:	9101      	str	r1, [sp, #4]
    9b0a:	3448      	adds	r4, #72	; 0x48
    9b0c:	2c00      	cmp	r4, #0
    9b0e:	d101      	bne.n	9b14 <_fwalk_reent+0x14>
    9b10:	0030      	movs	r0, r6
    9b12:	bdfe      	pop	{r1, r2, r3, r4, r5, r6, r7, pc}
    9b14:	6863      	ldr	r3, [r4, #4]
    9b16:	68a5      	ldr	r5, [r4, #8]
    9b18:	9300      	str	r3, [sp, #0]
    9b1a:	9b00      	ldr	r3, [sp, #0]
    9b1c:	3b01      	subs	r3, #1
    9b1e:	9300      	str	r3, [sp, #0]
    9b20:	d501      	bpl.n	9b26 <_fwalk_reent+0x26>
    9b22:	6824      	ldr	r4, [r4, #0]
    9b24:	e7f2      	b.n	9b0c <_fwalk_reent+0xc>
    9b26:	89ab      	ldrh	r3, [r5, #12]
    9b28:	2b01      	cmp	r3, #1
    9b2a:	d908      	bls.n	9b3e <_fwalk_reent+0x3e>
    9b2c:	220e      	movs	r2, #14
    9b2e:	5eab      	ldrsh	r3, [r5, r2]
    9b30:	3301      	adds	r3, #1
    9b32:	d004      	beq.n	9b3e <_fwalk_reent+0x3e>
    9b34:	0029      	movs	r1, r5
    9b36:	0038      	movs	r0, r7
    9b38:	9b01      	ldr	r3, [sp, #4]
    9b3a:	4798      	blx	r3
    9b3c:	4306      	orrs	r6, r0
    9b3e:	3568      	adds	r5, #104	; 0x68
    9b40:	e7eb      	b.n	9b1a <_fwalk_reent+0x1a>
	...

00009b44 <__swhatbuf_r>:
    9b44:	b570      	push	{r4, r5, r6, lr}
    9b46:	000e      	movs	r6, r1
    9b48:	001d      	movs	r5, r3
    9b4a:	230e      	movs	r3, #14
    9b4c:	5ec9      	ldrsh	r1, [r1, r3]
    9b4e:	b090      	sub	sp, #64	; 0x40
    9b50:	0014      	movs	r4, r2
    9b52:	2900      	cmp	r1, #0
    9b54:	da07      	bge.n	9b66 <__swhatbuf_r+0x22>
    9b56:	2300      	movs	r3, #0
    9b58:	602b      	str	r3, [r5, #0]
    9b5a:	89b3      	ldrh	r3, [r6, #12]
    9b5c:	061b      	lsls	r3, r3, #24
    9b5e:	d411      	bmi.n	9b84 <__swhatbuf_r+0x40>
    9b60:	2380      	movs	r3, #128	; 0x80
    9b62:	00db      	lsls	r3, r3, #3
    9b64:	e00f      	b.n	9b86 <__swhatbuf_r+0x42>
    9b66:	aa01      	add	r2, sp, #4
    9b68:	f000 fc38 	bl	a3dc <_fstat_r>
    9b6c:	2800      	cmp	r0, #0
    9b6e:	dbf2      	blt.n	9b56 <__swhatbuf_r+0x12>
    9b70:	22f0      	movs	r2, #240	; 0xf0
    9b72:	9b02      	ldr	r3, [sp, #8]
    9b74:	0212      	lsls	r2, r2, #8
    9b76:	4013      	ands	r3, r2
    9b78:	4a05      	ldr	r2, [pc, #20]	; (9b90 <__swhatbuf_r+0x4c>)
    9b7a:	189b      	adds	r3, r3, r2
    9b7c:	425a      	negs	r2, r3
    9b7e:	4153      	adcs	r3, r2
    9b80:	602b      	str	r3, [r5, #0]
    9b82:	e7ed      	b.n	9b60 <__swhatbuf_r+0x1c>
    9b84:	2340      	movs	r3, #64	; 0x40
    9b86:	2000      	movs	r0, #0
    9b88:	6023      	str	r3, [r4, #0]
    9b8a:	b010      	add	sp, #64	; 0x40
    9b8c:	bd70      	pop	{r4, r5, r6, pc}
    9b8e:	46c0      	nop			; (mov r8, r8)
    9b90:	ffffe000 	.word	0xffffe000

00009b94 <malloc>:
    9b94:	b510      	push	{r4, lr}
    9b96:	4b03      	ldr	r3, [pc, #12]	; (9ba4 <malloc+0x10>)
    9b98:	0001      	movs	r1, r0
    9b9a:	6818      	ldr	r0, [r3, #0]
    9b9c:	f000 f84e 	bl	9c3c <_malloc_r>
    9ba0:	bd10      	pop	{r4, pc}
    9ba2:	46c0      	nop			; (mov r8, r8)
    9ba4:	20000078 	.word	0x20000078

00009ba8 <_free_r>:
    9ba8:	b570      	push	{r4, r5, r6, lr}
    9baa:	0005      	movs	r5, r0
    9bac:	2900      	cmp	r1, #0
    9bae:	d010      	beq.n	9bd2 <_free_r+0x2a>
    9bb0:	1f0c      	subs	r4, r1, #4
    9bb2:	6823      	ldr	r3, [r4, #0]
    9bb4:	2b00      	cmp	r3, #0
    9bb6:	da00      	bge.n	9bba <_free_r+0x12>
    9bb8:	18e4      	adds	r4, r4, r3
    9bba:	0028      	movs	r0, r5
    9bbc:	f000 fc51 	bl	a462 <__malloc_lock>
    9bc0:	4a1d      	ldr	r2, [pc, #116]	; (9c38 <_free_r+0x90>)
    9bc2:	6813      	ldr	r3, [r2, #0]
    9bc4:	2b00      	cmp	r3, #0
    9bc6:	d105      	bne.n	9bd4 <_free_r+0x2c>
    9bc8:	6063      	str	r3, [r4, #4]
    9bca:	6014      	str	r4, [r2, #0]
    9bcc:	0028      	movs	r0, r5
    9bce:	f000 fc49 	bl	a464 <__malloc_unlock>
    9bd2:	bd70      	pop	{r4, r5, r6, pc}
    9bd4:	42a3      	cmp	r3, r4
    9bd6:	d909      	bls.n	9bec <_free_r+0x44>
    9bd8:	6821      	ldr	r1, [r4, #0]
    9bda:	1860      	adds	r0, r4, r1
    9bdc:	4283      	cmp	r3, r0
    9bde:	d1f3      	bne.n	9bc8 <_free_r+0x20>
    9be0:	6818      	ldr	r0, [r3, #0]
    9be2:	685b      	ldr	r3, [r3, #4]
    9be4:	1841      	adds	r1, r0, r1
    9be6:	6021      	str	r1, [r4, #0]
    9be8:	e7ee      	b.n	9bc8 <_free_r+0x20>
    9bea:	0013      	movs	r3, r2
    9bec:	685a      	ldr	r2, [r3, #4]
    9bee:	2a00      	cmp	r2, #0
    9bf0:	d001      	beq.n	9bf6 <_free_r+0x4e>
    9bf2:	42a2      	cmp	r2, r4
    9bf4:	d9f9      	bls.n	9bea <_free_r+0x42>
    9bf6:	6819      	ldr	r1, [r3, #0]
    9bf8:	1858      	adds	r0, r3, r1
    9bfa:	42a0      	cmp	r0, r4
    9bfc:	d10b      	bne.n	9c16 <_free_r+0x6e>
    9bfe:	6820      	ldr	r0, [r4, #0]
    9c00:	1809      	adds	r1, r1, r0
    9c02:	1858      	adds	r0, r3, r1
    9c04:	6019      	str	r1, [r3, #0]
    9c06:	4282      	cmp	r2, r0
    9c08:	d1e0      	bne.n	9bcc <_free_r+0x24>
    9c0a:	6810      	ldr	r0, [r2, #0]
    9c0c:	6852      	ldr	r2, [r2, #4]
    9c0e:	1841      	adds	r1, r0, r1
    9c10:	6019      	str	r1, [r3, #0]
    9c12:	605a      	str	r2, [r3, #4]
    9c14:	e7da      	b.n	9bcc <_free_r+0x24>
    9c16:	42a0      	cmp	r0, r4
    9c18:	d902      	bls.n	9c20 <_free_r+0x78>
    9c1a:	230c      	movs	r3, #12
    9c1c:	602b      	str	r3, [r5, #0]
    9c1e:	e7d5      	b.n	9bcc <_free_r+0x24>
    9c20:	6821      	ldr	r1, [r4, #0]
    9c22:	1860      	adds	r0, r4, r1
    9c24:	4282      	cmp	r2, r0
    9c26:	d103      	bne.n	9c30 <_free_r+0x88>
    9c28:	6810      	ldr	r0, [r2, #0]
    9c2a:	6852      	ldr	r2, [r2, #4]
    9c2c:	1841      	adds	r1, r0, r1
    9c2e:	6021      	str	r1, [r4, #0]
    9c30:	6062      	str	r2, [r4, #4]
    9c32:	605c      	str	r4, [r3, #4]
    9c34:	e7ca      	b.n	9bcc <_free_r+0x24>
    9c36:	46c0      	nop			; (mov r8, r8)
    9c38:	200003c0 	.word	0x200003c0

00009c3c <_malloc_r>:
    9c3c:	2303      	movs	r3, #3
    9c3e:	b570      	push	{r4, r5, r6, lr}
    9c40:	1ccd      	adds	r5, r1, #3
    9c42:	439d      	bics	r5, r3
    9c44:	3508      	adds	r5, #8
    9c46:	0006      	movs	r6, r0
    9c48:	2d0c      	cmp	r5, #12
    9c4a:	d21e      	bcs.n	9c8a <_malloc_r+0x4e>
    9c4c:	250c      	movs	r5, #12
    9c4e:	42a9      	cmp	r1, r5
    9c50:	d81d      	bhi.n	9c8e <_malloc_r+0x52>
    9c52:	0030      	movs	r0, r6
    9c54:	f000 fc05 	bl	a462 <__malloc_lock>
    9c58:	4a25      	ldr	r2, [pc, #148]	; (9cf0 <_malloc_r+0xb4>)
    9c5a:	6814      	ldr	r4, [r2, #0]
    9c5c:	0021      	movs	r1, r4
    9c5e:	2900      	cmp	r1, #0
    9c60:	d119      	bne.n	9c96 <_malloc_r+0x5a>
    9c62:	4c24      	ldr	r4, [pc, #144]	; (9cf4 <_malloc_r+0xb8>)
    9c64:	6823      	ldr	r3, [r4, #0]
    9c66:	2b00      	cmp	r3, #0
    9c68:	d103      	bne.n	9c72 <_malloc_r+0x36>
    9c6a:	0030      	movs	r0, r6
    9c6c:	f000 fb32 	bl	a2d4 <_sbrk_r>
    9c70:	6020      	str	r0, [r4, #0]
    9c72:	0029      	movs	r1, r5
    9c74:	0030      	movs	r0, r6
    9c76:	f000 fb2d 	bl	a2d4 <_sbrk_r>
    9c7a:	1c43      	adds	r3, r0, #1
    9c7c:	d12c      	bne.n	9cd8 <_malloc_r+0x9c>
    9c7e:	230c      	movs	r3, #12
    9c80:	0030      	movs	r0, r6
    9c82:	6033      	str	r3, [r6, #0]
    9c84:	f000 fbee 	bl	a464 <__malloc_unlock>
    9c88:	e003      	b.n	9c92 <_malloc_r+0x56>
    9c8a:	2d00      	cmp	r5, #0
    9c8c:	dadf      	bge.n	9c4e <_malloc_r+0x12>
    9c8e:	230c      	movs	r3, #12
    9c90:	6033      	str	r3, [r6, #0]
    9c92:	2000      	movs	r0, #0
    9c94:	bd70      	pop	{r4, r5, r6, pc}
    9c96:	680b      	ldr	r3, [r1, #0]
    9c98:	1b5b      	subs	r3, r3, r5
    9c9a:	d41a      	bmi.n	9cd2 <_malloc_r+0x96>
    9c9c:	2b0b      	cmp	r3, #11
    9c9e:	d903      	bls.n	9ca8 <_malloc_r+0x6c>
    9ca0:	600b      	str	r3, [r1, #0]
    9ca2:	18cc      	adds	r4, r1, r3
    9ca4:	6025      	str	r5, [r4, #0]
    9ca6:	e003      	b.n	9cb0 <_malloc_r+0x74>
    9ca8:	428c      	cmp	r4, r1
    9caa:	d10e      	bne.n	9cca <_malloc_r+0x8e>
    9cac:	6863      	ldr	r3, [r4, #4]
    9cae:	6013      	str	r3, [r2, #0]
    9cb0:	0030      	movs	r0, r6
    9cb2:	f000 fbd7 	bl	a464 <__malloc_unlock>
    9cb6:	0020      	movs	r0, r4
    9cb8:	2207      	movs	r2, #7
    9cba:	300b      	adds	r0, #11
    9cbc:	1d23      	adds	r3, r4, #4
    9cbe:	4390      	bics	r0, r2
    9cc0:	1ac3      	subs	r3, r0, r3
    9cc2:	d0e7      	beq.n	9c94 <_malloc_r+0x58>
    9cc4:	425a      	negs	r2, r3
    9cc6:	50e2      	str	r2, [r4, r3]
    9cc8:	e7e4      	b.n	9c94 <_malloc_r+0x58>
    9cca:	684b      	ldr	r3, [r1, #4]
    9ccc:	6063      	str	r3, [r4, #4]
    9cce:	000c      	movs	r4, r1
    9cd0:	e7ee      	b.n	9cb0 <_malloc_r+0x74>
    9cd2:	000c      	movs	r4, r1
    9cd4:	6849      	ldr	r1, [r1, #4]
    9cd6:	e7c2      	b.n	9c5e <_malloc_r+0x22>
    9cd8:	2303      	movs	r3, #3
    9cda:	1cc4      	adds	r4, r0, #3
    9cdc:	439c      	bics	r4, r3
    9cde:	42a0      	cmp	r0, r4
    9ce0:	d0e0      	beq.n	9ca4 <_malloc_r+0x68>
    9ce2:	1a21      	subs	r1, r4, r0
    9ce4:	0030      	movs	r0, r6
    9ce6:	f000 faf5 	bl	a2d4 <_sbrk_r>
    9cea:	1c43      	adds	r3, r0, #1
    9cec:	d1da      	bne.n	9ca4 <_malloc_r+0x68>
    9cee:	e7c6      	b.n	9c7e <_malloc_r+0x42>
    9cf0:	200003c0 	.word	0x200003c0
    9cf4:	200003c4 	.word	0x200003c4

00009cf8 <__ssputs_r>:
    9cf8:	b5f0      	push	{r4, r5, r6, r7, lr}
    9cfa:	688e      	ldr	r6, [r1, #8]
    9cfc:	b085      	sub	sp, #20
    9cfe:	0007      	movs	r7, r0
    9d00:	000c      	movs	r4, r1
    9d02:	9203      	str	r2, [sp, #12]
    9d04:	9301      	str	r3, [sp, #4]
    9d06:	429e      	cmp	r6, r3
    9d08:	d839      	bhi.n	9d7e <__ssputs_r+0x86>
    9d0a:	2390      	movs	r3, #144	; 0x90
    9d0c:	898a      	ldrh	r2, [r1, #12]
    9d0e:	00db      	lsls	r3, r3, #3
    9d10:	421a      	tst	r2, r3
    9d12:	d034      	beq.n	9d7e <__ssputs_r+0x86>
    9d14:	2503      	movs	r5, #3
    9d16:	6909      	ldr	r1, [r1, #16]
    9d18:	6823      	ldr	r3, [r4, #0]
    9d1a:	1a5b      	subs	r3, r3, r1
    9d1c:	9302      	str	r3, [sp, #8]
    9d1e:	6963      	ldr	r3, [r4, #20]
    9d20:	9802      	ldr	r0, [sp, #8]
    9d22:	435d      	muls	r5, r3
    9d24:	0feb      	lsrs	r3, r5, #31
    9d26:	195d      	adds	r5, r3, r5
    9d28:	9b01      	ldr	r3, [sp, #4]
    9d2a:	106d      	asrs	r5, r5, #1
    9d2c:	3301      	adds	r3, #1
    9d2e:	181b      	adds	r3, r3, r0
    9d30:	42ab      	cmp	r3, r5
    9d32:	d900      	bls.n	9d36 <__ssputs_r+0x3e>
    9d34:	001d      	movs	r5, r3
    9d36:	0553      	lsls	r3, r2, #21
    9d38:	d532      	bpl.n	9da0 <__ssputs_r+0xa8>
    9d3a:	0029      	movs	r1, r5
    9d3c:	0038      	movs	r0, r7
    9d3e:	f7ff ff7d 	bl	9c3c <_malloc_r>
    9d42:	1e06      	subs	r6, r0, #0
    9d44:	d109      	bne.n	9d5a <__ssputs_r+0x62>
    9d46:	230c      	movs	r3, #12
    9d48:	603b      	str	r3, [r7, #0]
    9d4a:	2340      	movs	r3, #64	; 0x40
    9d4c:	2001      	movs	r0, #1
    9d4e:	89a2      	ldrh	r2, [r4, #12]
    9d50:	4240      	negs	r0, r0
    9d52:	4313      	orrs	r3, r2
    9d54:	81a3      	strh	r3, [r4, #12]
    9d56:	b005      	add	sp, #20
    9d58:	bdf0      	pop	{r4, r5, r6, r7, pc}
    9d5a:	9a02      	ldr	r2, [sp, #8]
    9d5c:	6921      	ldr	r1, [r4, #16]
    9d5e:	f7ff fc3e 	bl	95de <memcpy>
    9d62:	89a3      	ldrh	r3, [r4, #12]
    9d64:	4a14      	ldr	r2, [pc, #80]	; (9db8 <__ssputs_r+0xc0>)
    9d66:	401a      	ands	r2, r3
    9d68:	2380      	movs	r3, #128	; 0x80
    9d6a:	4313      	orrs	r3, r2
    9d6c:	81a3      	strh	r3, [r4, #12]
    9d6e:	9b02      	ldr	r3, [sp, #8]
    9d70:	6126      	str	r6, [r4, #16]
    9d72:	18f6      	adds	r6, r6, r3
    9d74:	6026      	str	r6, [r4, #0]
    9d76:	6165      	str	r5, [r4, #20]
    9d78:	9e01      	ldr	r6, [sp, #4]
    9d7a:	1aed      	subs	r5, r5, r3
    9d7c:	60a5      	str	r5, [r4, #8]
    9d7e:	9b01      	ldr	r3, [sp, #4]
    9d80:	42b3      	cmp	r3, r6
    9d82:	d200      	bcs.n	9d86 <__ssputs_r+0x8e>
    9d84:	001e      	movs	r6, r3
    9d86:	0032      	movs	r2, r6
    9d88:	9903      	ldr	r1, [sp, #12]
    9d8a:	6820      	ldr	r0, [r4, #0]
    9d8c:	f000 fb57 	bl	a43e <memmove>
    9d90:	68a3      	ldr	r3, [r4, #8]
    9d92:	2000      	movs	r0, #0
    9d94:	1b9b      	subs	r3, r3, r6
    9d96:	60a3      	str	r3, [r4, #8]
    9d98:	6823      	ldr	r3, [r4, #0]
    9d9a:	199e      	adds	r6, r3, r6
    9d9c:	6026      	str	r6, [r4, #0]
    9d9e:	e7da      	b.n	9d56 <__ssputs_r+0x5e>
    9da0:	002a      	movs	r2, r5
    9da2:	0038      	movs	r0, r7
    9da4:	f000 fb5f 	bl	a466 <_realloc_r>
    9da8:	1e06      	subs	r6, r0, #0
    9daa:	d1e0      	bne.n	9d6e <__ssputs_r+0x76>
    9dac:	6921      	ldr	r1, [r4, #16]
    9dae:	0038      	movs	r0, r7
    9db0:	f7ff fefa 	bl	9ba8 <_free_r>
    9db4:	e7c7      	b.n	9d46 <__ssputs_r+0x4e>
    9db6:	46c0      	nop			; (mov r8, r8)
    9db8:	fffffb7f 	.word	0xfffffb7f

00009dbc <_svfiprintf_r>:
    9dbc:	b5f0      	push	{r4, r5, r6, r7, lr}
    9dbe:	b09f      	sub	sp, #124	; 0x7c
    9dc0:	9002      	str	r0, [sp, #8]
    9dc2:	9305      	str	r3, [sp, #20]
    9dc4:	898b      	ldrh	r3, [r1, #12]
    9dc6:	000f      	movs	r7, r1
    9dc8:	0016      	movs	r6, r2
    9dca:	061b      	lsls	r3, r3, #24
    9dcc:	d511      	bpl.n	9df2 <_svfiprintf_r+0x36>
    9dce:	690b      	ldr	r3, [r1, #16]
    9dd0:	2b00      	cmp	r3, #0
    9dd2:	d10e      	bne.n	9df2 <_svfiprintf_r+0x36>
    9dd4:	2140      	movs	r1, #64	; 0x40
    9dd6:	f7ff ff31 	bl	9c3c <_malloc_r>
    9dda:	6038      	str	r0, [r7, #0]
    9ddc:	6138      	str	r0, [r7, #16]
    9dde:	2800      	cmp	r0, #0
    9de0:	d105      	bne.n	9dee <_svfiprintf_r+0x32>
    9de2:	230c      	movs	r3, #12
    9de4:	9a02      	ldr	r2, [sp, #8]
    9de6:	3801      	subs	r0, #1
    9de8:	6013      	str	r3, [r2, #0]
    9dea:	b01f      	add	sp, #124	; 0x7c
    9dec:	bdf0      	pop	{r4, r5, r6, r7, pc}
    9dee:	2340      	movs	r3, #64	; 0x40
    9df0:	617b      	str	r3, [r7, #20]
    9df2:	2300      	movs	r3, #0
    9df4:	ad06      	add	r5, sp, #24
    9df6:	616b      	str	r3, [r5, #20]
    9df8:	3320      	adds	r3, #32
    9dfa:	766b      	strb	r3, [r5, #25]
    9dfc:	3310      	adds	r3, #16
    9dfe:	76ab      	strb	r3, [r5, #26]
    9e00:	0034      	movs	r4, r6
    9e02:	7823      	ldrb	r3, [r4, #0]
    9e04:	2b00      	cmp	r3, #0
    9e06:	d147      	bne.n	9e98 <_svfiprintf_r+0xdc>
    9e08:	1ba3      	subs	r3, r4, r6
    9e0a:	9304      	str	r3, [sp, #16]
    9e0c:	d00d      	beq.n	9e2a <_svfiprintf_r+0x6e>
    9e0e:	1ba3      	subs	r3, r4, r6
    9e10:	0032      	movs	r2, r6
    9e12:	0039      	movs	r1, r7
    9e14:	9802      	ldr	r0, [sp, #8]
    9e16:	f7ff ff6f 	bl	9cf8 <__ssputs_r>
    9e1a:	1c43      	adds	r3, r0, #1
    9e1c:	d100      	bne.n	9e20 <_svfiprintf_r+0x64>
    9e1e:	e0b5      	b.n	9f8c <_svfiprintf_r+0x1d0>
    9e20:	696a      	ldr	r2, [r5, #20]
    9e22:	9b04      	ldr	r3, [sp, #16]
    9e24:	4694      	mov	ip, r2
    9e26:	4463      	add	r3, ip
    9e28:	616b      	str	r3, [r5, #20]
    9e2a:	7823      	ldrb	r3, [r4, #0]
    9e2c:	2b00      	cmp	r3, #0
    9e2e:	d100      	bne.n	9e32 <_svfiprintf_r+0x76>
    9e30:	e0ac      	b.n	9f8c <_svfiprintf_r+0x1d0>
    9e32:	2201      	movs	r2, #1
    9e34:	2300      	movs	r3, #0
    9e36:	4252      	negs	r2, r2
    9e38:	606a      	str	r2, [r5, #4]
    9e3a:	a902      	add	r1, sp, #8
    9e3c:	3254      	adds	r2, #84	; 0x54
    9e3e:	1852      	adds	r2, r2, r1
    9e40:	3401      	adds	r4, #1
    9e42:	602b      	str	r3, [r5, #0]
    9e44:	60eb      	str	r3, [r5, #12]
    9e46:	60ab      	str	r3, [r5, #8]
    9e48:	7013      	strb	r3, [r2, #0]
    9e4a:	65ab      	str	r3, [r5, #88]	; 0x58
    9e4c:	4e58      	ldr	r6, [pc, #352]	; (9fb0 <_svfiprintf_r+0x1f4>)
    9e4e:	2205      	movs	r2, #5
    9e50:	7821      	ldrb	r1, [r4, #0]
    9e52:	0030      	movs	r0, r6
    9e54:	f000 fae8 	bl	a428 <memchr>
    9e58:	1c62      	adds	r2, r4, #1
    9e5a:	2800      	cmp	r0, #0
    9e5c:	d120      	bne.n	9ea0 <_svfiprintf_r+0xe4>
    9e5e:	6829      	ldr	r1, [r5, #0]
    9e60:	06cb      	lsls	r3, r1, #27
    9e62:	d504      	bpl.n	9e6e <_svfiprintf_r+0xb2>
    9e64:	2353      	movs	r3, #83	; 0x53
    9e66:	ae02      	add	r6, sp, #8
    9e68:	3020      	adds	r0, #32
    9e6a:	199b      	adds	r3, r3, r6
    9e6c:	7018      	strb	r0, [r3, #0]
    9e6e:	070b      	lsls	r3, r1, #28
    9e70:	d504      	bpl.n	9e7c <_svfiprintf_r+0xc0>
    9e72:	2353      	movs	r3, #83	; 0x53
    9e74:	202b      	movs	r0, #43	; 0x2b
    9e76:	ae02      	add	r6, sp, #8
    9e78:	199b      	adds	r3, r3, r6
    9e7a:	7018      	strb	r0, [r3, #0]
    9e7c:	7823      	ldrb	r3, [r4, #0]
    9e7e:	2b2a      	cmp	r3, #42	; 0x2a
    9e80:	d016      	beq.n	9eb0 <_svfiprintf_r+0xf4>
    9e82:	2000      	movs	r0, #0
    9e84:	210a      	movs	r1, #10
    9e86:	9b09      	ldr	r3, [sp, #36]	; 0x24
    9e88:	7822      	ldrb	r2, [r4, #0]
    9e8a:	3a30      	subs	r2, #48	; 0x30
    9e8c:	2a09      	cmp	r2, #9
    9e8e:	d955      	bls.n	9f3c <_svfiprintf_r+0x180>
    9e90:	2800      	cmp	r0, #0
    9e92:	d015      	beq.n	9ec0 <_svfiprintf_r+0x104>
    9e94:	9309      	str	r3, [sp, #36]	; 0x24
    9e96:	e013      	b.n	9ec0 <_svfiprintf_r+0x104>
    9e98:	2b25      	cmp	r3, #37	; 0x25
    9e9a:	d0b5      	beq.n	9e08 <_svfiprintf_r+0x4c>
    9e9c:	3401      	adds	r4, #1
    9e9e:	e7b0      	b.n	9e02 <_svfiprintf_r+0x46>
    9ea0:	2301      	movs	r3, #1
    9ea2:	1b80      	subs	r0, r0, r6
    9ea4:	4083      	lsls	r3, r0
    9ea6:	6829      	ldr	r1, [r5, #0]
    9ea8:	0014      	movs	r4, r2
    9eaa:	430b      	orrs	r3, r1
    9eac:	602b      	str	r3, [r5, #0]
    9eae:	e7cd      	b.n	9e4c <_svfiprintf_r+0x90>
    9eb0:	9b05      	ldr	r3, [sp, #20]
    9eb2:	1d18      	adds	r0, r3, #4
    9eb4:	681b      	ldr	r3, [r3, #0]
    9eb6:	9005      	str	r0, [sp, #20]
    9eb8:	2b00      	cmp	r3, #0
    9eba:	db39      	blt.n	9f30 <_svfiprintf_r+0x174>
    9ebc:	9309      	str	r3, [sp, #36]	; 0x24
    9ebe:	0014      	movs	r4, r2
    9ec0:	7823      	ldrb	r3, [r4, #0]
    9ec2:	2b2e      	cmp	r3, #46	; 0x2e
    9ec4:	d10b      	bne.n	9ede <_svfiprintf_r+0x122>
    9ec6:	7863      	ldrb	r3, [r4, #1]
    9ec8:	1c62      	adds	r2, r4, #1
    9eca:	2b2a      	cmp	r3, #42	; 0x2a
    9ecc:	d13e      	bne.n	9f4c <_svfiprintf_r+0x190>
    9ece:	9b05      	ldr	r3, [sp, #20]
    9ed0:	3402      	adds	r4, #2
    9ed2:	1d1a      	adds	r2, r3, #4
    9ed4:	681b      	ldr	r3, [r3, #0]
    9ed6:	9205      	str	r2, [sp, #20]
    9ed8:	2b00      	cmp	r3, #0
    9eda:	db34      	blt.n	9f46 <_svfiprintf_r+0x18a>
    9edc:	9307      	str	r3, [sp, #28]
    9ede:	4e35      	ldr	r6, [pc, #212]	; (9fb4 <_svfiprintf_r+0x1f8>)
    9ee0:	7821      	ldrb	r1, [r4, #0]
    9ee2:	2203      	movs	r2, #3
    9ee4:	0030      	movs	r0, r6
    9ee6:	f000 fa9f 	bl	a428 <memchr>
    9eea:	2800      	cmp	r0, #0
    9eec:	d006      	beq.n	9efc <_svfiprintf_r+0x140>
    9eee:	2340      	movs	r3, #64	; 0x40
    9ef0:	1b80      	subs	r0, r0, r6
    9ef2:	4083      	lsls	r3, r0
    9ef4:	682a      	ldr	r2, [r5, #0]
    9ef6:	3401      	adds	r4, #1
    9ef8:	4313      	orrs	r3, r2
    9efa:	602b      	str	r3, [r5, #0]
    9efc:	7821      	ldrb	r1, [r4, #0]
    9efe:	2206      	movs	r2, #6
    9f00:	482d      	ldr	r0, [pc, #180]	; (9fb8 <_svfiprintf_r+0x1fc>)
    9f02:	1c66      	adds	r6, r4, #1
    9f04:	7629      	strb	r1, [r5, #24]
    9f06:	f000 fa8f 	bl	a428 <memchr>
    9f0a:	2800      	cmp	r0, #0
    9f0c:	d046      	beq.n	9f9c <_svfiprintf_r+0x1e0>
    9f0e:	4b2b      	ldr	r3, [pc, #172]	; (9fbc <_svfiprintf_r+0x200>)
    9f10:	2b00      	cmp	r3, #0
    9f12:	d12f      	bne.n	9f74 <_svfiprintf_r+0x1b8>
    9f14:	6829      	ldr	r1, [r5, #0]
    9f16:	9b05      	ldr	r3, [sp, #20]
    9f18:	2207      	movs	r2, #7
    9f1a:	05c9      	lsls	r1, r1, #23
    9f1c:	d528      	bpl.n	9f70 <_svfiprintf_r+0x1b4>
    9f1e:	189b      	adds	r3, r3, r2
    9f20:	4393      	bics	r3, r2
    9f22:	3308      	adds	r3, #8
    9f24:	9305      	str	r3, [sp, #20]
    9f26:	696b      	ldr	r3, [r5, #20]
    9f28:	9a03      	ldr	r2, [sp, #12]
    9f2a:	189b      	adds	r3, r3, r2
    9f2c:	616b      	str	r3, [r5, #20]
    9f2e:	e767      	b.n	9e00 <_svfiprintf_r+0x44>
    9f30:	425b      	negs	r3, r3
    9f32:	60eb      	str	r3, [r5, #12]
    9f34:	2302      	movs	r3, #2
    9f36:	430b      	orrs	r3, r1
    9f38:	602b      	str	r3, [r5, #0]
    9f3a:	e7c0      	b.n	9ebe <_svfiprintf_r+0x102>
    9f3c:	434b      	muls	r3, r1
    9f3e:	3401      	adds	r4, #1
    9f40:	189b      	adds	r3, r3, r2
    9f42:	2001      	movs	r0, #1
    9f44:	e7a0      	b.n	9e88 <_svfiprintf_r+0xcc>
    9f46:	2301      	movs	r3, #1
    9f48:	425b      	negs	r3, r3
    9f4a:	e7c7      	b.n	9edc <_svfiprintf_r+0x120>
    9f4c:	2300      	movs	r3, #0
    9f4e:	0014      	movs	r4, r2
    9f50:	200a      	movs	r0, #10
    9f52:	001a      	movs	r2, r3
    9f54:	606b      	str	r3, [r5, #4]
    9f56:	7821      	ldrb	r1, [r4, #0]
    9f58:	3930      	subs	r1, #48	; 0x30
    9f5a:	2909      	cmp	r1, #9
    9f5c:	d903      	bls.n	9f66 <_svfiprintf_r+0x1aa>
    9f5e:	2b00      	cmp	r3, #0
    9f60:	d0bd      	beq.n	9ede <_svfiprintf_r+0x122>
    9f62:	9207      	str	r2, [sp, #28]
    9f64:	e7bb      	b.n	9ede <_svfiprintf_r+0x122>
    9f66:	4342      	muls	r2, r0
    9f68:	3401      	adds	r4, #1
    9f6a:	1852      	adds	r2, r2, r1
    9f6c:	2301      	movs	r3, #1
    9f6e:	e7f2      	b.n	9f56 <_svfiprintf_r+0x19a>
    9f70:	3307      	adds	r3, #7
    9f72:	e7d5      	b.n	9f20 <_svfiprintf_r+0x164>
    9f74:	ab05      	add	r3, sp, #20
    9f76:	9300      	str	r3, [sp, #0]
    9f78:	003a      	movs	r2, r7
    9f7a:	4b11      	ldr	r3, [pc, #68]	; (9fc0 <_svfiprintf_r+0x204>)
    9f7c:	0029      	movs	r1, r5
    9f7e:	9802      	ldr	r0, [sp, #8]
    9f80:	e000      	b.n	9f84 <_svfiprintf_r+0x1c8>
    9f82:	bf00      	nop
    9f84:	9003      	str	r0, [sp, #12]
    9f86:	9b03      	ldr	r3, [sp, #12]
    9f88:	3301      	adds	r3, #1
    9f8a:	d1cc      	bne.n	9f26 <_svfiprintf_r+0x16a>
    9f8c:	89bb      	ldrh	r3, [r7, #12]
    9f8e:	980b      	ldr	r0, [sp, #44]	; 0x2c
    9f90:	065b      	lsls	r3, r3, #25
    9f92:	d400      	bmi.n	9f96 <_svfiprintf_r+0x1da>
    9f94:	e729      	b.n	9dea <_svfiprintf_r+0x2e>
    9f96:	2001      	movs	r0, #1
    9f98:	4240      	negs	r0, r0
    9f9a:	e726      	b.n	9dea <_svfiprintf_r+0x2e>
    9f9c:	ab05      	add	r3, sp, #20
    9f9e:	9300      	str	r3, [sp, #0]
    9fa0:	003a      	movs	r2, r7
    9fa2:	4b07      	ldr	r3, [pc, #28]	; (9fc0 <_svfiprintf_r+0x204>)
    9fa4:	0029      	movs	r1, r5
    9fa6:	9802      	ldr	r0, [sp, #8]
    9fa8:	f000 f87a 	bl	a0a0 <_printf_i>
    9fac:	e7ea      	b.n	9f84 <_svfiprintf_r+0x1c8>
    9fae:	46c0      	nop			; (mov r8, r8)
    9fb0:	0000a5d8 	.word	0x0000a5d8
    9fb4:	0000a5de 	.word	0x0000a5de
    9fb8:	0000a5e2 	.word	0x0000a5e2
    9fbc:	00000000 	.word	0x00000000
    9fc0:	00009cf9 	.word	0x00009cf9

00009fc4 <_printf_common>:
    9fc4:	b5f7      	push	{r0, r1, r2, r4, r5, r6, r7, lr}
    9fc6:	0015      	movs	r5, r2
    9fc8:	9301      	str	r3, [sp, #4]
    9fca:	688a      	ldr	r2, [r1, #8]
    9fcc:	690b      	ldr	r3, [r1, #16]
    9fce:	9000      	str	r0, [sp, #0]
    9fd0:	000c      	movs	r4, r1
    9fd2:	4293      	cmp	r3, r2
    9fd4:	da00      	bge.n	9fd8 <_printf_common+0x14>
    9fd6:	0013      	movs	r3, r2
    9fd8:	0022      	movs	r2, r4
    9fda:	602b      	str	r3, [r5, #0]
    9fdc:	3243      	adds	r2, #67	; 0x43
    9fde:	7812      	ldrb	r2, [r2, #0]
    9fe0:	2a00      	cmp	r2, #0
    9fe2:	d001      	beq.n	9fe8 <_printf_common+0x24>
    9fe4:	3301      	adds	r3, #1
    9fe6:	602b      	str	r3, [r5, #0]
    9fe8:	6823      	ldr	r3, [r4, #0]
    9fea:	069b      	lsls	r3, r3, #26
    9fec:	d502      	bpl.n	9ff4 <_printf_common+0x30>
    9fee:	682b      	ldr	r3, [r5, #0]
    9ff0:	3302      	adds	r3, #2
    9ff2:	602b      	str	r3, [r5, #0]
    9ff4:	2706      	movs	r7, #6
    9ff6:	6823      	ldr	r3, [r4, #0]
    9ff8:	401f      	ands	r7, r3
    9ffa:	d027      	beq.n	a04c <_printf_common+0x88>
    9ffc:	0023      	movs	r3, r4
    9ffe:	3343      	adds	r3, #67	; 0x43
    a000:	781b      	ldrb	r3, [r3, #0]
    a002:	1e5a      	subs	r2, r3, #1
    a004:	4193      	sbcs	r3, r2
    a006:	6822      	ldr	r2, [r4, #0]
    a008:	0692      	lsls	r2, r2, #26
    a00a:	d430      	bmi.n	a06e <_printf_common+0xaa>
    a00c:	0022      	movs	r2, r4
    a00e:	9901      	ldr	r1, [sp, #4]
    a010:	3243      	adds	r2, #67	; 0x43
    a012:	9800      	ldr	r0, [sp, #0]
    a014:	9e08      	ldr	r6, [sp, #32]
    a016:	47b0      	blx	r6
    a018:	1c43      	adds	r3, r0, #1
    a01a:	d025      	beq.n	a068 <_printf_common+0xa4>
    a01c:	2306      	movs	r3, #6
    a01e:	6820      	ldr	r0, [r4, #0]
    a020:	682a      	ldr	r2, [r5, #0]
    a022:	68e1      	ldr	r1, [r4, #12]
    a024:	4003      	ands	r3, r0
    a026:	2500      	movs	r5, #0
    a028:	2b04      	cmp	r3, #4
    a02a:	d103      	bne.n	a034 <_printf_common+0x70>
    a02c:	1a8d      	subs	r5, r1, r2
    a02e:	43eb      	mvns	r3, r5
    a030:	17db      	asrs	r3, r3, #31
    a032:	401d      	ands	r5, r3
    a034:	68a3      	ldr	r3, [r4, #8]
    a036:	6922      	ldr	r2, [r4, #16]
    a038:	4293      	cmp	r3, r2
    a03a:	dd01      	ble.n	a040 <_printf_common+0x7c>
    a03c:	1a9b      	subs	r3, r3, r2
    a03e:	18ed      	adds	r5, r5, r3
    a040:	2700      	movs	r7, #0
    a042:	42bd      	cmp	r5, r7
    a044:	d120      	bne.n	a088 <_printf_common+0xc4>
    a046:	2000      	movs	r0, #0
    a048:	e010      	b.n	a06c <_printf_common+0xa8>
    a04a:	3701      	adds	r7, #1
    a04c:	68e3      	ldr	r3, [r4, #12]
    a04e:	682a      	ldr	r2, [r5, #0]
    a050:	1a9b      	subs	r3, r3, r2
    a052:	429f      	cmp	r7, r3
    a054:	dad2      	bge.n	9ffc <_printf_common+0x38>
    a056:	0022      	movs	r2, r4
    a058:	2301      	movs	r3, #1
    a05a:	3219      	adds	r2, #25
    a05c:	9901      	ldr	r1, [sp, #4]
    a05e:	9800      	ldr	r0, [sp, #0]
    a060:	9e08      	ldr	r6, [sp, #32]
    a062:	47b0      	blx	r6
    a064:	1c43      	adds	r3, r0, #1
    a066:	d1f0      	bne.n	a04a <_printf_common+0x86>
    a068:	2001      	movs	r0, #1
    a06a:	4240      	negs	r0, r0
    a06c:	bdfe      	pop	{r1, r2, r3, r4, r5, r6, r7, pc}
    a06e:	2030      	movs	r0, #48	; 0x30
    a070:	18e1      	adds	r1, r4, r3
    a072:	3143      	adds	r1, #67	; 0x43
    a074:	7008      	strb	r0, [r1, #0]
    a076:	0021      	movs	r1, r4
    a078:	1c5a      	adds	r2, r3, #1
    a07a:	3145      	adds	r1, #69	; 0x45
    a07c:	7809      	ldrb	r1, [r1, #0]
    a07e:	18a2      	adds	r2, r4, r2
    a080:	3243      	adds	r2, #67	; 0x43
    a082:	3302      	adds	r3, #2
    a084:	7011      	strb	r1, [r2, #0]
    a086:	e7c1      	b.n	a00c <_printf_common+0x48>
    a088:	0022      	movs	r2, r4
    a08a:	2301      	movs	r3, #1
    a08c:	321a      	adds	r2, #26
    a08e:	9901      	ldr	r1, [sp, #4]
    a090:	9800      	ldr	r0, [sp, #0]
    a092:	9e08      	ldr	r6, [sp, #32]
    a094:	47b0      	blx	r6
    a096:	1c43      	adds	r3, r0, #1
    a098:	d0e6      	beq.n	a068 <_printf_common+0xa4>
    a09a:	3701      	adds	r7, #1
    a09c:	e7d1      	b.n	a042 <_printf_common+0x7e>
	...

0000a0a0 <_printf_i>:
    a0a0:	b5f0      	push	{r4, r5, r6, r7, lr}
    a0a2:	b08b      	sub	sp, #44	; 0x2c
    a0a4:	9206      	str	r2, [sp, #24]
    a0a6:	000a      	movs	r2, r1
    a0a8:	3243      	adds	r2, #67	; 0x43
    a0aa:	9307      	str	r3, [sp, #28]
    a0ac:	9005      	str	r0, [sp, #20]
    a0ae:	9204      	str	r2, [sp, #16]
    a0b0:	7e0a      	ldrb	r2, [r1, #24]
    a0b2:	000c      	movs	r4, r1
    a0b4:	9b10      	ldr	r3, [sp, #64]	; 0x40
    a0b6:	2a6e      	cmp	r2, #110	; 0x6e
    a0b8:	d100      	bne.n	a0bc <_printf_i+0x1c>
    a0ba:	e08f      	b.n	a1dc <_printf_i+0x13c>
    a0bc:	d817      	bhi.n	a0ee <_printf_i+0x4e>
    a0be:	2a63      	cmp	r2, #99	; 0x63
    a0c0:	d02c      	beq.n	a11c <_printf_i+0x7c>
    a0c2:	d808      	bhi.n	a0d6 <_printf_i+0x36>
    a0c4:	2a00      	cmp	r2, #0
    a0c6:	d100      	bne.n	a0ca <_printf_i+0x2a>
    a0c8:	e099      	b.n	a1fe <_printf_i+0x15e>
    a0ca:	2a58      	cmp	r2, #88	; 0x58
    a0cc:	d054      	beq.n	a178 <_printf_i+0xd8>
    a0ce:	0026      	movs	r6, r4
    a0d0:	3642      	adds	r6, #66	; 0x42
    a0d2:	7032      	strb	r2, [r6, #0]
    a0d4:	e029      	b.n	a12a <_printf_i+0x8a>
    a0d6:	2a64      	cmp	r2, #100	; 0x64
    a0d8:	d001      	beq.n	a0de <_printf_i+0x3e>
    a0da:	2a69      	cmp	r2, #105	; 0x69
    a0dc:	d1f7      	bne.n	a0ce <_printf_i+0x2e>
    a0de:	6821      	ldr	r1, [r4, #0]
    a0e0:	681a      	ldr	r2, [r3, #0]
    a0e2:	0608      	lsls	r0, r1, #24
    a0e4:	d523      	bpl.n	a12e <_printf_i+0x8e>
    a0e6:	1d11      	adds	r1, r2, #4
    a0e8:	6019      	str	r1, [r3, #0]
    a0ea:	6815      	ldr	r5, [r2, #0]
    a0ec:	e025      	b.n	a13a <_printf_i+0x9a>
    a0ee:	2a73      	cmp	r2, #115	; 0x73
    a0f0:	d100      	bne.n	a0f4 <_printf_i+0x54>
    a0f2:	e088      	b.n	a206 <_printf_i+0x166>
    a0f4:	d808      	bhi.n	a108 <_printf_i+0x68>
    a0f6:	2a6f      	cmp	r2, #111	; 0x6f
    a0f8:	d029      	beq.n	a14e <_printf_i+0xae>
    a0fa:	2a70      	cmp	r2, #112	; 0x70
    a0fc:	d1e7      	bne.n	a0ce <_printf_i+0x2e>
    a0fe:	2220      	movs	r2, #32
    a100:	6809      	ldr	r1, [r1, #0]
    a102:	430a      	orrs	r2, r1
    a104:	6022      	str	r2, [r4, #0]
    a106:	e003      	b.n	a110 <_printf_i+0x70>
    a108:	2a75      	cmp	r2, #117	; 0x75
    a10a:	d020      	beq.n	a14e <_printf_i+0xae>
    a10c:	2a78      	cmp	r2, #120	; 0x78
    a10e:	d1de      	bne.n	a0ce <_printf_i+0x2e>
    a110:	0022      	movs	r2, r4
    a112:	2178      	movs	r1, #120	; 0x78
    a114:	3245      	adds	r2, #69	; 0x45
    a116:	7011      	strb	r1, [r2, #0]
    a118:	4a6c      	ldr	r2, [pc, #432]	; (a2cc <_printf_i+0x22c>)
    a11a:	e030      	b.n	a17e <_printf_i+0xde>
    a11c:	000e      	movs	r6, r1
    a11e:	681a      	ldr	r2, [r3, #0]
    a120:	3642      	adds	r6, #66	; 0x42
    a122:	1d11      	adds	r1, r2, #4
    a124:	6019      	str	r1, [r3, #0]
    a126:	6813      	ldr	r3, [r2, #0]
    a128:	7033      	strb	r3, [r6, #0]
    a12a:	2301      	movs	r3, #1
    a12c:	e079      	b.n	a222 <_printf_i+0x182>
    a12e:	0649      	lsls	r1, r1, #25
    a130:	d5d9      	bpl.n	a0e6 <_printf_i+0x46>
    a132:	1d11      	adds	r1, r2, #4
    a134:	6019      	str	r1, [r3, #0]
    a136:	2300      	movs	r3, #0
    a138:	5ed5      	ldrsh	r5, [r2, r3]
    a13a:	2d00      	cmp	r5, #0
    a13c:	da03      	bge.n	a146 <_printf_i+0xa6>
    a13e:	232d      	movs	r3, #45	; 0x2d
    a140:	9a04      	ldr	r2, [sp, #16]
    a142:	426d      	negs	r5, r5
    a144:	7013      	strb	r3, [r2, #0]
    a146:	4b62      	ldr	r3, [pc, #392]	; (a2d0 <_printf_i+0x230>)
    a148:	270a      	movs	r7, #10
    a14a:	9303      	str	r3, [sp, #12]
    a14c:	e02f      	b.n	a1ae <_printf_i+0x10e>
    a14e:	6820      	ldr	r0, [r4, #0]
    a150:	6819      	ldr	r1, [r3, #0]
    a152:	0605      	lsls	r5, r0, #24
    a154:	d503      	bpl.n	a15e <_printf_i+0xbe>
    a156:	1d08      	adds	r0, r1, #4
    a158:	6018      	str	r0, [r3, #0]
    a15a:	680d      	ldr	r5, [r1, #0]
    a15c:	e005      	b.n	a16a <_printf_i+0xca>
    a15e:	0640      	lsls	r0, r0, #25
    a160:	d5f9      	bpl.n	a156 <_printf_i+0xb6>
    a162:	680d      	ldr	r5, [r1, #0]
    a164:	1d08      	adds	r0, r1, #4
    a166:	6018      	str	r0, [r3, #0]
    a168:	b2ad      	uxth	r5, r5
    a16a:	4b59      	ldr	r3, [pc, #356]	; (a2d0 <_printf_i+0x230>)
    a16c:	2708      	movs	r7, #8
    a16e:	9303      	str	r3, [sp, #12]
    a170:	2a6f      	cmp	r2, #111	; 0x6f
    a172:	d018      	beq.n	a1a6 <_printf_i+0x106>
    a174:	270a      	movs	r7, #10
    a176:	e016      	b.n	a1a6 <_printf_i+0x106>
    a178:	3145      	adds	r1, #69	; 0x45
    a17a:	700a      	strb	r2, [r1, #0]
    a17c:	4a54      	ldr	r2, [pc, #336]	; (a2d0 <_printf_i+0x230>)
    a17e:	9203      	str	r2, [sp, #12]
    a180:	681a      	ldr	r2, [r3, #0]
    a182:	6821      	ldr	r1, [r4, #0]
    a184:	1d10      	adds	r0, r2, #4
    a186:	6018      	str	r0, [r3, #0]
    a188:	6815      	ldr	r5, [r2, #0]
    a18a:	0608      	lsls	r0, r1, #24
    a18c:	d522      	bpl.n	a1d4 <_printf_i+0x134>
    a18e:	07cb      	lsls	r3, r1, #31
    a190:	d502      	bpl.n	a198 <_printf_i+0xf8>
    a192:	2320      	movs	r3, #32
    a194:	4319      	orrs	r1, r3
    a196:	6021      	str	r1, [r4, #0]
    a198:	2710      	movs	r7, #16
    a19a:	2d00      	cmp	r5, #0
    a19c:	d103      	bne.n	a1a6 <_printf_i+0x106>
    a19e:	2320      	movs	r3, #32
    a1a0:	6822      	ldr	r2, [r4, #0]
    a1a2:	439a      	bics	r2, r3
    a1a4:	6022      	str	r2, [r4, #0]
    a1a6:	0023      	movs	r3, r4
    a1a8:	2200      	movs	r2, #0
    a1aa:	3343      	adds	r3, #67	; 0x43
    a1ac:	701a      	strb	r2, [r3, #0]
    a1ae:	6863      	ldr	r3, [r4, #4]
    a1b0:	60a3      	str	r3, [r4, #8]
    a1b2:	2b00      	cmp	r3, #0
    a1b4:	db5c      	blt.n	a270 <_printf_i+0x1d0>
    a1b6:	2204      	movs	r2, #4
    a1b8:	6821      	ldr	r1, [r4, #0]
    a1ba:	4391      	bics	r1, r2
    a1bc:	6021      	str	r1, [r4, #0]
    a1be:	2d00      	cmp	r5, #0
    a1c0:	d158      	bne.n	a274 <_printf_i+0x1d4>
    a1c2:	9e04      	ldr	r6, [sp, #16]
    a1c4:	2b00      	cmp	r3, #0
    a1c6:	d064      	beq.n	a292 <_printf_i+0x1f2>
    a1c8:	0026      	movs	r6, r4
    a1ca:	9b03      	ldr	r3, [sp, #12]
    a1cc:	3642      	adds	r6, #66	; 0x42
    a1ce:	781b      	ldrb	r3, [r3, #0]
    a1d0:	7033      	strb	r3, [r6, #0]
    a1d2:	e05e      	b.n	a292 <_printf_i+0x1f2>
    a1d4:	0648      	lsls	r0, r1, #25
    a1d6:	d5da      	bpl.n	a18e <_printf_i+0xee>
    a1d8:	b2ad      	uxth	r5, r5
    a1da:	e7d8      	b.n	a18e <_printf_i+0xee>
    a1dc:	6809      	ldr	r1, [r1, #0]
    a1de:	681a      	ldr	r2, [r3, #0]
    a1e0:	0608      	lsls	r0, r1, #24
    a1e2:	d505      	bpl.n	a1f0 <_printf_i+0x150>
    a1e4:	1d11      	adds	r1, r2, #4
    a1e6:	6019      	str	r1, [r3, #0]
    a1e8:	6813      	ldr	r3, [r2, #0]
    a1ea:	6962      	ldr	r2, [r4, #20]
    a1ec:	601a      	str	r2, [r3, #0]
    a1ee:	e006      	b.n	a1fe <_printf_i+0x15e>
    a1f0:	0649      	lsls	r1, r1, #25
    a1f2:	d5f7      	bpl.n	a1e4 <_printf_i+0x144>
    a1f4:	1d11      	adds	r1, r2, #4
    a1f6:	6019      	str	r1, [r3, #0]
    a1f8:	6813      	ldr	r3, [r2, #0]
    a1fa:	8aa2      	ldrh	r2, [r4, #20]
    a1fc:	801a      	strh	r2, [r3, #0]
    a1fe:	2300      	movs	r3, #0
    a200:	9e04      	ldr	r6, [sp, #16]
    a202:	6123      	str	r3, [r4, #16]
    a204:	e054      	b.n	a2b0 <_printf_i+0x210>
    a206:	681a      	ldr	r2, [r3, #0]
    a208:	1d11      	adds	r1, r2, #4
    a20a:	6019      	str	r1, [r3, #0]
    a20c:	6816      	ldr	r6, [r2, #0]
    a20e:	2100      	movs	r1, #0
    a210:	6862      	ldr	r2, [r4, #4]
    a212:	0030      	movs	r0, r6
    a214:	f000 f908 	bl	a428 <memchr>
    a218:	2800      	cmp	r0, #0
    a21a:	d001      	beq.n	a220 <_printf_i+0x180>
    a21c:	1b80      	subs	r0, r0, r6
    a21e:	6060      	str	r0, [r4, #4]
    a220:	6863      	ldr	r3, [r4, #4]
    a222:	6123      	str	r3, [r4, #16]
    a224:	2300      	movs	r3, #0
    a226:	9a04      	ldr	r2, [sp, #16]
    a228:	7013      	strb	r3, [r2, #0]
    a22a:	e041      	b.n	a2b0 <_printf_i+0x210>
    a22c:	6923      	ldr	r3, [r4, #16]
    a22e:	0032      	movs	r2, r6
    a230:	9906      	ldr	r1, [sp, #24]
    a232:	9805      	ldr	r0, [sp, #20]
    a234:	9d07      	ldr	r5, [sp, #28]
    a236:	47a8      	blx	r5
    a238:	1c43      	adds	r3, r0, #1
    a23a:	d043      	beq.n	a2c4 <_printf_i+0x224>
    a23c:	6823      	ldr	r3, [r4, #0]
    a23e:	2500      	movs	r5, #0
    a240:	079b      	lsls	r3, r3, #30
    a242:	d40f      	bmi.n	a264 <_printf_i+0x1c4>
    a244:	9b09      	ldr	r3, [sp, #36]	; 0x24
    a246:	68e0      	ldr	r0, [r4, #12]
    a248:	4298      	cmp	r0, r3
    a24a:	da3d      	bge.n	a2c8 <_printf_i+0x228>
    a24c:	0018      	movs	r0, r3
    a24e:	e03b      	b.n	a2c8 <_printf_i+0x228>
    a250:	0022      	movs	r2, r4
    a252:	2301      	movs	r3, #1
    a254:	3219      	adds	r2, #25
    a256:	9906      	ldr	r1, [sp, #24]
    a258:	9805      	ldr	r0, [sp, #20]
    a25a:	9e07      	ldr	r6, [sp, #28]
    a25c:	47b0      	blx	r6
    a25e:	1c43      	adds	r3, r0, #1
    a260:	d030      	beq.n	a2c4 <_printf_i+0x224>
    a262:	3501      	adds	r5, #1
    a264:	68e3      	ldr	r3, [r4, #12]
    a266:	9a09      	ldr	r2, [sp, #36]	; 0x24
    a268:	1a9b      	subs	r3, r3, r2
    a26a:	429d      	cmp	r5, r3
    a26c:	dbf0      	blt.n	a250 <_printf_i+0x1b0>
    a26e:	e7e9      	b.n	a244 <_printf_i+0x1a4>
    a270:	2d00      	cmp	r5, #0
    a272:	d0a9      	beq.n	a1c8 <_printf_i+0x128>
    a274:	9e04      	ldr	r6, [sp, #16]
    a276:	0028      	movs	r0, r5
    a278:	0039      	movs	r1, r7
    a27a:	f7ff f863 	bl	9344 <__aeabi_uidivmod>
    a27e:	9b03      	ldr	r3, [sp, #12]
    a280:	3e01      	subs	r6, #1
    a282:	5c5b      	ldrb	r3, [r3, r1]
    a284:	0028      	movs	r0, r5
    a286:	7033      	strb	r3, [r6, #0]
    a288:	0039      	movs	r1, r7
    a28a:	f7fe ffd5 	bl	9238 <__udivsi3>
    a28e:	1e05      	subs	r5, r0, #0
    a290:	d1f1      	bne.n	a276 <_printf_i+0x1d6>
    a292:	2f08      	cmp	r7, #8
    a294:	d109      	bne.n	a2aa <_printf_i+0x20a>
    a296:	6823      	ldr	r3, [r4, #0]
    a298:	07db      	lsls	r3, r3, #31
    a29a:	d506      	bpl.n	a2aa <_printf_i+0x20a>
    a29c:	6863      	ldr	r3, [r4, #4]
    a29e:	6922      	ldr	r2, [r4, #16]
    a2a0:	4293      	cmp	r3, r2
    a2a2:	dc02      	bgt.n	a2aa <_printf_i+0x20a>
    a2a4:	2330      	movs	r3, #48	; 0x30
    a2a6:	3e01      	subs	r6, #1
    a2a8:	7033      	strb	r3, [r6, #0]
    a2aa:	9b04      	ldr	r3, [sp, #16]
    a2ac:	1b9b      	subs	r3, r3, r6
    a2ae:	6123      	str	r3, [r4, #16]
    a2b0:	9b07      	ldr	r3, [sp, #28]
    a2b2:	aa09      	add	r2, sp, #36	; 0x24
    a2b4:	9300      	str	r3, [sp, #0]
    a2b6:	0021      	movs	r1, r4
    a2b8:	9b06      	ldr	r3, [sp, #24]
    a2ba:	9805      	ldr	r0, [sp, #20]
    a2bc:	f7ff fe82 	bl	9fc4 <_printf_common>
    a2c0:	1c43      	adds	r3, r0, #1
    a2c2:	d1b3      	bne.n	a22c <_printf_i+0x18c>
    a2c4:	2001      	movs	r0, #1
    a2c6:	4240      	negs	r0, r0
    a2c8:	b00b      	add	sp, #44	; 0x2c
    a2ca:	bdf0      	pop	{r4, r5, r6, r7, pc}
    a2cc:	0000a5fa 	.word	0x0000a5fa
    a2d0:	0000a5e9 	.word	0x0000a5e9

0000a2d4 <_sbrk_r>:
    a2d4:	2300      	movs	r3, #0
    a2d6:	b570      	push	{r4, r5, r6, lr}
    a2d8:	4c06      	ldr	r4, [pc, #24]	; (a2f4 <_sbrk_r+0x20>)
    a2da:	0005      	movs	r5, r0
    a2dc:	0008      	movs	r0, r1
    a2de:	6023      	str	r3, [r4, #0]
    a2e0:	f7f8 f852 	bl	2388 <_sbrk>
    a2e4:	1c43      	adds	r3, r0, #1
    a2e6:	d103      	bne.n	a2f0 <_sbrk_r+0x1c>
    a2e8:	6823      	ldr	r3, [r4, #0]
    a2ea:	2b00      	cmp	r3, #0
    a2ec:	d000      	beq.n	a2f0 <_sbrk_r+0x1c>
    a2ee:	602b      	str	r3, [r5, #0]
    a2f0:	bd70      	pop	{r4, r5, r6, pc}
    a2f2:	46c0      	nop			; (mov r8, r8)
    a2f4:	200020f4 	.word	0x200020f4

0000a2f8 <__sread>:
    a2f8:	b570      	push	{r4, r5, r6, lr}
    a2fa:	000c      	movs	r4, r1
    a2fc:	250e      	movs	r5, #14
    a2fe:	5f49      	ldrsh	r1, [r1, r5]
    a300:	f000 f8d8 	bl	a4b4 <_read_r>
    a304:	2800      	cmp	r0, #0
    a306:	db03      	blt.n	a310 <__sread+0x18>
    a308:	6d63      	ldr	r3, [r4, #84]	; 0x54
    a30a:	181b      	adds	r3, r3, r0
    a30c:	6563      	str	r3, [r4, #84]	; 0x54
    a30e:	bd70      	pop	{r4, r5, r6, pc}
    a310:	89a3      	ldrh	r3, [r4, #12]
    a312:	4a02      	ldr	r2, [pc, #8]	; (a31c <__sread+0x24>)
    a314:	4013      	ands	r3, r2
    a316:	81a3      	strh	r3, [r4, #12]
    a318:	e7f9      	b.n	a30e <__sread+0x16>
    a31a:	46c0      	nop			; (mov r8, r8)
    a31c:	ffffefff 	.word	0xffffefff

0000a320 <__swrite>:
    a320:	b5f8      	push	{r3, r4, r5, r6, r7, lr}
    a322:	001f      	movs	r7, r3
    a324:	898b      	ldrh	r3, [r1, #12]
    a326:	0005      	movs	r5, r0
    a328:	000c      	movs	r4, r1
    a32a:	0016      	movs	r6, r2
    a32c:	05db      	lsls	r3, r3, #23
    a32e:	d505      	bpl.n	a33c <__swrite+0x1c>
    a330:	230e      	movs	r3, #14
    a332:	5ec9      	ldrsh	r1, [r1, r3]
    a334:	2200      	movs	r2, #0
    a336:	2302      	movs	r3, #2
    a338:	f000 f862 	bl	a400 <_lseek_r>
    a33c:	89a3      	ldrh	r3, [r4, #12]
    a33e:	4a05      	ldr	r2, [pc, #20]	; (a354 <__swrite+0x34>)
    a340:	0028      	movs	r0, r5
    a342:	4013      	ands	r3, r2
    a344:	81a3      	strh	r3, [r4, #12]
    a346:	0032      	movs	r2, r6
    a348:	230e      	movs	r3, #14
    a34a:	5ee1      	ldrsh	r1, [r4, r3]
    a34c:	003b      	movs	r3, r7
    a34e:	f000 f81f 	bl	a390 <_write_r>
    a352:	bdf8      	pop	{r3, r4, r5, r6, r7, pc}
    a354:	ffffefff 	.word	0xffffefff

0000a358 <__sseek>:
    a358:	b570      	push	{r4, r5, r6, lr}
    a35a:	000c      	movs	r4, r1
    a35c:	250e      	movs	r5, #14
    a35e:	5f49      	ldrsh	r1, [r1, r5]
    a360:	f000 f84e 	bl	a400 <_lseek_r>
    a364:	89a3      	ldrh	r3, [r4, #12]
    a366:	1c42      	adds	r2, r0, #1
    a368:	d103      	bne.n	a372 <__sseek+0x1a>
    a36a:	4a05      	ldr	r2, [pc, #20]	; (a380 <__sseek+0x28>)
    a36c:	4013      	ands	r3, r2
    a36e:	81a3      	strh	r3, [r4, #12]
    a370:	bd70      	pop	{r4, r5, r6, pc}
    a372:	2280      	movs	r2, #128	; 0x80
    a374:	0152      	lsls	r2, r2, #5
    a376:	4313      	orrs	r3, r2
    a378:	81a3      	strh	r3, [r4, #12]
    a37a:	6560      	str	r0, [r4, #84]	; 0x54
    a37c:	e7f8      	b.n	a370 <__sseek+0x18>
    a37e:	46c0      	nop			; (mov r8, r8)
    a380:	ffffefff 	.word	0xffffefff

0000a384 <__sclose>:
    a384:	b510      	push	{r4, lr}
    a386:	230e      	movs	r3, #14
    a388:	5ec9      	ldrsh	r1, [r1, r3]
    a38a:	f000 f815 	bl	a3b8 <_close_r>
    a38e:	bd10      	pop	{r4, pc}

0000a390 <_write_r>:
    a390:	b570      	push	{r4, r5, r6, lr}
    a392:	0005      	movs	r5, r0
    a394:	0008      	movs	r0, r1
    a396:	0011      	movs	r1, r2
    a398:	2200      	movs	r2, #0
    a39a:	4c06      	ldr	r4, [pc, #24]	; (a3b4 <_write_r+0x24>)
    a39c:	6022      	str	r2, [r4, #0]
    a39e:	001a      	movs	r2, r3
    a3a0:	f7f7 ffce 	bl	2340 <_write>
    a3a4:	1c43      	adds	r3, r0, #1
    a3a6:	d103      	bne.n	a3b0 <_write_r+0x20>
    a3a8:	6823      	ldr	r3, [r4, #0]
    a3aa:	2b00      	cmp	r3, #0
    a3ac:	d000      	beq.n	a3b0 <_write_r+0x20>
    a3ae:	602b      	str	r3, [r5, #0]
    a3b0:	bd70      	pop	{r4, r5, r6, pc}
    a3b2:	46c0      	nop			; (mov r8, r8)
    a3b4:	200020f4 	.word	0x200020f4

0000a3b8 <_close_r>:
    a3b8:	2300      	movs	r3, #0
    a3ba:	b570      	push	{r4, r5, r6, lr}
    a3bc:	4c06      	ldr	r4, [pc, #24]	; (a3d8 <_close_r+0x20>)
    a3be:	0005      	movs	r5, r0
    a3c0:	0008      	movs	r0, r1
    a3c2:	6023      	str	r3, [r4, #0]
    a3c4:	f7f7 ffee 	bl	23a4 <_close>
    a3c8:	1c43      	adds	r3, r0, #1
    a3ca:	d103      	bne.n	a3d4 <_close_r+0x1c>
    a3cc:	6823      	ldr	r3, [r4, #0]
    a3ce:	2b00      	cmp	r3, #0
    a3d0:	d000      	beq.n	a3d4 <_close_r+0x1c>
    a3d2:	602b      	str	r3, [r5, #0]
    a3d4:	bd70      	pop	{r4, r5, r6, pc}
    a3d6:	46c0      	nop			; (mov r8, r8)
    a3d8:	200020f4 	.word	0x200020f4

0000a3dc <_fstat_r>:
    a3dc:	2300      	movs	r3, #0
    a3de:	b570      	push	{r4, r5, r6, lr}
    a3e0:	4c06      	ldr	r4, [pc, #24]	; (a3fc <_fstat_r+0x20>)
    a3e2:	0005      	movs	r5, r0
    a3e4:	0008      	movs	r0, r1
    a3e6:	0011      	movs	r1, r2
    a3e8:	6023      	str	r3, [r4, #0]
    a3ea:	f7f7 ffdf 	bl	23ac <_fstat>
    a3ee:	1c43      	adds	r3, r0, #1
    a3f0:	d103      	bne.n	a3fa <_fstat_r+0x1e>
    a3f2:	6823      	ldr	r3, [r4, #0]
    a3f4:	2b00      	cmp	r3, #0
    a3f6:	d000      	beq.n	a3fa <_fstat_r+0x1e>
    a3f8:	602b      	str	r3, [r5, #0]
    a3fa:	bd70      	pop	{r4, r5, r6, pc}
    a3fc:	200020f4 	.word	0x200020f4

0000a400 <_lseek_r>:
    a400:	b570      	push	{r4, r5, r6, lr}
    a402:	0005      	movs	r5, r0
    a404:	0008      	movs	r0, r1
    a406:	0011      	movs	r1, r2
    a408:	2200      	movs	r2, #0
    a40a:	4c06      	ldr	r4, [pc, #24]	; (a424 <_lseek_r+0x24>)
    a40c:	6022      	str	r2, [r4, #0]
    a40e:	001a      	movs	r2, r3
    a410:	f7f7 ffd2 	bl	23b8 <_lseek>
    a414:	1c43      	adds	r3, r0, #1
    a416:	d103      	bne.n	a420 <_lseek_r+0x20>
    a418:	6823      	ldr	r3, [r4, #0]
    a41a:	2b00      	cmp	r3, #0
    a41c:	d000      	beq.n	a420 <_lseek_r+0x20>
    a41e:	602b      	str	r3, [r5, #0]
    a420:	bd70      	pop	{r4, r5, r6, pc}
    a422:	46c0      	nop			; (mov r8, r8)
    a424:	200020f4 	.word	0x200020f4

0000a428 <memchr>:
    a428:	b2c9      	uxtb	r1, r1
    a42a:	1882      	adds	r2, r0, r2
    a42c:	4290      	cmp	r0, r2
    a42e:	d101      	bne.n	a434 <memchr+0xc>
    a430:	2000      	movs	r0, #0
    a432:	4770      	bx	lr
    a434:	7803      	ldrb	r3, [r0, #0]
    a436:	428b      	cmp	r3, r1
    a438:	d0fb      	beq.n	a432 <memchr+0xa>
    a43a:	3001      	adds	r0, #1
    a43c:	e7f6      	b.n	a42c <memchr+0x4>

0000a43e <memmove>:
    a43e:	b510      	push	{r4, lr}
    a440:	4288      	cmp	r0, r1
    a442:	d902      	bls.n	a44a <memmove+0xc>
    a444:	188b      	adds	r3, r1, r2
    a446:	4298      	cmp	r0, r3
    a448:	d308      	bcc.n	a45c <memmove+0x1e>
    a44a:	2300      	movs	r3, #0
    a44c:	429a      	cmp	r2, r3
    a44e:	d007      	beq.n	a460 <memmove+0x22>
    a450:	5ccc      	ldrb	r4, [r1, r3]
    a452:	54c4      	strb	r4, [r0, r3]
    a454:	3301      	adds	r3, #1
    a456:	e7f9      	b.n	a44c <memmove+0xe>
    a458:	5c8b      	ldrb	r3, [r1, r2]
    a45a:	5483      	strb	r3, [r0, r2]
    a45c:	3a01      	subs	r2, #1
    a45e:	d2fb      	bcs.n	a458 <memmove+0x1a>
    a460:	bd10      	pop	{r4, pc}

0000a462 <__malloc_lock>:
    a462:	4770      	bx	lr

0000a464 <__malloc_unlock>:
    a464:	4770      	bx	lr

0000a466 <_realloc_r>:
    a466:	b5f8      	push	{r3, r4, r5, r6, r7, lr}
    a468:	0007      	movs	r7, r0
    a46a:	000d      	movs	r5, r1
    a46c:	0016      	movs	r6, r2
    a46e:	2900      	cmp	r1, #0
    a470:	d105      	bne.n	a47e <_realloc_r+0x18>
    a472:	0011      	movs	r1, r2
    a474:	f7ff fbe2 	bl	9c3c <_malloc_r>
    a478:	0004      	movs	r4, r0
    a47a:	0020      	movs	r0, r4
    a47c:	bdf8      	pop	{r3, r4, r5, r6, r7, pc}
    a47e:	2a00      	cmp	r2, #0
    a480:	d103      	bne.n	a48a <_realloc_r+0x24>
    a482:	f7ff fb91 	bl	9ba8 <_free_r>
    a486:	0034      	movs	r4, r6
    a488:	e7f7      	b.n	a47a <_realloc_r+0x14>
    a48a:	f000 f827 	bl	a4dc <_malloc_usable_size_r>
    a48e:	002c      	movs	r4, r5
    a490:	4286      	cmp	r6, r0
    a492:	d9f2      	bls.n	a47a <_realloc_r+0x14>
    a494:	0031      	movs	r1, r6
    a496:	0038      	movs	r0, r7
    a498:	f7ff fbd0 	bl	9c3c <_malloc_r>
    a49c:	1e04      	subs	r4, r0, #0
    a49e:	d0ec      	beq.n	a47a <_realloc_r+0x14>
    a4a0:	0029      	movs	r1, r5
    a4a2:	0032      	movs	r2, r6
    a4a4:	f7ff f89b 	bl	95de <memcpy>
    a4a8:	0029      	movs	r1, r5
    a4aa:	0038      	movs	r0, r7
    a4ac:	f7ff fb7c 	bl	9ba8 <_free_r>
    a4b0:	e7e3      	b.n	a47a <_realloc_r+0x14>
	...

0000a4b4 <_read_r>:
    a4b4:	b570      	push	{r4, r5, r6, lr}
    a4b6:	0005      	movs	r5, r0
    a4b8:	0008      	movs	r0, r1
    a4ba:	0011      	movs	r1, r2
    a4bc:	2200      	movs	r2, #0
    a4be:	4c06      	ldr	r4, [pc, #24]	; (a4d8 <_read_r+0x24>)
    a4c0:	6022      	str	r2, [r4, #0]
    a4c2:	001a      	movs	r2, r3
    a4c4:	f7f7 ff1a 	bl	22fc <_read>
    a4c8:	1c43      	adds	r3, r0, #1
    a4ca:	d103      	bne.n	a4d4 <_read_r+0x20>
    a4cc:	6823      	ldr	r3, [r4, #0]
    a4ce:	2b00      	cmp	r3, #0
    a4d0:	d000      	beq.n	a4d4 <_read_r+0x20>
    a4d2:	602b      	str	r3, [r5, #0]
    a4d4:	bd70      	pop	{r4, r5, r6, pc}
    a4d6:	46c0      	nop			; (mov r8, r8)
    a4d8:	200020f4 	.word	0x200020f4

0000a4dc <_malloc_usable_size_r>:
    a4dc:	1f0b      	subs	r3, r1, #4
    a4de:	681b      	ldr	r3, [r3, #0]
    a4e0:	1f18      	subs	r0, r3, #4
    a4e2:	2b00      	cmp	r3, #0
    a4e4:	da01      	bge.n	a4ea <_malloc_usable_size_r+0xe>
    a4e6:	580b      	ldr	r3, [r1, r0]
    a4e8:	18c0      	adds	r0, r0, r3
    a4ea:	4770      	bx	lr
    a4ec:	42000800 	.word	0x42000800
    a4f0:	42000c00 	.word	0x42000c00
    a4f4:	42001000 	.word	0x42001000
    a4f8:	42001400 	.word	0x42001400
    a4fc:	42001800 	.word	0x42001800
    a500:	42001c00 	.word	0x42001c00
    a504:	000016aa 	.word	0x000016aa
    a508:	000016c2 	.word	0x000016c2
    a50c:	000016c2 	.word	0x000016c2
    a510:	0000166e 	.word	0x0000166e
    a514:	0000166e 	.word	0x0000166e
    a518:	00001674 	.word	0x00001674
    a51c:	0000167a 	.word	0x0000167a
    a520:	00001688 	.word	0x00001688
    a524:	000016b0 	.word	0x000016b0
    a528:	42002c00 	.word	0x42002c00
    a52c:	42003000 	.word	0x42003000
    a530:	42003400 	.word	0x42003400

0000a534 <CSWTCH.8>:
    a534:	00100804 00100804                       ........

0000a53c <CSWTCH.9>:
    a53c:	01000000 00010101                       ........

0000a544 <tc_interrupt_vectors.11908>:
    a544:	00141312 00004b92 00004ba6 00004bb8     .....K...K...K..
    a554:	00004ae6 00004b08 204e4150 726f6f43     .J...K..PAN Coor
    a564:	616e6964 00726f74 2578302d 00583430     dinator.-0x%04X.

0000a574 <_global_impure_ptr>:
    a574:	2000007c                                |.. 

0000a578 <__sf_fake_stderr>:
	...

0000a598 <__sf_fake_stdin>:
	...

0000a5b8 <__sf_fake_stdout>:
	...
    a5d8:	2b302d23 6c680020 6665004c 47464567     #-0+ .hlL.efgEFG
    a5e8:	32313000 36353433 41393837 45444342     .0123456789ABCDE
    a5f8:	31300046 35343332 39383736 64636261     F.0123456789abcd
    a608:	00006665                                ef..

0000a60c <_init>:
    a60c:	b5f8      	push	{r3, r4, r5, r6, r7, lr}
    a60e:	46c0      	nop			; (mov r8, r8)
    a610:	bcf8      	pop	{r3, r4, r5, r6, r7}
    a612:	bc08      	pop	{r3}
    a614:	469e      	mov	lr, r3
    a616:	4770      	bx	lr

0000a618 <__init_array_start>:
    a618:	000000dd 	.word	0x000000dd

0000a61c <_fini>:
    a61c:	b5f8      	push	{r3, r4, r5, r6, r7, lr}
    a61e:	46c0      	nop			; (mov r8, r8)
    a620:	bcf8      	pop	{r3, r4, r5, r6, r7}
    a622:	bc08      	pop	{r3}
    a624:	469e      	mov	lr, r3
    a626:	4770      	bx	lr

0000a628 <__fini_array_start>:
    a628:	000000b5 	.word	0x000000b5
